ARM GAS  /tmp/cc4hs1Jk.s 			page 1


   1              		.syntax unified
   2              		.cpu cortex-m4
   3              		.fpu softvfp
   4              		.eabi_attribute 20, 1
   5              		.eabi_attribute 21, 1
   6              		.eabi_attribute 23, 3
   7              		.eabi_attribute 24, 1
   8              		.eabi_attribute 25, 1
   9              		.eabi_attribute 26, 1
  10              		.eabi_attribute 30, 2
  11              		.eabi_attribute 34, 1
  12              		.eabi_attribute 18, 4
  13              		.thumb
  14              		.syntax unified
  15              		.file	"chcore_v7m.c"
  16              		.text
  17              	.Ltext0:
  18              		.cfi_sections	.debug_frame
  19              		.section	.text._port_switch_from_isr,"ax",%progbits
  20              		.align	2
  21              		.p2align 4,,15
  22              		.global	_port_switch_from_isr
  23              		.thumb
  24              		.thumb_func
  25              		.type	_port_switch_from_isr, %function
  26              	_port_switch_from_isr:
  27              	.LFB11:
  28              		.file 1 "../../os/ports/GCC/ARMCMx/chcore_v7m.c"
  29              		.loc 1 200 0
  30              		.cfi_startproc
  31              		@ Naked Function: prologue and epilogue provided by programmer.
  32              		@ args = 0, pretend = 0, frame = 0
  33              		@ frame_needed = 0, uses_anonymous_args = 0
  34              		.loc 1 203 0
  35 0000 FFF7FEFF 		bl	chSchDoReschedule
  36              	.LVL0:
  37              		.loc 1 205 0
  38              		.syntax unified
  39              	@ 205 "../../os/ports/GCC/ARMCMx/chcore_v7m.c" 1
  40              		_port_exit_from_isr:
  41              	@ 0 "" 2
  42              		.loc 1 207 0
  43              	@ 207 "../../os/ports/GCC/ARMCMx/chcore_v7m.c" 1
  44 0004 00DF     		svc     #0
  45              	@ 0 "" 2
  46              		.loc 1 214 0
  47              		.thumb
  48              		.syntax unified
  49              		.cfi_endproc
  50              	.LFE11:
  51              		.size	_port_switch_from_isr, .-_port_switch_from_isr
  52 0006 00BF     		.section	.text.SVCallVector,"ax",%progbits
  53              		.align	2
  54              		.p2align 4,,15
  55              		.global	SVCallVector
  56              		.thumb
  57              		.thumb_func
ARM GAS  /tmp/cc4hs1Jk.s 			page 2


  58              		.type	SVCallVector, %function
  59              	SVCallVector:
  60              	.LFB8:
  61              		.loc 1 65 0
  62              		.cfi_startproc
  63              		@ args = 0, pretend = 0, frame = 0
  64              		@ frame_needed = 0, uses_anonymous_args = 0
  65              		@ link register save eliminated.
  66              		.loc 1 74 0
  67              		.syntax unified
  68              	@ 74 "../../os/ports/GCC/ARMCMx/chcore_v7m.c" 1
  69 0000 EFF30983 		mrs     r3, PSP
  70              	@ 0 "" 2
  71              	.LVL1:
  72              		.loc 1 81 0
  73              		.thumb
  74              		.syntax unified
  75 0004 2033     		adds	r3, r3, #32
  76              	.LVL2:
  77              		.syntax unified
  78              	@ 81 "../../os/ports/GCC/ARMCMx/chcore_v7m.c" 1
  79 0006 83F30988 		msr     PSP, r3
  80              	@ 0 "" 2
  81              		.thumb
  82              		.syntax unified
  83              	.LBB5:
  84              		.loc 1 82 0
  85 000a 0023     		movs	r3, #0
  86              	.LVL3:
  87              		.syntax unified
  88              	@ 82 "../../os/ports/GCC/ARMCMx/chcore_v7m.c" 1
  89 000c 83F31188 		msr     BASEPRI, r3
  90              	@ 0 "" 2
  91              		.thumb
  92              		.syntax unified
  93 0010 7047     		bx	lr
  94              	.LBE5:
  95              		.cfi_endproc
  96              	.LFE8:
  97              		.size	SVCallVector, .-SVCallVector
  98 0012 00BF     		.section	.text._port_init,"ax",%progbits
  99              		.align	2
 100              		.p2align 4,,15
 101              		.global	_port_init
 102              		.thumb
 103              		.thumb_func
 104              		.type	_port_init, %function
 105              	_port_init:
 106              	.LFB9:
 107              		.loc 1 120 0
 108              		.cfi_startproc
 109              		@ args = 0, pretend = 0, frame = 0
 110              		@ frame_needed = 0, uses_anonymous_args = 0
 111 0000 08B5     		push	{r3, lr}
 112              		.cfi_def_cfa_offset 8
 113              		.cfi_offset 3, -8
 114              		.cfi_offset 14, -4
ARM GAS  /tmp/cc4hs1Jk.s 			page 3


 115              		.loc 1 123 0
 116 0002 094B     		ldr	r3, .L5
 117              		.loc 1 124 0
 118 0004 094A     		ldr	r2, .L5+4
 119              		.loc 1 123 0
 120 0006 0021     		movs	r1, #0
 121 0008 9960     		str	r1, [r3, #8]
 122              		.loc 1 127 0
 123 000a 0720     		movs	r0, #7
 124              		.loc 1 124 0
 125 000c DA60     		str	r2, [r3, #12]
 126              		.loc 1 127 0
 127 000e 1021     		movs	r1, #16
 128 0010 FFF7FEFF 		bl	nvicSetSystemHandlerPriority
 129              	.LVL4:
 130              		.loc 1 129 0
 131 0014 2021     		movs	r1, #32
 132 0016 0A20     		movs	r0, #10
 133 0018 FFF7FEFF 		bl	nvicSetSystemHandlerPriority
 134              	.LVL5:
 135              		.loc 1 131 0
 136 001c 8021     		movs	r1, #128
 137 001e 0B20     		movs	r0, #11
 138              		.loc 1 133 0
 139 0020 BDE80840 		pop	{r3, lr}
 140              		.cfi_restore 14
 141              		.cfi_restore 3
 142              		.cfi_def_cfa_offset 0
 143              		.loc 1 131 0
 144 0024 FFF7FEBF 		b	nvicSetSystemHandlerPriority
 145              	.LVL6:
 146              	.L6:
 147              		.align	2
 148              	.L5:
 149 0028 00ED00E0 		.word	-536810240
 150 002c 0003FA05 		.word	100270848
 151              		.cfi_endproc
 152              	.LFE9:
 153              		.size	_port_init, .-_port_init
 154              		.section	.text._port_irq_epilogue,"ax",%progbits
 155              		.align	2
 156              		.p2align 4,,15
 157              		.global	_port_irq_epilogue
 158              		.thumb
 159              		.thumb_func
 160              		.type	_port_irq_epilogue, %function
 161              	_port_irq_epilogue:
 162              	.LFB10:
 163              		.loc 1 150 0
 164              		.cfi_startproc
 165              		@ args = 0, pretend = 0, frame = 0
 166              		@ frame_needed = 0, uses_anonymous_args = 0
 167              		@ link register save eliminated.
 168              	.LBB13:
 169              		.loc 1 152 0
 170 0000 2023     		movs	r3, #32
 171              		.syntax unified
ARM GAS  /tmp/cc4hs1Jk.s 			page 4


 172              	@ 152 "../../os/ports/GCC/ARMCMx/chcore_v7m.c" 1
 173 0002 83F31188 		msr     BASEPRI, r3
 174              	@ 0 "" 2
 175              		.thumb
 176              		.syntax unified
 177              	.LBE13:
 178              		.loc 1 153 0
 179 0006 174B     		ldr	r3, .L15
 180 0008 5B68     		ldr	r3, [r3, #4]
 181 000a 13F40063 		ands	r3, r3, #2048
 182 000e 19D0     		beq	.L8
 183              	.LBB14:
 184              	.LBB15:
 185              		.loc 1 163 0
 186              		.syntax unified
 187              	@ 163 "../../os/ports/GCC/ARMCMx/chcore_v7m.c" 1
 188 0010 EFF30983 		mrs     r3, PSP
 189              	@ 0 "" 2
 190              	.LVL7:
 191              		.loc 1 168 0
 192              		.thumb
 193              		.syntax unified
 194 0014 4FF08072 		mov	r2, #16777216
 195 0018 43F8042C 		str	r2, [r3, #-4]
 196              		.loc 1 172 0
 197 001c A3F12002 		sub	r2, r3, #32
 198              	.LVL8:
 199              		.syntax unified
 200              	@ 172 "../../os/ports/GCC/ARMCMx/chcore_v7m.c" 1
 201 0020 82F30988 		msr     PSP, r2
 202              	@ 0 "" 2
 203              		.loc 1 176 0
 204              		.thumb
 205              		.syntax unified
 206 0024 1049     		ldr	r1, .L15+4
 207 0026 8A69     		ldr	r2, [r1, #24]
 208              	.LVL9:
 209 0028 D07F     		ldrb	r0, [r2, #31]	@ zero_extendqisi2
 210 002a 70B1     		cbz	r0, .L9
 211 002c 0868     		ldr	r0, [r1]
 212 002e 9168     		ldr	r1, [r2, #8]
 213 0030 8268     		ldr	r2, [r0, #8]
 214 0032 8A42     		cmp	r2, r1
 215 0034 94BF     		ite	ls
 216 0036 0022     		movls	r2, #0
 217 0038 0122     		movhi	r2, #1
 218 003a 7AB1     		cbz	r2, .L11
 219              	.L14:
 220              		.loc 1 178 0
 221 003c 0B4A     		ldr	r2, .L15+8
 222 003e 43F8082C 		str	r2, [r3, #-8]
 223 0042 7047     		bx	lr
 224              	.LVL10:
 225              	.L8:
 226              	.LBE15:
 227              	.LBE14:
 228              	.LBB17:
ARM GAS  /tmp/cc4hs1Jk.s 			page 5


 229              		.loc 1 190 0
 230              		.syntax unified
 231              	@ 190 "../../os/ports/GCC/ARMCMx/chcore_v7m.c" 1
 232 0044 83F31188 		msr     BASEPRI, r3
 233              	@ 0 "" 2
 234              		.thumb
 235              		.syntax unified
 236 0048 7047     		bx	lr
 237              	.LVL11:
 238              	.L9:
 239              	.LBE17:
 240              	.LBB18:
 241              	.LBB16:
 242              		.loc 1 176 0
 243 004a 0868     		ldr	r0, [r1]
 244 004c 9168     		ldr	r1, [r2, #8]
 245 004e 8268     		ldr	r2, [r0, #8]
 246 0050 8A42     		cmp	r2, r1
 247 0052 34BF     		ite	cc
 248 0054 0022     		movcc	r2, #0
 249 0056 0122     		movcs	r2, #1
 250 0058 002A     		cmp	r2, #0
 251 005a EFD1     		bne	.L14
 252              	.L11:
 253              		.loc 1 183 0
 254 005c 044A     		ldr	r2, .L15+12
 255 005e 43F8082C 		str	r2, [r3, #-8]
 256 0062 7047     		bx	lr
 257              	.L16:
 258              		.align	2
 259              	.L15:
 260 0064 00ED00E0 		.word	-536810240
 261 0068 00000000 		.word	rlist
 262 006c 00000000 		.word	_port_switch_from_isr
 263 0070 04000000 		.word	_port_exit_from_isr
 264              	.LBE16:
 265              	.LBE18:
 266              		.cfi_endproc
 267              	.LFE10:
 268              		.size	_port_irq_epilogue, .-_port_irq_epilogue
 269              		.section	.text.SysTickVector,"ax",%progbits
 270              		.align	2
 271              		.p2align 4,,15
 272              		.global	SysTickVector
 273              		.thumb
 274              		.thumb_func
 275              		.type	SysTickVector, %function
 276              	SysTickVector:
 277              	.LFB7:
 278              		.loc 1 47 0
 279              		.cfi_startproc
 280              		@ args = 0, pretend = 0, frame = 0
 281              		@ frame_needed = 0, uses_anonymous_args = 0
 282 0000 08B5     		push	{r3, lr}
 283              		.cfi_def_cfa_offset 8
 284              		.cfi_offset 3, -8
 285              		.cfi_offset 14, -4
ARM GAS  /tmp/cc4hs1Jk.s 			page 6


 286              	.LBB19:
 287              		.loc 1 51 0
 288 0002 2023     		movs	r3, #32
 289              		.syntax unified
 290              	@ 51 "../../os/ports/GCC/ARMCMx/chcore_v7m.c" 1
 291 0004 83F31188 		msr     BASEPRI, r3
 292              	@ 0 "" 2
 293              		.thumb
 294              		.syntax unified
 295              	.LBE19:
 296              		.loc 1 52 0
 297 0008 FFF7FEFF 		bl	chSysTimerHandlerI
 298              	.LVL12:
 299              	.LBB20:
 300              		.loc 1 53 0
 301 000c 0023     		movs	r3, #0
 302              		.syntax unified
 303              	@ 53 "../../os/ports/GCC/ARMCMx/chcore_v7m.c" 1
 304 000e 83F31188 		msr     BASEPRI, r3
 305              	@ 0 "" 2
 306              		.thumb
 307              		.syntax unified
 308              	.LBE20:
 309              		.loc 1 56 0
 310 0012 BDE80840 		pop	{r3, lr}
 311              		.cfi_restore 14
 312              		.cfi_restore 3
 313              		.cfi_def_cfa_offset 0
 314              		.loc 1 55 0
 315 0016 FFF7FEBF 		b	_port_irq_epilogue
 316              	.LVL13:
 317              		.cfi_endproc
 318              	.LFE7:
 319              		.size	SysTickVector, .-SysTickVector
 320 001a 00BF     		.section	.text._port_switch,"ax",%progbits
 321              		.align	2
 322              		.p2align 4,,15
 323              		.global	_port_switch
 324              		.thumb
 325              		.thumb_func
 326              		.type	_port_switch, %function
 327              	_port_switch:
 328              	.LFB12:
 329              		.loc 1 229 0
 330              		.cfi_startproc
 331              		@ Naked Function: prologue and epilogue provided by programmer.
 332              		@ args = 0, pretend = 0, frame = 0
 333              		@ frame_needed = 0, uses_anonymous_args = 0
 334              	.LVL14:
 335              		.loc 1 231 0
 336              		.syntax unified
 337              	@ 231 "../../os/ports/GCC/ARMCMx/chcore_v7m.c" 1
 338 0000 2DE9F04F 		push    {r4, r5, r6, r7, r8, r9, r10, r11, lr}
 339              	@ 0 "" 2
 340              		.loc 1 237 0
 341              	@ 237 "../../os/ports/GCC/ARMCMx/chcore_v7m.c" 1
 342 0004 C1F80CD0 		str     sp, [r1, #12]                          
ARM GAS  /tmp/cc4hs1Jk.s 			page 7


 343 0008 D0F80CD0 		ldr     sp, [r0, #12]
 344              	@ 0 "" 2
 345              		.loc 1 243 0
 346              	@ 243 "../../os/ports/GCC/ARMCMx/chcore_v7m.c" 1
 347 000c BDE8F08F 		pop     {r4, r5, r6, r7, r8, r9, r10, r11, pc}
 348              	@ 0 "" 2
 349              		.loc 1 245 0
 350              		.thumb
 351              		.syntax unified
 352              		.cfi_endproc
 353              	.LFE12:
 354              		.size	_port_switch, .-_port_switch
 355              		.section	.text._port_thread_start,"ax",%progbits
 356              		.align	2
 357              		.p2align 4,,15
 358              		.global	_port_thread_start
 359              		.thumb
 360              		.thumb_func
 361              		.type	_port_thread_start, %function
 362              	_port_thread_start:
 363              	.LFB13:
 364              		.loc 1 252 0
 365              		.cfi_startproc
 366              		@ args = 0, pretend = 0, frame = 0
 367              		@ frame_needed = 0, uses_anonymous_args = 0
 368              		@ link register save eliminated.
 369              	.LBB21:
 370              		.loc 1 254 0
 371 0000 0023     		movs	r3, #0
 372              		.syntax unified
 373              	@ 254 "../../os/ports/GCC/ARMCMx/chcore_v7m.c" 1
 374 0002 83F31188 		msr     BASEPRI, r3
 375              	@ 0 "" 2
 376              		.thumb
 377              		.syntax unified
 378              	.LBE21:
 379              		.loc 1 255 0
 380              		.syntax unified
 381              	@ 255 "../../os/ports/GCC/ARMCMx/chcore_v7m.c" 1
 382 0006 2846     		mov     r0, r5                                 
 383 0008 A047     		blx     r4                                     
 384 000a FFF7FEFF 		bl      chThdExit
 385              	@ 0 "" 2
 386              		.thumb
 387              		.syntax unified
 388 000e 7047     		bx	lr
 389              		.cfi_endproc
 390              	.LFE13:
 391              		.size	_port_thread_start, .-_port_thread_start
 392              		.text
 393              	.Letext0:
 394              		.file 2 "/home/lithium/Descargas/gcc-arm-none-eabi-5_3-2016q1/arm-none-eabi/include/machine/_defau
 395              		.file 3 "/home/lithium/Descargas/gcc-arm-none-eabi-5_3-2016q1/arm-none-eabi/include/sys/_stdint.h"
 396              		.file 4 "../../os/ports/GCC/ARMCMx/chtypes.h"
 397              		.file 5 "../../os/kernel/include/chlists.h"
 398              		.file 6 "../../os/kernel/include/chthreads.h"
 399              		.file 7 "../../os/ports/GCC/ARMCMx/chcore_v7m.h"
ARM GAS  /tmp/cc4hs1Jk.s 			page 8


 400              		.file 8 "../../os/ports/common/ARMCMx/nvic.h"
 401              		.file 9 "../../os/kernel/include/chschd.h"
 402              		.file 10 "../../os/kernel/include/chmtx.h"
 403              		.file 11 "../../os/kernel/include/chsys.h"