ARM GAS  /tmp/cc9oJexF.s 			page 1


   1              		.syntax unified
   2              		.cpu cortex-m4
   3              		.fpu softvfp
   4              		.eabi_attribute 20, 1
   5              		.eabi_attribute 21, 1
   6              		.eabi_attribute 23, 3
   7              		.eabi_attribute 24, 1
   8              		.eabi_attribute 25, 1
   9              		.eabi_attribute 26, 1
  10              		.eabi_attribute 30, 2
  11              		.eabi_attribute 34, 1
  12              		.eabi_attribute 18, 4
  13              		.thumb
  14              		.syntax unified
  15              		.file	"chdynamic.c"
  16              		.text
  17              	.Ltext0:
  18              		.cfi_sections	.debug_frame
  19              		.section	.text.chThdAddRef,"ax",%progbits
  20              		.align	2
  21              		.p2align 4,,15
  22              		.global	chThdAddRef
  23              		.thumb
  24              		.thumb_func
  25              		.type	chThdAddRef, %function
  26              	chThdAddRef:
  27              	.LFB7:
  28              		.file 1 "../../os/kernel/src/chdynamic.c"
  29              		.loc 1 52 0
  30              		.cfi_startproc
  31              		@ args = 0, pretend = 0, frame = 0
  32              		@ frame_needed = 0, uses_anonymous_args = 0
  33              		@ link register save eliminated.
  34              	.LVL0:
  35              	.LBB2:
  36              		.loc 1 54 0
  37 0000 2023     		movs	r3, #32
  38              		.syntax unified
  39              	@ 54 "../../os/kernel/src/chdynamic.c" 1
  40 0002 83F31188 		msr     BASEPRI, r3
  41              	@ 0 "" 2
  42              		.thumb
  43              		.syntax unified
  44              	.LBE2:
  45              		.loc 1 56 0
  46 0006 837F     		ldrb	r3, [r0, #30]	@ zero_extendqisi2
  47 0008 0133     		adds	r3, r3, #1
  48 000a 8377     		strb	r3, [r0, #30]
  49              	.LBB3:
  50              		.loc 1 57 0
  51 000c 0023     		movs	r3, #0
  52              		.syntax unified
  53              	@ 57 "../../os/kernel/src/chdynamic.c" 1
  54 000e 83F31188 		msr     BASEPRI, r3
  55              	@ 0 "" 2
  56              		.thumb
  57              		.syntax unified
ARM GAS  /tmp/cc9oJexF.s 			page 2


  58              	.LBE3:
  59              		.loc 1 59 0
  60 0012 7047     		bx	lr
  61              		.cfi_endproc
  62              	.LFE7:
  63              		.size	chThdAddRef, .-chThdAddRef
  64              		.section	.text.chThdRelease,"ax",%progbits
  65              		.align	2
  66              		.p2align 4,,15
  67              		.global	chThdRelease
  68              		.thumb
  69              		.thumb_func
  70              		.type	chThdRelease, %function
  71              	chThdRelease:
  72              	.LFB8:
  73              		.loc 1 74 0
  74              		.cfi_startproc
  75              		@ args = 0, pretend = 0, frame = 0
  76              		@ frame_needed = 0, uses_anonymous_args = 0
  77              		@ link register save eliminated.
  78              	.LVL1:
  79              		.loc 1 74 0
  80 0000 0146     		mov	r1, r0
  81              	.LBB4:
  82              		.loc 1 77 0
  83 0002 2023     		movs	r3, #32
  84              		.syntax unified
  85              	@ 77 "../../os/kernel/src/chdynamic.c" 1
  86 0004 83F31188 		msr     BASEPRI, r3
  87              	@ 0 "" 2
  88              		.thumb
  89              		.syntax unified
  90              	.LBE4:
  91              		.loc 1 79 0
  92 0008 827F     		ldrb	r2, [r0, #30]	@ zero_extendqisi2
  93 000a 013A     		subs	r2, r2, #1
  94 000c D2B2     		uxtb	r2, r2
  95 000e 8277     		strb	r2, [r0, #30]
  96              	.LVL2:
  97              	.LBB5:
  98              		.loc 1 80 0
  99 0010 0023     		movs	r3, #0
 100              		.syntax unified
 101              	@ 80 "../../os/kernel/src/chdynamic.c" 1
 102 0012 83F31188 		msr     BASEPRI, r3
 103              	@ 0 "" 2
 104              		.thumb
 105              		.syntax unified
 106              	.LBE5:
 107              		.loc 1 85 0
 108 0016 12B9     		cbnz	r2, .L2
 109              		.loc 1 85 0 is_stmt 0 discriminator 1
 110 0018 037F     		ldrb	r3, [r0, #28]	@ zero_extendqisi2
 111 001a 0E2B     		cmp	r3, #14
 112 001c 00D0     		beq	.L7
 113              	.L2:
 114 001e 7047     		bx	lr
ARM GAS  /tmp/cc9oJexF.s 			page 3


 115              	.L7:
 116              		.loc 1 86 0 is_stmt 1
 117 0020 437F     		ldrb	r3, [r0, #29]	@ zero_extendqisi2
 118 0022 03F00303 		and	r3, r3, #3
 119 0026 012B     		cmp	r3, #1
 120 0028 02D0     		beq	.L4
 121 002a 022B     		cmp	r3, #2
 122 002c 07D0     		beq	.L5
 123 002e 7047     		bx	lr
 124              	.L4:
 125              		.loc 1 90 0
 126 0030 4369     		ldr	r3, [r0, #20]
 127 0032 0269     		ldr	r2, [r0, #16]
 128              	.LVL3:
 129 0034 1A61     		str	r2, [r3, #16]
 130              	.LVL4:
 131 0036 0269     		ldr	r2, [r0, #16]
 132 0038 5361     		str	r3, [r2, #20]
 133              		.loc 1 92 0
 134 003a FFF7FEBF 		b	chHeapFree
 135              	.LVL5:
 136              	.L5:
 137              		.loc 1 98 0
 138 003e 4369     		ldr	r3, [r0, #20]
 139 0040 0269     		ldr	r2, [r0, #16]
 140              	.LVL6:
 141 0042 1A61     		str	r2, [r3, #16]
 142              	.LVL7:
 143 0044 0269     		ldr	r2, [r0, #16]
 144              		.loc 1 100 0
 145 0046 406C     		ldr	r0, [r0, #68]
 146              	.LVL8:
 147              		.loc 1 98 0
 148 0048 5361     		str	r3, [r2, #20]
 149              		.loc 1 100 0
 150 004a FFF7FEBF 		b	chPoolFree
 151              	.LVL9:
 152              		.cfi_endproc
 153              	.LFE8:
 154              		.size	chThdRelease, .-chThdRelease
 155 004e 00BF     		.section	.text.chThdCreateFromHeap,"ax",%progbits
 156              		.align	2
 157              		.p2align 4,,15
 158              		.global	chThdCreateFromHeap
 159              		.thumb
 160              		.thumb_func
 161              		.type	chThdCreateFromHeap, %function
 162              	chThdCreateFromHeap:
 163              	.LFB9:
 164              		.loc 1 131 0
 165              		.cfi_startproc
 166              		@ args = 4, pretend = 0, frame = 0
 167              		@ frame_needed = 0, uses_anonymous_args = 0
 168              	.LVL10:
 169 0000 F0B5     		push	{r4, r5, r6, r7, lr}
 170              		.cfi_def_cfa_offset 20
 171              		.cfi_offset 4, -20
ARM GAS  /tmp/cc9oJexF.s 			page 4


 172              		.cfi_offset 5, -16
 173              		.cfi_offset 6, -12
 174              		.cfi_offset 7, -8
 175              		.cfi_offset 14, -4
 176 0002 83B0     		sub	sp, sp, #12
 177              		.cfi_def_cfa_offset 32
 178              		.loc 1 131 0
 179 0004 1646     		mov	r6, r2
 180 0006 1F46     		mov	r7, r3
 181 0008 0D46     		mov	r5, r1
 182              		.loc 1 135 0
 183 000a FFF7FEFF 		bl	chHeapAlloc
 184              	.LVL11:
 185              		.loc 1 136 0
 186 000e 98B1     		cbz	r0, .L9
 187              	.LBB6:
 188              		.loc 1 148 0
 189 0010 2023     		movs	r3, #32
 190              		.syntax unified
 191              	@ 148 "../../os/kernel/src/chdynamic.c" 1
 192 0012 83F31188 		msr     BASEPRI, r3
 193              	@ 0 "" 2
 194              		.thumb
 195              		.syntax unified
 196              	.LBE6:
 197              		.loc 1 149 0
 198 0016 089B     		ldr	r3, [sp, #32]
 199 0018 0093     		str	r3, [sp]
 200 001a 3246     		mov	r2, r6
 201 001c 3B46     		mov	r3, r7
 202 001e 2946     		mov	r1, r5
 203 0020 FFF7FEFF 		bl	chThdCreateI
 204              	.LVL12:
 205              		.loc 1 150 0
 206 0024 0123     		movs	r3, #1
 207 0026 4377     		strb	r3, [r0, #29]
 208              		.loc 1 151 0
 209 0028 0021     		movs	r1, #0
 210              		.loc 1 149 0
 211 002a 0446     		mov	r4, r0
 212              	.LVL13:
 213              		.loc 1 151 0
 214 002c FFF7FEFF 		bl	chSchWakeupS
 215              	.LVL14:
 216              	.LBB7:
 217              		.loc 1 152 0
 218 0030 0023     		movs	r3, #0
 219              		.syntax unified
 220              	@ 152 "../../os/kernel/src/chdynamic.c" 1
 221 0032 83F31188 		msr     BASEPRI, r3
 222              	@ 0 "" 2
 223              		.thumb
 224              		.syntax unified
 225              	.LBE7:
 226              		.loc 1 153 0
 227 0036 2046     		mov	r0, r4
 228              	.LVL15:
ARM GAS  /tmp/cc9oJexF.s 			page 5


 229              	.L9:
 230              		.loc 1 154 0
 231 0038 03B0     		add	sp, sp, #12
 232              		.cfi_def_cfa_offset 20
 233              		@ sp needed
 234 003a F0BD     		pop	{r4, r5, r6, r7, pc}
 235              		.cfi_endproc
 236              	.LFE9:
 237              		.size	chThdCreateFromHeap, .-chThdCreateFromHeap
 238              		.section	.text.chThdCreateFromMemoryPool,"ax",%progbits
 239              		.align	2
 240              		.p2align 4,,15
 241              		.global	chThdCreateFromMemoryPool
 242              		.thumb
 243              		.thumb_func
 244              		.type	chThdCreateFromMemoryPool, %function
 245              	chThdCreateFromMemoryPool:
 246              	.LFB10:
 247              		.loc 1 180 0
 248              		.cfi_startproc
 249              		@ args = 0, pretend = 0, frame = 0
 250              		@ frame_needed = 0, uses_anonymous_args = 0
 251              	.LVL16:
 252 0000 2DE9F041 		push	{r4, r5, r6, r7, r8, lr}
 253              		.cfi_def_cfa_offset 24
 254              		.cfi_offset 4, -24
 255              		.cfi_offset 5, -20
 256              		.cfi_offset 6, -16
 257              		.cfi_offset 7, -12
 258              		.cfi_offset 8, -8
 259              		.cfi_offset 14, -4
 260 0004 82B0     		sub	sp, sp, #8
 261              		.cfi_def_cfa_offset 32
 262              		.loc 1 180 0
 263 0006 0E46     		mov	r6, r1
 264 0008 1746     		mov	r7, r2
 265 000a 9846     		mov	r8, r3
 266 000c 0546     		mov	r5, r0
 267              		.loc 1 186 0
 268 000e FFF7FEFF 		bl	chPoolAlloc
 269              	.LVL17:
 270              		.loc 1 187 0
 271 0012 A0B1     		cbz	r0, .L13
 272              	.LBB8:
 273              		.loc 1 199 0
 274 0014 2023     		movs	r3, #32
 275              		.syntax unified
 276              	@ 199 "../../os/kernel/src/chdynamic.c" 1
 277 0016 83F31188 		msr     BASEPRI, r3
 278              	@ 0 "" 2
 279              		.thumb
 280              		.syntax unified
 281              	.LBE8:
 282              		.loc 1 200 0
 283 001a 6968     		ldr	r1, [r5, #4]
 284 001c CDF80080 		str	r8, [sp]
 285 0020 3B46     		mov	r3, r7
ARM GAS  /tmp/cc9oJexF.s 			page 6


 286 0022 3246     		mov	r2, r6
 287 0024 FFF7FEFF 		bl	chThdCreateI
 288              	.LVL18:
 289              		.loc 1 201 0
 290 0028 0223     		movs	r3, #2
 291 002a 4377     		strb	r3, [r0, #29]
 292              		.loc 1 202 0
 293 002c 4564     		str	r5, [r0, #68]
 294              		.loc 1 203 0
 295 002e 0021     		movs	r1, #0
 296              		.loc 1 200 0
 297 0030 0446     		mov	r4, r0
 298              	.LVL19:
 299              		.loc 1 203 0
 300 0032 FFF7FEFF 		bl	chSchWakeupS
 301              	.LVL20:
 302              	.LBB9:
 303              		.loc 1 204 0
 304 0036 0023     		movs	r3, #0
 305              		.syntax unified
 306              	@ 204 "../../os/kernel/src/chdynamic.c" 1
 307 0038 83F31188 		msr     BASEPRI, r3
 308              	@ 0 "" 2
 309              		.thumb
 310              		.syntax unified
 311              	.LBE9:
 312              		.loc 1 205 0
 313 003c 2046     		mov	r0, r4
 314              	.LVL21:
 315              	.L13:
 316              		.loc 1 206 0
 317 003e 02B0     		add	sp, sp, #8
 318              		.cfi_def_cfa_offset 24
 319              		@ sp needed
 320 0040 BDE8F081 		pop	{r4, r5, r6, r7, r8, pc}
 321              		.cfi_endproc
 322              	.LFE10:
 323              		.size	chThdCreateFromMemoryPool, .-chThdCreateFromMemoryPool
 324              		.text
 325              	.Letext0:
 326              		.file 2 "/home/lithium/Descargas/gcc-arm-none-eabi-5_3-2016q1/lib/gcc/arm-none-eabi/5.3.1/include/
 327              		.file 3 "/home/lithium/Descargas/gcc-arm-none-eabi-5_3-2016q1/arm-none-eabi/include/machine/_defau
 328              		.file 4 "/home/lithium/Descargas/gcc-arm-none-eabi-5_3-2016q1/arm-none-eabi/include/sys/_stdint.h"
 329              		.file 5 "../../os/ports/GCC/ARMCMx/chtypes.h"
 330              		.file 6 "../../os/kernel/include/chlists.h"
 331              		.file 7 "../../os/kernel/include/chthreads.h"
 332              		.file 8 "../../os/ports/GCC/ARMCMx/chcore_v7m.h"
 333              		.file 9 "../../os/kernel/include/chmtx.h"
 334              		.file 10 "../../os/kernel/include/chmemcore.h"
 335              		.file 11 "../../os/kernel/include/chheap.h"
 336              		.file 12 "../../os/kernel/include/chmempools.h"
 337              		.file 13 "../../os/kernel/include/chschd.h"