ARM GAS  /tmp/ccdEtKVj.s 			page 1


   1              		.syntax unified
   2              		.cpu cortex-m4
   3              		.fpu softvfp
   4              		.eabi_attribute 20, 1
   5              		.eabi_attribute 21, 1
   6              		.eabi_attribute 23, 3
   7              		.eabi_attribute 24, 1
   8              		.eabi_attribute 25, 1
   9              		.eabi_attribute 26, 1
  10              		.eabi_attribute 30, 2
  11              		.eabi_attribute 34, 1
  12              		.eabi_attribute 18, 4
  13              		.thumb
  14              		.syntax unified
  15              		.file	"pwm.c"
  16              		.text
  17              	.Ltext0:
  18              		.cfi_sections	.debug_frame
  19              		.section	.text.pwmInit,"ax",%progbits
  20              		.align	2
  21              		.p2align 4,,15
  22              		.global	pwmInit
  23              		.thumb
  24              		.thumb_func
  25              		.type	pwmInit, %function
  26              	pwmInit:
  27              	.LFB118:
  28              		.file 1 "../../os/hal/src/pwm.c"
  29              		.loc 1 68 0
  30              		.cfi_startproc
  31              		@ args = 0, pretend = 0, frame = 0
  32              		@ frame_needed = 0, uses_anonymous_args = 0
  33              		@ link register save eliminated.
  34              		.loc 1 70 0
  35 0000 FFF7FEBF 		b	pwm_lld_init
  36              	.LVL0:
  37              		.cfi_endproc
  38              	.LFE118:
  39              		.size	pwmInit, .-pwmInit
  40              		.section	.text.pwmObjectInit,"ax",%progbits
  41              		.align	2
  42              		.p2align 4,,15
  43              		.global	pwmObjectInit
  44              		.thumb
  45              		.thumb_func
  46              		.type	pwmObjectInit, %function
  47              	pwmObjectInit:
  48              	.LFB119:
  49              		.loc 1 80 0
  50              		.cfi_startproc
  51              		@ args = 0, pretend = 0, frame = 0
  52              		@ frame_needed = 0, uses_anonymous_args = 0
  53              		@ link register save eliminated.
  54              	.LVL1:
  55              		.loc 1 82 0
  56 0000 0122     		movs	r2, #1
  57              		.loc 1 83 0
ARM GAS  /tmp/ccdEtKVj.s 			page 2


  58 0002 0023     		movs	r3, #0
  59              		.loc 1 82 0
  60 0004 0270     		strb	r2, [r0]
  61              		.loc 1 83 0
  62 0006 4360     		str	r3, [r0, #4]
  63 0008 7047     		bx	lr
  64              		.cfi_endproc
  65              	.LFE119:
  66              		.size	pwmObjectInit, .-pwmObjectInit
  67 000a 00BF     		.section	.text.pwmStart,"ax",%progbits
  68              		.align	2
  69              		.p2align 4,,15
  70              		.global	pwmStart
  71              		.thumb
  72              		.thumb_func
  73              		.type	pwmStart, %function
  74              	pwmStart:
  75              	.LFB120:
  76              		.loc 1 99 0
  77              		.cfi_startproc
  78              		@ args = 0, pretend = 0, frame = 0
  79              		@ frame_needed = 0, uses_anonymous_args = 0
  80              	.LVL2:
  81 0000 10B5     		push	{r4, lr}
  82              		.cfi_def_cfa_offset 8
  83              		.cfi_offset 4, -8
  84              		.cfi_offset 14, -4
  85              	.LBB2:
  86              		.loc 1 103 0
  87 0002 2023     		movs	r3, #32
  88              	.LBE2:
  89              		.loc 1 99 0
  90 0004 0446     		mov	r4, r0
  91              	.LBB3:
  92              		.loc 1 103 0
  93              		.syntax unified
  94              	@ 103 "../../os/hal/src/pwm.c" 1
  95 0006 83F31188 		msr     BASEPRI, r3
  96              	@ 0 "" 2
  97              		.thumb
  98              		.syntax unified
  99              	.LBE3:
 100              		.loc 1 107 0
 101 000a 8B88     		ldrh	r3, [r1, #4]
 102 000c 0381     		strh	r3, [r0, #8]	@ movhi
 103              		.loc 1 106 0
 104 000e 4160     		str	r1, [r0, #4]
 105              		.loc 1 108 0
 106 0010 FFF7FEFF 		bl	pwm_lld_start
 107              	.LVL3:
 108              		.loc 1 109 0
 109 0014 0223     		movs	r3, #2
 110 0016 2370     		strb	r3, [r4]
 111              	.LBB4:
 112              		.loc 1 110 0
 113 0018 0023     		movs	r3, #0
 114              		.syntax unified
ARM GAS  /tmp/ccdEtKVj.s 			page 3


 115              	@ 110 "../../os/hal/src/pwm.c" 1
 116 001a 83F31188 		msr     BASEPRI, r3
 117              	@ 0 "" 2
 118              		.thumb
 119              		.syntax unified
 120 001e 10BD     		pop	{r4, pc}
 121              	.LBE4:
 122              		.cfi_endproc
 123              	.LFE120:
 124              		.size	pwmStart, .-pwmStart
 125              		.section	.text.pwmStop,"ax",%progbits
 126              		.align	2
 127              		.p2align 4,,15
 128              		.global	pwmStop
 129              		.thumb
 130              		.thumb_func
 131              		.type	pwmStop, %function
 132              	pwmStop:
 133              	.LFB121:
 134              		.loc 1 120 0
 135              		.cfi_startproc
 136              		@ args = 0, pretend = 0, frame = 0
 137              		@ frame_needed = 0, uses_anonymous_args = 0
 138              	.LVL4:
 139 0000 10B5     		push	{r4, lr}
 140              		.cfi_def_cfa_offset 8
 141              		.cfi_offset 4, -8
 142              		.cfi_offset 14, -4
 143              	.LBB5:
 144              		.loc 1 124 0
 145 0002 2023     		movs	r3, #32
 146              	.LBE5:
 147              		.loc 1 120 0
 148 0004 0446     		mov	r4, r0
 149              	.LBB6:
 150              		.loc 1 124 0
 151              		.syntax unified
 152              	@ 124 "../../os/hal/src/pwm.c" 1
 153 0006 83F31188 		msr     BASEPRI, r3
 154              	@ 0 "" 2
 155              		.thumb
 156              		.syntax unified
 157              	.LBE6:
 158              		.loc 1 127 0
 159 000a FFF7FEFF 		bl	pwm_lld_stop
 160              	.LVL5:
 161              		.loc 1 128 0
 162 000e 0123     		movs	r3, #1
 163 0010 2370     		strb	r3, [r4]
 164              	.LBB7:
 165              		.loc 1 129 0
 166 0012 0023     		movs	r3, #0
 167              		.syntax unified
 168              	@ 129 "../../os/hal/src/pwm.c" 1
 169 0014 83F31188 		msr     BASEPRI, r3
 170              	@ 0 "" 2
 171              		.thumb
ARM GAS  /tmp/ccdEtKVj.s 			page 4


 172              		.syntax unified
 173 0018 10BD     		pop	{r4, pc}
 174              	.LBE7:
 175              		.cfi_endproc
 176              	.LFE121:
 177              		.size	pwmStop, .-pwmStop
 178 001a 00BF     		.section	.text.pwmChangePeriod,"ax",%progbits
 179              		.align	2
 180              		.p2align 4,,15
 181              		.global	pwmChangePeriod
 182              		.thumb
 183              		.thumb_func
 184              		.type	pwmChangePeriod, %function
 185              	pwmChangePeriod:
 186              	.LFB122:
 187              		.loc 1 147 0
 188              		.cfi_startproc
 189              		@ args = 0, pretend = 0, frame = 0
 190              		@ frame_needed = 0, uses_anonymous_args = 0
 191              		@ link register save eliminated.
 192              	.LVL6:
 193              	.LBB8:
 194              		.loc 1 151 0
 195 0000 2023     		movs	r3, #32
 196              		.syntax unified
 197              	@ 151 "../../os/hal/src/pwm.c" 1
 198 0002 83F31188 		msr     BASEPRI, r3
 199              	@ 0 "" 2
 200              		.thumb
 201              		.syntax unified
 202              	.LBE8:
 203              		.loc 1 154 0
 204 0006 4B1E     		subs	r3, r1, #1
 205 0008 0269     		ldr	r2, [r0, #16]
 206 000a 0181     		strh	r1, [r0, #8]	@ movhi
 207 000c 9BB2     		uxth	r3, r3
 208 000e D362     		str	r3, [r2, #44]
 209              	.LBB9:
 210              		.loc 1 155 0
 211 0010 0023     		movs	r3, #0
 212              		.syntax unified
 213              	@ 155 "../../os/hal/src/pwm.c" 1
 214 0012 83F31188 		msr     BASEPRI, r3
 215              	@ 0 "" 2
 216              		.thumb
 217              		.syntax unified
 218 0016 7047     		bx	lr
 219              	.LBE9:
 220              		.cfi_endproc
 221              	.LFE122:
 222              		.size	pwmChangePeriod, .-pwmChangePeriod
 223              		.section	.text.pwmEnableChannel,"ax",%progbits
 224              		.align	2
 225              		.p2align 4,,15
 226              		.global	pwmEnableChannel
 227              		.thumb
 228              		.thumb_func
ARM GAS  /tmp/ccdEtKVj.s 			page 5


 229              		.type	pwmEnableChannel, %function
 230              	pwmEnableChannel:
 231              	.LFB123:
 232              		.loc 1 174 0
 233              		.cfi_startproc
 234              		@ args = 0, pretend = 0, frame = 0
 235              		@ frame_needed = 0, uses_anonymous_args = 0
 236              	.LVL7:
 237 0000 08B5     		push	{r3, lr}
 238              		.cfi_def_cfa_offset 8
 239              		.cfi_offset 3, -8
 240              		.cfi_offset 14, -4
 241              	.LBB10:
 242              		.loc 1 179 0
 243 0002 2023     		movs	r3, #32
 244              		.syntax unified
 245              	@ 179 "../../os/hal/src/pwm.c" 1
 246 0004 83F31188 		msr     BASEPRI, r3
 247              	@ 0 "" 2
 248              		.thumb
 249              		.syntax unified
 250              	.LBE10:
 251              		.loc 1 182 0
 252 0008 FFF7FEFF 		bl	pwm_lld_enable_channel
 253              	.LVL8:
 254              	.LBB11:
 255              		.loc 1 183 0
 256 000c 0023     		movs	r3, #0
 257              		.syntax unified
 258              	@ 183 "../../os/hal/src/pwm.c" 1
 259 000e 83F31188 		msr     BASEPRI, r3
 260              	@ 0 "" 2
 261              		.thumb
 262              		.syntax unified
 263 0012 08BD     		pop	{r3, pc}
 264              	.LBE11:
 265              		.cfi_endproc
 266              	.LFE123:
 267              		.size	pwmEnableChannel, .-pwmEnableChannel
 268              		.section	.text.pwmDisableChannel,"ax",%progbits
 269              		.align	2
 270              		.p2align 4,,15
 271              		.global	pwmDisableChannel
 272              		.thumb
 273              		.thumb_func
 274              		.type	pwmDisableChannel, %function
 275              	pwmDisableChannel:
 276              	.LFB124:
 277              		.loc 1 200 0
 278              		.cfi_startproc
 279              		@ args = 0, pretend = 0, frame = 0
 280              		@ frame_needed = 0, uses_anonymous_args = 0
 281              	.LVL9:
 282 0000 08B5     		push	{r3, lr}
 283              		.cfi_def_cfa_offset 8
 284              		.cfi_offset 3, -8
 285              		.cfi_offset 14, -4
ARM GAS  /tmp/ccdEtKVj.s 			page 6


 286              	.LBB12:
 287              		.loc 1 205 0
 288 0002 2023     		movs	r3, #32
 289              		.syntax unified
 290              	@ 205 "../../os/hal/src/pwm.c" 1
 291 0004 83F31188 		msr     BASEPRI, r3
 292              	@ 0 "" 2
 293              		.thumb
 294              		.syntax unified
 295              	.LBE12:
 296              		.loc 1 208 0
 297 0008 FFF7FEFF 		bl	pwm_lld_disable_channel
 298              	.LVL10:
 299              	.LBB13:
 300              		.loc 1 209 0
 301 000c 0023     		movs	r3, #0
 302              		.syntax unified
 303              	@ 209 "../../os/hal/src/pwm.c" 1
 304 000e 83F31188 		msr     BASEPRI, r3
 305              	@ 0 "" 2
 306              		.thumb
 307              		.syntax unified
 308 0012 08BD     		pop	{r3, pc}
 309              	.LBE13:
 310              		.cfi_endproc
 311              	.LFE124:
 312              		.size	pwmDisableChannel, .-pwmDisableChannel
 313              		.text
 314              	.Letext0:
 315              		.file 2 "/home/lithium/Descargas/gcc-arm-none-eabi-5_3-2016q1/arm-none-eabi/include/machine/_defau
 316              		.file 3 "/home/lithium/Descargas/gcc-arm-none-eabi-5_3-2016q1/arm-none-eabi/include/sys/_stdint.h"
 317              		.file 4 "../../os/hal/include/pwm.h"
 318              		.file 5 "../../os/hal/platforms/STM32/TIMv1/pwm_lld.h"
 319              		.file 6 "../../os/hal/platforms/STM32/TIMv1/stm32_tim.h"
 320              		.file 7 "../../os/ports/common/ARMCMx/CMSIS/include/core_cm4.h"