ARM GAS  /tmp/ccdEtKVj.s 			page 1


   1              		.syntax unified
   2              		.cpu cortex-m4
   3              		.fpu softvfp
   4              		.eabi_attribute 20, 1
   5              		.eabi_attribute 21, 1
   6              		.eabi_attribute 23, 3
   7              		.eabi_attribute 24, 1
   8              		.eabi_attribute 25, 1
   9              		.eabi_attribute 26, 1
  10              		.eabi_attribute 30, 2
  11              		.eabi_attribute 34, 1
  12              		.eabi_attribute 18, 4
  13              		.thumb
  14              		.syntax unified
  15              		.file	"pwm.c"
  16              		.text
  17              	.Ltext0:
  18              		.cfi_sections	.debug_frame
  19              		.section	.text.pwmInit,"ax",%progbits
  20              		.align	2
  21              		.p2align 4,,15
  22              		.global	pwmInit
  23              		.thumb
  24              		.thumb_func
  25              		.type	pwmInit, %function
  26              	pwmInit:
  27              	.LFB118:
  28              		.file 1 "../../os/hal/src/pwm.c"
  29              		.loc 1 68 0
  30              		.cfi_startproc
  31              		@ args = 0, pretend = 0, frame = 0
  32              		@ frame_needed = 0, uses_anonymous_args = 0
  33              		@ link register save eliminated.
  34              		.loc 1 70 0
  35 0000 FFF7FEBF 		b	pwm_lld_init
  36              	.LVL0:
  37              		.cfi_endproc
  38              	.LFE118:
  39              		.size	pwmInit, .-pwmInit
  40              		.section	.text.pwmObjectInit,"ax",%progbits
  41              		.align	2
  42              		.p2align 4,,15
  43              		.global	pwmObjectInit
  44              		.thumb
  45              		.thumb_func
  46              		.type	pwmObjectInit, %function
  47              	pwmObjectInit:
  48              	.LFB119:
  49              		.loc 1 80 0
  50              		.cfi_startproc
  51              		@ args = 0, pretend = 0, frame = 0
  52              		@ frame_needed = 0, uses_anonymous_args = 0
  53              		@ link register save eliminated.
  54              	.LVL1:
  55              		.loc 1 82 0
  56 0000 0122     		movs	r2, #1
  57              		.loc 1 83 0
ARM GAS  /tmp/ccdEtKVj.s 			page 2


  58 0002 0023     		movs	r3, #0
  59              		.loc 1 82 0
  60 0004 0270     		strb	r2, [r0]
  61              		.loc 1 83 0
  62 0006 4360     		str	r3, [r0, #4]
  63 0008 7047     		bx	lr
  64              		.cfi_endproc
  65              	.LFE119:
  66              		.size	pwmObjectInit, .-pwmObjectInit
  67 000a 00BF     		.section	.text.pwmStart,"ax",%progbits
  68              		.align	2
  69              		.p2align 4,,15
  70              		.global	pwmStart
  71              		.thumb
  72              		.thumb_func
  73              		.type	pwmStart, %function
  74              	pwmStart:
  75              	.LFB120:
  76              		.loc 1 99 0
  77              		.cfi_startproc
  78              		@ args = 0, pretend = 0, frame = 0
  79              		@ frame_needed = 0, uses_anonymous_args = 0
  80              	.LVL2:
  81 0000 10B5     		push	{r4, lr}
  82              		.cfi_def_cfa_offset 8
  83              		.cfi_offset 4, -8
  84              		.cfi_offset 14, -4
  85              	.LBB2:
  86              		.loc 1 103 0
  87 0002 2023     		movs	r3, #32
  88              	.LBE2:
  89              		.loc 1 99 0
  90 0004 0446     		mov	r4, r0
  91              	.LBB3:
  92              		.loc 1 103 0
  93              		.syntax unified
  94              	@ 103 "../../os/hal/src/pwm.c" 1
  95 0006 83F31188 		msr     BASEPRI, r3
  96              	@ 0 "" 2
  97              		.thumb
  98              		.syntax unified
  99              	.LBE3:
 100              		.loc 1 107 0
 101 000a 8B88     		ldrh	r3, [r1, #4]
 102 000c 0381     		strh	r3, [r0, #8]	@ movhi
 103              		.loc 1 106 0
 104 000e 4160     		str	r1, [r0, #4]
 105              		.loc 1 108 0
 106 0010 FFF7FEFF 		bl	pwm_lld_start
 107              	.LVL3:
 108              		.loc 1 109 0
 109 0014 0223     		movs	r3, #2
 110 0016 2370     		strb	r3, [r4]
 111              	.LBB4:
 112              		.loc 1 110 0
 113 0018 0023     		movs	r3, #0
 114              		.syntax unified
ARM GAS  /tmp/ccdEtKVj.s 			page 3


 115              	@ 110 "../../os/hal/src/pwm.c" 1
 116 001a 83F31188 		msr     BASEPRI, r3
 117              	@ 0 "" 2
 118              		.thumb
 119              		.syntax unified
 120 001e 10BD     		pop	{r4, pc}
 121              	.LBE4:
 122              		.cfi_endproc
 123              	.LFE120:
 124              		.size	pwmStart, .-pwmStart
 125              		.section	.text.pwmStop,"ax",%progbits
 126              		.align	2
 127              		.p2align 4,,15
 128              		.global	pwmStop
 129              		.thumb
 130              		.thumb_func
 131              		.type	pwmStop, %function
 132              	pwmStop:
 133              	.LFB121:
 134              		.loc 1 120 0
 135              		.cfi_startproc
 136              		@ args = 0, pretend = 0, frame = 0
 137              		@ frame_needed = 0, uses_anonymous_args = 0
 138              	.LVL4:
 139 0000 10B5     		push	{r4, lr}
 140              		.cfi_def_cfa_offset 8
 141              		.cfi_offset 4, -8
 142              		.cfi_offset 14, -4
 143              	.LBB5:
 144              		.loc 1 124 0
 145 0002 2023     		movs	r3, #32
 146              	.LBE5:
 147              		.loc 1 120 0
 148 0004 0446     		mov	r4, r0
 149              	.LBB6:
 150              		.loc 1 124 0
 151              		.syntax unified
 152              	@ 124 "../../os/hal/src/pwm.c" 1
 153 0006 83F31188 		msr     BASEPRI, r3
 154              	@ 0 "" 2
 155              		.thumb
 156              		.syntax unified
 157              	.LBE6:
 158              		.loc 1 127 0
 159 000a FFF7FEFF 		bl	pwm_lld_stop
 160              	.LVL5:
 161              		.loc 1 128 0
 162 000e 0123     		movs	r3, #1
 163 0010 2370     		strb	r3, [r4]
 164              	.LBB7:
 165              		.loc 1 129 0
 166 0012 0023     		movs	r3, #0
 167              		.syntax unified
 168              	@ 129 "../../os/hal/src/pwm.c" 1
 169 0014 83F31188 		msr     BASEPRI, r3
 170              	@ 0 "" 2
 171              		.thumb
ARM GAS  /tmp/ccdEtKVj.s 			page 4


 172              		.syntax unified
 173 0018 10BD     		pop	{r4, pc}
 174              	.LBE7:
 175              		.cfi_endproc
 176              	.LFE121:
 177              		.size	pwmStop, .-pwmStop
 178 001a 00BF     		.section	.text.pwmChangePeriod,"ax",%progbits
 179              		.align	2
 180              		.p2align 4,,15
 181              		.global	pwmChangePeriod
 182              		.thumb
 183              		.thumb_func
 184              		.type	pwmChangePeriod, %function
 185              	pwmChangePeriod:
 186              	.LFB122:
 187              		.loc 1 147 0
 188              		.cfi_startproc
 189              		@ args = 0, pretend = 0, frame = 0
 190              		@ frame_needed = 0, uses_anonymous_args = 0
 191              		@ link register save eliminated.
 192              	.LVL6:
 193              	.LBB8:
 194              		.loc 1 151 0
 195 0000 2023     		movs	r3, #32
 196              		.syntax unified
 197              	@ 151 "../../os/hal/src/pwm.c" 1
 198 0002 83F31188 		msr     BASEPRI, r3
 199              	@ 0 "" 2
 200              		.thumb
 201              		.syntax unified
 202              	.LBE8:
 203              		.loc 1 154 0
 204 0006 4B1E     		subs	r3, r1, #1
 205 0008 0269     		ldr	r2, [r0, #16]
 206 000a 0181     		strh	r1, [r0, #8]	@ movhi
 207 000c 9BB2     		uxth	r3, r3
 208 000e D362     		str	r3, [r2, #44]
 209              	.LBB9:
 210              		.loc 1 155 0
 211 0010 0023     		movs	r3, #0
 212              		.syntax unified
 213              	@ 155 "../../os/hal/src/pwm.c" 1
 214 0012 83F31188 		msr     BASEPRI, r3
 215              	@ 0 "" 2
 216              		.thumb
 217              		.syntax unified
 218 0016 7047     		bx	lr
 219              	.LBE9:
 220              		.cfi_endproc
 221              	.LFE122:
 222              		.size	pwmChangePeriod, .-pwmChangePeriod
 223              		.section	.text.pwmEnableChannel,"ax",%progbits
 224              		.align	2
 225              		.p2align 4,,15
 226              		.global	pwmEnableChannel
 227              		.thumb
 228              		.thumb_func
ARM GAS  /tmp/ccdEtKVj.s 			page 5


 229              		.type	pwmEnableChannel, %function
 230              	pwmEnableChannel:
 231              	.LFB123:
 232              		.loc 1 174 0
 233              		.cfi_startproc
 234              		@ args = 0, pretend = 0, frame = 0
 235              		@ frame_needed = 0, uses_anonymous_args = 0
 236              	.LVL7:
 237 0000 08B5     		push	{r3, lr}
 238              		.cfi_def_cfa_offset 8
 239              		.cfi_offset 3, -8
 240              		.cfi_offset 14, -4
 241              	.LBB10:
 242              		.loc 1 179 0
 243 0002 2023     		movs	r3, #32
 244              		.syntax unified
 245              	@ 179 "../../os/hal/src/pwm.c" 1
 246 0004 83F31188 		msr     BASEPRI, r3
 247              	@ 0 "" 2
 248              		.thumb
 249              		.syntax unified
 250              	.LBE10:
 251              		.loc 1 182 0
 252 0008 FFF7FEFF 		bl	pwm_lld_enable_channel
 253              	.LVL8:
 254              	.LBB11:
 255              		.loc 1 183 0
 256 000c 0023     		movs	r3, #0
 257              		.syntax unified
 258              	@ 183 "../../os/hal/src/pwm.c" 1
 259 000e 83F31188 		msr     BASEPRI, r3
 260              	@ 0 "" 2
 261              		.thumb
 262              		.syntax unified
 263 0012 08BD     		pop	{r3, pc}
 264              	.LBE11:
 265              		.cfi_endproc
 266              	.LFE123:
 267              		.size	pwmEnableChannel, .-pwmEnableChannel
 268              		.section	.text.pwmDisableChannel,"ax",%progbits
 269              		.align	2
 270              		.p2align 4,,15
 271              		.global	pwmDisableChannel
 272              		.thumb
 273              		.thumb_func
 274              		.type	pwmDisableChannel, %function
 275              	pwmDisableChannel:
 276              	.LFB124:
 277              		.loc 1 200 0
 278              		.cfi_startproc
 279              		@ args = 0, pretend = 0, frame = 0
 280              		@ frame_needed = 0, uses_anonymous_args = 0
 281              	.LVL9:
 282 0000 08B5     		push	{r3, lr}
 283              		.cfi_def_cfa_offset 8
 284              		.cfi_offset 3, -8
 285              		.cfi_offset 14, -4
ARM GAS  /tmp/ccdEtKVj.s 			page 6


 286              	.LBB12:
 287              		.loc 1 205 0
 288 0002 2023     		movs	r3, #32
 289              		.syntax unified
 290              	@ 205 "../../os/hal/src/pwm.c" 1
 291 0004 83F31188 		msr     BASEPRI, r3
 292              	@ 0 "" 2
 293              		.thumb
 294              		.syntax unified
 295              	.LBE12:
 296              		.loc 1 208 0
 297 0008 FFF7FEFF 		bl	pwm_lld_disable_channel
 298              	.LVL10:
 299              	.LBB13:
 300              		.loc 1 209 0
 301 000c 0023     		movs	r3, #0
 302              		.syntax unified
 303              	@ 209 "../../os/hal/src/pwm.c" 1
 304 000e 83F31188 		msr     BASEPRI, r3
 305              	@ 0 "" 2
 306              		.thumb
 307              		.syntax unified
 308 0012 08BD     		pop	{r3, pc}
 309              	.LBE13:
 310              		.cfi_endproc
 311              	.LFE124:
 312              		.size	pwmDisableChannel, .-pwmDisableChannel
 313              		.text
 314              	.Letext0:
 315              		.file 2 "/home/lithium/Descargas/gcc-arm-none-eabi-5_3-2016q1/arm-none-eabi/include/machine/_defau
 316              		.file 3 "/home/lithium/Descargas/gcc-arm-none-eabi-5_3-2016q1/arm-none-eabi/include/sys/_stdint.h"
 317              		.file 4 "../../os/hal/include/pwm.h"
 318              		.file 5 "../../os/hal/platforms/STM32/TIMv1/pwm_lld.h"
 319              		.file 6 "../../os/hal/platforms/STM32/TIMv1/stm32_tim.h"
 320              		.file 7 "../../os/ports/common/ARMCMx/CMSIS/include/core_cm4.h"
 321              		.section	.debug_info,"",%progbits
 322              	.Ldebug_info0:
 323 0000 6D060000 		.4byte	0x66d
 324 0004 0400     		.2byte	0x4
 325 0006 00000000 		.4byte	.Ldebug_abbrev0
 326 000a 04       		.byte	0x4
 327 000b 01       		.uleb128 0x1
 328 000c 9C020000 		.4byte	.LASF67
 329 0010 0C       		.byte	0xc
 330 0011 40020000 		.4byte	.LASF68
 331 0015 A6030000 		.4byte	.LASF69
 332 0019 30000000 		.4byte	.Ldebug_ranges0+0x30
 333 001d 00000000 		.4byte	0
 334 0021 00000000 		.4byte	.Ldebug_line0
 335 0025 02       		.uleb128 0x2
 336 0026 04       		.byte	0x4
 337 0027 05       		.byte	0x5
 338 0028 696E7400 		.ascii	"int\000"
 339 002c 03       		.uleb128 0x3
 340 002d 04       		.byte	0x4
 341 002e 07       		.byte	0x7
 342 002f A7010000 		.4byte	.LASF0
ARM GAS  /tmp/ccdEtKVj.s 			page 7


 343 0033 03       		.uleb128 0x3
 344 0034 08       		.byte	0x8
 345 0035 05       		.byte	0x5
 346 0036 D7000000 		.4byte	.LASF1
 347 003a 03       		.uleb128 0x3
 348 003b 08       		.byte	0x8
 349 003c 04       		.byte	0x4
 350 003d C2000000 		.4byte	.LASF2
 351 0041 03       		.uleb128 0x3
 352 0042 01       		.byte	0x1
 353 0043 06       		.byte	0x6
 354 0044 7B010000 		.4byte	.LASF3
 355 0048 04       		.uleb128 0x4
 356 0049 07010000 		.4byte	.LASF6
 357 004d 02       		.byte	0x2
 358 004e 1D       		.byte	0x1d
 359 004f 53000000 		.4byte	0x53
 360 0053 03       		.uleb128 0x3
 361 0054 01       		.byte	0x1
 362 0055 08       		.byte	0x8
 363 0056 44010000 		.4byte	.LASF4
 364 005a 03       		.uleb128 0x3
 365 005b 02       		.byte	0x2
 366 005c 05       		.byte	0x5
 367 005d 29000000 		.4byte	.LASF5
 368 0061 04       		.uleb128 0x4
 369 0062 7A000000 		.4byte	.LASF7
 370 0066 02       		.byte	0x2
 371 0067 2B       		.byte	0x2b
 372 0068 6C000000 		.4byte	0x6c
 373 006c 03       		.uleb128 0x3
 374 006d 02       		.byte	0x2
 375 006e 07       		.byte	0x7
 376 006f C7010000 		.4byte	.LASF8
 377 0073 04       		.uleb128 0x4
 378 0074 57020000 		.4byte	.LASF9
 379 0078 02       		.byte	0x2
 380 0079 3F       		.byte	0x3f
 381 007a 7E000000 		.4byte	0x7e
 382 007e 03       		.uleb128 0x3
 383 007f 04       		.byte	0x4
 384 0080 05       		.byte	0x5
 385 0081 E5000000 		.4byte	.LASF10
 386 0085 04       		.uleb128 0x4
 387 0086 6A000000 		.4byte	.LASF11
 388 008a 02       		.byte	0x2
 389 008b 41       		.byte	0x41
 390 008c 90000000 		.4byte	0x90
 391 0090 03       		.uleb128 0x3
 392 0091 04       		.byte	0x4
 393 0092 07       		.byte	0x7
 394 0093 28020000 		.4byte	.LASF12
 395 0097 03       		.uleb128 0x3
 396 0098 08       		.byte	0x8
 397 0099 07       		.byte	0x7
 398 009a 87010000 		.4byte	.LASF13
 399 009e 04       		.uleb128 0x4
ARM GAS  /tmp/ccdEtKVj.s 			page 8


 400 009f A3000000 		.4byte	.LASF14
 401 00a3 03       		.byte	0x3
 402 00a4 14       		.byte	0x14
 403 00a5 48000000 		.4byte	0x48
 404 00a9 04       		.uleb128 0x4
 405 00aa B4010000 		.4byte	.LASF15
 406 00ae 03       		.byte	0x3
 407 00af 1A       		.byte	0x1a
 408 00b0 61000000 		.4byte	0x61
 409 00b4 04       		.uleb128 0x4
 410 00b5 02020000 		.4byte	.LASF16
 411 00b9 03       		.byte	0x3
 412 00ba 1F       		.byte	0x1f
 413 00bb 73000000 		.4byte	0x73
 414 00bf 04       		.uleb128 0x4
 415 00c0 9E010000 		.4byte	.LASF17
 416 00c4 03       		.byte	0x3
 417 00c5 20       		.byte	0x20
 418 00c6 85000000 		.4byte	0x85
 419 00ca 03       		.uleb128 0x3
 420 00cb 01       		.byte	0x1
 421 00cc 02       		.byte	0x2
 422 00cd 0A020000 		.4byte	.LASF18
 423 00d1 05       		.uleb128 0x5
 424 00d2 BF000000 		.4byte	0xbf
 425 00d6 03       		.uleb128 0x3
 426 00d7 04       		.byte	0x4
 427 00d8 07       		.byte	0x7
 428 00d9 3C000000 		.4byte	.LASF19
 429 00dd 03       		.uleb128 0x3
 430 00de 01       		.byte	0x1
 431 00df 08       		.byte	0x8
 432 00e0 E7010000 		.4byte	.LASF20
 433 00e4 05       		.uleb128 0x5
 434 00e5 B4000000 		.4byte	0xb4
 435 00e9 06       		.uleb128 0x6
 436 00ea D1000000 		.4byte	0xd1
 437 00ee F9000000 		.4byte	0xf9
 438 00f2 07       		.uleb128 0x7
 439 00f3 D6000000 		.4byte	0xd6
 440 00f7 03       		.byte	0x3
 441 00f8 00       		.byte	0
 442 00f9 08       		.uleb128 0x8
 443 00fa 01       		.byte	0x1
 444 00fb 53000000 		.4byte	0x53
 445 00ff 04       		.byte	0x4
 446 0100 55       		.byte	0x55
 447 0101 18010000 		.4byte	0x118
 448 0105 09       		.uleb128 0x9
 449 0106 39010000 		.4byte	.LASF21
 450 010a 00       		.byte	0
 451 010b 09       		.uleb128 0x9
 452 010c 6B020000 		.4byte	.LASF22
 453 0110 01       		.byte	0x1
 454 0111 09       		.uleb128 0x9
 455 0112 61020000 		.4byte	.LASF23
 456 0116 02       		.byte	0x2
ARM GAS  /tmp/ccdEtKVj.s 			page 9


 457 0117 00       		.byte	0
 458 0118 04       		.uleb128 0x4
 459 0119 8D030000 		.4byte	.LASF24
 460 011d 04       		.byte	0x4
 461 011e 59       		.byte	0x59
 462 011f F9000000 		.4byte	0xf9
 463 0123 04       		.uleb128 0x4
 464 0124 F8010000 		.4byte	.LASF25
 465 0128 04       		.byte	0x4
 466 0129 5E       		.byte	0x5e
 467 012a 2E010000 		.4byte	0x12e
 468 012e 0A       		.uleb128 0xa
 469 012f F8010000 		.4byte	.LASF25
 470 0133 14       		.byte	0x14
 471 0134 05       		.byte	0x5
 472 0135 6F01     		.2byte	0x16f
 473 0137 7D010000 		.4byte	0x17d
 474 013b 0B       		.uleb128 0xb
 475 013c 17000000 		.4byte	.LASF26
 476 0140 05       		.byte	0x5
 477 0141 7301     		.2byte	0x173
 478 0143 18010000 		.4byte	0x118
 479 0147 00       		.byte	0
 480 0148 0B       		.uleb128 0xb
 481 0149 8E000000 		.4byte	.LASF27
 482 014d 05       		.byte	0x5
 483 014e 7701     		.2byte	0x177
 484 0150 91030000 		.4byte	0x391
 485 0154 04       		.byte	0x4
 486 0155 0B       		.uleb128 0xb
 487 0156 00010000 		.4byte	.LASF28
 488 015a 05       		.byte	0x5
 489 015b 7B01     		.2byte	0x17b
 490 015d E1020000 		.4byte	0x2e1
 491 0161 08       		.byte	0x8
 492 0162 0B       		.uleb128 0xb
 493 0163 3A020000 		.4byte	.LASF29
 494 0167 05       		.byte	0x5
 495 0168 8301     		.2byte	0x183
 496 016a BF000000 		.4byte	0xbf
 497 016e 0C       		.byte	0xc
 498 016f 0C       		.uleb128 0xc
 499 0170 74696D00 		.ascii	"tim\000"
 500 0174 05       		.byte	0x5
 501 0175 8701     		.2byte	0x187
 502 0177 9C030000 		.4byte	0x39c
 503 017b 10       		.byte	0x10
 504 017c 00       		.byte	0
 505 017d 04       		.uleb128 0x4
 506 017e 98030000 		.4byte	.LASF30
 507 0182 04       		.byte	0x4
 508 0183 65       		.byte	0x65
 509 0184 88010000 		.4byte	0x188
 510 0188 0D       		.uleb128 0xd
 511 0189 04       		.byte	0x4
 512 018a 8E010000 		.4byte	0x18e
 513 018e 0E       		.uleb128 0xe
ARM GAS  /tmp/ccdEtKVj.s 			page 10


 514 018f 99010000 		.4byte	0x199
 515 0193 0F       		.uleb128 0xf
 516 0194 99010000 		.4byte	0x199
 517 0198 00       		.byte	0
 518 0199 0D       		.uleb128 0xd
 519 019a 04       		.byte	0x4
 520 019b 23010000 		.4byte	0x123
 521 019f 10       		.uleb128 0x10
 522 01a0 60       		.byte	0x60
 523 01a1 06       		.byte	0x6
 524 01a2 9E01     		.2byte	0x19e
 525 01a4 B8020000 		.4byte	0x2b8
 526 01a8 0C       		.uleb128 0xc
 527 01a9 43523100 		.ascii	"CR1\000"
 528 01ad 06       		.byte	0x6
 529 01ae 9F01     		.2byte	0x19f
 530 01b0 D1000000 		.4byte	0xd1
 531 01b4 00       		.byte	0
 532 01b5 0C       		.uleb128 0xc
 533 01b6 43523200 		.ascii	"CR2\000"
 534 01ba 06       		.byte	0x6
 535 01bb A001     		.2byte	0x1a0
 536 01bd D1000000 		.4byte	0xd1
 537 01c1 04       		.byte	0x4
 538 01c2 0B       		.uleb128 0xb
 539 01c3 34010000 		.4byte	.LASF31
 540 01c7 06       		.byte	0x6
 541 01c8 A101     		.2byte	0x1a1
 542 01ca D1000000 		.4byte	0xd1
 543 01ce 08       		.byte	0x8
 544 01cf 0B       		.uleb128 0xb
 545 01d0 C2010000 		.4byte	.LASF32
 546 01d4 06       		.byte	0x6
 547 01d5 A201     		.2byte	0x1a2
 548 01d7 D1000000 		.4byte	0xd1
 549 01db 0C       		.byte	0xc
 550 01dc 0C       		.uleb128 0xc
 551 01dd 535200   		.ascii	"SR\000"
 552 01e0 06       		.byte	0x6
 553 01e1 A301     		.2byte	0x1a3
 554 01e3 D1000000 		.4byte	0xd1
 555 01e7 10       		.byte	0x10
 556 01e8 0C       		.uleb128 0xc
 557 01e9 45475200 		.ascii	"EGR\000"
 558 01ed 06       		.byte	0x6
 559 01ee A401     		.2byte	0x1a4
 560 01f0 D1000000 		.4byte	0xd1
 561 01f4 14       		.byte	0x14
 562 01f5 0B       		.uleb128 0xb
 563 01f6 11010000 		.4byte	.LASF33
 564 01fa 06       		.byte	0x6
 565 01fb A501     		.2byte	0x1a5
 566 01fd D1000000 		.4byte	0xd1
 567 0201 18       		.byte	0x18
 568 0202 0B       		.uleb128 0xb
 569 0203 1D000000 		.4byte	.LASF34
 570 0207 06       		.byte	0x6
ARM GAS  /tmp/ccdEtKVj.s 			page 11


 571 0208 A601     		.2byte	0x1a6
 572 020a D1000000 		.4byte	0xd1
 573 020e 1C       		.byte	0x1c
 574 020f 0B       		.uleb128 0xb
 575 0210 00000000 		.4byte	.LASF35
 576 0214 06       		.byte	0x6
 577 0215 A701     		.2byte	0x1a7
 578 0217 D1000000 		.4byte	0xd1
 579 021b 20       		.byte	0x20
 580 021c 0C       		.uleb128 0xc
 581 021d 434E5400 		.ascii	"CNT\000"
 582 0221 06       		.byte	0x6
 583 0222 A801     		.2byte	0x1a8
 584 0224 D1000000 		.4byte	0xd1
 585 0228 24       		.byte	0x24
 586 0229 0C       		.uleb128 0xc
 587 022a 50534300 		.ascii	"PSC\000"
 588 022e 06       		.byte	0x6
 589 022f A901     		.2byte	0x1a9
 590 0231 D1000000 		.4byte	0xd1
 591 0235 28       		.byte	0x28
 592 0236 0C       		.uleb128 0xc
 593 0237 41525200 		.ascii	"ARR\000"
 594 023b 06       		.byte	0x6
 595 023c AA01     		.2byte	0x1aa
 596 023e D1000000 		.4byte	0xd1
 597 0242 2C       		.byte	0x2c
 598 0243 0C       		.uleb128 0xc
 599 0244 52435200 		.ascii	"RCR\000"
 600 0248 06       		.byte	0x6
 601 0249 AB01     		.2byte	0x1ab
 602 024b D1000000 		.4byte	0xd1
 603 024f 30       		.byte	0x30
 604 0250 0C       		.uleb128 0xc
 605 0251 43435200 		.ascii	"CCR\000"
 606 0255 06       		.byte	0x6
 607 0256 AC01     		.2byte	0x1ac
 608 0258 B8020000 		.4byte	0x2b8
 609 025c 34       		.byte	0x34
 610 025d 0B       		.uleb128 0xb
 611 025e BD010000 		.4byte	.LASF36
 612 0262 06       		.byte	0x6
 613 0263 AD01     		.2byte	0x1ad
 614 0265 D1000000 		.4byte	0xd1
 615 0269 44       		.byte	0x44
 616 026a 0C       		.uleb128 0xc
 617 026b 44435200 		.ascii	"DCR\000"
 618 026f 06       		.byte	0x6
 619 0270 AE01     		.2byte	0x1ae
 620 0272 D1000000 		.4byte	0xd1
 621 0276 48       		.byte	0x48
 622 0277 0B       		.uleb128 0xb
 623 0278 12000000 		.4byte	.LASF37
 624 027c 06       		.byte	0x6
 625 027d AF01     		.2byte	0x1af
 626 027f D1000000 		.4byte	0xd1
 627 0283 4C       		.byte	0x4c
ARM GAS  /tmp/ccdEtKVj.s 			page 12


 628 0284 0C       		.uleb128 0xc
 629 0285 4F5200   		.ascii	"OR\000"
 630 0288 06       		.byte	0x6
 631 0289 B001     		.2byte	0x1b0
 632 028b D1000000 		.4byte	0xd1
 633 028f 50       		.byte	0x50
 634 0290 0B       		.uleb128 0xb
 635 0291 23000000 		.4byte	.LASF38
 636 0295 06       		.byte	0x6
 637 0296 B101     		.2byte	0x1b1
 638 0298 D1000000 		.4byte	0xd1
 639 029c 54       		.byte	0x54
 640 029d 0B       		.uleb128 0xb
 641 029e F6000000 		.4byte	.LASF39
 642 02a2 06       		.byte	0x6
 643 02a3 B201     		.2byte	0x1b2
 644 02a5 D1000000 		.4byte	0xd1
 645 02a9 58       		.byte	0x58
 646 02aa 0B       		.uleb128 0xb
 647 02ab FB000000 		.4byte	.LASF40
 648 02af 06       		.byte	0x6
 649 02b0 B301     		.2byte	0x1b3
 650 02b2 D1000000 		.4byte	0xd1
 651 02b6 5C       		.byte	0x5c
 652 02b7 00       		.byte	0
 653 02b8 05       		.uleb128 0x5
 654 02b9 E9000000 		.4byte	0xe9
 655 02bd 11       		.uleb128 0x11
 656 02be EC010000 		.4byte	.LASF41
 657 02c2 06       		.byte	0x6
 658 02c3 B401     		.2byte	0x1b4
 659 02c5 9F010000 		.4byte	0x19f
 660 02c9 11       		.uleb128 0x11
 661 02ca 76030000 		.4byte	.LASF42
 662 02ce 05       		.byte	0x5
 663 02cf 2001     		.2byte	0x120
 664 02d1 BF000000 		.4byte	0xbf
 665 02d5 11       		.uleb128 0x11
 666 02d6 5D000000 		.4byte	.LASF43
 667 02da 05       		.byte	0x5
 668 02db 2501     		.2byte	0x125
 669 02dd 9E000000 		.4byte	0x9e
 670 02e1 11       		.uleb128 0x11
 671 02e2 33000000 		.4byte	.LASF44
 672 02e6 05       		.byte	0x5
 673 02e7 2A01     		.2byte	0x12a
 674 02e9 A9000000 		.4byte	0xa9
 675 02ed 10       		.uleb128 0x10
 676 02ee 08       		.byte	0x8
 677 02ef 05       		.byte	0x5
 678 02f0 2F01     		.2byte	0x12f
 679 02f2 11030000 		.4byte	0x311
 680 02f6 0B       		.uleb128 0xb
 681 02f7 75000000 		.4byte	.LASF45
 682 02fb 05       		.byte	0x5
 683 02fc 3301     		.2byte	0x133
 684 02fe C9020000 		.4byte	0x2c9
ARM GAS  /tmp/ccdEtKVj.s 			page 13


 685 0302 00       		.byte	0
 686 0303 0B       		.uleb128 0xb
 687 0304 E0030000 		.4byte	.LASF46
 688 0308 05       		.byte	0x5
 689 0309 3901     		.2byte	0x139
 690 030b 7D010000 		.4byte	0x17d
 691 030f 04       		.byte	0x4
 692 0310 00       		.byte	0
 693 0311 11       		.uleb128 0x11
 694 0312 8B020000 		.4byte	.LASF47
 695 0316 05       		.byte	0x5
 696 0317 3B01     		.2byte	0x13b
 697 0319 ED020000 		.4byte	0x2ed
 698 031d 10       		.uleb128 0x10
 699 031e 34       		.byte	0x34
 700 031f 05       		.byte	0x5
 701 0320 4001     		.2byte	0x140
 702 0322 75030000 		.4byte	0x375
 703 0326 0B       		.uleb128 0xb
 704 0327 81020000 		.4byte	.LASF48
 705 032b 05       		.byte	0x5
 706 032c 4601     		.2byte	0x146
 707 032e BF000000 		.4byte	0xbf
 708 0332 00       		.byte	0
 709 0333 0B       		.uleb128 0xb
 710 0334 00010000 		.4byte	.LASF28
 711 0338 05       		.byte	0x5
 712 0339 4C01     		.2byte	0x14c
 713 033b E1020000 		.4byte	0x2e1
 714 033f 04       		.byte	0x4
 715 0340 0B       		.uleb128 0xb
 716 0341 E0030000 		.4byte	.LASF46
 717 0345 05       		.byte	0x5
 718 0346 5201     		.2byte	0x152
 719 0348 7D010000 		.4byte	0x17d
 720 034c 08       		.byte	0x8
 721 034d 0B       		.uleb128 0xb
 722 034e 85000000 		.4byte	.LASF49
 723 0352 05       		.byte	0x5
 724 0353 5601     		.2byte	0x156
 725 0355 75030000 		.4byte	0x375
 726 0359 0C       		.byte	0xc
 727 035a 0C       		.uleb128 0xc
 728 035b 63723200 		.ascii	"cr2\000"
 729 035f 05       		.byte	0x5
 730 0360 5C01     		.2byte	0x15c
 731 0362 BF000000 		.4byte	0xbf
 732 0366 2C       		.byte	0x2c
 733 0367 0B       		.uleb128 0xb
 734 0368 74020000 		.4byte	.LASF50
 735 036c 05       		.byte	0x5
 736 036d 6901     		.2byte	0x169
 737 036f BF000000 		.4byte	0xbf
 738 0373 30       		.byte	0x30
 739 0374 00       		.byte	0
 740 0375 06       		.uleb128 0x6
 741 0376 11030000 		.4byte	0x311
ARM GAS  /tmp/ccdEtKVj.s 			page 14


 742 037a 85030000 		.4byte	0x385
 743 037e 07       		.uleb128 0x7
 744 037f D6000000 		.4byte	0xd6
 745 0383 03       		.byte	0x3
 746 0384 00       		.byte	0
 747 0385 11       		.uleb128 0x11
 748 0386 25010000 		.4byte	.LASF51
 749 038a 05       		.byte	0x5
 750 038b 6A01     		.2byte	0x16a
 751 038d 1D030000 		.4byte	0x31d
 752 0391 0D       		.uleb128 0xd
 753 0392 04       		.byte	0x4
 754 0393 97030000 		.4byte	0x397
 755 0397 12       		.uleb128 0x12
 756 0398 85030000 		.4byte	0x385
 757 039c 0D       		.uleb128 0xd
 758 039d 04       		.byte	0x4
 759 039e BD020000 		.4byte	0x2bd
 760 03a2 13       		.uleb128 0x13
 761 03a3 EE000000 		.4byte	.LASF52
 762 03a7 01       		.byte	0x1
 763 03a8 44       		.byte	0x44
 764 03a9 00000000 		.4byte	.LFB118
 765 03ad 04000000 		.4byte	.LFE118-.LFB118
 766 03b1 01       		.uleb128 0x1
 767 03b2 9C       		.byte	0x9c
 768 03b3 C1030000 		.4byte	0x3c1
 769 03b7 14       		.uleb128 0x14
 770 03b8 04000000 		.4byte	.LVL0
 771 03bc 34060000 		.4byte	0x634
 772 03c0 00       		.byte	0
 773 03c1 13       		.uleb128 0x13
 774 03c2 95000000 		.4byte	.LASF53
 775 03c6 01       		.byte	0x1
 776 03c7 50       		.byte	0x50
 777 03c8 00000000 		.4byte	.LFB119
 778 03cc 0A000000 		.4byte	.LFE119-.LFB119
 779 03d0 01       		.uleb128 0x1
 780 03d1 9C       		.byte	0x9c
 781 03d2 E4030000 		.4byte	0x3e4
 782 03d6 15       		.uleb128 0x15
 783 03d7 2F010000 		.4byte	.LASF55
 784 03db 01       		.byte	0x1
 785 03dc 50       		.byte	0x50
 786 03dd 99010000 		.4byte	0x199
 787 03e1 01       		.uleb128 0x1
 788 03e2 50       		.byte	0x50
 789 03e3 00       		.byte	0
 790 03e4 13       		.uleb128 0x13
 791 03e5 CE000000 		.4byte	.LASF54
 792 03e9 01       		.byte	0x1
 793 03ea 63       		.byte	0x63
 794 03eb 00000000 		.4byte	.LFB120
 795 03ef 20000000 		.4byte	.LFE120-.LFB120
 796 03f3 01       		.uleb128 0x1
 797 03f4 9C       		.byte	0x9c
 798 03f5 5A040000 		.4byte	0x45a
ARM GAS  /tmp/ccdEtKVj.s 			page 15


 799 03f9 16       		.uleb128 0x16
 800 03fa 2F010000 		.4byte	.LASF55
 801 03fe 01       		.byte	0x1
 802 03ff 63       		.byte	0x63
 803 0400 99010000 		.4byte	0x199
 804 0404 00000000 		.4byte	.LLST0
 805 0408 16       		.uleb128 0x16
 806 0409 8E000000 		.4byte	.LASF27
 807 040d 01       		.byte	0x1
 808 040e 63       		.byte	0x63
 809 040f 91030000 		.4byte	0x391
 810 0413 1E000000 		.4byte	.LLST1
 811 0417 17       		.uleb128 0x17
 812 0418 00000000 		.4byte	.Ldebug_ranges0+0
 813 041c 2E040000 		.4byte	0x42e
 814 0420 18       		.uleb128 0x18
 815 0421 746D7000 		.ascii	"tmp\000"
 816 0425 01       		.byte	0x1
 817 0426 67       		.byte	0x67
 818 0427 BF000000 		.4byte	0xbf
 819 042b 01       		.uleb128 0x1
 820 042c 53       		.byte	0x53
 821 042d 00       		.byte	0
 822 042e 19       		.uleb128 0x19
 823 042f 18000000 		.4byte	.LBB4
 824 0433 08000000 		.4byte	.LBE4-.LBB4
 825 0437 49040000 		.4byte	0x449
 826 043b 18       		.uleb128 0x18
 827 043c 746D7000 		.ascii	"tmp\000"
 828 0440 01       		.byte	0x1
 829 0441 6E       		.byte	0x6e
 830 0442 BF000000 		.4byte	0xbf
 831 0446 01       		.uleb128 0x1
 832 0447 53       		.byte	0x53
 833 0448 00       		.byte	0
 834 0449 1A       		.uleb128 0x1a
 835 044a 14000000 		.4byte	.LVL3
 836 044e 40060000 		.4byte	0x640
 837 0452 1B       		.uleb128 0x1b
 838 0453 01       		.uleb128 0x1
 839 0454 50       		.byte	0x50
 840 0455 02       		.uleb128 0x2
 841 0456 74       		.byte	0x74
 842 0457 00       		.sleb128 0
 843 0458 00       		.byte	0
 844 0459 00       		.byte	0
 845 045a 13       		.uleb128 0x13
 846 045b 79020000 		.4byte	.LASF56
 847 045f 01       		.byte	0x1
 848 0460 78       		.byte	0x78
 849 0461 00000000 		.4byte	.LFB121
 850 0465 1A000000 		.4byte	.LFE121-.LFB121
 851 0469 01       		.uleb128 0x1
 852 046a 9C       		.byte	0x9c
 853 046b C1040000 		.4byte	0x4c1
 854 046f 16       		.uleb128 0x16
 855 0470 2F010000 		.4byte	.LASF55
ARM GAS  /tmp/ccdEtKVj.s 			page 16


 856 0474 01       		.byte	0x1
 857 0475 78       		.byte	0x78
 858 0476 99010000 		.4byte	0x199
 859 047a 3F000000 		.4byte	.LLST2
 860 047e 17       		.uleb128 0x17
 861 047f 18000000 		.4byte	.Ldebug_ranges0+0x18
 862 0483 95040000 		.4byte	0x495
 863 0487 18       		.uleb128 0x18
 864 0488 746D7000 		.ascii	"tmp\000"
 865 048c 01       		.byte	0x1
 866 048d 7C       		.byte	0x7c
 867 048e BF000000 		.4byte	0xbf
 868 0492 01       		.uleb128 0x1
 869 0493 53       		.byte	0x53
 870 0494 00       		.byte	0
 871 0495 19       		.uleb128 0x19
 872 0496 12000000 		.4byte	.LBB7
 873 049a 08000000 		.4byte	.LBE7-.LBB7
 874 049e B0040000 		.4byte	0x4b0
 875 04a2 18       		.uleb128 0x18
 876 04a3 746D7000 		.ascii	"tmp\000"
 877 04a7 01       		.byte	0x1
 878 04a8 81       		.byte	0x81
 879 04a9 BF000000 		.4byte	0xbf
 880 04ad 01       		.uleb128 0x1
 881 04ae 53       		.byte	0x53
 882 04af 00       		.byte	0
 883 04b0 1A       		.uleb128 0x1a
 884 04b1 0E000000 		.4byte	.LVL5
 885 04b5 4C060000 		.4byte	0x64c
 886 04b9 1B       		.uleb128 0x1b
 887 04ba 01       		.uleb128 0x1
 888 04bb 50       		.byte	0x50
 889 04bc 02       		.uleb128 0x2
 890 04bd 74       		.byte	0x74
 891 04be 00       		.sleb128 0
 892 04bf 00       		.byte	0
 893 04c0 00       		.byte	0
 894 04c1 13       		.uleb128 0x13
 895 04c2 18020000 		.4byte	.LASF57
 896 04c6 01       		.byte	0x1
 897 04c7 93       		.byte	0x93
 898 04c8 00000000 		.4byte	.LFB122
 899 04cc 18000000 		.4byte	.LFE122-.LFB122
 900 04d0 01       		.uleb128 0x1
 901 04d1 9C       		.byte	0x9c
 902 04d2 23050000 		.4byte	0x523
 903 04d6 15       		.uleb128 0x15
 904 04d7 2F010000 		.4byte	.LASF55
 905 04db 01       		.byte	0x1
 906 04dc 93       		.byte	0x93
 907 04dd 99010000 		.4byte	0x199
 908 04e1 01       		.uleb128 0x1
 909 04e2 50       		.byte	0x50
 910 04e3 15       		.uleb128 0x15
 911 04e4 00010000 		.4byte	.LASF28
 912 04e8 01       		.byte	0x1
ARM GAS  /tmp/ccdEtKVj.s 			page 17


 913 04e9 93       		.byte	0x93
 914 04ea E1020000 		.4byte	0x2e1
 915 04ee 01       		.uleb128 0x1
 916 04ef 51       		.byte	0x51
 917 04f0 19       		.uleb128 0x19
 918 04f1 00000000 		.4byte	.LBB8
 919 04f5 06000000 		.4byte	.LBE8-.LBB8
 920 04f9 0B050000 		.4byte	0x50b
 921 04fd 18       		.uleb128 0x18
 922 04fe 746D7000 		.ascii	"tmp\000"
 923 0502 01       		.byte	0x1
 924 0503 97       		.byte	0x97
 925 0504 BF000000 		.4byte	0xbf
 926 0508 01       		.uleb128 0x1
 927 0509 53       		.byte	0x53
 928 050a 00       		.byte	0
 929 050b 1C       		.uleb128 0x1c
 930 050c 10000000 		.4byte	.LBB9
 931 0510 08000000 		.4byte	.LBE9-.LBB9
 932 0514 18       		.uleb128 0x18
 933 0515 746D7000 		.ascii	"tmp\000"
 934 0519 01       		.byte	0x1
 935 051a 9B       		.byte	0x9b
 936 051b BF000000 		.4byte	0xbf
 937 051f 01       		.uleb128 0x1
 938 0520 53       		.byte	0x53
 939 0521 00       		.byte	0
 940 0522 00       		.byte	0
 941 0523 13       		.uleb128 0x13
 942 0524 AB000000 		.4byte	.LASF58
 943 0528 01       		.byte	0x1
 944 0529 AC       		.byte	0xac
 945 052a 00000000 		.4byte	.LFB123
 946 052e 14000000 		.4byte	.LFE123-.LFB123
 947 0532 01       		.uleb128 0x1
 948 0533 9C       		.byte	0x9c
 949 0534 AD050000 		.4byte	0x5ad
 950 0538 16       		.uleb128 0x16
 951 0539 2F010000 		.4byte	.LASF55
 952 053d 01       		.byte	0x1
 953 053e AC       		.byte	0xac
 954 053f 99010000 		.4byte	0x199
 955 0543 5D000000 		.4byte	.LLST3
 956 0547 16       		.uleb128 0x16
 957 0548 10020000 		.4byte	.LASF59
 958 054c 01       		.byte	0x1
 959 054d AD       		.byte	0xad
 960 054e D5020000 		.4byte	0x2d5
 961 0552 7E000000 		.4byte	.LLST4
 962 0556 16       		.uleb128 0x16
 963 0557 BC000000 		.4byte	.LASF60
 964 055b 01       		.byte	0x1
 965 055c AE       		.byte	0xae
 966 055d E1020000 		.4byte	0x2e1
 967 0561 9F000000 		.4byte	.LLST5
 968 0565 19       		.uleb128 0x19
 969 0566 02000000 		.4byte	.LBB10
ARM GAS  /tmp/ccdEtKVj.s 			page 18


 970 056a 06000000 		.4byte	.LBE10-.LBB10
 971 056e 80050000 		.4byte	0x580
 972 0572 18       		.uleb128 0x18
 973 0573 746D7000 		.ascii	"tmp\000"
 974 0577 01       		.byte	0x1
 975 0578 B3       		.byte	0xb3
 976 0579 BF000000 		.4byte	0xbf
 977 057d 01       		.uleb128 0x1
 978 057e 53       		.byte	0x53
 979 057f 00       		.byte	0
 980 0580 19       		.uleb128 0x19
 981 0581 0C000000 		.4byte	.LBB11
 982 0585 08000000 		.4byte	.LBE11-.LBB11
 983 0589 9B050000 		.4byte	0x59b
 984 058d 18       		.uleb128 0x18
 985 058e 746D7000 		.ascii	"tmp\000"
 986 0592 01       		.byte	0x1
 987 0593 B7       		.byte	0xb7
 988 0594 BF000000 		.4byte	0xbf
 989 0598 01       		.uleb128 0x1
 990 0599 53       		.byte	0x53
 991 059a 00       		.byte	0
 992 059b 1A       		.uleb128 0x1a
 993 059c 0C000000 		.4byte	.LVL8
 994 05a0 58060000 		.4byte	0x658
 995 05a4 1B       		.uleb128 0x1b
 996 05a5 01       		.uleb128 0x1
 997 05a6 50       		.byte	0x50
 998 05a7 03       		.uleb128 0x3
 999 05a8 F3       		.byte	0xf3
 1000 05a9 01       		.uleb128 0x1
 1001 05aa 50       		.byte	0x50
 1002 05ab 00       		.byte	0
 1003 05ac 00       		.byte	0
 1004 05ad 13       		.uleb128 0x13
 1005 05ae 69010000 		.4byte	.LASF61
 1006 05b2 01       		.byte	0x1
 1007 05b3 C8       		.byte	0xc8
 1008 05b4 00000000 		.4byte	.LFB124
 1009 05b8 14000000 		.4byte	.LFE124-.LFB124
 1010 05bc 01       		.uleb128 0x1
 1011 05bd 9C       		.byte	0x9c
 1012 05be 28060000 		.4byte	0x628
 1013 05c2 16       		.uleb128 0x16
 1014 05c3 2F010000 		.4byte	.LASF55
 1015 05c7 01       		.byte	0x1
 1016 05c8 C8       		.byte	0xc8
 1017 05c9 99010000 		.4byte	0x199
 1018 05cd C0000000 		.4byte	.LLST6
 1019 05d1 16       		.uleb128 0x16
 1020 05d2 10020000 		.4byte	.LASF59
 1021 05d6 01       		.byte	0x1
 1022 05d7 C8       		.byte	0xc8
 1023 05d8 D5020000 		.4byte	0x2d5
 1024 05dc E1000000 		.4byte	.LLST7
 1025 05e0 19       		.uleb128 0x19
 1026 05e1 02000000 		.4byte	.LBB12
ARM GAS  /tmp/ccdEtKVj.s 			page 19


 1027 05e5 06000000 		.4byte	.LBE12-.LBB12
 1028 05e9 FB050000 		.4byte	0x5fb
 1029 05ed 18       		.uleb128 0x18
 1030 05ee 746D7000 		.ascii	"tmp\000"
 1031 05f2 01       		.byte	0x1
 1032 05f3 CD       		.byte	0xcd
 1033 05f4 BF000000 		.4byte	0xbf
 1034 05f8 01       		.uleb128 0x1
 1035 05f9 53       		.byte	0x53
 1036 05fa 00       		.byte	0
 1037 05fb 19       		.uleb128 0x19
 1038 05fc 0C000000 		.4byte	.LBB13
 1039 0600 08000000 		.4byte	.LBE13-.LBB13
 1040 0604 16060000 		.4byte	0x616
 1041 0608 18       		.uleb128 0x18
 1042 0609 746D7000 		.ascii	"tmp\000"
 1043 060d 01       		.byte	0x1
 1044 060e D1       		.byte	0xd1
 1045 060f BF000000 		.4byte	0xbf
 1046 0613 01       		.uleb128 0x1
 1047 0614 53       		.byte	0x53
 1048 0615 00       		.byte	0
 1049 0616 1A       		.uleb128 0x1a
 1050 0617 0C000000 		.4byte	.LVL10
 1051 061b 64060000 		.4byte	0x664
 1052 061f 1B       		.uleb128 0x1b
 1053 0620 01       		.uleb128 0x1
 1054 0621 50       		.byte	0x50
 1055 0622 03       		.uleb128 0x3
 1056 0623 F3       		.byte	0xf3
 1057 0624 01       		.uleb128 0x1
 1058 0625 50       		.byte	0x50
 1059 0626 00       		.byte	0
 1060 0627 00       		.byte	0
 1061 0628 1D       		.uleb128 0x1d
 1062 0629 80030000 		.4byte	.LASF70
 1063 062d 07       		.byte	0x7
 1064 062e 9806     		.2byte	0x698
 1065 0630 E4000000 		.4byte	0xe4
 1066 0634 1E       		.uleb128 0x1e
 1067 0635 DA010000 		.4byte	.LASF62
 1068 0639 DA010000 		.4byte	.LASF62
 1069 063d 05       		.byte	0x5
 1070 063e D101     		.2byte	0x1d1
 1071 0640 1E       		.uleb128 0x1e
 1072 0641 17010000 		.4byte	.LASF63
 1073 0645 17010000 		.4byte	.LASF63
 1074 0649 05       		.byte	0x5
 1075 064a D201     		.2byte	0x1d2
 1076 064c 1E       		.uleb128 0x1e
 1077 064d 05000000 		.4byte	.LASF64
 1078 0651 05000000 		.4byte	.LASF64
 1079 0655 05       		.byte	0x5
 1080 0656 D301     		.2byte	0x1d3
 1081 0658 1E       		.uleb128 0x1e
 1082 0659 52010000 		.4byte	.LASF65
 1083 065d 52010000 		.4byte	.LASF65
ARM GAS  /tmp/ccdEtKVj.s 			page 20


 1084 0661 05       		.byte	0x5
 1085 0662 D401     		.2byte	0x1d4
 1086 0664 1E       		.uleb128 0x1e
 1087 0665 45000000 		.4byte	.LASF66
 1088 0669 45000000 		.4byte	.LASF66
 1089 066d 05       		.byte	0x5
 1090 066e D701     		.2byte	0x1d7
 1091 0670 00       		.byte	0
 1092              		.section	.debug_abbrev,"",%progbits
 1093              	.Ldebug_abbrev0:
 1094 0000 01       		.uleb128 0x1
 1095 0001 11       		.uleb128 0x11
 1096 0002 01       		.byte	0x1
 1097 0003 25       		.uleb128 0x25
 1098 0004 0E       		.uleb128 0xe
 1099 0005 13       		.uleb128 0x13
 1100 0006 0B       		.uleb128 0xb
 1101 0007 03       		.uleb128 0x3
 1102 0008 0E       		.uleb128 0xe
 1103 0009 1B       		.uleb128 0x1b
 1104 000a 0E       		.uleb128 0xe
 1105 000b 55       		.uleb128 0x55
 1106 000c 17       		.uleb128 0x17
 1107 000d 11       		.uleb128 0x11
 1108 000e 01       		.uleb128 0x1
 1109 000f 10       		.uleb128 0x10
 1110 0010 17       		.uleb128 0x17
 1111 0011 00       		.byte	0
 1112 0012 00       		.byte	0
 1113 0013 02       		.uleb128 0x2
 1114 0014 24       		.uleb128 0x24
 1115 0015 00       		.byte	0
 1116 0016 0B       		.uleb128 0xb
 1117 0017 0B       		.uleb128 0xb
 1118 0018 3E       		.uleb128 0x3e
 1119 0019 0B       		.uleb128 0xb
 1120 001a 03       		.uleb128 0x3
 1121 001b 08       		.uleb128 0x8
 1122 001c 00       		.byte	0
 1123 001d 00       		.byte	0
 1124 001e 03       		.uleb128 0x3
 1125 001f 24       		.uleb128 0x24
 1126 0020 00       		.byte	0
 1127 0021 0B       		.uleb128 0xb
 1128 0022 0B       		.uleb128 0xb
 1129 0023 3E       		.uleb128 0x3e
 1130 0024 0B       		.uleb128 0xb
 1131 0025 03       		.uleb128 0x3
 1132 0026 0E       		.uleb128 0xe
 1133 0027 00       		.byte	0
 1134 0028 00       		.byte	0
 1135 0029 04       		.uleb128 0x4
 1136 002a 16       		.uleb128 0x16
 1137 002b 00       		.byte	0
 1138 002c 03       		.uleb128 0x3
 1139 002d 0E       		.uleb128 0xe
 1140 002e 3A       		.uleb128 0x3a
ARM GAS  /tmp/ccdEtKVj.s 			page 21


 1141 002f 0B       		.uleb128 0xb
 1142 0030 3B       		.uleb128 0x3b
 1143 0031 0B       		.uleb128 0xb
 1144 0032 49       		.uleb128 0x49
 1145 0033 13       		.uleb128 0x13
 1146 0034 00       		.byte	0
 1147 0035 00       		.byte	0
 1148 0036 05       		.uleb128 0x5
 1149 0037 35       		.uleb128 0x35
 1150 0038 00       		.byte	0
 1151 0039 49       		.uleb128 0x49
 1152 003a 13       		.uleb128 0x13
 1153 003b 00       		.byte	0
 1154 003c 00       		.byte	0
 1155 003d 06       		.uleb128 0x6
 1156 003e 01       		.uleb128 0x1
 1157 003f 01       		.byte	0x1
 1158 0040 49       		.uleb128 0x49
 1159 0041 13       		.uleb128 0x13
 1160 0042 01       		.uleb128 0x1
 1161 0043 13       		.uleb128 0x13
 1162 0044 00       		.byte	0
 1163 0045 00       		.byte	0
 1164 0046 07       		.uleb128 0x7
 1165 0047 21       		.uleb128 0x21
 1166 0048 00       		.byte	0
 1167 0049 49       		.uleb128 0x49
 1168 004a 13       		.uleb128 0x13
 1169 004b 2F       		.uleb128 0x2f
 1170 004c 0B       		.uleb128 0xb
 1171 004d 00       		.byte	0
 1172 004e 00       		.byte	0
 1173 004f 08       		.uleb128 0x8
 1174 0050 04       		.uleb128 0x4
 1175 0051 01       		.byte	0x1
 1176 0052 0B       		.uleb128 0xb
 1177 0053 0B       		.uleb128 0xb
 1178 0054 49       		.uleb128 0x49
 1179 0055 13       		.uleb128 0x13
 1180 0056 3A       		.uleb128 0x3a
 1181 0057 0B       		.uleb128 0xb
 1182 0058 3B       		.uleb128 0x3b
 1183 0059 0B       		.uleb128 0xb
 1184 005a 01       		.uleb128 0x1
 1185 005b 13       		.uleb128 0x13
 1186 005c 00       		.byte	0
 1187 005d 00       		.byte	0
 1188 005e 09       		.uleb128 0x9
 1189 005f 28       		.uleb128 0x28
 1190 0060 00       		.byte	0
 1191 0061 03       		.uleb128 0x3
 1192 0062 0E       		.uleb128 0xe
 1193 0063 1C       		.uleb128 0x1c
 1194 0064 0B       		.uleb128 0xb
 1195 0065 00       		.byte	0
 1196 0066 00       		.byte	0
 1197 0067 0A       		.uleb128 0xa
ARM GAS  /tmp/ccdEtKVj.s 			page 22


 1198 0068 13       		.uleb128 0x13
 1199 0069 01       		.byte	0x1
 1200 006a 03       		.uleb128 0x3
 1201 006b 0E       		.uleb128 0xe
 1202 006c 0B       		.uleb128 0xb
 1203 006d 0B       		.uleb128 0xb
 1204 006e 3A       		.uleb128 0x3a
 1205 006f 0B       		.uleb128 0xb
 1206 0070 3B       		.uleb128 0x3b
 1207 0071 05       		.uleb128 0x5
 1208 0072 01       		.uleb128 0x1
 1209 0073 13       		.uleb128 0x13
 1210 0074 00       		.byte	0
 1211 0075 00       		.byte	0
 1212 0076 0B       		.uleb128 0xb
 1213 0077 0D       		.uleb128 0xd
 1214 0078 00       		.byte	0
 1215 0079 03       		.uleb128 0x3
 1216 007a 0E       		.uleb128 0xe
 1217 007b 3A       		.uleb128 0x3a
 1218 007c 0B       		.uleb128 0xb
 1219 007d 3B       		.uleb128 0x3b
 1220 007e 05       		.uleb128 0x5
 1221 007f 49       		.uleb128 0x49
 1222 0080 13       		.uleb128 0x13
 1223 0081 38       		.uleb128 0x38
 1224 0082 0B       		.uleb128 0xb
 1225 0083 00       		.byte	0
 1226 0084 00       		.byte	0
 1227 0085 0C       		.uleb128 0xc
 1228 0086 0D       		.uleb128 0xd
 1229 0087 00       		.byte	0
 1230 0088 03       		.uleb128 0x3
 1231 0089 08       		.uleb128 0x8
 1232 008a 3A       		.uleb128 0x3a
 1233 008b 0B       		.uleb128 0xb
 1234 008c 3B       		.uleb128 0x3b
 1235 008d 05       		.uleb128 0x5
 1236 008e 49       		.uleb128 0x49
 1237 008f 13       		.uleb128 0x13
 1238 0090 38       		.uleb128 0x38
 1239 0091 0B       		.uleb128 0xb
 1240 0092 00       		.byte	0
 1241 0093 00       		.byte	0
 1242 0094 0D       		.uleb128 0xd
 1243 0095 0F       		.uleb128 0xf
 1244 0096 00       		.byte	0
 1245 0097 0B       		.uleb128 0xb
 1246 0098 0B       		.uleb128 0xb
 1247 0099 49       		.uleb128 0x49
 1248 009a 13       		.uleb128 0x13
 1249 009b 00       		.byte	0
 1250 009c 00       		.byte	0
 1251 009d 0E       		.uleb128 0xe
 1252 009e 15       		.uleb128 0x15
 1253 009f 01       		.byte	0x1
 1254 00a0 27       		.uleb128 0x27
ARM GAS  /tmp/ccdEtKVj.s 			page 23


 1255 00a1 19       		.uleb128 0x19
 1256 00a2 01       		.uleb128 0x1
 1257 00a3 13       		.uleb128 0x13
 1258 00a4 00       		.byte	0
 1259 00a5 00       		.byte	0
 1260 00a6 0F       		.uleb128 0xf
 1261 00a7 05       		.uleb128 0x5
 1262 00a8 00       		.byte	0
 1263 00a9 49       		.uleb128 0x49
 1264 00aa 13       		.uleb128 0x13
 1265 00ab 00       		.byte	0
 1266 00ac 00       		.byte	0
 1267 00ad 10       		.uleb128 0x10
 1268 00ae 13       		.uleb128 0x13
 1269 00af 01       		.byte	0x1
 1270 00b0 0B       		.uleb128 0xb
 1271 00b1 0B       		.uleb128 0xb
 1272 00b2 3A       		.uleb128 0x3a
 1273 00b3 0B       		.uleb128 0xb
 1274 00b4 3B       		.uleb128 0x3b
 1275 00b5 05       		.uleb128 0x5
 1276 00b6 01       		.uleb128 0x1
 1277 00b7 13       		.uleb128 0x13
 1278 00b8 00       		.byte	0
 1279 00b9 00       		.byte	0
 1280 00ba 11       		.uleb128 0x11
 1281 00bb 16       		.uleb128 0x16
 1282 00bc 00       		.byte	0
 1283 00bd 03       		.uleb128 0x3
 1284 00be 0E       		.uleb128 0xe
 1285 00bf 3A       		.uleb128 0x3a
 1286 00c0 0B       		.uleb128 0xb
 1287 00c1 3B       		.uleb128 0x3b
 1288 00c2 05       		.uleb128 0x5
 1289 00c3 49       		.uleb128 0x49
 1290 00c4 13       		.uleb128 0x13
 1291 00c5 00       		.byte	0
 1292 00c6 00       		.byte	0
 1293 00c7 12       		.uleb128 0x12
 1294 00c8 26       		.uleb128 0x26
 1295 00c9 00       		.byte	0
 1296 00ca 49       		.uleb128 0x49
 1297 00cb 13       		.uleb128 0x13
 1298 00cc 00       		.byte	0
 1299 00cd 00       		.byte	0
 1300 00ce 13       		.uleb128 0x13
 1301 00cf 2E       		.uleb128 0x2e
 1302 00d0 01       		.byte	0x1
 1303 00d1 3F       		.uleb128 0x3f
 1304 00d2 19       		.uleb128 0x19
 1305 00d3 03       		.uleb128 0x3
 1306 00d4 0E       		.uleb128 0xe
 1307 00d5 3A       		.uleb128 0x3a
 1308 00d6 0B       		.uleb128 0xb
 1309 00d7 3B       		.uleb128 0x3b
 1310 00d8 0B       		.uleb128 0xb
 1311 00d9 27       		.uleb128 0x27
ARM GAS  /tmp/ccdEtKVj.s 			page 24


 1312 00da 19       		.uleb128 0x19
 1313 00db 11       		.uleb128 0x11
 1314 00dc 01       		.uleb128 0x1
 1315 00dd 12       		.uleb128 0x12
 1316 00de 06       		.uleb128 0x6
 1317 00df 40       		.uleb128 0x40
 1318 00e0 18       		.uleb128 0x18
 1319 00e1 9742     		.uleb128 0x2117
 1320 00e3 19       		.uleb128 0x19
 1321 00e4 01       		.uleb128 0x1
 1322 00e5 13       		.uleb128 0x13
 1323 00e6 00       		.byte	0
 1324 00e7 00       		.byte	0
 1325 00e8 14       		.uleb128 0x14
 1326 00e9 898201   		.uleb128 0x4109
 1327 00ec 00       		.byte	0
 1328 00ed 11       		.uleb128 0x11
 1329 00ee 01       		.uleb128 0x1
 1330 00ef 9542     		.uleb128 0x2115
 1331 00f1 19       		.uleb128 0x19
 1332 00f2 31       		.uleb128 0x31
 1333 00f3 13       		.uleb128 0x13
 1334 00f4 00       		.byte	0
 1335 00f5 00       		.byte	0
 1336 00f6 15       		.uleb128 0x15
 1337 00f7 05       		.uleb128 0x5
 1338 00f8 00       		.byte	0
 1339 00f9 03       		.uleb128 0x3
 1340 00fa 0E       		.uleb128 0xe
 1341 00fb 3A       		.uleb128 0x3a
 1342 00fc 0B       		.uleb128 0xb
 1343 00fd 3B       		.uleb128 0x3b
 1344 00fe 0B       		.uleb128 0xb
 1345 00ff 49       		.uleb128 0x49
 1346 0100 13       		.uleb128 0x13
 1347 0101 02       		.uleb128 0x2
 1348 0102 18       		.uleb128 0x18
 1349 0103 00       		.byte	0
 1350 0104 00       		.byte	0
 1351 0105 16       		.uleb128 0x16
 1352 0106 05       		.uleb128 0x5
 1353 0107 00       		.byte	0
 1354 0108 03       		.uleb128 0x3
 1355 0109 0E       		.uleb128 0xe
 1356 010a 3A       		.uleb128 0x3a
 1357 010b 0B       		.uleb128 0xb
 1358 010c 3B       		.uleb128 0x3b
 1359 010d 0B       		.uleb128 0xb
 1360 010e 49       		.uleb128 0x49
 1361 010f 13       		.uleb128 0x13
 1362 0110 02       		.uleb128 0x2
 1363 0111 17       		.uleb128 0x17
 1364 0112 00       		.byte	0
 1365 0113 00       		.byte	0
 1366 0114 17       		.uleb128 0x17
 1367 0115 0B       		.uleb128 0xb
 1368 0116 01       		.byte	0x1
ARM GAS  /tmp/ccdEtKVj.s 			page 25


 1369 0117 55       		.uleb128 0x55
 1370 0118 17       		.uleb128 0x17
 1371 0119 01       		.uleb128 0x1
 1372 011a 13       		.uleb128 0x13
 1373 011b 00       		.byte	0
 1374 011c 00       		.byte	0
 1375 011d 18       		.uleb128 0x18
 1376 011e 34       		.uleb128 0x34
 1377 011f 00       		.byte	0
 1378 0120 03       		.uleb128 0x3
 1379 0121 08       		.uleb128 0x8
 1380 0122 3A       		.uleb128 0x3a
 1381 0123 0B       		.uleb128 0xb
 1382 0124 3B       		.uleb128 0x3b
 1383 0125 0B       		.uleb128 0xb
 1384 0126 49       		.uleb128 0x49
 1385 0127 13       		.uleb128 0x13
 1386 0128 02       		.uleb128 0x2
 1387 0129 18       		.uleb128 0x18
 1388 012a 00       		.byte	0
 1389 012b 00       		.byte	0
 1390 012c 19       		.uleb128 0x19
 1391 012d 0B       		.uleb128 0xb
 1392 012e 01       		.byte	0x1
 1393 012f 11       		.uleb128 0x11
 1394 0130 01       		.uleb128 0x1
 1395 0131 12       		.uleb128 0x12
 1396 0132 06       		.uleb128 0x6
 1397 0133 01       		.uleb128 0x1
 1398 0134 13       		.uleb128 0x13
 1399 0135 00       		.byte	0
 1400 0136 00       		.byte	0
 1401 0137 1A       		.uleb128 0x1a
 1402 0138 898201   		.uleb128 0x4109
 1403 013b 01       		.byte	0x1
 1404 013c 11       		.uleb128 0x11
 1405 013d 01       		.uleb128 0x1
 1406 013e 31       		.uleb128 0x31
 1407 013f 13       		.uleb128 0x13
 1408 0140 00       		.byte	0
 1409 0141 00       		.byte	0
 1410 0142 1B       		.uleb128 0x1b
 1411 0143 8A8201   		.uleb128 0x410a
 1412 0146 00       		.byte	0
 1413 0147 02       		.uleb128 0x2
 1414 0148 18       		.uleb128 0x18
 1415 0149 9142     		.uleb128 0x2111
 1416 014b 18       		.uleb128 0x18
 1417 014c 00       		.byte	0
 1418 014d 00       		.byte	0
 1419 014e 1C       		.uleb128 0x1c
 1420 014f 0B       		.uleb128 0xb
 1421 0150 01       		.byte	0x1
 1422 0151 11       		.uleb128 0x11
 1423 0152 01       		.uleb128 0x1
 1424 0153 12       		.uleb128 0x12
 1425 0154 06       		.uleb128 0x6
ARM GAS  /tmp/ccdEtKVj.s 			page 26


 1426 0155 00       		.byte	0
 1427 0156 00       		.byte	0
 1428 0157 1D       		.uleb128 0x1d
 1429 0158 34       		.uleb128 0x34
 1430 0159 00       		.byte	0
 1431 015a 03       		.uleb128 0x3
 1432 015b 0E       		.uleb128 0xe
 1433 015c 3A       		.uleb128 0x3a
 1434 015d 0B       		.uleb128 0xb
 1435 015e 3B       		.uleb128 0x3b
 1436 015f 05       		.uleb128 0x5
 1437 0160 49       		.uleb128 0x49
 1438 0161 13       		.uleb128 0x13
 1439 0162 3F       		.uleb128 0x3f
 1440 0163 19       		.uleb128 0x19
 1441 0164 3C       		.uleb128 0x3c
 1442 0165 19       		.uleb128 0x19
 1443 0166 00       		.byte	0
 1444 0167 00       		.byte	0
 1445 0168 1E       		.uleb128 0x1e
 1446 0169 2E       		.uleb128 0x2e
 1447 016a 00       		.byte	0
 1448 016b 3F       		.uleb128 0x3f
 1449 016c 19       		.uleb128 0x19
 1450 016d 3C       		.uleb128 0x3c
 1451 016e 19       		.uleb128 0x19
 1452 016f 6E       		.uleb128 0x6e
 1453 0170 0E       		.uleb128 0xe
 1454 0171 03       		.uleb128 0x3
 1455 0172 0E       		.uleb128 0xe
 1456 0173 3A       		.uleb128 0x3a
 1457 0174 0B       		.uleb128 0xb
 1458 0175 3B       		.uleb128 0x3b
 1459 0176 05       		.uleb128 0x5
 1460 0177 00       		.byte	0
 1461 0178 00       		.byte	0
 1462 0179 00       		.byte	0
 1463              		.section	.debug_loc,"",%progbits
 1464              	.Ldebug_loc0:
 1465              	.LLST0:
 1466 0000 00000000 		.4byte	.LVL2
 1467 0004 13000000 		.4byte	.LVL3-1
 1468 0008 0100     		.2byte	0x1
 1469 000a 50       		.byte	0x50
 1470 000b 13000000 		.4byte	.LVL3-1
 1471 000f 20000000 		.4byte	.LFE120
 1472 0013 0100     		.2byte	0x1
 1473 0015 54       		.byte	0x54
 1474 0016 00000000 		.4byte	0
 1475 001a 00000000 		.4byte	0
 1476              	.LLST1:
 1477 001e 00000000 		.4byte	.LVL2
 1478 0022 13000000 		.4byte	.LVL3-1
 1479 0026 0100     		.2byte	0x1
 1480 0028 51       		.byte	0x51
 1481 0029 13000000 		.4byte	.LVL3-1
 1482 002d 20000000 		.4byte	.LFE120
ARM GAS  /tmp/ccdEtKVj.s 			page 27


 1483 0031 0400     		.2byte	0x4
 1484 0033 F3       		.byte	0xf3
 1485 0034 01       		.uleb128 0x1
 1486 0035 51       		.byte	0x51
 1487 0036 9F       		.byte	0x9f
 1488 0037 00000000 		.4byte	0
 1489 003b 00000000 		.4byte	0
 1490              	.LLST2:
 1491 003f 00000000 		.4byte	.LVL4
 1492 0043 0D000000 		.4byte	.LVL5-1
 1493 0047 0100     		.2byte	0x1
 1494 0049 50       		.byte	0x50
 1495 004a 0D000000 		.4byte	.LVL5-1
 1496 004e 1A000000 		.4byte	.LFE121
 1497 0052 0100     		.2byte	0x1
 1498 0054 54       		.byte	0x54
 1499 0055 00000000 		.4byte	0
 1500 0059 00000000 		.4byte	0
 1501              	.LLST3:
 1502 005d 00000000 		.4byte	.LVL7
 1503 0061 0B000000 		.4byte	.LVL8-1
 1504 0065 0100     		.2byte	0x1
 1505 0067 50       		.byte	0x50
 1506 0068 0B000000 		.4byte	.LVL8-1
 1507 006c 14000000 		.4byte	.LFE123
 1508 0070 0400     		.2byte	0x4
 1509 0072 F3       		.byte	0xf3
 1510 0073 01       		.uleb128 0x1
 1511 0074 50       		.byte	0x50
 1512 0075 9F       		.byte	0x9f
 1513 0076 00000000 		.4byte	0
 1514 007a 00000000 		.4byte	0
 1515              	.LLST4:
 1516 007e 00000000 		.4byte	.LVL7
 1517 0082 0B000000 		.4byte	.LVL8-1
 1518 0086 0100     		.2byte	0x1
 1519 0088 51       		.byte	0x51
 1520 0089 0B000000 		.4byte	.LVL8-1
 1521 008d 14000000 		.4byte	.LFE123
 1522 0091 0400     		.2byte	0x4
 1523 0093 F3       		.byte	0xf3
 1524 0094 01       		.uleb128 0x1
 1525 0095 51       		.byte	0x51
 1526 0096 9F       		.byte	0x9f
 1527 0097 00000000 		.4byte	0
 1528 009b 00000000 		.4byte	0
 1529              	.LLST5:
 1530 009f 00000000 		.4byte	.LVL7
 1531 00a3 0B000000 		.4byte	.LVL8-1
 1532 00a7 0100     		.2byte	0x1
 1533 00a9 52       		.byte	0x52
 1534 00aa 0B000000 		.4byte	.LVL8-1
 1535 00ae 14000000 		.4byte	.LFE123
 1536 00b2 0400     		.2byte	0x4
 1537 00b4 F3       		.byte	0xf3
 1538 00b5 01       		.uleb128 0x1
 1539 00b6 52       		.byte	0x52
ARM GAS  /tmp/ccdEtKVj.s 			page 28


 1540 00b7 9F       		.byte	0x9f
 1541 00b8 00000000 		.4byte	0
 1542 00bc 00000000 		.4byte	0
 1543              	.LLST6:
 1544 00c0 00000000 		.4byte	.LVL9
 1545 00c4 0B000000 		.4byte	.LVL10-1
 1546 00c8 0100     		.2byte	0x1
 1547 00ca 50       		.byte	0x50
 1548 00cb 0B000000 		.4byte	.LVL10-1
 1549 00cf 14000000 		.4byte	.LFE124
 1550 00d3 0400     		.2byte	0x4
 1551 00d5 F3       		.byte	0xf3
 1552 00d6 01       		.uleb128 0x1
 1553 00d7 50       		.byte	0x50
 1554 00d8 9F       		.byte	0x9f
 1555 00d9 00000000 		.4byte	0
 1556 00dd 00000000 		.4byte	0
 1557              	.LLST7:
 1558 00e1 00000000 		.4byte	.LVL9
 1559 00e5 0B000000 		.4byte	.LVL10-1
 1560 00e9 0100     		.2byte	0x1
 1561 00eb 51       		.byte	0x51
 1562 00ec 0B000000 		.4byte	.LVL10-1
 1563 00f0 14000000 		.4byte	.LFE124
 1564 00f4 0400     		.2byte	0x4
 1565 00f6 F3       		.byte	0xf3
 1566 00f7 01       		.uleb128 0x1
 1567 00f8 51       		.byte	0x51
 1568 00f9 9F       		.byte	0x9f
 1569 00fa 00000000 		.4byte	0
 1570 00fe 00000000 		.4byte	0
 1571              		.section	.debug_aranges,"",%progbits
 1572 0000 4C000000 		.4byte	0x4c
 1573 0004 0200     		.2byte	0x2
 1574 0006 00000000 		.4byte	.Ldebug_info0
 1575 000a 04       		.byte	0x4
 1576 000b 00       		.byte	0
 1577 000c 0000     		.2byte	0
 1578 000e 0000     		.2byte	0
 1579 0010 00000000 		.4byte	.LFB118
 1580 0014 04000000 		.4byte	.LFE118-.LFB118
 1581 0018 00000000 		.4byte	.LFB119
 1582 001c 0A000000 		.4byte	.LFE119-.LFB119
 1583 0020 00000000 		.4byte	.LFB120
 1584 0024 20000000 		.4byte	.LFE120-.LFB120
 1585 0028 00000000 		.4byte	.LFB121
 1586 002c 1A000000 		.4byte	.LFE121-.LFB121
 1587 0030 00000000 		.4byte	.LFB122
 1588 0034 18000000 		.4byte	.LFE122-.LFB122
 1589 0038 00000000 		.4byte	.LFB123
 1590 003c 14000000 		.4byte	.LFE123-.LFB123
 1591 0040 00000000 		.4byte	.LFB124
 1592 0044 14000000 		.4byte	.LFE124-.LFB124
 1593 0048 00000000 		.4byte	0
 1594 004c 00000000 		.4byte	0
 1595              		.section	.debug_ranges,"",%progbits
 1596              	.Ldebug_ranges0:
ARM GAS  /tmp/ccdEtKVj.s 			page 29


 1597 0000 02000000 		.4byte	.LBB2
 1598 0004 04000000 		.4byte	.LBE2
 1599 0008 06000000 		.4byte	.LBB3
 1600 000c 0A000000 		.4byte	.LBE3
 1601 0010 00000000 		.4byte	0
 1602 0014 00000000 		.4byte	0
 1603 0018 02000000 		.4byte	.LBB5
 1604 001c 04000000 		.4byte	.LBE5
 1605 0020 06000000 		.4byte	.LBB6
 1606 0024 0A000000 		.4byte	.LBE6
 1607 0028 00000000 		.4byte	0
 1608 002c 00000000 		.4byte	0
 1609 0030 00000000 		.4byte	.LFB118
 1610 0034 04000000 		.4byte	.LFE118
 1611 0038 00000000 		.4byte	.LFB119
 1612 003c 0A000000 		.4byte	.LFE119
 1613 0040 00000000 		.4byte	.LFB120
 1614 0044 20000000 		.4byte	.LFE120
 1615 0048 00000000 		.4byte	.LFB121
 1616 004c 1A000000 		.4byte	.LFE121
 1617 0050 00000000 		.4byte	.LFB122
 1618 0054 18000000 		.4byte	.LFE122
 1619 0058 00000000 		.4byte	.LFB123
 1620 005c 14000000 		.4byte	.LFE123
 1621 0060 00000000 		.4byte	.LFB124
 1622 0064 14000000 		.4byte	.LFE124
 1623 0068 00000000 		.4byte	0
 1624 006c 00000000 		.4byte	0
 1625              		.section	.debug_line,"",%progbits
 1626              	.Ldebug_line0:
 1627 0000 18020000 		.section	.debug_str,"MS",%progbits,1
 1627      02008601 
 1627      00000201 
 1627      FB0E0D00 
 1627      01010101 
 1628              	.LASF35:
 1629 0000 43434552 		.ascii	"CCER\000"
 1629      00
 1630              	.LASF64:
 1631 0005 70776D5F 		.ascii	"pwm_lld_stop\000"
 1631      6C6C645F 
 1631      73746F70 
 1631      00
 1632              	.LASF37:
 1633 0012 444D4152 		.ascii	"DMAR\000"
 1633      00
 1634              	.LASF26:
 1635 0017 73746174 		.ascii	"state\000"
 1635      6500
 1636              	.LASF34:
 1637 001d 43434D52 		.ascii	"CCMR2\000"
 1637      3200
 1638              	.LASF38:
 1639 0023 43434D52 		.ascii	"CCMR3\000"
 1639      3300
 1640              	.LASF5:
 1641 0029 73686F72 		.ascii	"short int\000"
ARM GAS  /tmp/ccdEtKVj.s 			page 30


 1641      7420696E 
 1641      7400
 1642              	.LASF44:
 1643 0033 70776D63 		.ascii	"pwmcnt_t\000"
 1643      6E745F74 
 1643      00
 1644              	.LASF19:
 1645 003c 73697A65 		.ascii	"sizetype\000"
 1645      74797065 
 1645      00
 1646              	.LASF66:
 1647 0045 70776D5F 		.ascii	"pwm_lld_disable_channel\000"
 1647      6C6C645F 
 1647      64697361 
 1647      626C655F 
 1647      6368616E 
 1648              	.LASF43:
 1649 005d 70776D63 		.ascii	"pwmchannel_t\000"
 1649      68616E6E 
 1649      656C5F74 
 1649      00
 1650              	.LASF11:
 1651 006a 5F5F7569 		.ascii	"__uint32_t\000"
 1651      6E743332 
 1651      5F7400
 1652              	.LASF45:
 1653 0075 6D6F6465 		.ascii	"mode\000"
 1653      00
 1654              	.LASF7:
 1655 007a 5F5F7569 		.ascii	"__uint16_t\000"
 1655      6E743136 
 1655      5F7400
 1656              	.LASF49:
 1657 0085 6368616E 		.ascii	"channels\000"
 1657      6E656C73 
 1657      00
 1658              	.LASF27:
 1659 008e 636F6E66 		.ascii	"config\000"
 1659      696700
 1660              	.LASF53:
 1661 0095 70776D4F 		.ascii	"pwmObjectInit\000"
 1661      626A6563 
 1661      74496E69 
 1661      7400
 1662              	.LASF14:
 1663 00a3 75696E74 		.ascii	"uint8_t\000"
 1663      385F7400 
 1664              	.LASF58:
 1665 00ab 70776D45 		.ascii	"pwmEnableChannel\000"
 1665      6E61626C 
 1665      65436861 
 1665      6E6E656C 
 1665      00
 1666              	.LASF60:
 1667 00bc 77696474 		.ascii	"width\000"
 1667      6800
 1668              	.LASF2:
ARM GAS  /tmp/ccdEtKVj.s 			page 31


 1669 00c2 6C6F6E67 		.ascii	"long double\000"
 1669      20646F75 
 1669      626C6500 
 1670              	.LASF54:
 1671 00ce 70776D53 		.ascii	"pwmStart\000"
 1671      74617274 
 1671      00
 1672              	.LASF1:
 1673 00d7 6C6F6E67 		.ascii	"long long int\000"
 1673      206C6F6E 
 1673      6720696E 
 1673      7400
 1674              	.LASF10:
 1675 00e5 6C6F6E67 		.ascii	"long int\000"
 1675      20696E74 
 1675      00
 1676              	.LASF52:
 1677 00ee 70776D49 		.ascii	"pwmInit\000"
 1677      6E697400 
 1678              	.LASF39:
 1679 00f6 43435235 		.ascii	"CCR5\000"
 1679      00
 1680              	.LASF40:
 1681 00fb 43435236 		.ascii	"CCR6\000"
 1681      00
 1682              	.LASF28:
 1683 0100 70657269 		.ascii	"period\000"
 1683      6F6400
 1684              	.LASF6:
 1685 0107 5F5F7569 		.ascii	"__uint8_t\000"
 1685      6E74385F 
 1685      7400
 1686              	.LASF33:
 1687 0111 43434D52 		.ascii	"CCMR1\000"
 1687      3100
 1688              	.LASF63:
 1689 0117 70776D5F 		.ascii	"pwm_lld_start\000"
 1689      6C6C645F 
 1689      73746172 
 1689      7400
 1690              	.LASF51:
 1691 0125 50574D43 		.ascii	"PWMConfig\000"
 1691      6F6E6669 
 1691      6700
 1692              	.LASF55:
 1693 012f 70776D70 		.ascii	"pwmp\000"
 1693      00
 1694              	.LASF31:
 1695 0134 534D4352 		.ascii	"SMCR\000"
 1695      00
 1696              	.LASF21:
 1697 0139 50574D5F 		.ascii	"PWM_UNINIT\000"
 1697      554E494E 
 1697      495400
 1698              	.LASF4:
 1699 0144 756E7369 		.ascii	"unsigned char\000"
 1699      676E6564 
ARM GAS  /tmp/ccdEtKVj.s 			page 32


 1699      20636861 
 1699      7200
 1700              	.LASF65:
 1701 0152 70776D5F 		.ascii	"pwm_lld_enable_channel\000"
 1701      6C6C645F 
 1701      656E6162 
 1701      6C655F63 
 1701      68616E6E 
 1702              	.LASF61:
 1703 0169 70776D44 		.ascii	"pwmDisableChannel\000"
 1703      69736162 
 1703      6C654368 
 1703      616E6E65 
 1703      6C00
 1704              	.LASF3:
 1705 017b 7369676E 		.ascii	"signed char\000"
 1705      65642063 
 1705      68617200 
 1706              	.LASF13:
 1707 0187 6C6F6E67 		.ascii	"long long unsigned int\000"
 1707      206C6F6E 
 1707      6720756E 
 1707      7369676E 
 1707      65642069 
 1708              	.LASF17:
 1709 019e 75696E74 		.ascii	"uint32_t\000"
 1709      33325F74 
 1709      00
 1710              	.LASF0:
 1711 01a7 756E7369 		.ascii	"unsigned int\000"
 1711      676E6564 
 1711      20696E74 
 1711      00
 1712              	.LASF15:
 1713 01b4 75696E74 		.ascii	"uint16_t\000"
 1713      31365F74 
 1713      00
 1714              	.LASF36:
 1715 01bd 42445452 		.ascii	"BDTR\000"
 1715      00
 1716              	.LASF32:
 1717 01c2 44494552 		.ascii	"DIER\000"
 1717      00
 1718              	.LASF8:
 1719 01c7 73686F72 		.ascii	"short unsigned int\000"
 1719      7420756E 
 1719      7369676E 
 1719      65642069 
 1719      6E7400
 1720              	.LASF62:
 1721 01da 70776D5F 		.ascii	"pwm_lld_init\000"
 1721      6C6C645F 
 1721      696E6974 
 1721      00
 1722              	.LASF20:
 1723 01e7 63686172 		.ascii	"char\000"
 1723      00
ARM GAS  /tmp/ccdEtKVj.s 			page 33


 1724              	.LASF41:
 1725 01ec 73746D33 		.ascii	"stm32_tim_t\000"
 1725      325F7469 
 1725      6D5F7400 
 1726              	.LASF25:
 1727 01f8 50574D44 		.ascii	"PWMDriver\000"
 1727      72697665 
 1727      7200
 1728              	.LASF16:
 1729 0202 696E7433 		.ascii	"int32_t\000"
 1729      325F7400 
 1730              	.LASF18:
 1731 020a 5F426F6F 		.ascii	"_Bool\000"
 1731      6C00
 1732              	.LASF59:
 1733 0210 6368616E 		.ascii	"channel\000"
 1733      6E656C00 
 1734              	.LASF57:
 1735 0218 70776D43 		.ascii	"pwmChangePeriod\000"
 1735      68616E67 
 1735      65506572 
 1735      696F6400 
 1736              	.LASF12:
 1737 0228 6C6F6E67 		.ascii	"long unsigned int\000"
 1737      20756E73 
 1737      69676E65 
 1737      6420696E 
 1737      7400
 1738              	.LASF29:
 1739 023a 636C6F63 		.ascii	"clock\000"
 1739      6B00
 1740              	.LASF68:
 1741 0240 2E2E2F2E 		.ascii	"../../os/hal/src/pwm.c\000"
 1741      2E2F6F73 
 1741      2F68616C 
 1741      2F737263 
 1741      2F70776D 
 1742              	.LASF9:
 1743 0257 5F5F696E 		.ascii	"__int32_t\000"
 1743      7433325F 
 1743      7400
 1744              	.LASF23:
 1745 0261 50574D5F 		.ascii	"PWM_READY\000"
 1745      52454144 
 1745      5900
 1746              	.LASF22:
 1747 026b 50574D5F 		.ascii	"PWM_STOP\000"
 1747      53544F50 
 1747      00
 1748              	.LASF50:
 1749 0274 64696572 		.ascii	"dier\000"
 1749      00
 1750              	.LASF56:
 1751 0279 70776D53 		.ascii	"pwmStop\000"
 1751      746F7000 
 1752              	.LASF48:
 1753 0281 66726571 		.ascii	"frequency\000"
ARM GAS  /tmp/ccdEtKVj.s 			page 34


 1753      75656E63 
 1753      7900
 1754              	.LASF47:
 1755 028b 50574D43 		.ascii	"PWMChannelConfig\000"
 1755      68616E6E 
 1755      656C436F 
 1755      6E666967 
 1755      00
 1756              	.LASF67:
 1757 029c 474E5520 		.ascii	"GNU C11 5.3.1 20160307 (release) [ARM/embedded-5-br"
 1757      43313120 
 1757      352E332E 
 1757      31203230 
 1757      31363033 
 1758 02cf 616E6368 		.ascii	"anch revision 234589] -mcpu=cortex-m4 -mno-thumb-in"
 1758      20726576 
 1758      6973696F 
 1758      6E203233 
 1758      34353839 
 1759 0302 74657277 		.ascii	"terwork -mthumb -ggdb -O2 -fomit-frame-pointer -fal"
 1759      6F726B20 
 1759      2D6D7468 
 1759      756D6220 
 1759      2D676764 
 1760 0335 69676E2D 		.ascii	"ign-functions=16 -ffunction-sections -fdata-section"
 1760      66756E63 
 1760      74696F6E 
 1760      733D3136 
 1760      202D6666 
 1761 0368 73202D66 		.ascii	"s -fno-common\000"
 1761      6E6F2D63 
 1761      6F6D6D6F 
 1761      6E00
 1762              	.LASF42:
 1763 0376 70776D6D 		.ascii	"pwmmode_t\000"
 1763      6F64655F 
 1763      7400
 1764              	.LASF70:
 1765 0380 49544D5F 		.ascii	"ITM_RxBuffer\000"
 1765      52784275 
 1765      66666572 
 1765      00
 1766              	.LASF24:
 1767 038d 70776D73 		.ascii	"pwmstate_t\000"
 1767      74617465 
 1767      5F7400
 1768              	.LASF30:
 1769 0398 70776D63 		.ascii	"pwmcallback_t\000"
 1769      616C6C62 
 1769      61636B5F 
 1769      7400
 1770              	.LASF69:
 1771 03a6 2F686F6D 		.ascii	"/home/lithium/Documentos/ChibiOS_2.6.8/demos/PodioV"
 1771      652F6C69 
 1771      74686975 
 1771      6D2F446F 
 1771      63756D65 
ARM GAS  /tmp/ccdEtKVj.s 			page 35


 1772 03d9 69727475 		.ascii	"irtual\000"
 1772      616C00
 1773              	.LASF46:
 1774 03e0 63616C6C 		.ascii	"callback\000"
 1774      6261636B 
 1774      00
 1775              		.ident	"GCC: (GNU Tools for ARM Embedded Processors) 5.3.1 20160307 (release) [ARM/embedded-5-bran
ARM GAS  /tmp/ccdEtKVj.s 			page 36


DEFINED SYMBOLS
                            *ABS*:00000000 pwm.c
     /tmp/ccdEtKVj.s:20     .text.pwmInit:00000000 $t
     /tmp/ccdEtKVj.s:26     .text.pwmInit:00000000 pwmInit
     /tmp/ccdEtKVj.s:41     .text.pwmObjectInit:00000000 $t
     /tmp/ccdEtKVj.s:47     .text.pwmObjectInit:00000000 pwmObjectInit
     /tmp/ccdEtKVj.s:68     .text.pwmStart:00000000 $t
     /tmp/ccdEtKVj.s:74     .text.pwmStart:00000000 pwmStart
     /tmp/ccdEtKVj.s:126    .text.pwmStop:00000000 $t
     /tmp/ccdEtKVj.s:132    .text.pwmStop:00000000 pwmStop
     /tmp/ccdEtKVj.s:179    .text.pwmChangePeriod:00000000 $t
     /tmp/ccdEtKVj.s:185    .text.pwmChangePeriod:00000000 pwmChangePeriod
     /tmp/ccdEtKVj.s:224    .text.pwmEnableChannel:00000000 $t
     /tmp/ccdEtKVj.s:230    .text.pwmEnableChannel:00000000 pwmEnableChannel
     /tmp/ccdEtKVj.s:269    .text.pwmDisableChannel:00000000 $t
     /tmp/ccdEtKVj.s:275    .text.pwmDisableChannel:00000000 pwmDisableChannel
                     .debug_frame:00000010 $d

UNDEFINED SYMBOLS
pwm_lld_init
pwm_lld_start
pwm_lld_stop
pwm_lld_enable_channel
pwm_lld_disable_channel
