ARM GAS  /tmp/ccT8sA7g.s 			page 1


   1              		.syntax unified
   2              		.cpu cortex-m4
   3              		.fpu softvfp
   4              		.eabi_attribute 20, 1
   5              		.eabi_attribute 21, 1
   6              		.eabi_attribute 23, 3
   7              		.eabi_attribute 24, 1
   8              		.eabi_attribute 25, 1
   9              		.eabi_attribute 26, 1
  10              		.eabi_attribute 30, 2
  11              		.eabi_attribute 34, 1
  12              		.eabi_attribute 18, 4
  13              		.thumb
  14              		.syntax unified
  15              		.file	"pwm_lld.c"
  16              		.text
  17              	.Ltext0:
  18              		.cfi_sections	.debug_frame
  19              		.section	.text.VectorA4,"ax",%progbits
  20              		.align	2
  21              		.p2align 4,,15
  22              		.global	VectorA4
  23              		.thumb
  24              		.thumb_func
  25              		.type	VectorA4, %function
  26              	VectorA4:
  27              	.LFB118:
  28              		.file 1 "../../os/hal/platforms/STM32/TIMv1/pwm_lld.c"
  29              		.loc 1 147 0
  30              		.cfi_startproc
  31              		@ args = 0, pretend = 0, frame = 0
  32              		@ frame_needed = 0, uses_anonymous_args = 0
  33 0000 08B5     		push	{r3, lr}
  34              		.cfi_def_cfa_offset 8
  35              		.cfi_offset 3, -8
  36              		.cfi_offset 14, -4
  37              		.loc 1 152 0
  38 0002 0648     		ldr	r0, .L3
  39              		.loc 1 151 0
  40 0004 064A     		ldr	r2, .L3+4
  41              		.loc 1 152 0
  42 0006 4368     		ldr	r3, [r0, #4]
  43              		.loc 1 151 0
  44 0008 6FF00101 		mvn	r1, #1
  45              		.loc 1 152 0
  46 000c 9B68     		ldr	r3, [r3, #8]
  47              		.loc 1 151 0
  48 000e 1161     		str	r1, [r2, #16]
  49              		.loc 1 152 0
  50 0010 9847     		blx	r3
  51              	.LVL0:
  52              		.loc 1 155 0
  53 0012 BDE80840 		pop	{r3, lr}
  54              		.cfi_restore 14
  55              		.cfi_restore 3
  56              		.cfi_def_cfa_offset 0
  57              		.loc 1 154 0
ARM GAS  /tmp/ccT8sA7g.s 			page 2


  58 0016 FFF7FEBF 		b	_port_irq_epilogue
  59              	.LVL1:
  60              	.L4:
  61 001a 00BF     		.align	2
  62              	.L3:
  63 001c 00000000 		.word	.LANCHOR0
  64 0020 00000140 		.word	1073807360
  65              		.cfi_endproc
  66              	.LFE118:
  67              		.size	VectorA4, .-VectorA4
  68              		.section	.text.VectorAC,"ax",%progbits
  69              		.align	2
  70              		.p2align 4,,15
  71              		.global	VectorAC
  72              		.thumb
  73              		.thumb_func
  74              		.type	VectorAC, %function
  75              	VectorAC:
  76              	.LFB119:
  77              		.loc 1 168 0
  78              		.cfi_startproc
  79              		@ args = 0, pretend = 0, frame = 0
  80              		@ frame_needed = 0, uses_anonymous_args = 0
  81              		.loc 1 173 0
  82 0000 134B     		ldr	r3, .L27
  83              		.loc 1 168 0
  84 0002 10B5     		push	{r4, lr}
  85              		.cfi_def_cfa_offset 8
  86              		.cfi_offset 4, -8
  87              		.cfi_offset 14, -4
  88              		.loc 1 173 0
  89 0004 1C69     		ldr	r4, [r3, #16]
  90 0006 DA68     		ldr	r2, [r3, #12]
  91 0008 1440     		ands	r4, r4, r2
  92 000a A4B2     		uxth	r4, r4
  93              	.LVL2:
  94              		.loc 1 174 0
  95 000c E2B2     		uxtb	r2, r4
  96 000e D243     		mvns	r2, r2
  97              		.loc 1 175 0
  98 0010 A007     		lsls	r0, r4, #30
  99              		.loc 1 174 0
 100 0012 1A61     		str	r2, [r3, #16]
 101              		.loc 1 175 0
 102 0014 17D4     		bmi	.L24
 103              	.L6:
 104              		.loc 1 177 0
 105 0016 6107     		lsls	r1, r4, #29
 106 0018 10D4     		bmi	.L25
 107              	.L7:
 108              		.loc 1 179 0
 109 001a 2207     		lsls	r2, r4, #28
 110 001c 09D4     		bmi	.L26
 111              	.L8:
 112              		.loc 1 181 0
 113 001e E306     		lsls	r3, r4, #27
 114 0020 03D5     		bpl	.L9
ARM GAS  /tmp/ccT8sA7g.s 			page 3


 115              		.loc 1 182 0
 116 0022 0C48     		ldr	r0, .L27+4
 117 0024 4368     		ldr	r3, [r0, #4]
 118 0026 9B6A     		ldr	r3, [r3, #40]
 119 0028 9847     		blx	r3
 120              	.LVL3:
 121              	.L9:
 122              		.loc 1 185 0
 123 002a BDE81040 		pop	{r4, lr}
 124              		.cfi_remember_state
 125              		.cfi_restore 14
 126              		.cfi_restore 4
 127              		.cfi_def_cfa_offset 0
 128              	.LVL4:
 129              		.loc 1 184 0
 130 002e FFF7FEBF 		b	_port_irq_epilogue
 131              	.LVL5:
 132              	.L26:
 133              		.cfi_restore_state
 134              		.loc 1 180 0
 135 0032 0848     		ldr	r0, .L27+4
 136 0034 4368     		ldr	r3, [r0, #4]
 137 0036 1B6A     		ldr	r3, [r3, #32]
 138 0038 9847     		blx	r3
 139              	.LVL6:
 140 003a F0E7     		b	.L8
 141              	.L25:
 142              		.loc 1 178 0
 143 003c 0548     		ldr	r0, .L27+4
 144 003e 4368     		ldr	r3, [r0, #4]
 145 0040 9B69     		ldr	r3, [r3, #24]
 146 0042 9847     		blx	r3
 147              	.LVL7:
 148 0044 E9E7     		b	.L7
 149              	.L24:
 150              		.loc 1 176 0
 151 0046 0348     		ldr	r0, .L27+4
 152 0048 4368     		ldr	r3, [r0, #4]
 153 004a 1B69     		ldr	r3, [r3, #16]
 154 004c 9847     		blx	r3
 155              	.LVL8:
 156 004e E2E7     		b	.L6
 157              	.L28:
 158              		.align	2
 159              	.L27:
 160 0050 00000140 		.word	1073807360
 161 0054 00000000 		.word	.LANCHOR0
 162              		.cfi_endproc
 163              	.LFE119:
 164              		.size	VectorAC, .-VectorAC
 165              		.section	.text.pwm_lld_init,"ax",%progbits
 166              		.align	2
 167              		.p2align 4,,15
 168              		.global	pwm_lld_init
 169              		.thumb
 170              		.thumb_func
 171              		.type	pwm_lld_init, %function
ARM GAS  /tmp/ccT8sA7g.s 			page 4


 172              	pwm_lld_init:
 173              	.LFB120:
 174              		.loc 1 345 0
 175              		.cfi_startproc
 176              		@ args = 0, pretend = 0, frame = 0
 177              		@ frame_needed = 0, uses_anonymous_args = 0
 178 0000 10B5     		push	{r4, lr}
 179              		.cfi_def_cfa_offset 8
 180              		.cfi_offset 4, -8
 181              		.cfi_offset 14, -4
 182              		.loc 1 349 0
 183 0002 034C     		ldr	r4, .L31
 184 0004 2046     		mov	r0, r4
 185 0006 FFF7FEFF 		bl	pwmObjectInit
 186              	.LVL9:
 187              		.loc 1 350 0
 188 000a 024B     		ldr	r3, .L31+4
 189 000c 2361     		str	r3, [r4, #16]
 190 000e 10BD     		pop	{r4, pc}
 191              	.L32:
 192              		.align	2
 193              	.L31:
 194 0010 00000000 		.word	.LANCHOR0
 195 0014 00000140 		.word	1073807360
 196              		.cfi_endproc
 197              	.LFE120:
 198              		.size	pwm_lld_init, .-pwm_lld_init
 199              		.section	.text.pwm_lld_start,"ax",%progbits
 200              		.align	2
 201              		.p2align 4,,15
 202              		.global	pwm_lld_start
 203              		.thumb
 204              		.thumb_func
 205              		.type	pwm_lld_start, %function
 206              	pwm_lld_start:
 207              	.LFB121:
 208              		.loc 1 399 0
 209              		.cfi_startproc
 210              		@ args = 0, pretend = 0, frame = 0
 211              		@ frame_needed = 0, uses_anonymous_args = 0
 212              	.LVL10:
 213              		.loc 1 403 0
 214 0000 0378     		ldrb	r3, [r0]	@ zero_extendqisi2
 215 0002 012B     		cmp	r3, #1
 216              		.loc 1 399 0
 217 0004 70B5     		push	{r4, r5, r6, lr}
 218              		.cfi_def_cfa_offset 16
 219              		.cfi_offset 4, -16
 220              		.cfi_offset 5, -12
 221              		.cfi_offset 6, -8
 222              		.cfi_offset 14, -4
 223              		.loc 1 399 0
 224 0006 0446     		mov	r4, r0
 225              		.loc 1 403 0
 226 0008 55D0     		beq	.L61
 227              		.loc 1 491 0
 228 000a 0369     		ldr	r3, [r0, #16]
ARM GAS  /tmp/ccT8sA7g.s 			page 5


 229 000c 0022     		movs	r2, #0
 230 000e 1A60     		str	r2, [r3]
 231              		.loc 1 492 0
 232 0010 5A63     		str	r2, [r3, #52]
 233              		.loc 1 493 0
 234 0012 9A63     		str	r2, [r3, #56]
 235              		.loc 1 494 0
 236 0014 DA63     		str	r2, [r3, #60]
 237              		.loc 1 495 0
 238 0016 1A64     		str	r2, [r3, #64]
 239              		.loc 1 496 0
 240 0018 5A62     		str	r2, [r3, #36]
 241              	.LVL11:
 242              	.L36:
 243              		.loc 1 500 0
 244 001a 6168     		ldr	r1, [r4, #4]
 245              	.LVL12:
 246              		.loc 1 505 0
 247 001c 2589     		ldrh	r5, [r4, #8]
 248              		.loc 1 510 0
 249 001e CA68     		ldr	r2, [r1, #12]
 250              		.loc 1 504 0
 251 0020 E068     		ldr	r0, [r4, #12]
 252 0022 0E68     		ldr	r6, [r1]
 253 0024 B0FBF6F0 		udiv	r0, r0, r6
 254              		.loc 1 505 0
 255 0028 6C1E     		subs	r4, r5, #1
 256              	.LVL13:
 257              		.loc 1 504 0
 258 002a 0138     		subs	r0, r0, #1
 259              	.LVL14:
 260              		.loc 1 510 0
 261 002c 02F00F02 		and	r2, r2, #15
 262              		.loc 1 506 0
 263 0030 CD6A     		ldr	r5, [r1, #44]
 264              		.loc 1 504 0
 265 0032 80B2     		uxth	r0, r0
 266              	.LVL15:
 267              		.loc 1 505 0
 268 0034 A4B2     		uxth	r4, r4
 269              		.loc 1 510 0
 270 0036 012A     		cmp	r2, #1
 271              		.loc 1 504 0
 272 0038 9862     		str	r0, [r3, #40]
 273              	.LVL16:
 274              		.loc 1 505 0
 275 003a DC62     		str	r4, [r3, #44]
 276              		.loc 1 506 0
 277 003c 5D60     		str	r5, [r3, #4]
 278              	.LVL17:
 279              		.loc 1 510 0
 280 003e 03D0     		beq	.L37
 281              		.loc 1 509 0
 282 0040 022A     		cmp	r2, #2
 283 0042 0CBF     		ite	eq
 284 0044 0322     		moveq	r2, #3
 285 0046 0022     		movne	r2, #0
ARM GAS  /tmp/ccT8sA7g.s 			page 6


 286              	.L37:
 287              	.LVL18:
 288              		.loc 1 518 0
 289 0048 4869     		ldr	r0, [r1, #20]
 290 004a 00F00F00 		and	r0, r0, #15
 291 004e 0128     		cmp	r0, #1
 292 0050 2ED0     		beq	.L41
 293 0052 0228     		cmp	r0, #2
 294 0054 2AD0     		beq	.L62
 295              	.L40:
 296              		.loc 1 526 0
 297 0056 C869     		ldr	r0, [r1, #28]
 298 0058 00F00F00 		and	r0, r0, #15
 299 005c 0128     		cmp	r0, #1
 300 005e 22D0     		beq	.L44
 301 0060 0228     		cmp	r0, #2
 302 0062 1ED0     		beq	.L63
 303              	.L43:
 304              		.loc 1 534 0
 305 0064 486A     		ldr	r0, [r1, #36]
 306 0066 00F00F00 		and	r0, r0, #15
 307 006a 0128     		cmp	r0, #1
 308 006c 03D0     		beq	.L47
 309 006e 0228     		cmp	r0, #2
 310 0070 03D1     		bne	.L46
 311              		.loc 1 536 0
 312 0072 42F40052 		orr	r2, r2, #8192
 313              	.LVL19:
 314              	.L47:
 315              		.loc 1 538 0
 316 0076 42F48052 		orr	r2, r2, #4096
 317              	.LVL20:
 318              	.L46:
 319              		.loc 1 582 0
 320 007a 086B     		ldr	r0, [r1, #48]
 321 007c 8968     		ldr	r1, [r1, #8]
 322              		.loc 1 579 0
 323 007e 1A62     		str	r2, [r3, #32]
 324              		.loc 1 582 0
 325 0080 20F0FF02 		bic	r2, r0, #255
 326              	.LVL21:
 327 0084 0029     		cmp	r1, #0
 328 0086 18BF     		it	ne
 329 0088 42F00102 		orrne	r2, r2, #1
 330              		.loc 1 580 0
 331 008c 0125     		movs	r5, #1
 332              		.loc 1 581 0
 333 008e 0024     		movs	r4, #0
 334              		.loc 1 588 0
 335 0090 4FF40040 		mov	r0, #32768
 336              		.loc 1 592 0
 337 0094 8521     		movs	r1, #133
 338              		.loc 1 580 0
 339 0096 5D61     		str	r5, [r3, #20]
 340              	.LVL22:
 341              		.loc 1 581 0
 342 0098 1C61     		str	r4, [r3, #16]
ARM GAS  /tmp/ccT8sA7g.s 			page 7


 343              		.loc 1 582 0
 344 009a DA60     		str	r2, [r3, #12]
 345              		.loc 1 588 0
 346 009c 5864     		str	r0, [r3, #68]
 347              		.loc 1 592 0
 348 009e 1960     		str	r1, [r3]
 349 00a0 70BD     		pop	{r4, r5, r6, pc}
 350              	.LVL23:
 351              	.L63:
 352              		.loc 1 528 0
 353 00a2 42F40072 		orr	r2, r2, #512
 354              	.LVL24:
 355              	.L44:
 356              		.loc 1 530 0
 357 00a6 42F48072 		orr	r2, r2, #256
 358              	.LVL25:
 359 00aa DBE7     		b	.L43
 360              	.L62:
 361              		.loc 1 520 0
 362 00ac 42F02002 		orr	r2, r2, #32
 363              	.LVL26:
 364              	.L41:
 365              		.loc 1 522 0
 366 00b0 42F01002 		orr	r2, r2, #16
 367              	.LVL27:
 368 00b4 CFE7     		b	.L40
 369              	.LVL28:
 370              	.L61:
 371              		.loc 1 406 0
 372 00b6 0F4B     		ldr	r3, .L65
 373 00b8 9842     		cmp	r0, r3
 374 00ba 05D0     		beq	.L64
 375              	.LVL29:
 376              	.L35:
 377              		.loc 1 484 0
 378 00bc 2369     		ldr	r3, [r4, #16]
 379 00be 46F66802 		movw	r2, #26728
 380 00c2 9A61     		str	r2, [r3, #24]
 381              		.loc 1 486 0
 382 00c4 DA61     		str	r2, [r3, #28]
 383 00c6 A8E7     		b	.L36
 384              	.LVL30:
 385              	.L64:
 386              		.loc 1 407 0
 387 00c8 0B4B     		ldr	r3, .L65+4
 388 00ca 5A6C     		ldr	r2, [r3, #68]
 389 00cc 42F00102 		orr	r2, r2, #1
 390 00d0 5A64     		str	r2, [r3, #68]
 391              		.loc 1 408 0
 392 00d2 5A6A     		ldr	r2, [r3, #36]
 393 00d4 0020     		movs	r0, #0
 394              	.LVL31:
 395 00d6 42F00102 		orr	r2, r2, #1
 396 00da 5A62     		str	r2, [r3, #36]
 397              		.loc 1 409 0
 398 00dc 7021     		movs	r1, #112
 399              		.loc 1 408 0
ARM GAS  /tmp/ccT8sA7g.s 			page 8


 400 00de 5862     		str	r0, [r3, #36]
 401              		.loc 1 409 0
 402 00e0 1920     		movs	r0, #25
 403 00e2 FFF7FEFF 		bl	nvicEnableVector
 404              	.LVL32:
 405              		.loc 1 411 0
 406 00e6 7021     		movs	r1, #112
 407 00e8 1B20     		movs	r0, #27
 408 00ea FFF7FEFF 		bl	nvicEnableVector
 409              	.LVL33:
 410              		.loc 1 416 0
 411 00ee 034B     		ldr	r3, .L65+8
 412 00f0 E360     		str	r3, [r4, #12]
 413 00f2 E3E7     		b	.L35
 414              	.L66:
 415              		.align	2
 416              	.L65:
 417 00f4 00000000 		.word	.LANCHOR0
 418 00f8 00380240 		.word	1073887232
 419 00fc 007A030A 		.word	168000000
 420              		.cfi_endproc
 421              	.LFE121:
 422              		.size	pwm_lld_start, .-pwm_lld_start
 423              		.section	.text.pwm_lld_stop,"ax",%progbits
 424              		.align	2
 425              		.p2align 4,,15
 426              		.global	pwm_lld_stop
 427              		.thumb
 428              		.thumb_func
 429              		.type	pwm_lld_stop, %function
 430              	pwm_lld_stop:
 431              	.LFB122:
 432              		.loc 1 603 0
 433              		.cfi_startproc
 434              		@ args = 0, pretend = 0, frame = 0
 435              		@ frame_needed = 0, uses_anonymous_args = 0
 436              	.LVL34:
 437 0000 08B5     		push	{r3, lr}
 438              		.cfi_def_cfa_offset 8
 439              		.cfi_offset 3, -8
 440              		.cfi_offset 14, -4
 441              		.loc 1 606 0
 442 0002 0378     		ldrb	r3, [r0]	@ zero_extendqisi2
 443 0004 022B     		cmp	r3, #2
 444 0006 00D0     		beq	.L72
 445              	.LVL35:
 446              	.L67:
 447 0008 08BD     		pop	{r3, pc}
 448              	.LVL36:
 449              	.L72:
 450              		.loc 1 615 0
 451 000a 0A49     		ldr	r1, .L73
 452              		.loc 1 607 0
 453 000c 0369     		ldr	r3, [r0, #16]
 454 000e 0022     		movs	r2, #0
 455              		.loc 1 615 0
 456 0010 8842     		cmp	r0, r1
ARM GAS  /tmp/ccT8sA7g.s 			page 9


 457              		.loc 1 607 0
 458 0012 1A60     		str	r2, [r3]
 459              		.loc 1 608 0
 460 0014 DA60     		str	r2, [r3, #12]
 461              		.loc 1 609 0
 462 0016 1A61     		str	r2, [r3, #16]
 463              		.loc 1 611 0
 464 0018 5A64     		str	r2, [r3, #68]
 465              		.loc 1 615 0
 466 001a F5D1     		bne	.L67
 467              		.loc 1 616 0
 468 001c 1920     		movs	r0, #25
 469              	.LVL37:
 470 001e FFF7FEFF 		bl	nvicDisableVector
 471              	.LVL38:
 472              		.loc 1 617 0
 473 0022 1B20     		movs	r0, #27
 474 0024 FFF7FEFF 		bl	nvicDisableVector
 475              	.LVL39:
 476              		.loc 1 618 0
 477 0028 034A     		ldr	r2, .L73+4
 478 002a 536C     		ldr	r3, [r2, #68]
 479 002c 23F00103 		bic	r3, r3, #1
 480 0030 5364     		str	r3, [r2, #68]
 481              		.loc 1 659 0
 482 0032 E9E7     		b	.L67
 483              	.L74:
 484              		.align	2
 485              	.L73:
 486 0034 00000000 		.word	.LANCHOR0
 487 0038 00380240 		.word	1073887232
 488              		.cfi_endproc
 489              	.LFE122:
 490              		.size	pwm_lld_stop, .-pwm_lld_stop
 491              		.section	.text.pwm_lld_enable_channel,"ax",%progbits
 492              		.align	2
 493              		.p2align 4,,15
 494              		.global	pwm_lld_enable_channel
 495              		.thumb
 496              		.thumb_func
 497              		.type	pwm_lld_enable_channel, %function
 498              	pwm_lld_enable_channel:
 499              	.LFB123:
 500              		.loc 1 675 0
 501              		.cfi_startproc
 502              		@ args = 0, pretend = 0, frame = 0
 503              		@ frame_needed = 0, uses_anonymous_args = 0
 504              		@ link register save eliminated.
 505              	.LVL40:
 506              		.loc 1 680 0
 507 0000 4368     		ldr	r3, [r0, #4]
 508              		.loc 1 675 0
 509 0002 10B4     		push	{r4}
 510              		.cfi_def_cfa_offset 4
 511              		.cfi_offset 4, -4
 512              		.loc 1 677 0
 513 0004 0469     		ldr	r4, [r0, #16]
ARM GAS  /tmp/ccT8sA7g.s 			page 10


 514              		.loc 1 680 0
 515 0006 03EBC100 		add	r0, r3, r1, lsl #3
 516              	.LVL41:
 517              		.loc 1 677 0
 518 000a 01F10C03 		add	r3, r1, #12
 519              		.loc 1 680 0
 520 000e 0069     		ldr	r0, [r0, #16]
 521              		.loc 1 677 0
 522 0010 04EB8303 		add	r3, r4, r3, lsl #2
 523 0014 5A60     		str	r2, [r3, #4]
 524              		.loc 1 680 0
 525 0016 48B1     		cbz	r0, .L75
 526              	.LBB2:
 527              		.loc 1 684 0
 528 0018 0223     		movs	r3, #2
 529              		.loc 1 681 0
 530 001a E268     		ldr	r2, [r4, #12]
 531              	.LVL42:
 532              		.loc 1 684 0
 533 001c 03FA01F1 		lsl	r1, r3, r1
 534              	.LVL43:
 535 0020 0A42     		tst	r2, r1
 536 0022 03D1     		bne	.L75
 537              		.loc 1 685 0
 538 0024 0A43     		orrs	r2, r2, r1
 539              	.LVL44:
 540              		.loc 1 686 0
 541 0026 C943     		mvns	r1, r1
 542              		.loc 1 685 0
 543 0028 E260     		str	r2, [r4, #12]
 544              		.loc 1 686 0
 545 002a 2161     		str	r1, [r4, #16]
 546              	.L75:
 547              	.LBE2:
 548              		.loc 1 689 0
 549 002c 10BC     		pop	{r4}
 550              		.cfi_restore 4
 551              		.cfi_def_cfa_offset 0
 552 002e 7047     		bx	lr
 553              		.cfi_endproc
 554              	.LFE123:
 555              		.size	pwm_lld_enable_channel, .-pwm_lld_enable_channel
 556              		.section	.text.pwm_lld_disable_channel,"ax",%progbits
 557              		.align	2
 558              		.p2align 4,,15
 559              		.global	pwm_lld_disable_channel
 560              		.thumb
 561              		.thumb_func
 562              		.type	pwm_lld_disable_channel, %function
 563              	pwm_lld_disable_channel:
 564              	.LFB124:
 565              		.loc 1 703 0
 566              		.cfi_startproc
 567              		@ args = 0, pretend = 0, frame = 0
 568              		@ frame_needed = 0, uses_anonymous_args = 0
 569              		@ link register save eliminated.
 570              	.LVL45:
ARM GAS  /tmp/ccT8sA7g.s 			page 11


 571              		.loc 1 705 0
 572 0000 0369     		ldr	r3, [r0, #16]
 573 0002 01F10C02 		add	r2, r1, #12
 574 0006 03EB8202 		add	r2, r3, r2, lsl #2
 575 000a 0020     		movs	r0, #0
 576              	.LVL46:
 577 000c 5060     		str	r0, [r2, #4]
 578              		.loc 1 706 0
 579 000e DA68     		ldr	r2, [r3, #12]
 580 0010 0220     		movs	r0, #2
 581 0012 00FA01F1 		lsl	r1, r0, r1
 582              	.LVL47:
 583 0016 22EA0101 		bic	r1, r2, r1
 584 001a D960     		str	r1, [r3, #12]
 585 001c 7047     		bx	lr
 586              		.cfi_endproc
 587              	.LFE124:
 588              		.size	pwm_lld_disable_channel, .-pwm_lld_disable_channel
 589              		.global	PWMD1
 590 001e 00BF     		.section	.bss.PWMD1,"aw",%nobits
 591              		.align	2
 592              		.set	.LANCHOR0,. + 0
 593              		.type	PWMD1, %object
 594              		.size	PWMD1, 20
 595              	PWMD1:
 596 0000 00000000 		.space	20
 596      00000000 
 596      00000000 
 596      00000000 
 596      00000000 
 597              		.text
 598              	.Letext0:
 599              		.file 2 "/home/lithium/Descargas/gcc-arm-none-eabi-5_3-2016q1/arm-none-eabi/include/machine/_defau
 600              		.file 3 "/home/lithium/Descargas/gcc-arm-none-eabi-5_3-2016q1/arm-none-eabi/include/sys/_stdint.h"
 601              		.file 4 "../../os/hal/platforms/STM32F4xx/stm32f4xx.h"
 602              		.file 5 "../../os/hal/include/pwm.h"
 603              		.file 6 "../../os/hal/platforms/STM32/TIMv1/pwm_lld.h"
 604              		.file 7 "../../os/hal/platforms/STM32/TIMv1/stm32_tim.h"
 605              		.file 8 "../../os/ports/common/ARMCMx/CMSIS/include/core_cm4.h"
 606              		.file 9 "../../os/ports/GCC/ARMCMx/chcore_v7m.h"
 607              		.file 10 "../../os/ports/common/ARMCMx/nvic.h"