ARM GAS  /tmp/cc72aXiX.s 			page 1


   1              		.syntax unified
   2              		.cpu cortex-m4
   3              		.fpu softvfp
   4              		.eabi_attribute 20, 1
   5              		.eabi_attribute 21, 1
   6              		.eabi_attribute 23, 3
   7              		.eabi_attribute 24, 1
   8              		.eabi_attribute 25, 1
   9              		.eabi_attribute 26, 1
  10              		.eabi_attribute 30, 2
  11              		.eabi_attribute 34, 1
  12              		.eabi_attribute 18, 4
  13              		.thumb
  14              		.syntax unified
  15              		.file	"uart.c"
  16              		.text
  17              	.Ltext0:
  18              		.cfi_sections	.debug_frame
  19              		.section	.text.uartInit,"ax",%progbits
  20              		.align	2
  21              		.p2align 4,,15
  22              		.global	uartInit
  23              		.thumb
  24              		.thumb_func
  25              		.type	uartInit, %function
  26              	uartInit:
  27              	.LFB118:
  28              		.file 1 "../../os/hal/src/uart.c"
  29              		.loc 1 68 0
  30              		.cfi_startproc
  31              		@ args = 0, pretend = 0, frame = 0
  32              		@ frame_needed = 0, uses_anonymous_args = 0
  33              		@ link register save eliminated.
  34              		.loc 1 70 0
  35 0000 FFF7FEBF 		b	uart_lld_init
  36              	.LVL0:
  37              		.cfi_endproc
  38              	.LFE118:
  39              		.size	uartInit, .-uartInit
  40              		.section	.text.uartObjectInit,"ax",%progbits
  41              		.align	2
  42              		.p2align 4,,15
  43              		.global	uartObjectInit
  44              		.thumb
  45              		.thumb_func
  46              		.type	uartObjectInit, %function
  47              	uartObjectInit:
  48              	.LFB119:
  49              		.loc 1 80 0
  50              		.cfi_startproc
  51              		@ args = 0, pretend = 0, frame = 0
  52              		@ frame_needed = 0, uses_anonymous_args = 0
  53              		@ link register save eliminated.
  54              	.LVL1:
  55              		.loc 1 83 0
  56 0000 0023     		movs	r3, #0
  57              		.loc 1 82 0
ARM GAS  /tmp/cc72aXiX.s 			page 2


  58 0002 0122     		movs	r2, #1
  59 0004 0270     		strb	r2, [r0]
  60              		.loc 1 83 0
  61 0006 4370     		strb	r3, [r0, #1]
  62              		.loc 1 84 0
  63 0008 8370     		strb	r3, [r0, #2]
  64              		.loc 1 85 0
  65 000a 4360     		str	r3, [r0, #4]
  66 000c 7047     		bx	lr
  67              		.cfi_endproc
  68              	.LFE119:
  69              		.size	uartObjectInit, .-uartObjectInit
  70 000e 00BF     		.section	.text.uartStart,"ax",%progbits
  71              		.align	2
  72              		.p2align 4,,15
  73              		.global	uartStart
  74              		.thumb
  75              		.thumb_func
  76              		.type	uartStart, %function
  77              	uartStart:
  78              	.LFB120:
  79              		.loc 1 100 0
  80              		.cfi_startproc
  81              		@ args = 0, pretend = 0, frame = 0
  82              		@ frame_needed = 0, uses_anonymous_args = 0
  83              	.LVL2:
  84 0000 10B5     		push	{r4, lr}
  85              		.cfi_def_cfa_offset 8
  86              		.cfi_offset 4, -8
  87              		.cfi_offset 14, -4
  88              	.LBB2:
  89              		.loc 1 104 0
  90 0002 2023     		movs	r3, #32
  91              	.LBE2:
  92              		.loc 1 100 0
  93 0004 0446     		mov	r4, r0
  94              	.LBB3:
  95              		.loc 1 104 0
  96              		.syntax unified
  97              	@ 104 "../../os/hal/src/uart.c" 1
  98 0006 83F31188 		msr     BASEPRI, r3
  99              	@ 0 "" 2
 100              		.thumb
 101              		.syntax unified
 102              	.LBE3:
 103              		.loc 1 108 0
 104 000a 4160     		str	r1, [r0, #4]
 105              		.loc 1 109 0
 106 000c FFF7FEFF 		bl	uart_lld_start
 107              	.LVL3:
 108              		.loc 1 110 0
 109 0010 0223     		movs	r3, #2
 110 0012 2370     		strb	r3, [r4]
 111              	.LBB4:
 112              		.loc 1 111 0
 113 0014 0023     		movs	r3, #0
 114              		.syntax unified
ARM GAS  /tmp/cc72aXiX.s 			page 3


 115              	@ 111 "../../os/hal/src/uart.c" 1
 116 0016 83F31188 		msr     BASEPRI, r3
 117              	@ 0 "" 2
 118              		.thumb
 119              		.syntax unified
 120 001a 10BD     		pop	{r4, pc}
 121              	.LBE4:
 122              		.cfi_endproc
 123              	.LFE120:
 124              		.size	uartStart, .-uartStart
 125              		.section	.text.uartStop,"ax",%progbits
 126              		.align	2
 127              		.p2align 4,,15
 128              		.global	uartStop
 129              		.thumb
 130              		.thumb_func
 131              		.type	uartStop, %function
 132              	uartStop:
 133              	.LFB121:
 134              		.loc 1 121 0
 135              		.cfi_startproc
 136              		@ args = 0, pretend = 0, frame = 0
 137              		@ frame_needed = 0, uses_anonymous_args = 0
 138              	.LVL4:
 139 0000 10B5     		push	{r4, lr}
 140              		.cfi_def_cfa_offset 8
 141              		.cfi_offset 4, -8
 142              		.cfi_offset 14, -4
 143              	.LBB5:
 144              		.loc 1 125 0
 145 0002 2023     		movs	r3, #32
 146              	.LBE5:
 147              		.loc 1 121 0
 148 0004 0446     		mov	r4, r0
 149              	.LBB6:
 150              		.loc 1 125 0
 151              		.syntax unified
 152              	@ 125 "../../os/hal/src/uart.c" 1
 153 0006 83F31188 		msr     BASEPRI, r3
 154              	@ 0 "" 2
 155              		.thumb
 156              		.syntax unified
 157              	.LBE6:
 158              		.loc 1 129 0
 159 000a FFF7FEFF 		bl	uart_lld_stop
 160              	.LVL5:
 161              		.loc 1 131 0
 162 000e 0023     		movs	r3, #0
 163              		.loc 1 130 0
 164 0010 0122     		movs	r2, #1
 165 0012 2270     		strb	r2, [r4]
 166              		.loc 1 131 0
 167 0014 6370     		strb	r3, [r4, #1]
 168              		.loc 1 132 0
 169 0016 A370     		strb	r3, [r4, #2]
 170              	.LBB7:
 171              		.loc 1 133 0
ARM GAS  /tmp/cc72aXiX.s 			page 4


 172              		.syntax unified
 173              	@ 133 "../../os/hal/src/uart.c" 1
 174 0018 83F31188 		msr     BASEPRI, r3
 175              	@ 0 "" 2
 176              		.thumb
 177              		.syntax unified
 178 001c 10BD     		pop	{r4, pc}
 179              	.LBE7:
 180              		.cfi_endproc
 181              	.LFE121:
 182              		.size	uartStop, .-uartStop
 183 001e 00BF     		.section	.text.uartStartSend,"ax",%progbits
 184              		.align	2
 185              		.p2align 4,,15
 186              		.global	uartStartSend
 187              		.thumb
 188              		.thumb_func
 189              		.type	uartStartSend, %function
 190              	uartStartSend:
 191              	.LFB122:
 192              		.loc 1 147 0
 193              		.cfi_startproc
 194              		@ args = 0, pretend = 0, frame = 0
 195              		@ frame_needed = 0, uses_anonymous_args = 0
 196              	.LVL6:
 197 0000 10B5     		push	{r4, lr}
 198              		.cfi_def_cfa_offset 8
 199              		.cfi_offset 4, -8
 200              		.cfi_offset 14, -4
 201              	.LBB8:
 202              		.loc 1 152 0
 203 0002 2023     		movs	r3, #32
 204              	.LBE8:
 205              		.loc 1 147 0
 206 0004 0446     		mov	r4, r0
 207              	.LBB9:
 208              		.loc 1 152 0
 209              		.syntax unified
 210              	@ 152 "../../os/hal/src/uart.c" 1
 211 0006 83F31188 		msr     BASEPRI, r3
 212              	@ 0 "" 2
 213              		.thumb
 214              		.syntax unified
 215              	.LBE9:
 216              		.loc 1 158 0
 217 000a FFF7FEFF 		bl	uart_lld_start_send
 218              	.LVL7:
 219              		.loc 1 159 0
 220 000e 0123     		movs	r3, #1
 221 0010 6370     		strb	r3, [r4, #1]
 222              	.LBB10:
 223              		.loc 1 160 0
 224 0012 0023     		movs	r3, #0
 225              		.syntax unified
 226              	@ 160 "../../os/hal/src/uart.c" 1
 227 0014 83F31188 		msr     BASEPRI, r3
 228              	@ 0 "" 2
ARM GAS  /tmp/cc72aXiX.s 			page 5


 229              		.thumb
 230              		.syntax unified
 231 0018 10BD     		pop	{r4, pc}
 232              	.LBE10:
 233              		.cfi_endproc
 234              	.LFE122:
 235              		.size	uartStartSend, .-uartStartSend
 236 001a 00BF     		.section	.text.uartStartSendI,"ax",%progbits
 237              		.align	2
 238              		.p2align 4,,15
 239              		.global	uartStartSendI
 240              		.thumb
 241              		.thumb_func
 242              		.type	uartStartSendI, %function
 243              	uartStartSendI:
 244              	.LFB123:
 245              		.loc 1 175 0
 246              		.cfi_startproc
 247              		@ args = 0, pretend = 0, frame = 0
 248              		@ frame_needed = 0, uses_anonymous_args = 0
 249              	.LVL8:
 250 0000 10B5     		push	{r4, lr}
 251              		.cfi_def_cfa_offset 8
 252              		.cfi_offset 4, -8
 253              		.cfi_offset 14, -4
 254              		.loc 1 175 0
 255 0002 0446     		mov	r4, r0
 256              		.loc 1 185 0
 257 0004 FFF7FEFF 		bl	uart_lld_start_send
 258              	.LVL9:
 259              		.loc 1 186 0
 260 0008 0123     		movs	r3, #1
 261 000a 6370     		strb	r3, [r4, #1]
 262 000c 10BD     		pop	{r4, pc}
 263              		.cfi_endproc
 264              	.LFE123:
 265              		.size	uartStartSendI, .-uartStartSendI
 266 000e 00BF     		.section	.text.uartStopSend,"ax",%progbits
 267              		.align	2
 268              		.p2align 4,,15
 269              		.global	uartStopSend
 270              		.thumb
 271              		.thumb_func
 272              		.type	uartStopSend, %function
 273              	uartStopSend:
 274              	.LFB124:
 275              		.loc 1 201 0
 276              		.cfi_startproc
 277              		@ args = 0, pretend = 0, frame = 0
 278              		@ frame_needed = 0, uses_anonymous_args = 0
 279              	.LVL10:
 280              	.LBB11:
 281              		.loc 1 206 0
 282 0000 2023     		movs	r3, #32
 283              		.syntax unified
 284              	@ 206 "../../os/hal/src/uart.c" 1
 285 0002 83F31188 		msr     BASEPRI, r3
ARM GAS  /tmp/cc72aXiX.s 			page 6


 286              	@ 0 "" 2
 287              		.thumb
 288              		.syntax unified
 289              	.LBE11:
 290              		.loc 1 209 0
 291 0006 4378     		ldrb	r3, [r0, #1]	@ zero_extendqisi2
 292 0008 012B     		cmp	r3, #1
 293 000a 04D0     		beq	.L17
 294              		.loc 1 214 0
 295 000c 0020     		movs	r0, #0
 296              	.LVL11:
 297              	.LBB12:
 298              		.loc 1 215 0
 299 000e 0023     		movs	r3, #0
 300              		.syntax unified
 301              	@ 215 "../../os/hal/src/uart.c" 1
 302 0010 83F31188 		msr     BASEPRI, r3
 303              	@ 0 "" 2
 304              		.thumb
 305              		.syntax unified
 306              	.LBE12:
 307              		.loc 1 217 0
 308 0014 7047     		bx	lr
 309              	.LVL12:
 310              	.L17:
 311              		.loc 1 201 0
 312 0016 10B5     		push	{r4, lr}
 313              		.cfi_def_cfa_offset 8
 314              		.cfi_offset 4, -8
 315              		.cfi_offset 14, -4
 316 0018 0446     		mov	r4, r0
 317              		.loc 1 210 0
 318 001a FFF7FEFF 		bl	uart_lld_stop_send
 319              	.LVL13:
 320              		.loc 1 211 0
 321 001e 0023     		movs	r3, #0
 322 0020 6370     		strb	r3, [r4, #1]
 323              	.LBB13:
 324              		.loc 1 215 0
 325 0022 0023     		movs	r3, #0
 326              		.syntax unified
 327              	@ 215 "../../os/hal/src/uart.c" 1
 328 0024 83F31188 		msr     BASEPRI, r3
 329              	@ 0 "" 2
 330              		.thumb
 331              		.syntax unified
 332              	.LBE13:
 333              		.loc 1 217 0
 334 0028 10BD     		pop	{r4, pc}
 335              		.cfi_endproc
 336              	.LFE124:
 337              		.size	uartStopSend, .-uartStopSend
 338 002a 00BF     		.section	.text.uartStopSendI,"ax",%progbits
 339              		.align	2
 340              		.p2align 4,,15
 341              		.global	uartStopSendI
 342              		.thumb
ARM GAS  /tmp/cc72aXiX.s 			page 7


 343              		.thumb_func
 344              		.type	uartStopSendI, %function
 345              	uartStopSendI:
 346              	.LFB125:
 347              		.loc 1 232 0
 348              		.cfi_startproc
 349              		@ args = 0, pretend = 0, frame = 0
 350              		@ frame_needed = 0, uses_anonymous_args = 0
 351              	.LVL14:
 352              		.loc 1 238 0
 353 0000 4278     		ldrb	r2, [r0, #1]	@ zero_extendqisi2
 354 0002 012A     		cmp	r2, #1
 355 0004 01D0     		beq	.L23
 356              		.loc 1 243 0
 357 0006 0020     		movs	r0, #0
 358              	.LVL15:
 359 0008 7047     		bx	lr
 360              	.LVL16:
 361              	.L23:
 362              		.loc 1 232 0
 363 000a 10B5     		push	{r4, lr}
 364              		.cfi_def_cfa_offset 8
 365              		.cfi_offset 4, -8
 366              		.cfi_offset 14, -4
 367 000c 0446     		mov	r4, r0
 368              	.LBB14:
 369              		.loc 1 239 0
 370 000e FFF7FEFF 		bl	uart_lld_stop_send
 371              	.LVL17:
 372              		.loc 1 240 0
 373 0012 0023     		movs	r3, #0
 374 0014 6370     		strb	r3, [r4, #1]
 375              		.loc 1 241 0
 376 0016 10BD     		pop	{r4, pc}
 377              	.LBE14:
 378              		.cfi_endproc
 379              	.LFE125:
 380              		.size	uartStopSendI, .-uartStopSendI
 381              		.section	.text.uartStartReceive,"ax",%progbits
 382              		.align	2
 383              		.p2align 4,,15
 384              		.global	uartStartReceive
 385              		.thumb
 386              		.thumb_func
 387              		.type	uartStartReceive, %function
 388              	uartStartReceive:
 389              	.LFB126:
 390              		.loc 1 257 0
 391              		.cfi_startproc
 392              		@ args = 0, pretend = 0, frame = 0
 393              		@ frame_needed = 0, uses_anonymous_args = 0
 394              	.LVL18:
 395 0000 10B5     		push	{r4, lr}
 396              		.cfi_def_cfa_offset 8
 397              		.cfi_offset 4, -8
 398              		.cfi_offset 14, -4
 399              	.LBB15:
ARM GAS  /tmp/cc72aXiX.s 			page 8


 400              		.loc 1 262 0
 401 0002 2023     		movs	r3, #32
 402              	.LBE15:
 403              		.loc 1 257 0
 404 0004 0446     		mov	r4, r0
 405              	.LBB16:
 406              		.loc 1 262 0
 407              		.syntax unified
 408              	@ 262 "../../os/hal/src/uart.c" 1
 409 0006 83F31188 		msr     BASEPRI, r3
 410              	@ 0 "" 2
 411              		.thumb
 412              		.syntax unified
 413              	.LBE16:
 414              		.loc 1 268 0
 415 000a FFF7FEFF 		bl	uart_lld_start_receive
 416              	.LVL19:
 417              		.loc 1 269 0
 418 000e 0123     		movs	r3, #1
 419 0010 A370     		strb	r3, [r4, #2]
 420              	.LBB17:
 421              		.loc 1 270 0
 422 0012 0023     		movs	r3, #0
 423              		.syntax unified
 424              	@ 270 "../../os/hal/src/uart.c" 1
 425 0014 83F31188 		msr     BASEPRI, r3
 426              	@ 0 "" 2
 427              		.thumb
 428              		.syntax unified
 429 0018 10BD     		pop	{r4, pc}
 430              	.LBE17:
 431              		.cfi_endproc
 432              	.LFE126:
 433              		.size	uartStartReceive, .-uartStartReceive
 434 001a 00BF     		.section	.text.uartStartReceiveI,"ax",%progbits
 435              		.align	2
 436              		.p2align 4,,15
 437              		.global	uartStartReceiveI
 438              		.thumb
 439              		.thumb_func
 440              		.type	uartStartReceiveI, %function
 441              	uartStartReceiveI:
 442              	.LFB127:
 443              		.loc 1 285 0
 444              		.cfi_startproc
 445              		@ args = 0, pretend = 0, frame = 0
 446              		@ frame_needed = 0, uses_anonymous_args = 0
 447              	.LVL20:
 448 0000 10B5     		push	{r4, lr}
 449              		.cfi_def_cfa_offset 8
 450              		.cfi_offset 4, -8
 451              		.cfi_offset 14, -4
 452              		.loc 1 285 0
 453 0002 0446     		mov	r4, r0
 454              		.loc 1 295 0
 455 0004 FFF7FEFF 		bl	uart_lld_start_receive
 456              	.LVL21:
ARM GAS  /tmp/cc72aXiX.s 			page 9


 457              		.loc 1 296 0
 458 0008 0123     		movs	r3, #1
 459 000a A370     		strb	r3, [r4, #2]
 460 000c 10BD     		pop	{r4, pc}
 461              		.cfi_endproc
 462              	.LFE127:
 463              		.size	uartStartReceiveI, .-uartStartReceiveI
 464 000e 00BF     		.section	.text.uartStopReceive,"ax",%progbits
 465              		.align	2
 466              		.p2align 4,,15
 467              		.global	uartStopReceive
 468              		.thumb
 469              		.thumb_func
 470              		.type	uartStopReceive, %function
 471              	uartStopReceive:
 472              	.LFB128:
 473              		.loc 1 311 0
 474              		.cfi_startproc
 475              		@ args = 0, pretend = 0, frame = 0
 476              		@ frame_needed = 0, uses_anonymous_args = 0
 477              	.LVL22:
 478              	.LBB18:
 479              		.loc 1 316 0
 480 0000 2023     		movs	r3, #32
 481              		.syntax unified
 482              	@ 316 "../../os/hal/src/uart.c" 1
 483 0002 83F31188 		msr     BASEPRI, r3
 484              	@ 0 "" 2
 485              		.thumb
 486              		.syntax unified
 487              	.LBE18:
 488              		.loc 1 320 0
 489 0006 8378     		ldrb	r3, [r0, #2]	@ zero_extendqisi2
 490 0008 012B     		cmp	r3, #1
 491 000a 04D0     		beq	.L33
 492              		.loc 1 325 0
 493 000c 0020     		movs	r0, #0
 494              	.LVL23:
 495              	.LBB19:
 496              		.loc 1 326 0
 497 000e 0023     		movs	r3, #0
 498              		.syntax unified
 499              	@ 326 "../../os/hal/src/uart.c" 1
 500 0010 83F31188 		msr     BASEPRI, r3
 501              	@ 0 "" 2
 502              		.thumb
 503              		.syntax unified
 504              	.LBE19:
 505              		.loc 1 328 0
 506 0014 7047     		bx	lr
 507              	.LVL24:
 508              	.L33:
 509              		.loc 1 311 0
 510 0016 10B5     		push	{r4, lr}
 511              		.cfi_def_cfa_offset 8
 512              		.cfi_offset 4, -8
 513              		.cfi_offset 14, -4
ARM GAS  /tmp/cc72aXiX.s 			page 10


 514 0018 0446     		mov	r4, r0
 515              		.loc 1 321 0
 516 001a FFF7FEFF 		bl	uart_lld_stop_receive
 517              	.LVL25:
 518              		.loc 1 322 0
 519 001e 0023     		movs	r3, #0
 520 0020 A370     		strb	r3, [r4, #2]
 521              	.LBB20:
 522              		.loc 1 326 0
 523 0022 0023     		movs	r3, #0
 524              		.syntax unified
 525              	@ 326 "../../os/hal/src/uart.c" 1
 526 0024 83F31188 		msr     BASEPRI, r3
 527              	@ 0 "" 2
 528              		.thumb
 529              		.syntax unified
 530              	.LBE20:
 531              		.loc 1 328 0
 532 0028 10BD     		pop	{r4, pc}
 533              		.cfi_endproc
 534              	.LFE128:
 535              		.size	uartStopReceive, .-uartStopReceive
 536 002a 00BF     		.section	.text.uartStopReceiveI,"ax",%progbits
 537              		.align	2
 538              		.p2align 4,,15
 539              		.global	uartStopReceiveI
 540              		.thumb
 541              		.thumb_func
 542              		.type	uartStopReceiveI, %function
 543              	uartStopReceiveI:
 544              	.LFB129:
 545              		.loc 1 343 0
 546              		.cfi_startproc
 547              		@ args = 0, pretend = 0, frame = 0
 548              		@ frame_needed = 0, uses_anonymous_args = 0
 549              	.LVL26:
 550              		.loc 1 350 0
 551 0000 8278     		ldrb	r2, [r0, #2]	@ zero_extendqisi2
 552 0002 012A     		cmp	r2, #1
 553 0004 01D0     		beq	.L39
 554              		.loc 1 355 0
 555 0006 0020     		movs	r0, #0
 556              	.LVL27:
 557 0008 7047     		bx	lr
 558              	.LVL28:
 559              	.L39:
 560              		.loc 1 343 0
 561 000a 10B5     		push	{r4, lr}
 562              		.cfi_def_cfa_offset 8
 563              		.cfi_offset 4, -8
 564              		.cfi_offset 14, -4
 565 000c 0446     		mov	r4, r0
 566              	.LBB21:
 567              		.loc 1 351 0
 568 000e FFF7FEFF 		bl	uart_lld_stop_receive
 569              	.LVL29:
 570              		.loc 1 352 0
ARM GAS  /tmp/cc72aXiX.s 			page 11


 571 0012 0023     		movs	r3, #0
 572 0014 A370     		strb	r3, [r4, #2]
 573              		.loc 1 353 0
 574 0016 10BD     		pop	{r4, pc}
 575              	.LBE21:
 576              		.cfi_endproc
 577              	.LFE129:
 578              		.size	uartStopReceiveI, .-uartStopReceiveI
 579              		.text
 580              	.Letext0:
 581              		.file 2 "/home/lithium/Descargas/gcc-arm-none-eabi-5_3-2016q1/lib/gcc/arm-none-eabi/5.3.1/include/
 582              		.file 3 "/home/lithium/Descargas/gcc-arm-none-eabi-5_3-2016q1/arm-none-eabi/include/machine/_defau
 583              		.file 4 "/home/lithium/Descargas/gcc-arm-none-eabi-5_3-2016q1/arm-none-eabi/include/sys/_stdint.h"
 584              		.file 5 "../../os/hal/platforms/STM32F4xx/stm32f4xx.h"
 585              		.file 6 "../../os/hal/platforms/STM32F4xx/stm32_dma.h"
 586              		.file 7 "../../os/hal/include/uart.h"
 587              		.file 8 "../../os/hal/platforms/STM32/USARTv1/uart_lld.h"
 588              		.file 9 "../../os/ports/common/ARMCMx/CMSIS/include/core_cm4.h"