ARM GAS  /tmp/cc72aXiX.s 			page 1


   1              		.syntax unified
   2              		.cpu cortex-m4
   3              		.fpu softvfp
   4              		.eabi_attribute 20, 1
   5              		.eabi_attribute 21, 1
   6              		.eabi_attribute 23, 3
   7              		.eabi_attribute 24, 1
   8              		.eabi_attribute 25, 1
   9              		.eabi_attribute 26, 1
  10              		.eabi_attribute 30, 2
  11              		.eabi_attribute 34, 1
  12              		.eabi_attribute 18, 4
  13              		.thumb
  14              		.syntax unified
  15              		.file	"uart.c"
  16              		.text
  17              	.Ltext0:
  18              		.cfi_sections	.debug_frame
  19              		.section	.text.uartInit,"ax",%progbits
  20              		.align	2
  21              		.p2align 4,,15
  22              		.global	uartInit
  23              		.thumb
  24              		.thumb_func
  25              		.type	uartInit, %function
  26              	uartInit:
  27              	.LFB118:
  28              		.file 1 "../../os/hal/src/uart.c"
  29              		.loc 1 68 0
  30              		.cfi_startproc
  31              		@ args = 0, pretend = 0, frame = 0
  32              		@ frame_needed = 0, uses_anonymous_args = 0
  33              		@ link register save eliminated.
  34              		.loc 1 70 0
  35 0000 FFF7FEBF 		b	uart_lld_init
  36              	.LVL0:
  37              		.cfi_endproc
  38              	.LFE118:
  39              		.size	uartInit, .-uartInit
  40              		.section	.text.uartObjectInit,"ax",%progbits
  41              		.align	2
  42              		.p2align 4,,15
  43              		.global	uartObjectInit
  44              		.thumb
  45              		.thumb_func
  46              		.type	uartObjectInit, %function
  47              	uartObjectInit:
  48              	.LFB119:
  49              		.loc 1 80 0
  50              		.cfi_startproc
  51              		@ args = 0, pretend = 0, frame = 0
  52              		@ frame_needed = 0, uses_anonymous_args = 0
  53              		@ link register save eliminated.
  54              	.LVL1:
  55              		.loc 1 83 0
  56 0000 0023     		movs	r3, #0
  57              		.loc 1 82 0
ARM GAS  /tmp/cc72aXiX.s 			page 2


  58 0002 0122     		movs	r2, #1
  59 0004 0270     		strb	r2, [r0]
  60              		.loc 1 83 0
  61 0006 4370     		strb	r3, [r0, #1]
  62              		.loc 1 84 0
  63 0008 8370     		strb	r3, [r0, #2]
  64              		.loc 1 85 0
  65 000a 4360     		str	r3, [r0, #4]
  66 000c 7047     		bx	lr
  67              		.cfi_endproc
  68              	.LFE119:
  69              		.size	uartObjectInit, .-uartObjectInit
  70 000e 00BF     		.section	.text.uartStart,"ax",%progbits
  71              		.align	2
  72              		.p2align 4,,15
  73              		.global	uartStart
  74              		.thumb
  75              		.thumb_func
  76              		.type	uartStart, %function
  77              	uartStart:
  78              	.LFB120:
  79              		.loc 1 100 0
  80              		.cfi_startproc
  81              		@ args = 0, pretend = 0, frame = 0
  82              		@ frame_needed = 0, uses_anonymous_args = 0
  83              	.LVL2:
  84 0000 10B5     		push	{r4, lr}
  85              		.cfi_def_cfa_offset 8
  86              		.cfi_offset 4, -8
  87              		.cfi_offset 14, -4
  88              	.LBB2:
  89              		.loc 1 104 0
  90 0002 2023     		movs	r3, #32
  91              	.LBE2:
  92              		.loc 1 100 0
  93 0004 0446     		mov	r4, r0
  94              	.LBB3:
  95              		.loc 1 104 0
  96              		.syntax unified
  97              	@ 104 "../../os/hal/src/uart.c" 1
  98 0006 83F31188 		msr     BASEPRI, r3
  99              	@ 0 "" 2
 100              		.thumb
 101              		.syntax unified
 102              	.LBE3:
 103              		.loc 1 108 0
 104 000a 4160     		str	r1, [r0, #4]
 105              		.loc 1 109 0
 106 000c FFF7FEFF 		bl	uart_lld_start
 107              	.LVL3:
 108              		.loc 1 110 0
 109 0010 0223     		movs	r3, #2
 110 0012 2370     		strb	r3, [r4]
 111              	.LBB4:
 112              		.loc 1 111 0
 113 0014 0023     		movs	r3, #0
 114              		.syntax unified
ARM GAS  /tmp/cc72aXiX.s 			page 3


 115              	@ 111 "../../os/hal/src/uart.c" 1
 116 0016 83F31188 		msr     BASEPRI, r3
 117              	@ 0 "" 2
 118              		.thumb
 119              		.syntax unified
 120 001a 10BD     		pop	{r4, pc}
 121              	.LBE4:
 122              		.cfi_endproc
 123              	.LFE120:
 124              		.size	uartStart, .-uartStart
 125              		.section	.text.uartStop,"ax",%progbits
 126              		.align	2
 127              		.p2align 4,,15
 128              		.global	uartStop
 129              		.thumb
 130              		.thumb_func
 131              		.type	uartStop, %function
 132              	uartStop:
 133              	.LFB121:
 134              		.loc 1 121 0
 135              		.cfi_startproc
 136              		@ args = 0, pretend = 0, frame = 0
 137              		@ frame_needed = 0, uses_anonymous_args = 0
 138              	.LVL4:
 139 0000 10B5     		push	{r4, lr}
 140              		.cfi_def_cfa_offset 8
 141              		.cfi_offset 4, -8
 142              		.cfi_offset 14, -4
 143              	.LBB5:
 144              		.loc 1 125 0
 145 0002 2023     		movs	r3, #32
 146              	.LBE5:
 147              		.loc 1 121 0
 148 0004 0446     		mov	r4, r0
 149              	.LBB6:
 150              		.loc 1 125 0
 151              		.syntax unified
 152              	@ 125 "../../os/hal/src/uart.c" 1
 153 0006 83F31188 		msr     BASEPRI, r3
 154              	@ 0 "" 2
 155              		.thumb
 156              		.syntax unified
 157              	.LBE6:
 158              		.loc 1 129 0
 159 000a FFF7FEFF 		bl	uart_lld_stop
 160              	.LVL5:
 161              		.loc 1 131 0
 162 000e 0023     		movs	r3, #0
 163              		.loc 1 130 0
 164 0010 0122     		movs	r2, #1
 165 0012 2270     		strb	r2, [r4]
 166              		.loc 1 131 0
 167 0014 6370     		strb	r3, [r4, #1]
 168              		.loc 1 132 0
 169 0016 A370     		strb	r3, [r4, #2]
 170              	.LBB7:
 171              		.loc 1 133 0
ARM GAS  /tmp/cc72aXiX.s 			page 4


 172              		.syntax unified
 173              	@ 133 "../../os/hal/src/uart.c" 1
 174 0018 83F31188 		msr     BASEPRI, r3
 175              	@ 0 "" 2
 176              		.thumb
 177              		.syntax unified
 178 001c 10BD     		pop	{r4, pc}
 179              	.LBE7:
 180              		.cfi_endproc
 181              	.LFE121:
 182              		.size	uartStop, .-uartStop
 183 001e 00BF     		.section	.text.uartStartSend,"ax",%progbits
 184              		.align	2
 185              		.p2align 4,,15
 186              		.global	uartStartSend
 187              		.thumb
 188              		.thumb_func
 189              		.type	uartStartSend, %function
 190              	uartStartSend:
 191              	.LFB122:
 192              		.loc 1 147 0
 193              		.cfi_startproc
 194              		@ args = 0, pretend = 0, frame = 0
 195              		@ frame_needed = 0, uses_anonymous_args = 0
 196              	.LVL6:
 197 0000 10B5     		push	{r4, lr}
 198              		.cfi_def_cfa_offset 8
 199              		.cfi_offset 4, -8
 200              		.cfi_offset 14, -4
 201              	.LBB8:
 202              		.loc 1 152 0
 203 0002 2023     		movs	r3, #32
 204              	.LBE8:
 205              		.loc 1 147 0
 206 0004 0446     		mov	r4, r0
 207              	.LBB9:
 208              		.loc 1 152 0
 209              		.syntax unified
 210              	@ 152 "../../os/hal/src/uart.c" 1
 211 0006 83F31188 		msr     BASEPRI, r3
 212              	@ 0 "" 2
 213              		.thumb
 214              		.syntax unified
 215              	.LBE9:
 216              		.loc 1 158 0
 217 000a FFF7FEFF 		bl	uart_lld_start_send
 218              	.LVL7:
 219              		.loc 1 159 0
 220 000e 0123     		movs	r3, #1
 221 0010 6370     		strb	r3, [r4, #1]
 222              	.LBB10:
 223              		.loc 1 160 0
 224 0012 0023     		movs	r3, #0
 225              		.syntax unified
 226              	@ 160 "../../os/hal/src/uart.c" 1
 227 0014 83F31188 		msr     BASEPRI, r3
 228              	@ 0 "" 2
ARM GAS  /tmp/cc72aXiX.s 			page 5


 229              		.thumb
 230              		.syntax unified
 231 0018 10BD     		pop	{r4, pc}
 232              	.LBE10:
 233              		.cfi_endproc
 234              	.LFE122:
 235              		.size	uartStartSend, .-uartStartSend
 236 001a 00BF     		.section	.text.uartStartSendI,"ax",%progbits
 237              		.align	2
 238              		.p2align 4,,15
 239              		.global	uartStartSendI
 240              		.thumb
 241              		.thumb_func
 242              		.type	uartStartSendI, %function
 243              	uartStartSendI:
 244              	.LFB123:
 245              		.loc 1 175 0
 246              		.cfi_startproc
 247              		@ args = 0, pretend = 0, frame = 0
 248              		@ frame_needed = 0, uses_anonymous_args = 0
 249              	.LVL8:
 250 0000 10B5     		push	{r4, lr}
 251              		.cfi_def_cfa_offset 8
 252              		.cfi_offset 4, -8
 253              		.cfi_offset 14, -4
 254              		.loc 1 175 0
 255 0002 0446     		mov	r4, r0
 256              		.loc 1 185 0
 257 0004 FFF7FEFF 		bl	uart_lld_start_send
 258              	.LVL9:
 259              		.loc 1 186 0
 260 0008 0123     		movs	r3, #1
 261 000a 6370     		strb	r3, [r4, #1]
 262 000c 10BD     		pop	{r4, pc}
 263              		.cfi_endproc
 264              	.LFE123:
 265              		.size	uartStartSendI, .-uartStartSendI
 266 000e 00BF     		.section	.text.uartStopSend,"ax",%progbits
 267              		.align	2
 268              		.p2align 4,,15
 269              		.global	uartStopSend
 270              		.thumb
 271              		.thumb_func
 272              		.type	uartStopSend, %function
 273              	uartStopSend:
 274              	.LFB124:
 275              		.loc 1 201 0
 276              		.cfi_startproc
 277              		@ args = 0, pretend = 0, frame = 0
 278              		@ frame_needed = 0, uses_anonymous_args = 0
 279              	.LVL10:
 280              	.LBB11:
 281              		.loc 1 206 0
 282 0000 2023     		movs	r3, #32
 283              		.syntax unified
 284              	@ 206 "../../os/hal/src/uart.c" 1
 285 0002 83F31188 		msr     BASEPRI, r3
ARM GAS  /tmp/cc72aXiX.s 			page 6


 286              	@ 0 "" 2
 287              		.thumb
 288              		.syntax unified
 289              	.LBE11:
 290              		.loc 1 209 0
 291 0006 4378     		ldrb	r3, [r0, #1]	@ zero_extendqisi2
 292 0008 012B     		cmp	r3, #1
 293 000a 04D0     		beq	.L17
 294              		.loc 1 214 0
 295 000c 0020     		movs	r0, #0
 296              	.LVL11:
 297              	.LBB12:
 298              		.loc 1 215 0
 299 000e 0023     		movs	r3, #0
 300              		.syntax unified
 301              	@ 215 "../../os/hal/src/uart.c" 1
 302 0010 83F31188 		msr     BASEPRI, r3
 303              	@ 0 "" 2
 304              		.thumb
 305              		.syntax unified
 306              	.LBE12:
 307              		.loc 1 217 0
 308 0014 7047     		bx	lr
 309              	.LVL12:
 310              	.L17:
 311              		.loc 1 201 0
 312 0016 10B5     		push	{r4, lr}
 313              		.cfi_def_cfa_offset 8
 314              		.cfi_offset 4, -8
 315              		.cfi_offset 14, -4
 316 0018 0446     		mov	r4, r0
 317              		.loc 1 210 0
 318 001a FFF7FEFF 		bl	uart_lld_stop_send
 319              	.LVL13:
 320              		.loc 1 211 0
 321 001e 0023     		movs	r3, #0
 322 0020 6370     		strb	r3, [r4, #1]
 323              	.LBB13:
 324              		.loc 1 215 0
 325 0022 0023     		movs	r3, #0
 326              		.syntax unified
 327              	@ 215 "../../os/hal/src/uart.c" 1
 328 0024 83F31188 		msr     BASEPRI, r3
 329              	@ 0 "" 2
 330              		.thumb
 331              		.syntax unified
 332              	.LBE13:
 333              		.loc 1 217 0
 334 0028 10BD     		pop	{r4, pc}
 335              		.cfi_endproc
 336              	.LFE124:
 337              		.size	uartStopSend, .-uartStopSend
 338 002a 00BF     		.section	.text.uartStopSendI,"ax",%progbits
 339              		.align	2
 340              		.p2align 4,,15
 341              		.global	uartStopSendI
 342              		.thumb
ARM GAS  /tmp/cc72aXiX.s 			page 7


 343              		.thumb_func
 344              		.type	uartStopSendI, %function
 345              	uartStopSendI:
 346              	.LFB125:
 347              		.loc 1 232 0
 348              		.cfi_startproc
 349              		@ args = 0, pretend = 0, frame = 0
 350              		@ frame_needed = 0, uses_anonymous_args = 0
 351              	.LVL14:
 352              		.loc 1 238 0
 353 0000 4278     		ldrb	r2, [r0, #1]	@ zero_extendqisi2
 354 0002 012A     		cmp	r2, #1
 355 0004 01D0     		beq	.L23
 356              		.loc 1 243 0
 357 0006 0020     		movs	r0, #0
 358              	.LVL15:
 359 0008 7047     		bx	lr
 360              	.LVL16:
 361              	.L23:
 362              		.loc 1 232 0
 363 000a 10B5     		push	{r4, lr}
 364              		.cfi_def_cfa_offset 8
 365              		.cfi_offset 4, -8
 366              		.cfi_offset 14, -4
 367 000c 0446     		mov	r4, r0
 368              	.LBB14:
 369              		.loc 1 239 0
 370 000e FFF7FEFF 		bl	uart_lld_stop_send
 371              	.LVL17:
 372              		.loc 1 240 0
 373 0012 0023     		movs	r3, #0
 374 0014 6370     		strb	r3, [r4, #1]
 375              		.loc 1 241 0
 376 0016 10BD     		pop	{r4, pc}
 377              	.LBE14:
 378              		.cfi_endproc
 379              	.LFE125:
 380              		.size	uartStopSendI, .-uartStopSendI
 381              		.section	.text.uartStartReceive,"ax",%progbits
 382              		.align	2
 383              		.p2align 4,,15
 384              		.global	uartStartReceive
 385              		.thumb
 386              		.thumb_func
 387              		.type	uartStartReceive, %function
 388              	uartStartReceive:
 389              	.LFB126:
 390              		.loc 1 257 0
 391              		.cfi_startproc
 392              		@ args = 0, pretend = 0, frame = 0
 393              		@ frame_needed = 0, uses_anonymous_args = 0
 394              	.LVL18:
 395 0000 10B5     		push	{r4, lr}
 396              		.cfi_def_cfa_offset 8
 397              		.cfi_offset 4, -8
 398              		.cfi_offset 14, -4
 399              	.LBB15:
ARM GAS  /tmp/cc72aXiX.s 			page 8


 400              		.loc 1 262 0
 401 0002 2023     		movs	r3, #32
 402              	.LBE15:
 403              		.loc 1 257 0
 404 0004 0446     		mov	r4, r0
 405              	.LBB16:
 406              		.loc 1 262 0
 407              		.syntax unified
 408              	@ 262 "../../os/hal/src/uart.c" 1
 409 0006 83F31188 		msr     BASEPRI, r3
 410              	@ 0 "" 2
 411              		.thumb
 412              		.syntax unified
 413              	.LBE16:
 414              		.loc 1 268 0
 415 000a FFF7FEFF 		bl	uart_lld_start_receive
 416              	.LVL19:
 417              		.loc 1 269 0
 418 000e 0123     		movs	r3, #1
 419 0010 A370     		strb	r3, [r4, #2]
 420              	.LBB17:
 421              		.loc 1 270 0
 422 0012 0023     		movs	r3, #0
 423              		.syntax unified
 424              	@ 270 "../../os/hal/src/uart.c" 1
 425 0014 83F31188 		msr     BASEPRI, r3
 426              	@ 0 "" 2
 427              		.thumb
 428              		.syntax unified
 429 0018 10BD     		pop	{r4, pc}
 430              	.LBE17:
 431              		.cfi_endproc
 432              	.LFE126:
 433              		.size	uartStartReceive, .-uartStartReceive
 434 001a 00BF     		.section	.text.uartStartReceiveI,"ax",%progbits
 435              		.align	2
 436              		.p2align 4,,15
 437              		.global	uartStartReceiveI
 438              		.thumb
 439              		.thumb_func
 440              		.type	uartStartReceiveI, %function
 441              	uartStartReceiveI:
 442              	.LFB127:
 443              		.loc 1 285 0
 444              		.cfi_startproc
 445              		@ args = 0, pretend = 0, frame = 0
 446              		@ frame_needed = 0, uses_anonymous_args = 0
 447              	.LVL20:
 448 0000 10B5     		push	{r4, lr}
 449              		.cfi_def_cfa_offset 8
 450              		.cfi_offset 4, -8
 451              		.cfi_offset 14, -4
 452              		.loc 1 285 0
 453 0002 0446     		mov	r4, r0
 454              		.loc 1 295 0
 455 0004 FFF7FEFF 		bl	uart_lld_start_receive
 456              	.LVL21:
ARM GAS  /tmp/cc72aXiX.s 			page 9


 457              		.loc 1 296 0
 458 0008 0123     		movs	r3, #1
 459 000a A370     		strb	r3, [r4, #2]
 460 000c 10BD     		pop	{r4, pc}
 461              		.cfi_endproc
 462              	.LFE127:
 463              		.size	uartStartReceiveI, .-uartStartReceiveI
 464 000e 00BF     		.section	.text.uartStopReceive,"ax",%progbits
 465              		.align	2
 466              		.p2align 4,,15
 467              		.global	uartStopReceive
 468              		.thumb
 469              		.thumb_func
 470              		.type	uartStopReceive, %function
 471              	uartStopReceive:
 472              	.LFB128:
 473              		.loc 1 311 0
 474              		.cfi_startproc
 475              		@ args = 0, pretend = 0, frame = 0
 476              		@ frame_needed = 0, uses_anonymous_args = 0
 477              	.LVL22:
 478              	.LBB18:
 479              		.loc 1 316 0
 480 0000 2023     		movs	r3, #32
 481              		.syntax unified
 482              	@ 316 "../../os/hal/src/uart.c" 1
 483 0002 83F31188 		msr     BASEPRI, r3
 484              	@ 0 "" 2
 485              		.thumb
 486              		.syntax unified
 487              	.LBE18:
 488              		.loc 1 320 0
 489 0006 8378     		ldrb	r3, [r0, #2]	@ zero_extendqisi2
 490 0008 012B     		cmp	r3, #1
 491 000a 04D0     		beq	.L33
 492              		.loc 1 325 0
 493 000c 0020     		movs	r0, #0
 494              	.LVL23:
 495              	.LBB19:
 496              		.loc 1 326 0
 497 000e 0023     		movs	r3, #0
 498              		.syntax unified
 499              	@ 326 "../../os/hal/src/uart.c" 1
 500 0010 83F31188 		msr     BASEPRI, r3
 501              	@ 0 "" 2
 502              		.thumb
 503              		.syntax unified
 504              	.LBE19:
 505              		.loc 1 328 0
 506 0014 7047     		bx	lr
 507              	.LVL24:
 508              	.L33:
 509              		.loc 1 311 0
 510 0016 10B5     		push	{r4, lr}
 511              		.cfi_def_cfa_offset 8
 512              		.cfi_offset 4, -8
 513              		.cfi_offset 14, -4
ARM GAS  /tmp/cc72aXiX.s 			page 10


 514 0018 0446     		mov	r4, r0
 515              		.loc 1 321 0
 516 001a FFF7FEFF 		bl	uart_lld_stop_receive
 517              	.LVL25:
 518              		.loc 1 322 0
 519 001e 0023     		movs	r3, #0
 520 0020 A370     		strb	r3, [r4, #2]
 521              	.LBB20:
 522              		.loc 1 326 0
 523 0022 0023     		movs	r3, #0
 524              		.syntax unified
 525              	@ 326 "../../os/hal/src/uart.c" 1
 526 0024 83F31188 		msr     BASEPRI, r3
 527              	@ 0 "" 2
 528              		.thumb
 529              		.syntax unified
 530              	.LBE20:
 531              		.loc 1 328 0
 532 0028 10BD     		pop	{r4, pc}
 533              		.cfi_endproc
 534              	.LFE128:
 535              		.size	uartStopReceive, .-uartStopReceive
 536 002a 00BF     		.section	.text.uartStopReceiveI,"ax",%progbits
 537              		.align	2
 538              		.p2align 4,,15
 539              		.global	uartStopReceiveI
 540              		.thumb
 541              		.thumb_func
 542              		.type	uartStopReceiveI, %function
 543              	uartStopReceiveI:
 544              	.LFB129:
 545              		.loc 1 343 0
 546              		.cfi_startproc
 547              		@ args = 0, pretend = 0, frame = 0
 548              		@ frame_needed = 0, uses_anonymous_args = 0
 549              	.LVL26:
 550              		.loc 1 350 0
 551 0000 8278     		ldrb	r2, [r0, #2]	@ zero_extendqisi2
 552 0002 012A     		cmp	r2, #1
 553 0004 01D0     		beq	.L39
 554              		.loc 1 355 0
 555 0006 0020     		movs	r0, #0
 556              	.LVL27:
 557 0008 7047     		bx	lr
 558              	.LVL28:
 559              	.L39:
 560              		.loc 1 343 0
 561 000a 10B5     		push	{r4, lr}
 562              		.cfi_def_cfa_offset 8
 563              		.cfi_offset 4, -8
 564              		.cfi_offset 14, -4
 565 000c 0446     		mov	r4, r0
 566              	.LBB21:
 567              		.loc 1 351 0
 568 000e FFF7FEFF 		bl	uart_lld_stop_receive
 569              	.LVL29:
 570              		.loc 1 352 0
ARM GAS  /tmp/cc72aXiX.s 			page 11


 571 0012 0023     		movs	r3, #0
 572 0014 A370     		strb	r3, [r4, #2]
 573              		.loc 1 353 0
 574 0016 10BD     		pop	{r4, pc}
 575              	.LBE21:
 576              		.cfi_endproc
 577              	.LFE129:
 578              		.size	uartStopReceiveI, .-uartStopReceiveI
 579              		.text
 580              	.Letext0:
 581              		.file 2 "/home/lithium/Descargas/gcc-arm-none-eabi-5_3-2016q1/lib/gcc/arm-none-eabi/5.3.1/include/
 582              		.file 3 "/home/lithium/Descargas/gcc-arm-none-eabi-5_3-2016q1/arm-none-eabi/include/machine/_defau
 583              		.file 4 "/home/lithium/Descargas/gcc-arm-none-eabi-5_3-2016q1/arm-none-eabi/include/sys/_stdint.h"
 584              		.file 5 "../../os/hal/platforms/STM32F4xx/stm32f4xx.h"
 585              		.file 6 "../../os/hal/platforms/STM32F4xx/stm32_dma.h"
 586              		.file 7 "../../os/hal/include/uart.h"
 587              		.file 8 "../../os/hal/platforms/STM32/USARTv1/uart_lld.h"
 588              		.file 9 "../../os/ports/common/ARMCMx/CMSIS/include/core_cm4.h"
 589              		.section	.debug_info,"",%progbits
 590              	.Ldebug_info0:
 591 0000 AC090000 		.4byte	0x9ac
 592 0004 0400     		.2byte	0x4
 593 0006 00000000 		.4byte	.Ldebug_abbrev0
 594 000a 04       		.byte	0x4
 595 000b 01       		.uleb128 0x1
 596 000c 27040000 		.4byte	.LASF95
 597 0010 0C       		.byte	0xc
 598 0011 1F030000 		.4byte	.LASF96
 599 0015 6B000000 		.4byte	.LASF97
 600 0019 90000000 		.4byte	.Ldebug_ranges0+0x90
 601 001d 00000000 		.4byte	0
 602 0021 00000000 		.4byte	.Ldebug_line0
 603 0025 02       		.uleb128 0x2
 604 0026 04       		.byte	0x4
 605 0027 05       		.byte	0x5
 606 0028 696E7400 		.ascii	"int\000"
 607 002c 03       		.uleb128 0x3
 608 002d 64000000 		.4byte	.LASF4
 609 0031 02       		.byte	0x2
 610 0032 D8       		.byte	0xd8
 611 0033 37000000 		.4byte	0x37
 612 0037 04       		.uleb128 0x4
 613 0038 04       		.byte	0x4
 614 0039 07       		.byte	0x7
 615 003a A3020000 		.4byte	.LASF0
 616 003e 04       		.uleb128 0x4
 617 003f 08       		.byte	0x8
 618 0040 05       		.byte	0x5
 619 0041 5B050000 		.4byte	.LASF1
 620 0045 04       		.uleb128 0x4
 621 0046 08       		.byte	0x8
 622 0047 04       		.byte	0x4
 623 0048 A1010000 		.4byte	.LASF2
 624 004c 04       		.uleb128 0x4
 625 004d 01       		.byte	0x1
 626 004e 06       		.byte	0x6
 627 004f 86010000 		.4byte	.LASF3
ARM GAS  /tmp/cc72aXiX.s 			page 12


 628 0053 03       		.uleb128 0x3
 629 0054 07020000 		.4byte	.LASF5
 630 0058 03       		.byte	0x3
 631 0059 1D       		.byte	0x1d
 632 005a 5E000000 		.4byte	0x5e
 633 005e 04       		.uleb128 0x4
 634 005f 01       		.byte	0x1
 635 0060 08       		.byte	0x8
 636 0061 4C020000 		.4byte	.LASF6
 637 0065 04       		.uleb128 0x4
 638 0066 02       		.byte	0x2
 639 0067 05       		.byte	0x5
 640 0068 1B010000 		.4byte	.LASF7
 641 006c 03       		.uleb128 0x3
 642 006d 02010000 		.4byte	.LASF8
 643 0071 03       		.byte	0x3
 644 0072 2B       		.byte	0x2b
 645 0073 77000000 		.4byte	0x77
 646 0077 04       		.uleb128 0x4
 647 0078 02       		.byte	0x2
 648 0079 07       		.byte	0x7
 649 007a F2020000 		.4byte	.LASF9
 650 007e 03       		.uleb128 0x3
 651 007f D5030000 		.4byte	.LASF10
 652 0083 03       		.byte	0x3
 653 0084 3F       		.byte	0x3f
 654 0085 89000000 		.4byte	0x89
 655 0089 04       		.uleb128 0x4
 656 008a 04       		.byte	0x4
 657 008b 05       		.byte	0x5
 658 008c E0010000 		.4byte	.LASF11
 659 0090 03       		.uleb128 0x3
 660 0091 E0000000 		.4byte	.LASF12
 661 0095 03       		.byte	0x3
 662 0096 41       		.byte	0x41
 663 0097 9B000000 		.4byte	0x9b
 664 009b 04       		.uleb128 0x4
 665 009c 04       		.byte	0x4
 666 009d 07       		.byte	0x7
 667 009e B9020000 		.4byte	.LASF13
 668 00a2 04       		.uleb128 0x4
 669 00a3 08       		.byte	0x8
 670 00a4 07       		.byte	0x7
 671 00a5 71020000 		.4byte	.LASF14
 672 00a9 03       		.uleb128 0x3
 673 00aa 5E010000 		.4byte	.LASF15
 674 00ae 04       		.byte	0x4
 675 00af 14       		.byte	0x14
 676 00b0 53000000 		.4byte	0x53
 677 00b4 03       		.uleb128 0x3
 678 00b5 B0020000 		.4byte	.LASF16
 679 00b9 04       		.byte	0x4
 680 00ba 1A       		.byte	0x1a
 681 00bb 6C000000 		.4byte	0x6c
 682 00bf 03       		.uleb128 0x3
 683 00c0 37030000 		.4byte	.LASF17
 684 00c4 04       		.byte	0x4
ARM GAS  /tmp/cc72aXiX.s 			page 13


 685 00c5 1F       		.byte	0x1f
 686 00c6 7E000000 		.4byte	0x7e
 687 00ca 03       		.uleb128 0x3
 688 00cb 90020000 		.4byte	.LASF18
 689 00cf 04       		.byte	0x4
 690 00d0 20       		.byte	0x20
 691 00d1 90000000 		.4byte	0x90
 692 00d5 04       		.uleb128 0x4
 693 00d6 01       		.byte	0x1
 694 00d7 02       		.byte	0x2
 695 00d8 44030000 		.4byte	.LASF19
 696 00dc 05       		.uleb128 0x5
 697 00dd 04       		.byte	0x4
 698 00de 06       		.uleb128 0x6
 699 00df CA000000 		.4byte	0xca
 700 00e3 04       		.uleb128 0x4
 701 00e4 04       		.byte	0x4
 702 00e5 07       		.byte	0x7
 703 00e6 AE000000 		.4byte	.LASF20
 704 00ea 04       		.uleb128 0x4
 705 00eb 01       		.byte	0x1
 706 00ec 08       		.byte	0x8
 707 00ed 1A030000 		.4byte	.LASF21
 708 00f1 06       		.uleb128 0x6
 709 00f2 B4000000 		.4byte	0xb4
 710 00f6 06       		.uleb128 0x6
 711 00f7 BF000000 		.4byte	0xbf
 712 00fb 07       		.uleb128 0x7
 713 00fc 18       		.byte	0x18
 714 00fd 05       		.byte	0x5
 715 00fe B102     		.2byte	0x2b1
 716 0100 52010000 		.4byte	0x152
 717 0104 08       		.uleb128 0x8
 718 0105 435200   		.ascii	"CR\000"
 719 0108 05       		.byte	0x5
 720 0109 B302     		.2byte	0x2b3
 721 010b DE000000 		.4byte	0xde
 722 010f 00       		.byte	0
 723 0110 09       		.uleb128 0x9
 724 0111 AE030000 		.4byte	.LASF22
 725 0115 05       		.byte	0x5
 726 0116 B402     		.2byte	0x2b4
 727 0118 DE000000 		.4byte	0xde
 728 011c 04       		.byte	0x4
 729 011d 08       		.uleb128 0x8
 730 011e 50415200 		.ascii	"PAR\000"
 731 0122 05       		.byte	0x5
 732 0123 B502     		.2byte	0x2b5
 733 0125 DE000000 		.4byte	0xde
 734 0129 08       		.byte	0x8
 735 012a 09       		.uleb128 0x9
 736 012b 3F030000 		.4byte	.LASF23
 737 012f 05       		.byte	0x5
 738 0130 B602     		.2byte	0x2b6
 739 0132 DE000000 		.4byte	0xde
 740 0136 0C       		.byte	0xc
 741 0137 09       		.uleb128 0x9
ARM GAS  /tmp/cc72aXiX.s 			page 14


 742 0138 15030000 		.4byte	.LASF24
 743 013c 05       		.byte	0x5
 744 013d B702     		.2byte	0x2b7
 745 013f DE000000 		.4byte	0xde
 746 0143 10       		.byte	0x10
 747 0144 08       		.uleb128 0x8
 748 0145 46435200 		.ascii	"FCR\000"
 749 0149 05       		.byte	0x5
 750 014a B802     		.2byte	0x2b8
 751 014c DE000000 		.4byte	0xde
 752 0150 14       		.byte	0x14
 753 0151 00       		.byte	0
 754 0152 0A       		.uleb128 0xa
 755 0153 3D000000 		.4byte	.LASF25
 756 0157 05       		.byte	0x5
 757 0158 B902     		.2byte	0x2b9
 758 015a FB000000 		.4byte	0xfb
 759 015e 07       		.uleb128 0x7
 760 015f 1C       		.byte	0x1c
 761 0160 05       		.byte	0x5
 762 0161 2905     		.2byte	0x529
 763 0163 1C020000 		.4byte	0x21c
 764 0167 08       		.uleb128 0x8
 765 0168 535200   		.ascii	"SR\000"
 766 016b 05       		.byte	0x5
 767 016c 2B05     		.2byte	0x52b
 768 016e F1000000 		.4byte	0xf1
 769 0172 00       		.byte	0
 770 0173 09       		.uleb128 0x9
 771 0174 68030000 		.4byte	.LASF26
 772 0178 05       		.byte	0x5
 773 0179 2C05     		.2byte	0x52c
 774 017b B4000000 		.4byte	0xb4
 775 017f 02       		.byte	0x2
 776 0180 08       		.uleb128 0x8
 777 0181 445200   		.ascii	"DR\000"
 778 0184 05       		.byte	0x5
 779 0185 2D05     		.2byte	0x52d
 780 0187 F1000000 		.4byte	0xf1
 781 018b 04       		.byte	0x4
 782 018c 09       		.uleb128 0x9
 783 018d 72030000 		.4byte	.LASF27
 784 0191 05       		.byte	0x5
 785 0192 2E05     		.2byte	0x52e
 786 0194 B4000000 		.4byte	0xb4
 787 0198 06       		.byte	0x6
 788 0199 08       		.uleb128 0x8
 789 019a 42525200 		.ascii	"BRR\000"
 790 019e 05       		.byte	0x5
 791 019f 2F05     		.2byte	0x52f
 792 01a1 F1000000 		.4byte	0xf1
 793 01a5 08       		.byte	0x8
 794 01a6 09       		.uleb128 0x9
 795 01a7 7C030000 		.4byte	.LASF28
 796 01ab 05       		.byte	0x5
 797 01ac 3005     		.2byte	0x530
 798 01ae B4000000 		.4byte	0xb4
ARM GAS  /tmp/cc72aXiX.s 			page 15


 799 01b2 0A       		.byte	0xa
 800 01b3 08       		.uleb128 0x8
 801 01b4 43523100 		.ascii	"CR1\000"
 802 01b8 05       		.byte	0x5
 803 01b9 3105     		.2byte	0x531
 804 01bb F1000000 		.4byte	0xf1
 805 01bf 0C       		.byte	0xc
 806 01c0 09       		.uleb128 0x9
 807 01c1 86030000 		.4byte	.LASF29
 808 01c5 05       		.byte	0x5
 809 01c6 3205     		.2byte	0x532
 810 01c8 B4000000 		.4byte	0xb4
 811 01cc 0E       		.byte	0xe
 812 01cd 08       		.uleb128 0x8
 813 01ce 43523200 		.ascii	"CR2\000"
 814 01d2 05       		.byte	0x5
 815 01d3 3305     		.2byte	0x533
 816 01d5 F1000000 		.4byte	0xf1
 817 01d9 10       		.byte	0x10
 818 01da 09       		.uleb128 0x9
 819 01db 90030000 		.4byte	.LASF30
 820 01df 05       		.byte	0x5
 821 01e0 3405     		.2byte	0x534
 822 01e2 B4000000 		.4byte	0xb4
 823 01e6 12       		.byte	0x12
 824 01e7 08       		.uleb128 0x8
 825 01e8 43523300 		.ascii	"CR3\000"
 826 01ec 05       		.byte	0x5
 827 01ed 3505     		.2byte	0x535
 828 01ef F1000000 		.4byte	0xf1
 829 01f3 14       		.byte	0x14
 830 01f4 09       		.uleb128 0x9
 831 01f5 9A030000 		.4byte	.LASF31
 832 01f9 05       		.byte	0x5
 833 01fa 3605     		.2byte	0x536
 834 01fc B4000000 		.4byte	0xb4
 835 0200 16       		.byte	0x16
 836 0201 09       		.uleb128 0x9
 837 0202 11000000 		.4byte	.LASF32
 838 0206 05       		.byte	0x5
 839 0207 3705     		.2byte	0x537
 840 0209 F1000000 		.4byte	0xf1
 841 020d 18       		.byte	0x18
 842 020e 09       		.uleb128 0x9
 843 020f A4030000 		.4byte	.LASF33
 844 0213 05       		.byte	0x5
 845 0214 3805     		.2byte	0x538
 846 0216 B4000000 		.4byte	0xb4
 847 021a 1A       		.byte	0x1a
 848 021b 00       		.byte	0
 849 021c 0A       		.uleb128 0xa
 850 021d 0D010000 		.4byte	.LASF34
 851 0221 05       		.byte	0x5
 852 0222 3905     		.2byte	0x539
 853 0224 5E010000 		.4byte	0x15e
 854 0228 0B       		.uleb128 0xb
 855 0229 0C       		.byte	0xc
ARM GAS  /tmp/cc72aXiX.s 			page 16


 856 022a 06       		.byte	0x6
 857 022b DA       		.byte	0xda
 858 022c 6D020000 		.4byte	0x26d
 859 0230 0C       		.uleb128 0xc
 860 0231 F2010000 		.4byte	.LASF35
 861 0235 06       		.byte	0x6
 862 0236 DB       		.byte	0xdb
 863 0237 6D020000 		.4byte	0x26d
 864 023b 00       		.byte	0
 865 023c 0C       		.uleb128 0xc
 866 023d 48050000 		.4byte	.LASF36
 867 0241 06       		.byte	0x6
 868 0242 DC       		.byte	0xdc
 869 0243 73020000 		.4byte	0x273
 870 0247 04       		.byte	0x4
 871 0248 0C       		.uleb128 0xc
 872 0249 19050000 		.4byte	.LASF37
 873 024d 06       		.byte	0x6
 874 024e DD       		.byte	0xdd
 875 024f A9000000 		.4byte	0xa9
 876 0253 08       		.byte	0x8
 877 0254 0C       		.uleb128 0xc
 878 0255 99020000 		.4byte	.LASF38
 879 0259 06       		.byte	0x6
 880 025a DF       		.byte	0xdf
 881 025b A9000000 		.4byte	0xa9
 882 025f 09       		.byte	0x9
 883 0260 0C       		.uleb128 0xc
 884 0261 66010000 		.4byte	.LASF39
 885 0265 06       		.byte	0x6
 886 0266 E0       		.byte	0xe0
 887 0267 A9000000 		.4byte	0xa9
 888 026b 0A       		.byte	0xa
 889 026c 00       		.byte	0
 890 026d 0D       		.uleb128 0xd
 891 026e 04       		.byte	0x4
 892 026f 52010000 		.4byte	0x152
 893 0273 0D       		.uleb128 0xd
 894 0274 04       		.byte	0x4
 895 0275 DE000000 		.4byte	0xde
 896 0279 03       		.uleb128 0x3
 897 027a 3A010000 		.4byte	.LASF40
 898 027e 06       		.byte	0x6
 899 027f E1       		.byte	0xe1
 900 0280 28020000 		.4byte	0x228
 901 0284 0D       		.uleb128 0xd
 902 0285 04       		.byte	0x4
 903 0286 8A020000 		.4byte	0x28a
 904 028a 0E       		.uleb128 0xe
 905 028b 79020000 		.4byte	0x279
 906 028f 0F       		.uleb128 0xf
 907 0290 01       		.byte	0x1
 908 0291 5E000000 		.4byte	0x5e
 909 0295 07       		.byte	0x7
 910 0296 48       		.byte	0x48
 911 0297 AE020000 		.4byte	0x2ae
 912 029b 10       		.uleb128 0x10
ARM GAS  /tmp/cc72aXiX.s 			page 17


 913 029c 12040000 		.4byte	.LASF41
 914 02a0 00       		.byte	0
 915 02a1 10       		.uleb128 0x10
 916 02a2 2D050000 		.4byte	.LASF42
 917 02a6 01       		.byte	0x1
 918 02a7 10       		.uleb128 0x10
 919 02a8 CA030000 		.4byte	.LASF43
 920 02ac 02       		.byte	0x2
 921 02ad 00       		.byte	0
 922 02ae 03       		.uleb128 0x3
 923 02af E6020000 		.4byte	.LASF44
 924 02b3 07       		.byte	0x7
 925 02b4 4C       		.byte	0x4c
 926 02b5 8F020000 		.4byte	0x28f
 927 02b9 0F       		.uleb128 0xf
 928 02ba 01       		.byte	0x1
 929 02bb 5E000000 		.4byte	0x5e
 930 02bf 07       		.byte	0x7
 931 02c0 51       		.byte	0x51
 932 02c1 D8020000 		.4byte	0x2d8
 933 02c5 10       		.uleb128 0x10
 934 02c6 5B030000 		.4byte	.LASF45
 935 02ca 00       		.byte	0
 936 02cb 10       		.uleb128 0x10
 937 02cc AD010000 		.4byte	.LASF46
 938 02d0 01       		.byte	0x1
 939 02d1 10       		.uleb128 0x10
 940 02d2 00000000 		.4byte	.LASF47
 941 02d6 02       		.byte	0x2
 942 02d7 00       		.byte	0
 943 02d8 03       		.uleb128 0x3
 944 02d9 30020000 		.4byte	.LASF48
 945 02dd 07       		.byte	0x7
 946 02de 55       		.byte	0x55
 947 02df B9020000 		.4byte	0x2b9
 948 02e3 0F       		.uleb128 0xf
 949 02e4 01       		.byte	0x1
 950 02e5 5E000000 		.4byte	0x5e
 951 02e9 07       		.byte	0x7
 952 02ea 5A       		.byte	0x5a
 953 02eb 02030000 		.4byte	0x302
 954 02ef 10       		.uleb128 0x10
 955 02f0 E8030000 		.4byte	.LASF49
 956 02f4 00       		.byte	0
 957 02f5 10       		.uleb128 0x10
 958 02f6 6D010000 		.4byte	.LASF50
 959 02fa 01       		.byte	0x1
 960 02fb 10       		.uleb128 0x10
 961 02fc 4A030000 		.4byte	.LASF51
 962 0300 02       		.byte	0x2
 963 0301 00       		.byte	0
 964 0302 03       		.uleb128 0x3
 965 0303 F9010000 		.4byte	.LASF52
 966 0307 07       		.byte	0x7
 967 0308 5E       		.byte	0x5e
 968 0309 E3020000 		.4byte	0x2e3
 969 030d 0A       		.uleb128 0xa
ARM GAS  /tmp/cc72aXiX.s 			page 18


 970 030e D1020000 		.4byte	.LASF53
 971 0312 08       		.byte	0x8
 972 0313 FE01     		.2byte	0x1fe
 973 0315 CA000000 		.4byte	0xca
 974 0319 0A       		.uleb128 0xa
 975 031a 3D050000 		.4byte	.LASF54
 976 031e 08       		.byte	0x8
 977 031f 0302     		.2byte	0x203
 978 0321 25030000 		.4byte	0x325
 979 0325 11       		.uleb128 0x11
 980 0326 3D050000 		.4byte	.LASF54
 981 032a 1C       		.byte	0x1c
 982 032b 08       		.byte	0x8
 983 032c 4B02     		.2byte	0x24b
 984 032e A8030000 		.4byte	0x3a8
 985 0332 09       		.uleb128 0x9
 986 0333 50000000 		.4byte	.LASF55
 987 0337 08       		.byte	0x8
 988 0338 4F02     		.2byte	0x24f
 989 033a AE020000 		.4byte	0x2ae
 990 033e 00       		.byte	0
 991 033f 09       		.uleb128 0x9
 992 0340 D8000000 		.4byte	.LASF56
 993 0344 08       		.byte	0x8
 994 0345 5302     		.2byte	0x253
 995 0347 D8020000 		.4byte	0x2d8
 996 034b 01       		.byte	0x1
 997 034c 09       		.uleb128 0x9
 998 034d 35000000 		.4byte	.LASF57
 999 0351 08       		.byte	0x8
 1000 0352 5702     		.2byte	0x257
 1001 0354 02030000 		.4byte	0x302
 1002 0358 02       		.byte	0x2
 1003 0359 09       		.uleb128 0x9
 1004 035a 25010000 		.4byte	.LASF58
 1005 035e 08       		.byte	0x8
 1006 035f 5B02     		.2byte	0x25b
 1007 0361 9A040000 		.4byte	0x49a
 1008 0365 04       		.byte	0x4
 1009 0366 09       		.uleb128 0x9
 1010 0367 20000000 		.4byte	.LASF59
 1011 036b 08       		.byte	0x8
 1012 036c 6302     		.2byte	0x263
 1013 036e A5040000 		.4byte	0x4a5
 1014 0372 08       		.byte	0x8
 1015 0373 09       		.uleb128 0x9
 1016 0374 88020000 		.4byte	.LASF60
 1017 0378 08       		.byte	0x8
 1018 0379 6702     		.2byte	0x267
 1019 037b CA000000 		.4byte	0xca
 1020 037f 0C       		.byte	0xc
 1021 0380 09       		.uleb128 0x9
 1022 0381 1B020000 		.4byte	.LASF61
 1023 0385 08       		.byte	0x8
 1024 0386 6B02     		.2byte	0x26b
 1025 0388 84020000 		.4byte	0x284
 1026 038c 10       		.byte	0x10
ARM GAS  /tmp/cc72aXiX.s 			page 19


 1027 038d 09       		.uleb128 0x9
 1028 038e 6B020000 		.4byte	.LASF62
 1029 0392 08       		.byte	0x8
 1030 0393 6F02     		.2byte	0x26f
 1031 0395 84020000 		.4byte	0x284
 1032 0399 14       		.byte	0x14
 1033 039a 09       		.uleb128 0x9
 1034 039b 01050000 		.4byte	.LASF63
 1035 039f 08       		.byte	0x8
 1036 03a0 7302     		.2byte	0x273
 1037 03a2 F1000000 		.4byte	0xf1
 1038 03a6 18       		.byte	0x18
 1039 03a7 00       		.byte	0
 1040 03a8 0A       		.uleb128 0xa
 1041 03a9 E9010000 		.4byte	.LASF64
 1042 03ad 08       		.byte	0x8
 1043 03ae 0A02     		.2byte	0x20a
 1044 03b0 B4030000 		.4byte	0x3b4
 1045 03b4 0D       		.uleb128 0xd
 1046 03b5 04       		.byte	0x4
 1047 03b6 BA030000 		.4byte	0x3ba
 1048 03ba 12       		.uleb128 0x12
 1049 03bb C5030000 		.4byte	0x3c5
 1050 03bf 13       		.uleb128 0x13
 1051 03c0 C5030000 		.4byte	0x3c5
 1052 03c4 00       		.byte	0
 1053 03c5 0D       		.uleb128 0xd
 1054 03c6 04       		.byte	0x4
 1055 03c7 19030000 		.4byte	0x319
 1056 03cb 0A       		.uleb128 0xa
 1057 03cc 05030000 		.4byte	.LASF65
 1058 03d0 08       		.byte	0x8
 1059 03d1 1202     		.2byte	0x212
 1060 03d3 D7030000 		.4byte	0x3d7
 1061 03d7 0D       		.uleb128 0xd
 1062 03d8 04       		.byte	0x4
 1063 03d9 DD030000 		.4byte	0x3dd
 1064 03dd 12       		.uleb128 0x12
 1065 03de ED030000 		.4byte	0x3ed
 1066 03e2 13       		.uleb128 0x13
 1067 03e3 C5030000 		.4byte	0x3c5
 1068 03e7 13       		.uleb128 0x13
 1069 03e8 B4000000 		.4byte	0xb4
 1070 03ec 00       		.byte	0
 1071 03ed 0A       		.uleb128 0xa
 1072 03ee 7C010000 		.4byte	.LASF66
 1073 03f2 08       		.byte	0x8
 1074 03f3 1A02     		.2byte	0x21a
 1075 03f5 F9030000 		.4byte	0x3f9
 1076 03f9 0D       		.uleb128 0xd
 1077 03fa 04       		.byte	0x4
 1078 03fb FF030000 		.4byte	0x3ff
 1079 03ff 12       		.uleb128 0x12
 1080 0400 0F040000 		.4byte	0x40f
 1081 0404 13       		.uleb128 0x13
 1082 0405 C5030000 		.4byte	0x3c5
 1083 0409 13       		.uleb128 0x13
ARM GAS  /tmp/cc72aXiX.s 			page 20


 1084 040a 0D030000 		.4byte	0x30d
 1085 040e 00       		.byte	0
 1086 040f 07       		.uleb128 0x7
 1087 0410 20       		.byte	0x20
 1088 0411 08       		.byte	0x8
 1089 0412 2002     		.2byte	0x220
 1090 0414 8E040000 		.4byte	0x48e
 1091 0418 09       		.uleb128 0x9
 1092 0419 F8000000 		.4byte	.LASF67
 1093 041d 08       		.byte	0x8
 1094 041e 2402     		.2byte	0x224
 1095 0420 A8030000 		.4byte	0x3a8
 1096 0424 00       		.byte	0
 1097 0425 09       		.uleb128 0x9
 1098 0426 11020000 		.4byte	.LASF68
 1099 042a 08       		.byte	0x8
 1100 042b 2802     		.2byte	0x228
 1101 042d A8030000 		.4byte	0x3a8
 1102 0431 04       		.byte	0x4
 1103 0432 09       		.uleb128 0x9
 1104 0433 DF030000 		.4byte	.LASF69
 1105 0437 08       		.byte	0x8
 1106 0438 2C02     		.2byte	0x22c
 1107 043a A8030000 		.4byte	0x3a8
 1108 043e 08       		.byte	0x8
 1109 043f 09       		.uleb128 0x9
 1110 0440 F5030000 		.4byte	.LASF70
 1111 0444 08       		.byte	0x8
 1112 0445 3002     		.2byte	0x230
 1113 0447 CB030000 		.4byte	0x3cb
 1114 044b 0C       		.byte	0xc
 1115 044c 09       		.uleb128 0x9
 1116 044d A5000000 		.4byte	.LASF71
 1117 0451 08       		.byte	0x8
 1118 0452 3402     		.2byte	0x234
 1119 0454 ED030000 		.4byte	0x3ed
 1120 0458 10       		.byte	0x10
 1121 0459 09       		.uleb128 0x9
 1122 045a CB020000 		.4byte	.LASF72
 1123 045e 08       		.byte	0x8
 1124 045f 3902     		.2byte	0x239
 1125 0461 CA000000 		.4byte	0xca
 1126 0465 14       		.byte	0x14
 1127 0466 08       		.uleb128 0x8
 1128 0467 63723100 		.ascii	"cr1\000"
 1129 046b 08       		.byte	0x8
 1130 046c 3D02     		.2byte	0x23d
 1131 046e B4000000 		.4byte	0xb4
 1132 0472 18       		.byte	0x18
 1133 0473 08       		.uleb128 0x8
 1134 0474 63723200 		.ascii	"cr2\000"
 1135 0478 08       		.byte	0x8
 1136 0479 4102     		.2byte	0x241
 1137 047b B4000000 		.4byte	0xb4
 1138 047f 1A       		.byte	0x1a
 1139 0480 08       		.uleb128 0x8
 1140 0481 63723300 		.ascii	"cr3\000"
ARM GAS  /tmp/cc72aXiX.s 			page 21


 1141 0485 08       		.byte	0x8
 1142 0486 4502     		.2byte	0x245
 1143 0488 B4000000 		.4byte	0xb4
 1144 048c 1C       		.byte	0x1c
 1145 048d 00       		.byte	0
 1146 048e 0A       		.uleb128 0xa
 1147 048f CD000000 		.4byte	.LASF73
 1148 0493 08       		.byte	0x8
 1149 0494 4602     		.2byte	0x246
 1150 0496 0F040000 		.4byte	0x40f
 1151 049a 0D       		.uleb128 0xd
 1152 049b 04       		.byte	0x4
 1153 049c A0040000 		.4byte	0x4a0
 1154 04a0 0E       		.uleb128 0xe
 1155 04a1 8E040000 		.4byte	0x48e
 1156 04a5 0D       		.uleb128 0xd
 1157 04a6 04       		.byte	0x4
 1158 04a7 1C020000 		.4byte	0x21c
 1159 04ab 14       		.uleb128 0x14
 1160 04ac DD020000 		.4byte	.LASF74
 1161 04b0 01       		.byte	0x1
 1162 04b1 44       		.byte	0x44
 1163 04b2 00000000 		.4byte	.LFB118
 1164 04b6 04000000 		.4byte	.LFE118-.LFB118
 1165 04ba 01       		.uleb128 0x1
 1166 04bb 9C       		.byte	0x9c
 1167 04bc CA040000 		.4byte	0x4ca
 1168 04c0 15       		.uleb128 0x15
 1169 04c1 04000000 		.4byte	.LVL0
 1170 04c5 5B090000 		.4byte	0x95b
 1171 04c9 00       		.byte	0
 1172 04ca 14       		.uleb128 0x14
 1173 04cb 92010000 		.4byte	.LASF75
 1174 04cf 01       		.byte	0x1
 1175 04d0 50       		.byte	0x50
 1176 04d1 00000000 		.4byte	.LFB119
 1177 04d5 0E000000 		.4byte	.LFE119-.LFB119
 1178 04d9 01       		.uleb128 0x1
 1179 04da 9C       		.byte	0x9c
 1180 04db ED040000 		.4byte	0x4ed
 1181 04df 16       		.uleb128 0x16
 1182 04e0 37050000 		.4byte	.LASF77
 1183 04e4 01       		.byte	0x1
 1184 04e5 50       		.byte	0x50
 1185 04e6 C5030000 		.4byte	0x3c5
 1186 04ea 01       		.uleb128 0x1
 1187 04eb 50       		.byte	0x50
 1188 04ec 00       		.byte	0
 1189 04ed 14       		.uleb128 0x14
 1190 04ee 16000000 		.4byte	.LASF76
 1191 04f2 01       		.byte	0x1
 1192 04f3 64       		.byte	0x64
 1193 04f4 00000000 		.4byte	.LFB120
 1194 04f8 1C000000 		.4byte	.LFE120-.LFB120
 1195 04fc 01       		.uleb128 0x1
 1196 04fd 9C       		.byte	0x9c
 1197 04fe 63050000 		.4byte	0x563
ARM GAS  /tmp/cc72aXiX.s 			page 22


 1198 0502 17       		.uleb128 0x17
 1199 0503 37050000 		.4byte	.LASF77
 1200 0507 01       		.byte	0x1
 1201 0508 64       		.byte	0x64
 1202 0509 C5030000 		.4byte	0x3c5
 1203 050d 00000000 		.4byte	.LLST0
 1204 0511 17       		.uleb128 0x17
 1205 0512 25010000 		.4byte	.LASF58
 1206 0516 01       		.byte	0x1
 1207 0517 64       		.byte	0x64
 1208 0518 9A040000 		.4byte	0x49a
 1209 051c 1E000000 		.4byte	.LLST1
 1210 0520 18       		.uleb128 0x18
 1211 0521 00000000 		.4byte	.Ldebug_ranges0+0
 1212 0525 37050000 		.4byte	0x537
 1213 0529 19       		.uleb128 0x19
 1214 052a 746D7000 		.ascii	"tmp\000"
 1215 052e 01       		.byte	0x1
 1216 052f 68       		.byte	0x68
 1217 0530 CA000000 		.4byte	0xca
 1218 0534 01       		.uleb128 0x1
 1219 0535 53       		.byte	0x53
 1220 0536 00       		.byte	0
 1221 0537 1A       		.uleb128 0x1a
 1222 0538 14000000 		.4byte	.LBB4
 1223 053c 08000000 		.4byte	.LBE4-.LBB4
 1224 0540 52050000 		.4byte	0x552
 1225 0544 19       		.uleb128 0x19
 1226 0545 746D7000 		.ascii	"tmp\000"
 1227 0549 01       		.byte	0x1
 1228 054a 6F       		.byte	0x6f
 1229 054b CA000000 		.4byte	0xca
 1230 054f 01       		.uleb128 0x1
 1231 0550 53       		.byte	0x53
 1232 0551 00       		.byte	0
 1233 0552 1B       		.uleb128 0x1b
 1234 0553 10000000 		.4byte	.LVL3
 1235 0557 67090000 		.4byte	0x967
 1236 055b 1C       		.uleb128 0x1c
 1237 055c 01       		.uleb128 0x1
 1238 055d 50       		.byte	0x50
 1239 055e 02       		.uleb128 0x2
 1240 055f 74       		.byte	0x74
 1241 0560 00       		.sleb128 0
 1242 0561 00       		.byte	0
 1243 0562 00       		.byte	0
 1244 0563 14       		.uleb128 0x14
 1245 0564 1E040000 		.4byte	.LASF78
 1246 0568 01       		.byte	0x1
 1247 0569 79       		.byte	0x79
 1248 056a 00000000 		.4byte	.LFB121
 1249 056e 1E000000 		.4byte	.LFE121-.LFB121
 1250 0572 01       		.uleb128 0x1
 1251 0573 9C       		.byte	0x9c
 1252 0574 CA050000 		.4byte	0x5ca
 1253 0578 17       		.uleb128 0x17
 1254 0579 37050000 		.4byte	.LASF77
ARM GAS  /tmp/cc72aXiX.s 			page 23


 1255 057d 01       		.byte	0x1
 1256 057e 79       		.byte	0x79
 1257 057f C5030000 		.4byte	0x3c5
 1258 0583 3F000000 		.4byte	.LLST2
 1259 0587 18       		.uleb128 0x18
 1260 0588 18000000 		.4byte	.Ldebug_ranges0+0x18
 1261 058c 9E050000 		.4byte	0x59e
 1262 0590 19       		.uleb128 0x19
 1263 0591 746D7000 		.ascii	"tmp\000"
 1264 0595 01       		.byte	0x1
 1265 0596 7D       		.byte	0x7d
 1266 0597 CA000000 		.4byte	0xca
 1267 059b 01       		.uleb128 0x1
 1268 059c 53       		.byte	0x53
 1269 059d 00       		.byte	0
 1270 059e 1A       		.uleb128 0x1a
 1271 059f 18000000 		.4byte	.LBB7
 1272 05a3 06000000 		.4byte	.LBE7-.LBB7
 1273 05a7 B9050000 		.4byte	0x5b9
 1274 05ab 19       		.uleb128 0x19
 1275 05ac 746D7000 		.ascii	"tmp\000"
 1276 05b0 01       		.byte	0x1
 1277 05b1 85       		.byte	0x85
 1278 05b2 CA000000 		.4byte	0xca
 1279 05b6 01       		.uleb128 0x1
 1280 05b7 53       		.byte	0x53
 1281 05b8 00       		.byte	0
 1282 05b9 1B       		.uleb128 0x1b
 1283 05ba 0E000000 		.4byte	.LVL5
 1284 05be 73090000 		.4byte	0x973
 1285 05c2 1C       		.uleb128 0x1c
 1286 05c3 01       		.uleb128 0x1
 1287 05c4 50       		.byte	0x50
 1288 05c5 02       		.uleb128 0x2
 1289 05c6 74       		.byte	0x74
 1290 05c7 00       		.sleb128 0
 1291 05c8 00       		.byte	0
 1292 05c9 00       		.byte	0
 1293 05ca 14       		.uleb128 0x14
 1294 05cb 2C010000 		.4byte	.LASF79
 1295 05cf 01       		.byte	0x1
 1296 05d0 93       		.byte	0x93
 1297 05d1 00000000 		.4byte	.LFB122
 1298 05d5 1A000000 		.4byte	.LFE122-.LFB122
 1299 05d9 01       		.uleb128 0x1
 1300 05da 9C       		.byte	0x9c
 1301 05db 5B060000 		.4byte	0x65b
 1302 05df 17       		.uleb128 0x17
 1303 05e0 37050000 		.4byte	.LASF77
 1304 05e4 01       		.byte	0x1
 1305 05e5 93       		.byte	0x93
 1306 05e6 C5030000 		.4byte	0x3c5
 1307 05ea 5D000000 		.4byte	.LLST3
 1308 05ee 1D       		.uleb128 0x1d
 1309 05ef 6E00     		.ascii	"n\000"
 1310 05f1 01       		.byte	0x1
 1311 05f2 93       		.byte	0x93
ARM GAS  /tmp/cc72aXiX.s 			page 24


 1312 05f3 2C000000 		.4byte	0x2c
 1313 05f7 7B000000 		.4byte	.LLST4
 1314 05fb 17       		.uleb128 0x17
 1315 05fc 0F030000 		.4byte	.LASF80
 1316 0600 01       		.byte	0x1
 1317 0601 93       		.byte	0x93
 1318 0602 5B060000 		.4byte	0x65b
 1319 0606 9C000000 		.4byte	.LLST5
 1320 060a 18       		.uleb128 0x18
 1321 060b 30000000 		.4byte	.Ldebug_ranges0+0x30
 1322 060f 21060000 		.4byte	0x621
 1323 0613 19       		.uleb128 0x19
 1324 0614 746D7000 		.ascii	"tmp\000"
 1325 0618 01       		.byte	0x1
 1326 0619 98       		.byte	0x98
 1327 061a CA000000 		.4byte	0xca
 1328 061e 01       		.uleb128 0x1
 1329 061f 53       		.byte	0x53
 1330 0620 00       		.byte	0
 1331 0621 1A       		.uleb128 0x1a
 1332 0622 12000000 		.4byte	.LBB10
 1333 0626 08000000 		.4byte	.LBE10-.LBB10
 1334 062a 3C060000 		.4byte	0x63c
 1335 062e 19       		.uleb128 0x19
 1336 062f 746D7000 		.ascii	"tmp\000"
 1337 0633 01       		.byte	0x1
 1338 0634 A0       		.byte	0xa0
 1339 0635 CA000000 		.4byte	0xca
 1340 0639 01       		.uleb128 0x1
 1341 063a 53       		.byte	0x53
 1342 063b 00       		.byte	0
 1343 063c 1B       		.uleb128 0x1b
 1344 063d 0E000000 		.4byte	.LVL7
 1345 0641 7F090000 		.4byte	0x97f
 1346 0645 1C       		.uleb128 0x1c
 1347 0646 01       		.uleb128 0x1
 1348 0647 50       		.byte	0x50
 1349 0648 02       		.uleb128 0x2
 1350 0649 74       		.byte	0x74
 1351 064a 00       		.sleb128 0
 1352 064b 1C       		.uleb128 0x1c
 1353 064c 01       		.uleb128 0x1
 1354 064d 51       		.byte	0x51
 1355 064e 03       		.uleb128 0x3
 1356 064f F3       		.byte	0xf3
 1357 0650 01       		.uleb128 0x1
 1358 0651 51       		.byte	0x51
 1359 0652 1C       		.uleb128 0x1c
 1360 0653 01       		.uleb128 0x1
 1361 0654 52       		.byte	0x52
 1362 0655 03       		.uleb128 0x3
 1363 0656 F3       		.byte	0xf3
 1364 0657 01       		.uleb128 0x1
 1365 0658 52       		.byte	0x52
 1366 0659 00       		.byte	0
 1367 065a 00       		.byte	0
 1368 065b 0D       		.uleb128 0xd
ARM GAS  /tmp/cc72aXiX.s 			page 25


 1369 065c 04       		.byte	0x4
 1370 065d 61060000 		.4byte	0x661
 1371 0661 1E       		.uleb128 0x1e
 1372 0662 14       		.uleb128 0x14
 1373 0663 26000000 		.4byte	.LASF81
 1374 0667 01       		.byte	0x1
 1375 0668 AF       		.byte	0xaf
 1376 0669 00000000 		.4byte	.LFB123
 1377 066d 0E000000 		.4byte	.LFE123-.LFB123
 1378 0671 01       		.uleb128 0x1
 1379 0672 9C       		.byte	0x9c
 1380 0673 C1060000 		.4byte	0x6c1
 1381 0677 17       		.uleb128 0x17
 1382 0678 37050000 		.4byte	.LASF77
 1383 067c 01       		.byte	0x1
 1384 067d AF       		.byte	0xaf
 1385 067e C5030000 		.4byte	0x3c5
 1386 0682 BD000000 		.4byte	.LLST6
 1387 0686 1D       		.uleb128 0x1d
 1388 0687 6E00     		.ascii	"n\000"
 1389 0689 01       		.byte	0x1
 1390 068a AF       		.byte	0xaf
 1391 068b 2C000000 		.4byte	0x2c
 1392 068f DB000000 		.4byte	.LLST7
 1393 0693 17       		.uleb128 0x17
 1394 0694 0F030000 		.4byte	.LASF80
 1395 0698 01       		.byte	0x1
 1396 0699 AF       		.byte	0xaf
 1397 069a 5B060000 		.4byte	0x65b
 1398 069e FC000000 		.4byte	.LLST8
 1399 06a2 1B       		.uleb128 0x1b
 1400 06a3 08000000 		.4byte	.LVL9
 1401 06a7 7F090000 		.4byte	0x97f
 1402 06ab 1C       		.uleb128 0x1c
 1403 06ac 01       		.uleb128 0x1
 1404 06ad 50       		.byte	0x50
 1405 06ae 02       		.uleb128 0x2
 1406 06af 74       		.byte	0x74
 1407 06b0 00       		.sleb128 0
 1408 06b1 1C       		.uleb128 0x1c
 1409 06b2 01       		.uleb128 0x1
 1410 06b3 51       		.byte	0x51
 1411 06b4 03       		.uleb128 0x3
 1412 06b5 F3       		.byte	0xf3
 1413 06b6 01       		.uleb128 0x1
 1414 06b7 51       		.byte	0x51
 1415 06b8 1C       		.uleb128 0x1c
 1416 06b9 01       		.uleb128 0x1
 1417 06ba 52       		.byte	0x52
 1418 06bb 03       		.uleb128 0x3
 1419 06bc F3       		.byte	0xf3
 1420 06bd 01       		.uleb128 0x1
 1421 06be 52       		.byte	0x52
 1422 06bf 00       		.byte	0
 1423 06c0 00       		.byte	0
 1424 06c1 1F       		.uleb128 0x1f
 1425 06c2 EB000000 		.4byte	.LASF82
ARM GAS  /tmp/cc72aXiX.s 			page 26


 1426 06c6 01       		.byte	0x1
 1427 06c7 C9       		.byte	0xc9
 1428 06c8 2C000000 		.4byte	0x2c
 1429 06cc 00000000 		.4byte	.LFB124
 1430 06d0 2A000000 		.4byte	.LFE124-.LFB124
 1431 06d4 01       		.uleb128 0x1
 1432 06d5 9C       		.byte	0x9c
 1433 06d6 39070000 		.4byte	0x739
 1434 06da 17       		.uleb128 0x17
 1435 06db 37050000 		.4byte	.LASF77
 1436 06df 01       		.byte	0x1
 1437 06e0 C9       		.byte	0xc9
 1438 06e1 C5030000 		.4byte	0x3c5
 1439 06e5 1D010000 		.4byte	.LLST9
 1440 06e9 20       		.uleb128 0x20
 1441 06ea 6E00     		.ascii	"n\000"
 1442 06ec 01       		.byte	0x1
 1443 06ed CA       		.byte	0xca
 1444 06ee 2C000000 		.4byte	0x2c
 1445 06f2 54010000 		.4byte	.LLST10
 1446 06f6 1A       		.uleb128 0x1a
 1447 06f7 00000000 		.4byte	.LBB11
 1448 06fb 06000000 		.4byte	.LBE11-.LBB11
 1449 06ff 11070000 		.4byte	0x711
 1450 0703 19       		.uleb128 0x19
 1451 0704 746D7000 		.ascii	"tmp\000"
 1452 0708 01       		.byte	0x1
 1453 0709 CE       		.byte	0xce
 1454 070a CA000000 		.4byte	0xca
 1455 070e 01       		.uleb128 0x1
 1456 070f 53       		.byte	0x53
 1457 0710 00       		.byte	0
 1458 0711 18       		.uleb128 0x18
 1459 0712 48000000 		.4byte	.Ldebug_ranges0+0x48
 1460 0716 28070000 		.4byte	0x728
 1461 071a 19       		.uleb128 0x19
 1462 071b 746D7000 		.ascii	"tmp\000"
 1463 071f 01       		.byte	0x1
 1464 0720 D7       		.byte	0xd7
 1465 0721 CA000000 		.4byte	0xca
 1466 0725 01       		.uleb128 0x1
 1467 0726 53       		.byte	0x53
 1468 0727 00       		.byte	0
 1469 0728 1B       		.uleb128 0x1b
 1470 0729 1E000000 		.4byte	.LVL13
 1471 072d 8B090000 		.4byte	0x98b
 1472 0731 1C       		.uleb128 0x1c
 1473 0732 01       		.uleb128 0x1
 1474 0733 50       		.byte	0x50
 1475 0734 02       		.uleb128 0x2
 1476 0735 74       		.byte	0x74
 1477 0736 00       		.sleb128 0
 1478 0737 00       		.byte	0
 1479 0738 00       		.byte	0
 1480 0739 1F       		.uleb128 0x1f
 1481 073a 56000000 		.4byte	.LASF83
 1482 073e 01       		.byte	0x1
ARM GAS  /tmp/cc72aXiX.s 			page 27


 1483 073f E8       		.byte	0xe8
 1484 0740 2C000000 		.4byte	0x2c
 1485 0744 00000000 		.4byte	.LFB125
 1486 0748 18000000 		.4byte	.LFE125-.LFB125
 1487 074c 01       		.uleb128 0x1
 1488 074d 9C       		.byte	0x9c
 1489 074e 87070000 		.4byte	0x787
 1490 0752 17       		.uleb128 0x17
 1491 0753 37050000 		.4byte	.LASF77
 1492 0757 01       		.byte	0x1
 1493 0758 E8       		.byte	0xe8
 1494 0759 C5030000 		.4byte	0x3c5
 1495 075d 72010000 		.4byte	.LLST11
 1496 0761 21       		.uleb128 0x21
 1497 0762 0E000000 		.4byte	.LBB14
 1498 0766 0A000000 		.4byte	.LBE14-.LBB14
 1499 076a 19       		.uleb128 0x19
 1500 076b 6E00     		.ascii	"n\000"
 1501 076d 01       		.byte	0x1
 1502 076e EF       		.byte	0xef
 1503 076f 2C000000 		.4byte	0x2c
 1504 0773 01       		.uleb128 0x1
 1505 0774 50       		.byte	0x50
 1506 0775 1B       		.uleb128 0x1b
 1507 0776 12000000 		.4byte	.LVL17
 1508 077a 8B090000 		.4byte	0x98b
 1509 077e 1C       		.uleb128 0x1c
 1510 077f 01       		.uleb128 0x1
 1511 0780 50       		.byte	0x50
 1512 0781 02       		.uleb128 0x2
 1513 0782 74       		.byte	0x74
 1514 0783 00       		.sleb128 0
 1515 0784 00       		.byte	0
 1516 0785 00       		.byte	0
 1517 0786 00       		.byte	0
 1518 0787 22       		.uleb128 0x22
 1519 0788 4D010000 		.4byte	.LASF84
 1520 078c 01       		.byte	0x1
 1521 078d 0101     		.2byte	0x101
 1522 078f 00000000 		.4byte	.LFB126
 1523 0793 1A000000 		.4byte	.LFE126-.LFB126
 1524 0797 01       		.uleb128 0x1
 1525 0798 9C       		.byte	0x9c
 1526 0799 1E080000 		.4byte	0x81e
 1527 079d 23       		.uleb128 0x23
 1528 079e 37050000 		.4byte	.LASF77
 1529 07a2 01       		.byte	0x1
 1530 07a3 0101     		.2byte	0x101
 1531 07a5 C5030000 		.4byte	0x3c5
 1532 07a9 A9010000 		.4byte	.LLST12
 1533 07ad 24       		.uleb128 0x24
 1534 07ae 6E00     		.ascii	"n\000"
 1535 07b0 01       		.byte	0x1
 1536 07b1 0101     		.2byte	0x101
 1537 07b3 2C000000 		.4byte	0x2c
 1538 07b7 C7010000 		.4byte	.LLST13
 1539 07bb 23       		.uleb128 0x23
ARM GAS  /tmp/cc72aXiX.s 			page 28


 1540 07bc 01050000 		.4byte	.LASF63
 1541 07c0 01       		.byte	0x1
 1542 07c1 0101     		.2byte	0x101
 1543 07c3 DC000000 		.4byte	0xdc
 1544 07c7 E8010000 		.4byte	.LLST14
 1545 07cb 18       		.uleb128 0x18
 1546 07cc 60000000 		.4byte	.Ldebug_ranges0+0x60
 1547 07d0 E3070000 		.4byte	0x7e3
 1548 07d4 25       		.uleb128 0x25
 1549 07d5 746D7000 		.ascii	"tmp\000"
 1550 07d9 01       		.byte	0x1
 1551 07da 0601     		.2byte	0x106
 1552 07dc CA000000 		.4byte	0xca
 1553 07e0 01       		.uleb128 0x1
 1554 07e1 53       		.byte	0x53
 1555 07e2 00       		.byte	0
 1556 07e3 1A       		.uleb128 0x1a
 1557 07e4 12000000 		.4byte	.LBB17
 1558 07e8 08000000 		.4byte	.LBE17-.LBB17
 1559 07ec FF070000 		.4byte	0x7ff
 1560 07f0 25       		.uleb128 0x25
 1561 07f1 746D7000 		.ascii	"tmp\000"
 1562 07f5 01       		.byte	0x1
 1563 07f6 0E01     		.2byte	0x10e
 1564 07f8 CA000000 		.4byte	0xca
 1565 07fc 01       		.uleb128 0x1
 1566 07fd 53       		.byte	0x53
 1567 07fe 00       		.byte	0
 1568 07ff 1B       		.uleb128 0x1b
 1569 0800 0E000000 		.4byte	.LVL19
 1570 0804 97090000 		.4byte	0x997
 1571 0808 1C       		.uleb128 0x1c
 1572 0809 01       		.uleb128 0x1
 1573 080a 50       		.byte	0x50
 1574 080b 02       		.uleb128 0x2
 1575 080c 74       		.byte	0x74
 1576 080d 00       		.sleb128 0
 1577 080e 1C       		.uleb128 0x1c
 1578 080f 01       		.uleb128 0x1
 1579 0810 51       		.byte	0x51
 1580 0811 03       		.uleb128 0x3
 1581 0812 F3       		.byte	0xf3
 1582 0813 01       		.uleb128 0x1
 1583 0814 51       		.byte	0x51
 1584 0815 1C       		.uleb128 0x1c
 1585 0816 01       		.uleb128 0x1
 1586 0817 52       		.byte	0x52
 1587 0818 03       		.uleb128 0x3
 1588 0819 F3       		.byte	0xf3
 1589 081a 01       		.uleb128 0x1
 1590 081b 52       		.byte	0x52
 1591 081c 00       		.byte	0
 1592 081d 00       		.byte	0
 1593 081e 22       		.uleb128 0x22
 1594 081f 07050000 		.4byte	.LASF85
 1595 0823 01       		.byte	0x1
 1596 0824 1D01     		.2byte	0x11d
ARM GAS  /tmp/cc72aXiX.s 			page 29


 1597 0826 00000000 		.4byte	.LFB127
 1598 082a 0E000000 		.4byte	.LFE127-.LFB127
 1599 082e 01       		.uleb128 0x1
 1600 082f 9C       		.byte	0x9c
 1601 0830 81080000 		.4byte	0x881
 1602 0834 23       		.uleb128 0x23
 1603 0835 37050000 		.4byte	.LASF77
 1604 0839 01       		.byte	0x1
 1605 083a 1D01     		.2byte	0x11d
 1606 083c C5030000 		.4byte	0x3c5
 1607 0840 09020000 		.4byte	.LLST15
 1608 0844 24       		.uleb128 0x24
 1609 0845 6E00     		.ascii	"n\000"
 1610 0847 01       		.byte	0x1
 1611 0848 1D01     		.2byte	0x11d
 1612 084a 2C000000 		.4byte	0x2c
 1613 084e 27020000 		.4byte	.LLST16
 1614 0852 23       		.uleb128 0x23
 1615 0853 01050000 		.4byte	.LASF63
 1616 0857 01       		.byte	0x1
 1617 0858 1D01     		.2byte	0x11d
 1618 085a DC000000 		.4byte	0xdc
 1619 085e 48020000 		.4byte	.LLST17
 1620 0862 1B       		.uleb128 0x1b
 1621 0863 08000000 		.4byte	.LVL21
 1622 0867 97090000 		.4byte	0x997
 1623 086b 1C       		.uleb128 0x1c
 1624 086c 01       		.uleb128 0x1
 1625 086d 50       		.byte	0x50
 1626 086e 02       		.uleb128 0x2
 1627 086f 74       		.byte	0x74
 1628 0870 00       		.sleb128 0
 1629 0871 1C       		.uleb128 0x1c
 1630 0872 01       		.uleb128 0x1
 1631 0873 51       		.byte	0x51
 1632 0874 03       		.uleb128 0x3
 1633 0875 F3       		.byte	0xf3
 1634 0876 01       		.uleb128 0x1
 1635 0877 51       		.byte	0x51
 1636 0878 1C       		.uleb128 0x1c
 1637 0879 01       		.uleb128 0x1
 1638 087a 52       		.byte	0x52
 1639 087b 03       		.uleb128 0x3
 1640 087c F3       		.byte	0xf3
 1641 087d 01       		.uleb128 0x1
 1642 087e 52       		.byte	0x52
 1643 087f 00       		.byte	0
 1644 0880 00       		.byte	0
 1645 0881 26       		.uleb128 0x26
 1646 0882 D0010000 		.4byte	.LASF86
 1647 0886 01       		.byte	0x1
 1648 0887 3701     		.2byte	0x137
 1649 0889 2C000000 		.4byte	0x2c
 1650 088d 00000000 		.4byte	.LFB128
 1651 0891 2A000000 		.4byte	.LFE128-.LFB128
 1652 0895 01       		.uleb128 0x1
 1653 0896 9C       		.byte	0x9c
ARM GAS  /tmp/cc72aXiX.s 			page 30


 1654 0897 FE080000 		.4byte	0x8fe
 1655 089b 23       		.uleb128 0x23
 1656 089c 37050000 		.4byte	.LASF77
 1657 08a0 01       		.byte	0x1
 1658 08a1 3701     		.2byte	0x137
 1659 08a3 C5030000 		.4byte	0x3c5
 1660 08a7 69020000 		.4byte	.LLST18
 1661 08ab 27       		.uleb128 0x27
 1662 08ac 6E00     		.ascii	"n\000"
 1663 08ae 01       		.byte	0x1
 1664 08af 3801     		.2byte	0x138
 1665 08b1 2C000000 		.4byte	0x2c
 1666 08b5 A0020000 		.4byte	.LLST19
 1667 08b9 1A       		.uleb128 0x1a
 1668 08ba 00000000 		.4byte	.LBB18
 1669 08be 06000000 		.4byte	.LBE18-.LBB18
 1670 08c2 D5080000 		.4byte	0x8d5
 1671 08c6 25       		.uleb128 0x25
 1672 08c7 746D7000 		.ascii	"tmp\000"
 1673 08cb 01       		.byte	0x1
 1674 08cc 3C01     		.2byte	0x13c
 1675 08ce CA000000 		.4byte	0xca
 1676 08d2 01       		.uleb128 0x1
 1677 08d3 53       		.byte	0x53
 1678 08d4 00       		.byte	0
 1679 08d5 18       		.uleb128 0x18
 1680 08d6 78000000 		.4byte	.Ldebug_ranges0+0x78
 1681 08da ED080000 		.4byte	0x8ed
 1682 08de 25       		.uleb128 0x25
 1683 08df 746D7000 		.ascii	"tmp\000"
 1684 08e3 01       		.byte	0x1
 1685 08e4 4601     		.2byte	0x146
 1686 08e6 CA000000 		.4byte	0xca
 1687 08ea 01       		.uleb128 0x1
 1688 08eb 53       		.byte	0x53
 1689 08ec 00       		.byte	0
 1690 08ed 1B       		.uleb128 0x1b
 1691 08ee 1E000000 		.4byte	.LVL25
 1692 08f2 A3090000 		.4byte	0x9a3
 1693 08f6 1C       		.uleb128 0x1c
 1694 08f7 01       		.uleb128 0x1
 1695 08f8 50       		.byte	0x50
 1696 08f9 02       		.uleb128 0x2
 1697 08fa 74       		.byte	0x74
 1698 08fb 00       		.sleb128 0
 1699 08fc 00       		.byte	0
 1700 08fd 00       		.byte	0
 1701 08fe 26       		.uleb128 0x26
 1702 08ff 5A020000 		.4byte	.LASF87
 1703 0903 01       		.byte	0x1
 1704 0904 5701     		.2byte	0x157
 1705 0906 2C000000 		.4byte	0x2c
 1706 090a 00000000 		.4byte	.LFB129
 1707 090e 18000000 		.4byte	.LFE129-.LFB129
 1708 0912 01       		.uleb128 0x1
 1709 0913 9C       		.byte	0x9c
 1710 0914 4F090000 		.4byte	0x94f
ARM GAS  /tmp/cc72aXiX.s 			page 31


 1711 0918 23       		.uleb128 0x23
 1712 0919 37050000 		.4byte	.LASF77
 1713 091d 01       		.byte	0x1
 1714 091e 5701     		.2byte	0x157
 1715 0920 C5030000 		.4byte	0x3c5
 1716 0924 BE020000 		.4byte	.LLST20
 1717 0928 21       		.uleb128 0x21
 1718 0929 0E000000 		.4byte	.LBB21
 1719 092d 0A000000 		.4byte	.LBE21-.LBB21
 1720 0931 25       		.uleb128 0x25
 1721 0932 6E00     		.ascii	"n\000"
 1722 0934 01       		.byte	0x1
 1723 0935 5F01     		.2byte	0x15f
 1724 0937 2C000000 		.4byte	0x2c
 1725 093b 01       		.uleb128 0x1
 1726 093c 50       		.byte	0x50
 1727 093d 1B       		.uleb128 0x1b
 1728 093e 12000000 		.4byte	.LVL29
 1729 0942 A3090000 		.4byte	0x9a3
 1730 0946 1C       		.uleb128 0x1c
 1731 0947 01       		.uleb128 0x1
 1732 0948 50       		.byte	0x50
 1733 0949 02       		.uleb128 0x2
 1734 094a 74       		.byte	0x74
 1735 094b 00       		.sleb128 0
 1736 094c 00       		.byte	0
 1737 094d 00       		.byte	0
 1738 094e 00       		.byte	0
 1739 094f 28       		.uleb128 0x28
 1740 0950 20050000 		.4byte	.LASF98
 1741 0954 09       		.byte	0x9
 1742 0955 9806     		.2byte	0x698
 1743 0957 F6000000 		.4byte	0xf6
 1744 095b 29       		.uleb128 0x29
 1745 095c 3E020000 		.4byte	.LASF88
 1746 0960 3E020000 		.4byte	.LASF88
 1747 0964 08       		.byte	0x8
 1748 0965 9902     		.2byte	0x299
 1749 0967 29       		.uleb128 0x29
 1750 0968 21020000 		.4byte	.LASF89
 1751 096c 21020000 		.4byte	.LASF89
 1752 0970 08       		.byte	0x8
 1753 0971 9A02     		.2byte	0x29a
 1754 0973 29       		.uleb128 0x29
 1755 0974 4D050000 		.4byte	.LASF90
 1756 0978 4D050000 		.4byte	.LASF90
 1757 097c 08       		.byte	0x8
 1758 097d 9B02     		.2byte	0x29b
 1759 097f 29       		.uleb128 0x29
 1760 0980 BC010000 		.4byte	.LASF91
 1761 0984 BC010000 		.4byte	.LASF91
 1762 0988 08       		.byte	0x8
 1763 0989 9C02     		.2byte	0x29c
 1764 098b 29       		.uleb128 0x29
 1765 098c FF030000 		.4byte	.LASF92
 1766 0990 FF030000 		.4byte	.LASF92
 1767 0994 08       		.byte	0x8
ARM GAS  /tmp/cc72aXiX.s 			page 32


 1768 0995 9D02     		.2byte	0x29d
 1769 0997 29       		.uleb128 0x29
 1770 0998 B3030000 		.4byte	.LASF93
 1771 099c B3030000 		.4byte	.LASF93
 1772 09a0 08       		.byte	0x8
 1773 09a1 9E02     		.2byte	0x29e
 1774 09a3 29       		.uleb128 0x29
 1775 09a4 B7000000 		.4byte	.LASF94
 1776 09a8 B7000000 		.4byte	.LASF94
 1777 09ac 08       		.byte	0x8
 1778 09ad 9F02     		.2byte	0x29f
 1779 09af 00       		.byte	0
 1780              		.section	.debug_abbrev,"",%progbits
 1781              	.Ldebug_abbrev0:
 1782 0000 01       		.uleb128 0x1
 1783 0001 11       		.uleb128 0x11
 1784 0002 01       		.byte	0x1
 1785 0003 25       		.uleb128 0x25
 1786 0004 0E       		.uleb128 0xe
 1787 0005 13       		.uleb128 0x13
 1788 0006 0B       		.uleb128 0xb
 1789 0007 03       		.uleb128 0x3
 1790 0008 0E       		.uleb128 0xe
 1791 0009 1B       		.uleb128 0x1b
 1792 000a 0E       		.uleb128 0xe
 1793 000b 55       		.uleb128 0x55
 1794 000c 17       		.uleb128 0x17
 1795 000d 11       		.uleb128 0x11
 1796 000e 01       		.uleb128 0x1
 1797 000f 10       		.uleb128 0x10
 1798 0010 17       		.uleb128 0x17
 1799 0011 00       		.byte	0
 1800 0012 00       		.byte	0
 1801 0013 02       		.uleb128 0x2
 1802 0014 24       		.uleb128 0x24
 1803 0015 00       		.byte	0
 1804 0016 0B       		.uleb128 0xb
 1805 0017 0B       		.uleb128 0xb
 1806 0018 3E       		.uleb128 0x3e
 1807 0019 0B       		.uleb128 0xb
 1808 001a 03       		.uleb128 0x3
 1809 001b 08       		.uleb128 0x8
 1810 001c 00       		.byte	0
 1811 001d 00       		.byte	0
 1812 001e 03       		.uleb128 0x3
 1813 001f 16       		.uleb128 0x16
 1814 0020 00       		.byte	0
 1815 0021 03       		.uleb128 0x3
 1816 0022 0E       		.uleb128 0xe
 1817 0023 3A       		.uleb128 0x3a
 1818 0024 0B       		.uleb128 0xb
 1819 0025 3B       		.uleb128 0x3b
 1820 0026 0B       		.uleb128 0xb
 1821 0027 49       		.uleb128 0x49
 1822 0028 13       		.uleb128 0x13
 1823 0029 00       		.byte	0
 1824 002a 00       		.byte	0
ARM GAS  /tmp/cc72aXiX.s 			page 33


 1825 002b 04       		.uleb128 0x4
 1826 002c 24       		.uleb128 0x24
 1827 002d 00       		.byte	0
 1828 002e 0B       		.uleb128 0xb
 1829 002f 0B       		.uleb128 0xb
 1830 0030 3E       		.uleb128 0x3e
 1831 0031 0B       		.uleb128 0xb
 1832 0032 03       		.uleb128 0x3
 1833 0033 0E       		.uleb128 0xe
 1834 0034 00       		.byte	0
 1835 0035 00       		.byte	0
 1836 0036 05       		.uleb128 0x5
 1837 0037 0F       		.uleb128 0xf
 1838 0038 00       		.byte	0
 1839 0039 0B       		.uleb128 0xb
 1840 003a 0B       		.uleb128 0xb
 1841 003b 00       		.byte	0
 1842 003c 00       		.byte	0
 1843 003d 06       		.uleb128 0x6
 1844 003e 35       		.uleb128 0x35
 1845 003f 00       		.byte	0
 1846 0040 49       		.uleb128 0x49
 1847 0041 13       		.uleb128 0x13
 1848 0042 00       		.byte	0
 1849 0043 00       		.byte	0
 1850 0044 07       		.uleb128 0x7
 1851 0045 13       		.uleb128 0x13
 1852 0046 01       		.byte	0x1
 1853 0047 0B       		.uleb128 0xb
 1854 0048 0B       		.uleb128 0xb
 1855 0049 3A       		.uleb128 0x3a
 1856 004a 0B       		.uleb128 0xb
 1857 004b 3B       		.uleb128 0x3b
 1858 004c 05       		.uleb128 0x5
 1859 004d 01       		.uleb128 0x1
 1860 004e 13       		.uleb128 0x13
 1861 004f 00       		.byte	0
 1862 0050 00       		.byte	0
 1863 0051 08       		.uleb128 0x8
 1864 0052 0D       		.uleb128 0xd
 1865 0053 00       		.byte	0
 1866 0054 03       		.uleb128 0x3
 1867 0055 08       		.uleb128 0x8
 1868 0056 3A       		.uleb128 0x3a
 1869 0057 0B       		.uleb128 0xb
 1870 0058 3B       		.uleb128 0x3b
 1871 0059 05       		.uleb128 0x5
 1872 005a 49       		.uleb128 0x49
 1873 005b 13       		.uleb128 0x13
 1874 005c 38       		.uleb128 0x38
 1875 005d 0B       		.uleb128 0xb
 1876 005e 00       		.byte	0
 1877 005f 00       		.byte	0
 1878 0060 09       		.uleb128 0x9
 1879 0061 0D       		.uleb128 0xd
 1880 0062 00       		.byte	0
 1881 0063 03       		.uleb128 0x3
ARM GAS  /tmp/cc72aXiX.s 			page 34


 1882 0064 0E       		.uleb128 0xe
 1883 0065 3A       		.uleb128 0x3a
 1884 0066 0B       		.uleb128 0xb
 1885 0067 3B       		.uleb128 0x3b
 1886 0068 05       		.uleb128 0x5
 1887 0069 49       		.uleb128 0x49
 1888 006a 13       		.uleb128 0x13
 1889 006b 38       		.uleb128 0x38
 1890 006c 0B       		.uleb128 0xb
 1891 006d 00       		.byte	0
 1892 006e 00       		.byte	0
 1893 006f 0A       		.uleb128 0xa
 1894 0070 16       		.uleb128 0x16
 1895 0071 00       		.byte	0
 1896 0072 03       		.uleb128 0x3
 1897 0073 0E       		.uleb128 0xe
 1898 0074 3A       		.uleb128 0x3a
 1899 0075 0B       		.uleb128 0xb
 1900 0076 3B       		.uleb128 0x3b
 1901 0077 05       		.uleb128 0x5
 1902 0078 49       		.uleb128 0x49
 1903 0079 13       		.uleb128 0x13
 1904 007a 00       		.byte	0
 1905 007b 00       		.byte	0
 1906 007c 0B       		.uleb128 0xb
 1907 007d 13       		.uleb128 0x13
 1908 007e 01       		.byte	0x1
 1909 007f 0B       		.uleb128 0xb
 1910 0080 0B       		.uleb128 0xb
 1911 0081 3A       		.uleb128 0x3a
 1912 0082 0B       		.uleb128 0xb
 1913 0083 3B       		.uleb128 0x3b
 1914 0084 0B       		.uleb128 0xb
 1915 0085 01       		.uleb128 0x1
 1916 0086 13       		.uleb128 0x13
 1917 0087 00       		.byte	0
 1918 0088 00       		.byte	0
 1919 0089 0C       		.uleb128 0xc
 1920 008a 0D       		.uleb128 0xd
 1921 008b 00       		.byte	0
 1922 008c 03       		.uleb128 0x3
 1923 008d 0E       		.uleb128 0xe
 1924 008e 3A       		.uleb128 0x3a
 1925 008f 0B       		.uleb128 0xb
 1926 0090 3B       		.uleb128 0x3b
 1927 0091 0B       		.uleb128 0xb
 1928 0092 49       		.uleb128 0x49
 1929 0093 13       		.uleb128 0x13
 1930 0094 38       		.uleb128 0x38
 1931 0095 0B       		.uleb128 0xb
 1932 0096 00       		.byte	0
 1933 0097 00       		.byte	0
 1934 0098 0D       		.uleb128 0xd
 1935 0099 0F       		.uleb128 0xf
 1936 009a 00       		.byte	0
 1937 009b 0B       		.uleb128 0xb
 1938 009c 0B       		.uleb128 0xb
ARM GAS  /tmp/cc72aXiX.s 			page 35


 1939 009d 49       		.uleb128 0x49
 1940 009e 13       		.uleb128 0x13
 1941 009f 00       		.byte	0
 1942 00a0 00       		.byte	0
 1943 00a1 0E       		.uleb128 0xe
 1944 00a2 26       		.uleb128 0x26
 1945 00a3 00       		.byte	0
 1946 00a4 49       		.uleb128 0x49
 1947 00a5 13       		.uleb128 0x13
 1948 00a6 00       		.byte	0
 1949 00a7 00       		.byte	0
 1950 00a8 0F       		.uleb128 0xf
 1951 00a9 04       		.uleb128 0x4
 1952 00aa 01       		.byte	0x1
 1953 00ab 0B       		.uleb128 0xb
 1954 00ac 0B       		.uleb128 0xb
 1955 00ad 49       		.uleb128 0x49
 1956 00ae 13       		.uleb128 0x13
 1957 00af 3A       		.uleb128 0x3a
 1958 00b0 0B       		.uleb128 0xb
 1959 00b1 3B       		.uleb128 0x3b
 1960 00b2 0B       		.uleb128 0xb
 1961 00b3 01       		.uleb128 0x1
 1962 00b4 13       		.uleb128 0x13
 1963 00b5 00       		.byte	0
 1964 00b6 00       		.byte	0
 1965 00b7 10       		.uleb128 0x10
 1966 00b8 28       		.uleb128 0x28
 1967 00b9 00       		.byte	0
 1968 00ba 03       		.uleb128 0x3
 1969 00bb 0E       		.uleb128 0xe
 1970 00bc 1C       		.uleb128 0x1c
 1971 00bd 0B       		.uleb128 0xb
 1972 00be 00       		.byte	0
 1973 00bf 00       		.byte	0
 1974 00c0 11       		.uleb128 0x11
 1975 00c1 13       		.uleb128 0x13
 1976 00c2 01       		.byte	0x1
 1977 00c3 03       		.uleb128 0x3
 1978 00c4 0E       		.uleb128 0xe
 1979 00c5 0B       		.uleb128 0xb
 1980 00c6 0B       		.uleb128 0xb
 1981 00c7 3A       		.uleb128 0x3a
 1982 00c8 0B       		.uleb128 0xb
 1983 00c9 3B       		.uleb128 0x3b
 1984 00ca 05       		.uleb128 0x5
 1985 00cb 01       		.uleb128 0x1
 1986 00cc 13       		.uleb128 0x13
 1987 00cd 00       		.byte	0
 1988 00ce 00       		.byte	0
 1989 00cf 12       		.uleb128 0x12
 1990 00d0 15       		.uleb128 0x15
 1991 00d1 01       		.byte	0x1
 1992 00d2 27       		.uleb128 0x27
 1993 00d3 19       		.uleb128 0x19
 1994 00d4 01       		.uleb128 0x1
 1995 00d5 13       		.uleb128 0x13
ARM GAS  /tmp/cc72aXiX.s 			page 36


 1996 00d6 00       		.byte	0
 1997 00d7 00       		.byte	0
 1998 00d8 13       		.uleb128 0x13
 1999 00d9 05       		.uleb128 0x5
 2000 00da 00       		.byte	0
 2001 00db 49       		.uleb128 0x49
 2002 00dc 13       		.uleb128 0x13
 2003 00dd 00       		.byte	0
 2004 00de 00       		.byte	0
 2005 00df 14       		.uleb128 0x14
 2006 00e0 2E       		.uleb128 0x2e
 2007 00e1 01       		.byte	0x1
 2008 00e2 3F       		.uleb128 0x3f
 2009 00e3 19       		.uleb128 0x19
 2010 00e4 03       		.uleb128 0x3
 2011 00e5 0E       		.uleb128 0xe
 2012 00e6 3A       		.uleb128 0x3a
 2013 00e7 0B       		.uleb128 0xb
 2014 00e8 3B       		.uleb128 0x3b
 2015 00e9 0B       		.uleb128 0xb
 2016 00ea 27       		.uleb128 0x27
 2017 00eb 19       		.uleb128 0x19
 2018 00ec 11       		.uleb128 0x11
 2019 00ed 01       		.uleb128 0x1
 2020 00ee 12       		.uleb128 0x12
 2021 00ef 06       		.uleb128 0x6
 2022 00f0 40       		.uleb128 0x40
 2023 00f1 18       		.uleb128 0x18
 2024 00f2 9742     		.uleb128 0x2117
 2025 00f4 19       		.uleb128 0x19
 2026 00f5 01       		.uleb128 0x1
 2027 00f6 13       		.uleb128 0x13
 2028 00f7 00       		.byte	0
 2029 00f8 00       		.byte	0
 2030 00f9 15       		.uleb128 0x15
 2031 00fa 898201   		.uleb128 0x4109
 2032 00fd 00       		.byte	0
 2033 00fe 11       		.uleb128 0x11
 2034 00ff 01       		.uleb128 0x1
 2035 0100 9542     		.uleb128 0x2115
 2036 0102 19       		.uleb128 0x19
 2037 0103 31       		.uleb128 0x31
 2038 0104 13       		.uleb128 0x13
 2039 0105 00       		.byte	0
 2040 0106 00       		.byte	0
 2041 0107 16       		.uleb128 0x16
 2042 0108 05       		.uleb128 0x5
 2043 0109 00       		.byte	0
 2044 010a 03       		.uleb128 0x3
 2045 010b 0E       		.uleb128 0xe
 2046 010c 3A       		.uleb128 0x3a
 2047 010d 0B       		.uleb128 0xb
 2048 010e 3B       		.uleb128 0x3b
 2049 010f 0B       		.uleb128 0xb
 2050 0110 49       		.uleb128 0x49
 2051 0111 13       		.uleb128 0x13
 2052 0112 02       		.uleb128 0x2
ARM GAS  /tmp/cc72aXiX.s 			page 37


 2053 0113 18       		.uleb128 0x18
 2054 0114 00       		.byte	0
 2055 0115 00       		.byte	0
 2056 0116 17       		.uleb128 0x17
 2057 0117 05       		.uleb128 0x5
 2058 0118 00       		.byte	0
 2059 0119 03       		.uleb128 0x3
 2060 011a 0E       		.uleb128 0xe
 2061 011b 3A       		.uleb128 0x3a
 2062 011c 0B       		.uleb128 0xb
 2063 011d 3B       		.uleb128 0x3b
 2064 011e 0B       		.uleb128 0xb
 2065 011f 49       		.uleb128 0x49
 2066 0120 13       		.uleb128 0x13
 2067 0121 02       		.uleb128 0x2
 2068 0122 17       		.uleb128 0x17
 2069 0123 00       		.byte	0
 2070 0124 00       		.byte	0
 2071 0125 18       		.uleb128 0x18
 2072 0126 0B       		.uleb128 0xb
 2073 0127 01       		.byte	0x1
 2074 0128 55       		.uleb128 0x55
 2075 0129 17       		.uleb128 0x17
 2076 012a 01       		.uleb128 0x1
 2077 012b 13       		.uleb128 0x13
 2078 012c 00       		.byte	0
 2079 012d 00       		.byte	0
 2080 012e 19       		.uleb128 0x19
 2081 012f 34       		.uleb128 0x34
 2082 0130 00       		.byte	0
 2083 0131 03       		.uleb128 0x3
 2084 0132 08       		.uleb128 0x8
 2085 0133 3A       		.uleb128 0x3a
 2086 0134 0B       		.uleb128 0xb
 2087 0135 3B       		.uleb128 0x3b
 2088 0136 0B       		.uleb128 0xb
 2089 0137 49       		.uleb128 0x49
 2090 0138 13       		.uleb128 0x13
 2091 0139 02       		.uleb128 0x2
 2092 013a 18       		.uleb128 0x18
 2093 013b 00       		.byte	0
 2094 013c 00       		.byte	0
 2095 013d 1A       		.uleb128 0x1a
 2096 013e 0B       		.uleb128 0xb
 2097 013f 01       		.byte	0x1
 2098 0140 11       		.uleb128 0x11
 2099 0141 01       		.uleb128 0x1
 2100 0142 12       		.uleb128 0x12
 2101 0143 06       		.uleb128 0x6
 2102 0144 01       		.uleb128 0x1
 2103 0145 13       		.uleb128 0x13
 2104 0146 00       		.byte	0
 2105 0147 00       		.byte	0
 2106 0148 1B       		.uleb128 0x1b
 2107 0149 898201   		.uleb128 0x4109
 2108 014c 01       		.byte	0x1
 2109 014d 11       		.uleb128 0x11
ARM GAS  /tmp/cc72aXiX.s 			page 38


 2110 014e 01       		.uleb128 0x1
 2111 014f 31       		.uleb128 0x31
 2112 0150 13       		.uleb128 0x13
 2113 0151 00       		.byte	0
 2114 0152 00       		.byte	0
 2115 0153 1C       		.uleb128 0x1c
 2116 0154 8A8201   		.uleb128 0x410a
 2117 0157 00       		.byte	0
 2118 0158 02       		.uleb128 0x2
 2119 0159 18       		.uleb128 0x18
 2120 015a 9142     		.uleb128 0x2111
 2121 015c 18       		.uleb128 0x18
 2122 015d 00       		.byte	0
 2123 015e 00       		.byte	0
 2124 015f 1D       		.uleb128 0x1d
 2125 0160 05       		.uleb128 0x5
 2126 0161 00       		.byte	0
 2127 0162 03       		.uleb128 0x3
 2128 0163 08       		.uleb128 0x8
 2129 0164 3A       		.uleb128 0x3a
 2130 0165 0B       		.uleb128 0xb
 2131 0166 3B       		.uleb128 0x3b
 2132 0167 0B       		.uleb128 0xb
 2133 0168 49       		.uleb128 0x49
 2134 0169 13       		.uleb128 0x13
 2135 016a 02       		.uleb128 0x2
 2136 016b 17       		.uleb128 0x17
 2137 016c 00       		.byte	0
 2138 016d 00       		.byte	0
 2139 016e 1E       		.uleb128 0x1e
 2140 016f 26       		.uleb128 0x26
 2141 0170 00       		.byte	0
 2142 0171 00       		.byte	0
 2143 0172 00       		.byte	0
 2144 0173 1F       		.uleb128 0x1f
 2145 0174 2E       		.uleb128 0x2e
 2146 0175 01       		.byte	0x1
 2147 0176 3F       		.uleb128 0x3f
 2148 0177 19       		.uleb128 0x19
 2149 0178 03       		.uleb128 0x3
 2150 0179 0E       		.uleb128 0xe
 2151 017a 3A       		.uleb128 0x3a
 2152 017b 0B       		.uleb128 0xb
 2153 017c 3B       		.uleb128 0x3b
 2154 017d 0B       		.uleb128 0xb
 2155 017e 27       		.uleb128 0x27
 2156 017f 19       		.uleb128 0x19
 2157 0180 49       		.uleb128 0x49
 2158 0181 13       		.uleb128 0x13
 2159 0182 11       		.uleb128 0x11
 2160 0183 01       		.uleb128 0x1
 2161 0184 12       		.uleb128 0x12
 2162 0185 06       		.uleb128 0x6
 2163 0186 40       		.uleb128 0x40
 2164 0187 18       		.uleb128 0x18
 2165 0188 9742     		.uleb128 0x2117
 2166 018a 19       		.uleb128 0x19
ARM GAS  /tmp/cc72aXiX.s 			page 39


 2167 018b 01       		.uleb128 0x1
 2168 018c 13       		.uleb128 0x13
 2169 018d 00       		.byte	0
 2170 018e 00       		.byte	0
 2171 018f 20       		.uleb128 0x20
 2172 0190 34       		.uleb128 0x34
 2173 0191 00       		.byte	0
 2174 0192 03       		.uleb128 0x3
 2175 0193 08       		.uleb128 0x8
 2176 0194 3A       		.uleb128 0x3a
 2177 0195 0B       		.uleb128 0xb
 2178 0196 3B       		.uleb128 0x3b
 2179 0197 0B       		.uleb128 0xb
 2180 0198 49       		.uleb128 0x49
 2181 0199 13       		.uleb128 0x13
 2182 019a 02       		.uleb128 0x2
 2183 019b 17       		.uleb128 0x17
 2184 019c 00       		.byte	0
 2185 019d 00       		.byte	0
 2186 019e 21       		.uleb128 0x21
 2187 019f 0B       		.uleb128 0xb
 2188 01a0 01       		.byte	0x1
 2189 01a1 11       		.uleb128 0x11
 2190 01a2 01       		.uleb128 0x1
 2191 01a3 12       		.uleb128 0x12
 2192 01a4 06       		.uleb128 0x6
 2193 01a5 00       		.byte	0
 2194 01a6 00       		.byte	0
 2195 01a7 22       		.uleb128 0x22
 2196 01a8 2E       		.uleb128 0x2e
 2197 01a9 01       		.byte	0x1
 2198 01aa 3F       		.uleb128 0x3f
 2199 01ab 19       		.uleb128 0x19
 2200 01ac 03       		.uleb128 0x3
 2201 01ad 0E       		.uleb128 0xe
 2202 01ae 3A       		.uleb128 0x3a
 2203 01af 0B       		.uleb128 0xb
 2204 01b0 3B       		.uleb128 0x3b
 2205 01b1 05       		.uleb128 0x5
 2206 01b2 27       		.uleb128 0x27
 2207 01b3 19       		.uleb128 0x19
 2208 01b4 11       		.uleb128 0x11
 2209 01b5 01       		.uleb128 0x1
 2210 01b6 12       		.uleb128 0x12
 2211 01b7 06       		.uleb128 0x6
 2212 01b8 40       		.uleb128 0x40
 2213 01b9 18       		.uleb128 0x18
 2214 01ba 9742     		.uleb128 0x2117
 2215 01bc 19       		.uleb128 0x19
 2216 01bd 01       		.uleb128 0x1
 2217 01be 13       		.uleb128 0x13
 2218 01bf 00       		.byte	0
 2219 01c0 00       		.byte	0
 2220 01c1 23       		.uleb128 0x23
 2221 01c2 05       		.uleb128 0x5
 2222 01c3 00       		.byte	0
 2223 01c4 03       		.uleb128 0x3
ARM GAS  /tmp/cc72aXiX.s 			page 40


 2224 01c5 0E       		.uleb128 0xe
 2225 01c6 3A       		.uleb128 0x3a
 2226 01c7 0B       		.uleb128 0xb
 2227 01c8 3B       		.uleb128 0x3b
 2228 01c9 05       		.uleb128 0x5
 2229 01ca 49       		.uleb128 0x49
 2230 01cb 13       		.uleb128 0x13
 2231 01cc 02       		.uleb128 0x2
 2232 01cd 17       		.uleb128 0x17
 2233 01ce 00       		.byte	0
 2234 01cf 00       		.byte	0
 2235 01d0 24       		.uleb128 0x24
 2236 01d1 05       		.uleb128 0x5
 2237 01d2 00       		.byte	0
 2238 01d3 03       		.uleb128 0x3
 2239 01d4 08       		.uleb128 0x8
 2240 01d5 3A       		.uleb128 0x3a
 2241 01d6 0B       		.uleb128 0xb
 2242 01d7 3B       		.uleb128 0x3b
 2243 01d8 05       		.uleb128 0x5
 2244 01d9 49       		.uleb128 0x49
 2245 01da 13       		.uleb128 0x13
 2246 01db 02       		.uleb128 0x2
 2247 01dc 17       		.uleb128 0x17
 2248 01dd 00       		.byte	0
 2249 01de 00       		.byte	0
 2250 01df 25       		.uleb128 0x25
 2251 01e0 34       		.uleb128 0x34
 2252 01e1 00       		.byte	0
 2253 01e2 03       		.uleb128 0x3
 2254 01e3 08       		.uleb128 0x8
 2255 01e4 3A       		.uleb128 0x3a
 2256 01e5 0B       		.uleb128 0xb
 2257 01e6 3B       		.uleb128 0x3b
 2258 01e7 05       		.uleb128 0x5
 2259 01e8 49       		.uleb128 0x49
 2260 01e9 13       		.uleb128 0x13
 2261 01ea 02       		.uleb128 0x2
 2262 01eb 18       		.uleb128 0x18
 2263 01ec 00       		.byte	0
 2264 01ed 00       		.byte	0
 2265 01ee 26       		.uleb128 0x26
 2266 01ef 2E       		.uleb128 0x2e
 2267 01f0 01       		.byte	0x1
 2268 01f1 3F       		.uleb128 0x3f
 2269 01f2 19       		.uleb128 0x19
 2270 01f3 03       		.uleb128 0x3
 2271 01f4 0E       		.uleb128 0xe
 2272 01f5 3A       		.uleb128 0x3a
 2273 01f6 0B       		.uleb128 0xb
 2274 01f7 3B       		.uleb128 0x3b
 2275 01f8 05       		.uleb128 0x5
 2276 01f9 27       		.uleb128 0x27
 2277 01fa 19       		.uleb128 0x19
 2278 01fb 49       		.uleb128 0x49
 2279 01fc 13       		.uleb128 0x13
 2280 01fd 11       		.uleb128 0x11
ARM GAS  /tmp/cc72aXiX.s 			page 41


 2281 01fe 01       		.uleb128 0x1
 2282 01ff 12       		.uleb128 0x12
 2283 0200 06       		.uleb128 0x6
 2284 0201 40       		.uleb128 0x40
 2285 0202 18       		.uleb128 0x18
 2286 0203 9742     		.uleb128 0x2117
 2287 0205 19       		.uleb128 0x19
 2288 0206 01       		.uleb128 0x1
 2289 0207 13       		.uleb128 0x13
 2290 0208 00       		.byte	0
 2291 0209 00       		.byte	0
 2292 020a 27       		.uleb128 0x27
 2293 020b 34       		.uleb128 0x34
 2294 020c 00       		.byte	0
 2295 020d 03       		.uleb128 0x3
 2296 020e 08       		.uleb128 0x8
 2297 020f 3A       		.uleb128 0x3a
 2298 0210 0B       		.uleb128 0xb
 2299 0211 3B       		.uleb128 0x3b
 2300 0212 05       		.uleb128 0x5
 2301 0213 49       		.uleb128 0x49
 2302 0214 13       		.uleb128 0x13
 2303 0215 02       		.uleb128 0x2
 2304 0216 17       		.uleb128 0x17
 2305 0217 00       		.byte	0
 2306 0218 00       		.byte	0
 2307 0219 28       		.uleb128 0x28
 2308 021a 34       		.uleb128 0x34
 2309 021b 00       		.byte	0
 2310 021c 03       		.uleb128 0x3
 2311 021d 0E       		.uleb128 0xe
 2312 021e 3A       		.uleb128 0x3a
 2313 021f 0B       		.uleb128 0xb
 2314 0220 3B       		.uleb128 0x3b
 2315 0221 05       		.uleb128 0x5
 2316 0222 49       		.uleb128 0x49
 2317 0223 13       		.uleb128 0x13
 2318 0224 3F       		.uleb128 0x3f
 2319 0225 19       		.uleb128 0x19
 2320 0226 3C       		.uleb128 0x3c
 2321 0227 19       		.uleb128 0x19
 2322 0228 00       		.byte	0
 2323 0229 00       		.byte	0
 2324 022a 29       		.uleb128 0x29
 2325 022b 2E       		.uleb128 0x2e
 2326 022c 00       		.byte	0
 2327 022d 3F       		.uleb128 0x3f
 2328 022e 19       		.uleb128 0x19
 2329 022f 3C       		.uleb128 0x3c
 2330 0230 19       		.uleb128 0x19
 2331 0231 6E       		.uleb128 0x6e
 2332 0232 0E       		.uleb128 0xe
 2333 0233 03       		.uleb128 0x3
 2334 0234 0E       		.uleb128 0xe
 2335 0235 3A       		.uleb128 0x3a
 2336 0236 0B       		.uleb128 0xb
 2337 0237 3B       		.uleb128 0x3b
ARM GAS  /tmp/cc72aXiX.s 			page 42


 2338 0238 05       		.uleb128 0x5
 2339 0239 00       		.byte	0
 2340 023a 00       		.byte	0
 2341 023b 00       		.byte	0
 2342              		.section	.debug_loc,"",%progbits
 2343              	.Ldebug_loc0:
 2344              	.LLST0:
 2345 0000 00000000 		.4byte	.LVL2
 2346 0004 0F000000 		.4byte	.LVL3-1
 2347 0008 0100     		.2byte	0x1
 2348 000a 50       		.byte	0x50
 2349 000b 0F000000 		.4byte	.LVL3-1
 2350 000f 1C000000 		.4byte	.LFE120
 2351 0013 0100     		.2byte	0x1
 2352 0015 54       		.byte	0x54
 2353 0016 00000000 		.4byte	0
 2354 001a 00000000 		.4byte	0
 2355              	.LLST1:
 2356 001e 00000000 		.4byte	.LVL2
 2357 0022 0F000000 		.4byte	.LVL3-1
 2358 0026 0100     		.2byte	0x1
 2359 0028 51       		.byte	0x51
 2360 0029 0F000000 		.4byte	.LVL3-1
 2361 002d 1C000000 		.4byte	.LFE120
 2362 0031 0400     		.2byte	0x4
 2363 0033 F3       		.byte	0xf3
 2364 0034 01       		.uleb128 0x1
 2365 0035 51       		.byte	0x51
 2366 0036 9F       		.byte	0x9f
 2367 0037 00000000 		.4byte	0
 2368 003b 00000000 		.4byte	0
 2369              	.LLST2:
 2370 003f 00000000 		.4byte	.LVL4
 2371 0043 0D000000 		.4byte	.LVL5-1
 2372 0047 0100     		.2byte	0x1
 2373 0049 50       		.byte	0x50
 2374 004a 0D000000 		.4byte	.LVL5-1
 2375 004e 1E000000 		.4byte	.LFE121
 2376 0052 0100     		.2byte	0x1
 2377 0054 54       		.byte	0x54
 2378 0055 00000000 		.4byte	0
 2379 0059 00000000 		.4byte	0
 2380              	.LLST3:
 2381 005d 00000000 		.4byte	.LVL6
 2382 0061 0D000000 		.4byte	.LVL7-1
 2383 0065 0100     		.2byte	0x1
 2384 0067 50       		.byte	0x50
 2385 0068 0D000000 		.4byte	.LVL7-1
 2386 006c 1A000000 		.4byte	.LFE122
 2387 0070 0100     		.2byte	0x1
 2388 0072 54       		.byte	0x54
 2389 0073 00000000 		.4byte	0
 2390 0077 00000000 		.4byte	0
 2391              	.LLST4:
 2392 007b 00000000 		.4byte	.LVL6
 2393 007f 0D000000 		.4byte	.LVL7-1
 2394 0083 0100     		.2byte	0x1
ARM GAS  /tmp/cc72aXiX.s 			page 43


 2395 0085 51       		.byte	0x51
 2396 0086 0D000000 		.4byte	.LVL7-1
 2397 008a 1A000000 		.4byte	.LFE122
 2398 008e 0400     		.2byte	0x4
 2399 0090 F3       		.byte	0xf3
 2400 0091 01       		.uleb128 0x1
 2401 0092 51       		.byte	0x51
 2402 0093 9F       		.byte	0x9f
 2403 0094 00000000 		.4byte	0
 2404 0098 00000000 		.4byte	0
 2405              	.LLST5:
 2406 009c 00000000 		.4byte	.LVL6
 2407 00a0 0D000000 		.4byte	.LVL7-1
 2408 00a4 0100     		.2byte	0x1
 2409 00a6 52       		.byte	0x52
 2410 00a7 0D000000 		.4byte	.LVL7-1
 2411 00ab 1A000000 		.4byte	.LFE122
 2412 00af 0400     		.2byte	0x4
 2413 00b1 F3       		.byte	0xf3
 2414 00b2 01       		.uleb128 0x1
 2415 00b3 52       		.byte	0x52
 2416 00b4 9F       		.byte	0x9f
 2417 00b5 00000000 		.4byte	0
 2418 00b9 00000000 		.4byte	0
 2419              	.LLST6:
 2420 00bd 00000000 		.4byte	.LVL8
 2421 00c1 07000000 		.4byte	.LVL9-1
 2422 00c5 0100     		.2byte	0x1
 2423 00c7 50       		.byte	0x50
 2424 00c8 07000000 		.4byte	.LVL9-1
 2425 00cc 0E000000 		.4byte	.LFE123
 2426 00d0 0100     		.2byte	0x1
 2427 00d2 54       		.byte	0x54
 2428 00d3 00000000 		.4byte	0
 2429 00d7 00000000 		.4byte	0
 2430              	.LLST7:
 2431 00db 00000000 		.4byte	.LVL8
 2432 00df 07000000 		.4byte	.LVL9-1
 2433 00e3 0100     		.2byte	0x1
 2434 00e5 51       		.byte	0x51
 2435 00e6 07000000 		.4byte	.LVL9-1
 2436 00ea 0E000000 		.4byte	.LFE123
 2437 00ee 0400     		.2byte	0x4
 2438 00f0 F3       		.byte	0xf3
 2439 00f1 01       		.uleb128 0x1
 2440 00f2 51       		.byte	0x51
 2441 00f3 9F       		.byte	0x9f
 2442 00f4 00000000 		.4byte	0
 2443 00f8 00000000 		.4byte	0
 2444              	.LLST8:
 2445 00fc 00000000 		.4byte	.LVL8
 2446 0100 07000000 		.4byte	.LVL9-1
 2447 0104 0100     		.2byte	0x1
 2448 0106 52       		.byte	0x52
 2449 0107 07000000 		.4byte	.LVL9-1
 2450 010b 0E000000 		.4byte	.LFE123
 2451 010f 0400     		.2byte	0x4
ARM GAS  /tmp/cc72aXiX.s 			page 44


 2452 0111 F3       		.byte	0xf3
 2453 0112 01       		.uleb128 0x1
 2454 0113 52       		.byte	0x52
 2455 0114 9F       		.byte	0x9f
 2456 0115 00000000 		.4byte	0
 2457 0119 00000000 		.4byte	0
 2458              	.LLST9:
 2459 011d 00000000 		.4byte	.LVL10
 2460 0121 0E000000 		.4byte	.LVL11
 2461 0125 0100     		.2byte	0x1
 2462 0127 50       		.byte	0x50
 2463 0128 0E000000 		.4byte	.LVL11
 2464 012c 16000000 		.4byte	.LVL12
 2465 0130 0400     		.2byte	0x4
 2466 0132 F3       		.byte	0xf3
 2467 0133 01       		.uleb128 0x1
 2468 0134 50       		.byte	0x50
 2469 0135 9F       		.byte	0x9f
 2470 0136 16000000 		.4byte	.LVL12
 2471 013a 1D000000 		.4byte	.LVL13-1
 2472 013e 0100     		.2byte	0x1
 2473 0140 50       		.byte	0x50
 2474 0141 1D000000 		.4byte	.LVL13-1
 2475 0145 2A000000 		.4byte	.LFE124
 2476 0149 0100     		.2byte	0x1
 2477 014b 54       		.byte	0x54
 2478 014c 00000000 		.4byte	0
 2479 0150 00000000 		.4byte	0
 2480              	.LLST10:
 2481 0154 0E000000 		.4byte	.LVL11
 2482 0158 16000000 		.4byte	.LVL12
 2483 015c 0100     		.2byte	0x1
 2484 015e 50       		.byte	0x50
 2485 015f 1E000000 		.4byte	.LVL13
 2486 0163 2A000000 		.4byte	.LFE124
 2487 0167 0100     		.2byte	0x1
 2488 0169 50       		.byte	0x50
 2489 016a 00000000 		.4byte	0
 2490 016e 00000000 		.4byte	0
 2491              	.LLST11:
 2492 0172 00000000 		.4byte	.LVL14
 2493 0176 08000000 		.4byte	.LVL15
 2494 017a 0100     		.2byte	0x1
 2495 017c 50       		.byte	0x50
 2496 017d 08000000 		.4byte	.LVL15
 2497 0181 0A000000 		.4byte	.LVL16
 2498 0185 0400     		.2byte	0x4
 2499 0187 F3       		.byte	0xf3
 2500 0188 01       		.uleb128 0x1
 2501 0189 50       		.byte	0x50
 2502 018a 9F       		.byte	0x9f
 2503 018b 0A000000 		.4byte	.LVL16
 2504 018f 11000000 		.4byte	.LVL17-1
 2505 0193 0100     		.2byte	0x1
 2506 0195 50       		.byte	0x50
 2507 0196 11000000 		.4byte	.LVL17-1
 2508 019a 18000000 		.4byte	.LFE125
ARM GAS  /tmp/cc72aXiX.s 			page 45


 2509 019e 0100     		.2byte	0x1
 2510 01a0 54       		.byte	0x54
 2511 01a1 00000000 		.4byte	0
 2512 01a5 00000000 		.4byte	0
 2513              	.LLST12:
 2514 01a9 00000000 		.4byte	.LVL18
 2515 01ad 0D000000 		.4byte	.LVL19-1
 2516 01b1 0100     		.2byte	0x1
 2517 01b3 50       		.byte	0x50
 2518 01b4 0D000000 		.4byte	.LVL19-1
 2519 01b8 1A000000 		.4byte	.LFE126
 2520 01bc 0100     		.2byte	0x1
 2521 01be 54       		.byte	0x54
 2522 01bf 00000000 		.4byte	0
 2523 01c3 00000000 		.4byte	0
 2524              	.LLST13:
 2525 01c7 00000000 		.4byte	.LVL18
 2526 01cb 0D000000 		.4byte	.LVL19-1
 2527 01cf 0100     		.2byte	0x1
 2528 01d1 51       		.byte	0x51
 2529 01d2 0D000000 		.4byte	.LVL19-1
 2530 01d6 1A000000 		.4byte	.LFE126
 2531 01da 0400     		.2byte	0x4
 2532 01dc F3       		.byte	0xf3
 2533 01dd 01       		.uleb128 0x1
 2534 01de 51       		.byte	0x51
 2535 01df 9F       		.byte	0x9f
 2536 01e0 00000000 		.4byte	0
 2537 01e4 00000000 		.4byte	0
 2538              	.LLST14:
 2539 01e8 00000000 		.4byte	.LVL18
 2540 01ec 0D000000 		.4byte	.LVL19-1
 2541 01f0 0100     		.2byte	0x1
 2542 01f2 52       		.byte	0x52
 2543 01f3 0D000000 		.4byte	.LVL19-1
 2544 01f7 1A000000 		.4byte	.LFE126
 2545 01fb 0400     		.2byte	0x4
 2546 01fd F3       		.byte	0xf3
 2547 01fe 01       		.uleb128 0x1
 2548 01ff 52       		.byte	0x52
 2549 0200 9F       		.byte	0x9f
 2550 0201 00000000 		.4byte	0
 2551 0205 00000000 		.4byte	0
 2552              	.LLST15:
 2553 0209 00000000 		.4byte	.LVL20
 2554 020d 07000000 		.4byte	.LVL21-1
 2555 0211 0100     		.2byte	0x1
 2556 0213 50       		.byte	0x50
 2557 0214 07000000 		.4byte	.LVL21-1
 2558 0218 0E000000 		.4byte	.LFE127
 2559 021c 0100     		.2byte	0x1
 2560 021e 54       		.byte	0x54
 2561 021f 00000000 		.4byte	0
 2562 0223 00000000 		.4byte	0
 2563              	.LLST16:
 2564 0227 00000000 		.4byte	.LVL20
 2565 022b 07000000 		.4byte	.LVL21-1
ARM GAS  /tmp/cc72aXiX.s 			page 46


 2566 022f 0100     		.2byte	0x1
 2567 0231 51       		.byte	0x51
 2568 0232 07000000 		.4byte	.LVL21-1
 2569 0236 0E000000 		.4byte	.LFE127
 2570 023a 0400     		.2byte	0x4
 2571 023c F3       		.byte	0xf3
 2572 023d 01       		.uleb128 0x1
 2573 023e 51       		.byte	0x51
 2574 023f 9F       		.byte	0x9f
 2575 0240 00000000 		.4byte	0
 2576 0244 00000000 		.4byte	0
 2577              	.LLST17:
 2578 0248 00000000 		.4byte	.LVL20
 2579 024c 07000000 		.4byte	.LVL21-1
 2580 0250 0100     		.2byte	0x1
 2581 0252 52       		.byte	0x52
 2582 0253 07000000 		.4byte	.LVL21-1
 2583 0257 0E000000 		.4byte	.LFE127
 2584 025b 0400     		.2byte	0x4
 2585 025d F3       		.byte	0xf3
 2586 025e 01       		.uleb128 0x1
 2587 025f 52       		.byte	0x52
 2588 0260 9F       		.byte	0x9f
 2589 0261 00000000 		.4byte	0
 2590 0265 00000000 		.4byte	0
 2591              	.LLST18:
 2592 0269 00000000 		.4byte	.LVL22
 2593 026d 0E000000 		.4byte	.LVL23
 2594 0271 0100     		.2byte	0x1
 2595 0273 50       		.byte	0x50
 2596 0274 0E000000 		.4byte	.LVL23
 2597 0278 16000000 		.4byte	.LVL24
 2598 027c 0400     		.2byte	0x4
 2599 027e F3       		.byte	0xf3
 2600 027f 01       		.uleb128 0x1
 2601 0280 50       		.byte	0x50
 2602 0281 9F       		.byte	0x9f
 2603 0282 16000000 		.4byte	.LVL24
 2604 0286 1D000000 		.4byte	.LVL25-1
 2605 028a 0100     		.2byte	0x1
 2606 028c 50       		.byte	0x50
 2607 028d 1D000000 		.4byte	.LVL25-1
 2608 0291 2A000000 		.4byte	.LFE128
 2609 0295 0100     		.2byte	0x1
 2610 0297 54       		.byte	0x54
 2611 0298 00000000 		.4byte	0
 2612 029c 00000000 		.4byte	0
 2613              	.LLST19:
 2614 02a0 0E000000 		.4byte	.LVL23
 2615 02a4 16000000 		.4byte	.LVL24
 2616 02a8 0100     		.2byte	0x1
 2617 02aa 50       		.byte	0x50
 2618 02ab 1E000000 		.4byte	.LVL25
 2619 02af 2A000000 		.4byte	.LFE128
 2620 02b3 0100     		.2byte	0x1
 2621 02b5 50       		.byte	0x50
 2622 02b6 00000000 		.4byte	0
ARM GAS  /tmp/cc72aXiX.s 			page 47


 2623 02ba 00000000 		.4byte	0
 2624              	.LLST20:
 2625 02be 00000000 		.4byte	.LVL26
 2626 02c2 08000000 		.4byte	.LVL27
 2627 02c6 0100     		.2byte	0x1
 2628 02c8 50       		.byte	0x50
 2629 02c9 08000000 		.4byte	.LVL27
 2630 02cd 0A000000 		.4byte	.LVL28
 2631 02d1 0400     		.2byte	0x4
 2632 02d3 F3       		.byte	0xf3
 2633 02d4 01       		.uleb128 0x1
 2634 02d5 50       		.byte	0x50
 2635 02d6 9F       		.byte	0x9f
 2636 02d7 0A000000 		.4byte	.LVL28
 2637 02db 11000000 		.4byte	.LVL29-1
 2638 02df 0100     		.2byte	0x1
 2639 02e1 50       		.byte	0x50
 2640 02e2 11000000 		.4byte	.LVL29-1
 2641 02e6 18000000 		.4byte	.LFE129
 2642 02ea 0100     		.2byte	0x1
 2643 02ec 54       		.byte	0x54
 2644 02ed 00000000 		.4byte	0
 2645 02f1 00000000 		.4byte	0
 2646              		.section	.debug_aranges,"",%progbits
 2647 0000 74000000 		.4byte	0x74
 2648 0004 0200     		.2byte	0x2
 2649 0006 00000000 		.4byte	.Ldebug_info0
 2650 000a 04       		.byte	0x4
 2651 000b 00       		.byte	0
 2652 000c 0000     		.2byte	0
 2653 000e 0000     		.2byte	0
 2654 0010 00000000 		.4byte	.LFB118
 2655 0014 04000000 		.4byte	.LFE118-.LFB118
 2656 0018 00000000 		.4byte	.LFB119
 2657 001c 0E000000 		.4byte	.LFE119-.LFB119
 2658 0020 00000000 		.4byte	.LFB120
 2659 0024 1C000000 		.4byte	.LFE120-.LFB120
 2660 0028 00000000 		.4byte	.LFB121
 2661 002c 1E000000 		.4byte	.LFE121-.LFB121
 2662 0030 00000000 		.4byte	.LFB122
 2663 0034 1A000000 		.4byte	.LFE122-.LFB122
 2664 0038 00000000 		.4byte	.LFB123
 2665 003c 0E000000 		.4byte	.LFE123-.LFB123
 2666 0040 00000000 		.4byte	.LFB124
 2667 0044 2A000000 		.4byte	.LFE124-.LFB124
 2668 0048 00000000 		.4byte	.LFB125
 2669 004c 18000000 		.4byte	.LFE125-.LFB125
 2670 0050 00000000 		.4byte	.LFB126
 2671 0054 1A000000 		.4byte	.LFE126-.LFB126
 2672 0058 00000000 		.4byte	.LFB127
 2673 005c 0E000000 		.4byte	.LFE127-.LFB127
 2674 0060 00000000 		.4byte	.LFB128
 2675 0064 2A000000 		.4byte	.LFE128-.LFB128
 2676 0068 00000000 		.4byte	.LFB129
 2677 006c 18000000 		.4byte	.LFE129-.LFB129
 2678 0070 00000000 		.4byte	0
 2679 0074 00000000 		.4byte	0
ARM GAS  /tmp/cc72aXiX.s 			page 48


 2680              		.section	.debug_ranges,"",%progbits
 2681              	.Ldebug_ranges0:
 2682 0000 02000000 		.4byte	.LBB2
 2683 0004 04000000 		.4byte	.LBE2
 2684 0008 06000000 		.4byte	.LBB3
 2685 000c 0A000000 		.4byte	.LBE3
 2686 0010 00000000 		.4byte	0
 2687 0014 00000000 		.4byte	0
 2688 0018 02000000 		.4byte	.LBB5
 2689 001c 04000000 		.4byte	.LBE5
 2690 0020 06000000 		.4byte	.LBB6
 2691 0024 0A000000 		.4byte	.LBE6
 2692 0028 00000000 		.4byte	0
 2693 002c 00000000 		.4byte	0
 2694 0030 02000000 		.4byte	.LBB8
 2695 0034 04000000 		.4byte	.LBE8
 2696 0038 06000000 		.4byte	.LBB9
 2697 003c 0A000000 		.4byte	.LBE9
 2698 0040 00000000 		.4byte	0
 2699 0044 00000000 		.4byte	0
 2700 0048 0E000000 		.4byte	.LBB12
 2701 004c 14000000 		.4byte	.LBE12
 2702 0050 22000000 		.4byte	.LBB13
 2703 0054 28000000 		.4byte	.LBE13
 2704 0058 00000000 		.4byte	0
 2705 005c 00000000 		.4byte	0
 2706 0060 02000000 		.4byte	.LBB15
 2707 0064 04000000 		.4byte	.LBE15
 2708 0068 06000000 		.4byte	.LBB16
 2709 006c 0A000000 		.4byte	.LBE16
 2710 0070 00000000 		.4byte	0
 2711 0074 00000000 		.4byte	0
 2712 0078 0E000000 		.4byte	.LBB19
 2713 007c 14000000 		.4byte	.LBE19
 2714 0080 22000000 		.4byte	.LBB20
 2715 0084 28000000 		.4byte	.LBE20
 2716 0088 00000000 		.4byte	0
 2717 008c 00000000 		.4byte	0
 2718 0090 00000000 		.4byte	.LFB118
 2719 0094 04000000 		.4byte	.LFE118
 2720 0098 00000000 		.4byte	.LFB119
 2721 009c 0E000000 		.4byte	.LFE119
 2722 00a0 00000000 		.4byte	.LFB120
 2723 00a4 1C000000 		.4byte	.LFE120
 2724 00a8 00000000 		.4byte	.LFB121
 2725 00ac 1E000000 		.4byte	.LFE121
 2726 00b0 00000000 		.4byte	.LFB122
 2727 00b4 1A000000 		.4byte	.LFE122
 2728 00b8 00000000 		.4byte	.LFB123
 2729 00bc 0E000000 		.4byte	.LFE123
 2730 00c0 00000000 		.4byte	.LFB124
 2731 00c4 2A000000 		.4byte	.LFE124
 2732 00c8 00000000 		.4byte	.LFB125
 2733 00cc 18000000 		.4byte	.LFE125
 2734 00d0 00000000 		.4byte	.LFB126
 2735 00d4 1A000000 		.4byte	.LFE126
 2736 00d8 00000000 		.4byte	.LFB127
ARM GAS  /tmp/cc72aXiX.s 			page 49


 2737 00dc 0E000000 		.4byte	.LFE127
 2738 00e0 00000000 		.4byte	.LFB128
 2739 00e4 2A000000 		.4byte	.LFE128
 2740 00e8 00000000 		.4byte	.LFB129
 2741 00ec 18000000 		.4byte	.LFE129
 2742 00f0 00000000 		.4byte	0
 2743 00f4 00000000 		.4byte	0
 2744              		.section	.debug_line,"",%progbits
 2745              	.Ldebug_line0:
 2746 0000 3E030000 		.section	.debug_str,"MS",%progbits,1
 2746      02002002 
 2746      00000201 
 2746      FB0E0D00 
 2746      01010101 
 2747              	.LASF47:
 2748 0000 55415254 		.ascii	"UART_TX_COMPLETE\000"
 2748      5F54585F 
 2748      434F4D50 
 2748      4C455445 
 2748      00
 2749              	.LASF32:
 2750 0011 47545052 		.ascii	"GTPR\000"
 2750      00
 2751              	.LASF76:
 2752 0016 75617274 		.ascii	"uartStart\000"
 2752      53746172 
 2752      7400
 2753              	.LASF59:
 2754 0020 75736172 		.ascii	"usart\000"
 2754      7400
 2755              	.LASF81:
 2756 0026 75617274 		.ascii	"uartStartSendI\000"
 2756      53746172 
 2756      7453656E 
 2756      644900
 2757              	.LASF57:
 2758 0035 72787374 		.ascii	"rxstate\000"
 2758      61746500 
 2759              	.LASF25:
 2760 003d 444D415F 		.ascii	"DMA_Stream_TypeDef\000"
 2760      53747265 
 2760      616D5F54 
 2760      79706544 
 2760      656600
 2761              	.LASF55:
 2762 0050 73746174 		.ascii	"state\000"
 2762      6500
 2763              	.LASF83:
 2764 0056 75617274 		.ascii	"uartStopSendI\000"
 2764      53746F70 
 2764      53656E64 
 2764      4900
 2765              	.LASF4:
 2766 0064 73697A65 		.ascii	"size_t\000"
 2766      5F7400
 2767              	.LASF97:
 2768 006b 2F686F6D 		.ascii	"/home/lithium/Documentos/ChibiOS_2.6.8/demos/PodioV"
ARM GAS  /tmp/cc72aXiX.s 			page 50


 2768      652F6C69 
 2768      74686975 
 2768      6D2F446F 
 2768      63756D65 
 2769 009e 69727475 		.ascii	"irtual\000"
 2769      616C00
 2770              	.LASF71:
 2771 00a5 72786572 		.ascii	"rxerr_cb\000"
 2771      725F6362 
 2771      00
 2772              	.LASF20:
 2773 00ae 73697A65 		.ascii	"sizetype\000"
 2773      74797065 
 2773      00
 2774              	.LASF94:
 2775 00b7 75617274 		.ascii	"uart_lld_stop_receive\000"
 2775      5F6C6C64 
 2775      5F73746F 
 2775      705F7265 
 2775      63656976 
 2776              	.LASF73:
 2777 00cd 55415254 		.ascii	"UARTConfig\000"
 2777      436F6E66 
 2777      696700
 2778              	.LASF56:
 2779 00d8 74787374 		.ascii	"txstate\000"
 2779      61746500 
 2780              	.LASF12:
 2781 00e0 5F5F7569 		.ascii	"__uint32_t\000"
 2781      6E743332 
 2781      5F7400
 2782              	.LASF82:
 2783 00eb 75617274 		.ascii	"uartStopSend\000"
 2783      53746F70 
 2783      53656E64 
 2783      00
 2784              	.LASF67:
 2785 00f8 7478656E 		.ascii	"txend1_cb\000"
 2785      64315F63 
 2785      6200
 2786              	.LASF8:
 2787 0102 5F5F7569 		.ascii	"__uint16_t\000"
 2787      6E743136 
 2787      5F7400
 2788              	.LASF34:
 2789 010d 55534152 		.ascii	"USART_TypeDef\000"
 2789      545F5479 
 2789      70654465 
 2789      6600
 2790              	.LASF7:
 2791 011b 73686F72 		.ascii	"short int\000"
 2791      7420696E 
 2791      7400
 2792              	.LASF58:
 2793 0125 636F6E66 		.ascii	"config\000"
 2793      696700
 2794              	.LASF79:
ARM GAS  /tmp/cc72aXiX.s 			page 51


 2795 012c 75617274 		.ascii	"uartStartSend\000"
 2795      53746172 
 2795      7453656E 
 2795      6400
 2796              	.LASF40:
 2797 013a 73746D33 		.ascii	"stm32_dma_stream_t\000"
 2797      325F646D 
 2797      615F7374 
 2797      7265616D 
 2797      5F7400
 2798              	.LASF84:
 2799 014d 75617274 		.ascii	"uartStartReceive\000"
 2799      53746172 
 2799      74526563 
 2799      65697665 
 2799      00
 2800              	.LASF15:
 2801 015e 75696E74 		.ascii	"uint8_t\000"
 2801      385F7400 
 2802              	.LASF39:
 2803 0166 76656374 		.ascii	"vector\000"
 2803      6F7200
 2804              	.LASF50:
 2805 016d 55415254 		.ascii	"UART_RX_ACTIVE\000"
 2805      5F52585F 
 2805      41435449 
 2805      564500
 2806              	.LASF66:
 2807 017c 75617274 		.ascii	"uartecb_t\000"
 2807      6563625F 
 2807      7400
 2808              	.LASF3:
 2809 0186 7369676E 		.ascii	"signed char\000"
 2809      65642063 
 2809      68617200 
 2810              	.LASF75:
 2811 0192 75617274 		.ascii	"uartObjectInit\000"
 2811      4F626A65 
 2811      6374496E 
 2811      697400
 2812              	.LASF2:
 2813 01a1 6C6F6E67 		.ascii	"long double\000"
 2813      20646F75 
 2813      626C6500 
 2814              	.LASF46:
 2815 01ad 55415254 		.ascii	"UART_TX_ACTIVE\000"
 2815      5F54585F 
 2815      41435449 
 2815      564500
 2816              	.LASF91:
 2817 01bc 75617274 		.ascii	"uart_lld_start_send\000"
 2817      5F6C6C64 
 2817      5F737461 
 2817      72745F73 
 2817      656E6400 
 2818              	.LASF86:
 2819 01d0 75617274 		.ascii	"uartStopReceive\000"
ARM GAS  /tmp/cc72aXiX.s 			page 52


 2819      53746F70 
 2819      52656365 
 2819      69766500 
 2820              	.LASF11:
 2821 01e0 6C6F6E67 		.ascii	"long int\000"
 2821      20696E74 
 2821      00
 2822              	.LASF64:
 2823 01e9 75617274 		.ascii	"uartcb_t\000"
 2823      63625F74 
 2823      00
 2824              	.LASF35:
 2825 01f2 73747265 		.ascii	"stream\000"
 2825      616D00
 2826              	.LASF52:
 2827 01f9 75617274 		.ascii	"uartrxstate_t\000"
 2827      72787374 
 2827      6174655F 
 2827      7400
 2828              	.LASF5:
 2829 0207 5F5F7569 		.ascii	"__uint8_t\000"
 2829      6E74385F 
 2829      7400
 2830              	.LASF68:
 2831 0211 7478656E 		.ascii	"txend2_cb\000"
 2831      64325F63 
 2831      6200
 2832              	.LASF61:
 2833 021b 646D6172 		.ascii	"dmarx\000"
 2833      7800
 2834              	.LASF89:
 2835 0221 75617274 		.ascii	"uart_lld_start\000"
 2835      5F6C6C64 
 2835      5F737461 
 2835      727400
 2836              	.LASF48:
 2837 0230 75617274 		.ascii	"uarttxstate_t\000"
 2837      74787374 
 2837      6174655F 
 2837      7400
 2838              	.LASF88:
 2839 023e 75617274 		.ascii	"uart_lld_init\000"
 2839      5F6C6C64 
 2839      5F696E69 
 2839      7400
 2840              	.LASF6:
 2841 024c 756E7369 		.ascii	"unsigned char\000"
 2841      676E6564 
 2841      20636861 
 2841      7200
 2842              	.LASF87:
 2843 025a 75617274 		.ascii	"uartStopReceiveI\000"
 2843      53746F70 
 2843      52656365 
 2843      69766549 
 2843      00
 2844              	.LASF62:
ARM GAS  /tmp/cc72aXiX.s 			page 53


 2845 026b 646D6174 		.ascii	"dmatx\000"
 2845      7800
 2846              	.LASF14:
 2847 0271 6C6F6E67 		.ascii	"long long unsigned int\000"
 2847      206C6F6E 
 2847      6720756E 
 2847      7369676E 
 2847      65642069 
 2848              	.LASF60:
 2849 0288 646D616D 		.ascii	"dmamode\000"
 2849      6F646500 
 2850              	.LASF18:
 2851 0290 75696E74 		.ascii	"uint32_t\000"
 2851      33325F74 
 2851      00
 2852              	.LASF38:
 2853 0299 73656C66 		.ascii	"selfindex\000"
 2853      696E6465 
 2853      7800
 2854              	.LASF0:
 2855 02a3 756E7369 		.ascii	"unsigned int\000"
 2855      676E6564 
 2855      20696E74 
 2855      00
 2856              	.LASF16:
 2857 02b0 75696E74 		.ascii	"uint16_t\000"
 2857      31365F74 
 2857      00
 2858              	.LASF13:
 2859 02b9 6C6F6E67 		.ascii	"long unsigned int\000"
 2859      20756E73 
 2859      69676E65 
 2859      6420696E 
 2859      7400
 2860              	.LASF72:
 2861 02cb 73706565 		.ascii	"speed\000"
 2861      6400
 2862              	.LASF53:
 2863 02d1 75617274 		.ascii	"uartflags_t\000"
 2863      666C6167 
 2863      735F7400 
 2864              	.LASF74:
 2865 02dd 75617274 		.ascii	"uartInit\000"
 2865      496E6974 
 2865      00
 2866              	.LASF44:
 2867 02e6 75617274 		.ascii	"uartstate_t\000"
 2867      73746174 
 2867      655F7400 
 2868              	.LASF9:
 2869 02f2 73686F72 		.ascii	"short unsigned int\000"
 2869      7420756E 
 2869      7369676E 
 2869      65642069 
 2869      6E7400
 2870              	.LASF65:
 2871 0305 75617274 		.ascii	"uartccb_t\000"
ARM GAS  /tmp/cc72aXiX.s 			page 54


 2871      6363625F 
 2871      7400
 2872              	.LASF80:
 2873 030f 74786275 		.ascii	"txbuf\000"
 2873      6600
 2874              	.LASF24:
 2875 0315 4D314152 		.ascii	"M1AR\000"
 2875      00
 2876              	.LASF21:
 2877 031a 63686172 		.ascii	"char\000"
 2877      00
 2878              	.LASF96:
 2879 031f 2E2E2F2E 		.ascii	"../../os/hal/src/uart.c\000"
 2879      2E2F6F73 
 2879      2F68616C 
 2879      2F737263 
 2879      2F756172 
 2880              	.LASF17:
 2881 0337 696E7433 		.ascii	"int32_t\000"
 2881      325F7400 
 2882              	.LASF23:
 2883 033f 4D304152 		.ascii	"M0AR\000"
 2883      00
 2884              	.LASF19:
 2885 0344 5F426F6F 		.ascii	"_Bool\000"
 2885      6C00
 2886              	.LASF51:
 2887 034a 55415254 		.ascii	"UART_RX_COMPLETE\000"
 2887      5F52585F 
 2887      434F4D50 
 2887      4C455445 
 2887      00
 2888              	.LASF45:
 2889 035b 55415254 		.ascii	"UART_TX_IDLE\000"
 2889      5F54585F 
 2889      49444C45 
 2889      00
 2890              	.LASF26:
 2891 0368 52455345 		.ascii	"RESERVED0\000"
 2891      52564544 
 2891      3000
 2892              	.LASF27:
 2893 0372 52455345 		.ascii	"RESERVED1\000"
 2893      52564544 
 2893      3100
 2894              	.LASF28:
 2895 037c 52455345 		.ascii	"RESERVED2\000"
 2895      52564544 
 2895      3200
 2896              	.LASF29:
 2897 0386 52455345 		.ascii	"RESERVED3\000"
 2897      52564544 
 2897      3300
 2898              	.LASF30:
 2899 0390 52455345 		.ascii	"RESERVED4\000"
 2899      52564544 
 2899      3400
ARM GAS  /tmp/cc72aXiX.s 			page 55


 2900              	.LASF31:
 2901 039a 52455345 		.ascii	"RESERVED5\000"
 2901      52564544 
 2901      3500
 2902              	.LASF33:
 2903 03a4 52455345 		.ascii	"RESERVED6\000"
 2903      52564544 
 2903      3600
 2904              	.LASF22:
 2905 03ae 4E445452 		.ascii	"NDTR\000"
 2905      00
 2906              	.LASF93:
 2907 03b3 75617274 		.ascii	"uart_lld_start_receive\000"
 2907      5F6C6C64 
 2907      5F737461 
 2907      72745F72 
 2907      65636569 
 2908              	.LASF43:
 2909 03ca 55415254 		.ascii	"UART_READY\000"
 2909      5F524541 
 2909      445900
 2910              	.LASF10:
 2911 03d5 5F5F696E 		.ascii	"__int32_t\000"
 2911      7433325F 
 2911      7400
 2912              	.LASF69:
 2913 03df 7278656E 		.ascii	"rxend_cb\000"
 2913      645F6362 
 2913      00
 2914              	.LASF49:
 2915 03e8 55415254 		.ascii	"UART_RX_IDLE\000"
 2915      5F52585F 
 2915      49444C45 
 2915      00
 2916              	.LASF70:
 2917 03f5 72786368 		.ascii	"rxchar_cb\000"
 2917      61725F63 
 2917      6200
 2918              	.LASF92:
 2919 03ff 75617274 		.ascii	"uart_lld_stop_send\000"
 2919      5F6C6C64 
 2919      5F73746F 
 2919      705F7365 
 2919      6E6400
 2920              	.LASF41:
 2921 0412 55415254 		.ascii	"UART_UNINIT\000"
 2921      5F554E49 
 2921      4E495400 
 2922              	.LASF78:
 2923 041e 75617274 		.ascii	"uartStop\000"
 2923      53746F70 
 2923      00
 2924              	.LASF95:
 2925 0427 474E5520 		.ascii	"GNU C11 5.3.1 20160307 (release) [ARM/embedded-5-br"
 2925      43313120 
 2925      352E332E 
 2925      31203230 
ARM GAS  /tmp/cc72aXiX.s 			page 56


 2925      31363033 
 2926 045a 616E6368 		.ascii	"anch revision 234589] -mcpu=cortex-m4 -mno-thumb-in"
 2926      20726576 
 2926      6973696F 
 2926      6E203233 
 2926      34353839 
 2927 048d 74657277 		.ascii	"terwork -mthumb -ggdb -O2 -fomit-frame-pointer -fal"
 2927      6F726B20 
 2927      2D6D7468 
 2927      756D6220 
 2927      2D676764 
 2928 04c0 69676E2D 		.ascii	"ign-functions=16 -ffunction-sections -fdata-section"
 2928      66756E63 
 2928      74696F6E 
 2928      733D3136 
 2928      202D6666 
 2929 04f3 73202D66 		.ascii	"s -fno-common\000"
 2929      6E6F2D63 
 2929      6F6D6D6F 
 2929      6E00
 2930              	.LASF63:
 2931 0501 72786275 		.ascii	"rxbuf\000"
 2931      6600
 2932              	.LASF85:
 2933 0507 75617274 		.ascii	"uartStartReceiveI\000"
 2933      53746172 
 2933      74526563 
 2933      65697665 
 2933      4900
 2934              	.LASF37:
 2935 0519 69736869 		.ascii	"ishift\000"
 2935      667400
 2936              	.LASF98:
 2937 0520 49544D5F 		.ascii	"ITM_RxBuffer\000"
 2937      52784275 
 2937      66666572 
 2937      00
 2938              	.LASF42:
 2939 052d 55415254 		.ascii	"UART_STOP\000"
 2939      5F53544F 
 2939      5000
 2940              	.LASF77:
 2941 0537 75617274 		.ascii	"uartp\000"
 2941      7000
 2942              	.LASF54:
 2943 053d 55415254 		.ascii	"UARTDriver\000"
 2943      44726976 
 2943      657200
 2944              	.LASF36:
 2945 0548 69666372 		.ascii	"ifcr\000"
 2945      00
 2946              	.LASF90:
 2947 054d 75617274 		.ascii	"uart_lld_stop\000"
 2947      5F6C6C64 
 2947      5F73746F 
 2947      7000
 2948              	.LASF1:
ARM GAS  /tmp/cc72aXiX.s 			page 57


 2949 055b 6C6F6E67 		.ascii	"long long int\000"
 2949      206C6F6E 
 2949      6720696E 
 2949      7400
 2950              		.ident	"GCC: (GNU Tools for ARM Embedded Processors) 5.3.1 20160307 (release) [ARM/embedded-5-bran
ARM GAS  /tmp/cc72aXiX.s 			page 58


DEFINED SYMBOLS
                            *ABS*:00000000 uart.c
     /tmp/cc72aXiX.s:20     .text.uartInit:00000000 $t
     /tmp/cc72aXiX.s:26     .text.uartInit:00000000 uartInit
     /tmp/cc72aXiX.s:41     .text.uartObjectInit:00000000 $t
     /tmp/cc72aXiX.s:47     .text.uartObjectInit:00000000 uartObjectInit
     /tmp/cc72aXiX.s:71     .text.uartStart:00000000 $t
     /tmp/cc72aXiX.s:77     .text.uartStart:00000000 uartStart
     /tmp/cc72aXiX.s:126    .text.uartStop:00000000 $t
     /tmp/cc72aXiX.s:132    .text.uartStop:00000000 uartStop
     /tmp/cc72aXiX.s:184    .text.uartStartSend:00000000 $t
     /tmp/cc72aXiX.s:190    .text.uartStartSend:00000000 uartStartSend
     /tmp/cc72aXiX.s:237    .text.uartStartSendI:00000000 $t
     /tmp/cc72aXiX.s:243    .text.uartStartSendI:00000000 uartStartSendI
     /tmp/cc72aXiX.s:267    .text.uartStopSend:00000000 $t
     /tmp/cc72aXiX.s:273    .text.uartStopSend:00000000 uartStopSend
     /tmp/cc72aXiX.s:339    .text.uartStopSendI:00000000 $t
     /tmp/cc72aXiX.s:345    .text.uartStopSendI:00000000 uartStopSendI
     /tmp/cc72aXiX.s:382    .text.uartStartReceive:00000000 $t
     /tmp/cc72aXiX.s:388    .text.uartStartReceive:00000000 uartStartReceive
     /tmp/cc72aXiX.s:435    .text.uartStartReceiveI:00000000 $t
     /tmp/cc72aXiX.s:441    .text.uartStartReceiveI:00000000 uartStartReceiveI
     /tmp/cc72aXiX.s:465    .text.uartStopReceive:00000000 $t
     /tmp/cc72aXiX.s:471    .text.uartStopReceive:00000000 uartStopReceive
     /tmp/cc72aXiX.s:537    .text.uartStopReceiveI:00000000 $t
     /tmp/cc72aXiX.s:543    .text.uartStopReceiveI:00000000 uartStopReceiveI
                     .debug_frame:00000010 $d

UNDEFINED SYMBOLS
uart_lld_init
uart_lld_start
uart_lld_stop
uart_lld_start_send
uart_lld_stop_send
uart_lld_start_receive
uart_lld_stop_receive
