ARM GAS  /tmp/ccD4Xo19.s 			page 1


   1              		.syntax unified
   2              		.cpu cortex-m4
   3              		.fpu softvfp
   4              		.eabi_attribute 20, 1
   5              		.eabi_attribute 21, 1
   6              		.eabi_attribute 23, 3
   7              		.eabi_attribute 24, 1
   8              		.eabi_attribute 25, 1
   9              		.eabi_attribute 26, 1
  10              		.eabi_attribute 30, 2
  11              		.eabi_attribute 34, 1
  12              		.eabi_attribute 18, 4
  13              		.thumb
  14              		.syntax unified
  15              		.file	"chmempools.c"
  16              		.text
  17              	.Ltext0:
  18              		.cfi_sections	.debug_frame
  19              		.section	.text.chPoolInit,"ax",%progbits
  20              		.align	2
  21              		.p2align 4,,15
  22              		.global	chPoolInit
  23              		.thumb
  24              		.thumb_func
  25              		.type	chPoolInit, %function
  26              	chPoolInit:
  27              	.LFB7:
  28              		.file 1 "../../os/kernel/src/chmempools.c"
  29              		.loc 1 62 0
  30              		.cfi_startproc
  31              		@ args = 0, pretend = 0, frame = 0
  32              		@ frame_needed = 0, uses_anonymous_args = 0
  33              		@ link register save eliminated.
  34              	.LVL0:
  35              		.loc 1 66 0
  36 0000 0023     		movs	r3, #0
  37              		.loc 1 67 0
  38 0002 4160     		str	r1, [r0, #4]
  39              		.loc 1 68 0
  40 0004 8260     		str	r2, [r0, #8]
  41              		.loc 1 66 0
  42 0006 0360     		str	r3, [r0]
  43 0008 7047     		bx	lr
  44              		.cfi_endproc
  45              	.LFE7:
  46              		.size	chPoolInit, .-chPoolInit
  47 000a 00BF     		.section	.text.chPoolLoadArray,"ax",%progbits
  48              		.align	2
  49              		.p2align 4,,15
  50              		.global	chPoolLoadArray
  51              		.thumb
  52              		.thumb_func
  53              		.type	chPoolLoadArray, %function
  54              	chPoolLoadArray:
  55              	.LFB8:
  56              		.loc 1 84 0
  57              		.cfi_startproc
ARM GAS  /tmp/ccD4Xo19.s 			page 2


  58              		@ args = 0, pretend = 0, frame = 0
  59              		@ frame_needed = 0, uses_anonymous_args = 0
  60              		@ link register save eliminated.
  61              	.LVL1:
  62              		.loc 1 88 0
  63 0000 62B1     		cbz	r2, .L2
  64              	.LVL2:
  65              	.L4:
  66              	.LBB16:
  67              	.LBB17:
  68              		.loc 1 173 0
  69 0002 2023     		movs	r3, #32
  70              		.syntax unified
  71              	@ 173 "../../os/kernel/src/chmempools.c" 1
  72 0004 83F31188 		msr     BASEPRI, r3
  73              	@ 0 "" 2
  74              	.LVL3:
  75              		.thumb
  76              		.syntax unified
  77              	.LBE17:
  78              	.LBB18:
  79              	.LBB19:
  80              		.loc 1 155 0
  81 0008 0368     		ldr	r3, [r0]
  82 000a 0B60     		str	r3, [r1]
  83              	.LBE19:
  84              	.LBE18:
  85              	.LBB21:
  86              		.loc 1 175 0
  87 000c 0023     		movs	r3, #0
  88              	.LBE21:
  89              	.LBB22:
  90              	.LBB20:
  91              		.loc 1 156 0
  92 000e 0160     		str	r1, [r0]
  93              	.LVL4:
  94              	.LBE20:
  95              	.LBE22:
  96              	.LBB23:
  97              		.loc 1 175 0
  98              		.syntax unified
  99              	@ 175 "../../os/kernel/src/chmempools.c" 1
 100 0010 83F31188 		msr     BASEPRI, r3
 101              	@ 0 "" 2
 102              	.LVL5:
 103              		.thumb
 104              		.syntax unified
 105              	.LBE23:
 106              	.LBE16:
 107              		.loc 1 90 0
 108 0014 4368     		ldr	r3, [r0, #4]
 109              		.loc 1 88 0
 110 0016 013A     		subs	r2, r2, #1
 111              	.LVL6:
 112              		.loc 1 90 0
 113 0018 1944     		add	r1, r1, r3
 114              	.LVL7:
ARM GAS  /tmp/ccD4Xo19.s 			page 3


 115              		.loc 1 88 0
 116 001a F2D1     		bne	.L4
 117              	.LVL8:
 118              	.L2:
 119 001c 7047     		bx	lr
 120              		.cfi_endproc
 121              	.LFE8:
 122              		.size	chPoolLoadArray, .-chPoolLoadArray
 123 001e 00BF     		.section	.text.chPoolAllocI,"ax",%progbits
 124              		.align	2
 125              		.p2align 4,,15
 126              		.global	chPoolAllocI
 127              		.thumb
 128              		.thumb_func
 129              		.type	chPoolAllocI, %function
 130              	chPoolAllocI:
 131              	.LFB9:
 132              		.loc 1 105 0
 133              		.cfi_startproc
 134              		@ args = 0, pretend = 0, frame = 0
 135              		@ frame_needed = 0, uses_anonymous_args = 0
 136              		@ link register save eliminated.
 137              	.LVL9:
 138              		.loc 1 111 0
 139 0000 0368     		ldr	r3, [r0]
 140              	.LVL10:
 141 0002 1BB1     		cbz	r3, .L9
 142              		.loc 1 112 0
 143 0004 1A68     		ldr	r2, [r3]
 144 0006 0260     		str	r2, [r0]
 145              	.L10:
 146              		.loc 1 116 0
 147 0008 1846     		mov	r0, r3
 148              	.LVL11:
 149 000a 7047     		bx	lr
 150              	.LVL12:
 151              	.L9:
 152              		.loc 1 113 0
 153 000c 8268     		ldr	r2, [r0, #8]
 154 000e 002A     		cmp	r2, #0
 155 0010 FAD0     		beq	.L10
 156              		.loc 1 114 0
 157 0012 4068     		ldr	r0, [r0, #4]
 158              	.LVL13:
 159 0014 1047     		bx	r2
 160              	.LVL14:
 161              		.cfi_endproc
 162              	.LFE9:
 163              		.size	chPoolAllocI, .-chPoolAllocI
 164 0016 00BF     		.section	.text.chPoolAlloc,"ax",%progbits
 165              		.align	2
 166              		.p2align 4,,15
 167              		.global	chPoolAlloc
 168              		.thumb
 169              		.thumb_func
 170              		.type	chPoolAlloc, %function
 171              	chPoolAlloc:
ARM GAS  /tmp/ccD4Xo19.s 			page 4


 172              	.LFB10:
 173              		.loc 1 128 0
 174              		.cfi_startproc
 175              		@ args = 0, pretend = 0, frame = 0
 176              		@ frame_needed = 0, uses_anonymous_args = 0
 177              	.LVL15:
 178 0000 08B5     		push	{r3, lr}
 179              		.cfi_def_cfa_offset 8
 180              		.cfi_offset 3, -8
 181              		.cfi_offset 14, -4
 182              		.loc 1 128 0
 183 0002 0246     		mov	r2, r0
 184              	.LBB24:
 185              		.loc 1 131 0
 186 0004 2023     		movs	r3, #32
 187              		.syntax unified
 188              	@ 131 "../../os/kernel/src/chmempools.c" 1
 189 0006 83F31188 		msr     BASEPRI, r3
 190              	@ 0 "" 2
 191              	.LVL16:
 192              		.thumb
 193              		.syntax unified
 194              	.LBE24:
 195              	.LBB25:
 196              	.LBB26:
 197              		.loc 1 111 0
 198 000a 0068     		ldr	r0, [r0]
 199              	.LVL17:
 200 000c 28B1     		cbz	r0, .L15
 201              		.loc 1 112 0
 202 000e 0368     		ldr	r3, [r0]
 203 0010 1360     		str	r3, [r2]
 204              	.L16:
 205              	.LVL18:
 206              	.LBE26:
 207              	.LBE25:
 208              	.LBB28:
 209              		.loc 1 133 0
 210 0012 0023     		movs	r3, #0
 211              		.syntax unified
 212              	@ 133 "../../os/kernel/src/chmempools.c" 1
 213 0014 83F31188 		msr     BASEPRI, r3
 214              	@ 0 "" 2
 215              		.thumb
 216              		.syntax unified
 217              	.LBE28:
 218              		.loc 1 135 0
 219 0018 08BD     		pop	{r3, pc}
 220              	.LVL19:
 221              	.L15:
 222              	.LBB29:
 223              	.LBB27:
 224              		.loc 1 113 0
 225 001a 9368     		ldr	r3, [r2, #8]
 226 001c 002B     		cmp	r3, #0
 227 001e F8D0     		beq	.L16
 228              		.loc 1 114 0
ARM GAS  /tmp/ccD4Xo19.s 			page 5


 229 0020 5068     		ldr	r0, [r2, #4]
 230              	.LVL20:
 231 0022 9847     		blx	r3
 232              	.LVL21:
 233              	.LBE27:
 234              	.LBE29:
 235              	.LBB30:
 236              		.loc 1 133 0
 237 0024 0023     		movs	r3, #0
 238              		.syntax unified
 239              	@ 133 "../../os/kernel/src/chmempools.c" 1
 240 0026 83F31188 		msr     BASEPRI, r3
 241              	@ 0 "" 2
 242              		.thumb
 243              		.syntax unified
 244              	.LBE30:
 245              		.loc 1 135 0
 246 002a 08BD     		pop	{r3, pc}
 247              		.cfi_endproc
 248              	.LFE10:
 249              		.size	chPoolAlloc, .-chPoolAlloc
 250              		.section	.text.chPoolFreeI,"ax",%progbits
 251              		.align	2
 252              		.p2align 4,,15
 253              		.global	chPoolFreeI
 254              		.thumb
 255              		.thumb_func
 256              		.type	chPoolFreeI, %function
 257              	chPoolFreeI:
 258              	.LFB11:
 259              		.loc 1 149 0
 260              		.cfi_startproc
 261              		@ args = 0, pretend = 0, frame = 0
 262              		@ frame_needed = 0, uses_anonymous_args = 0
 263              		@ link register save eliminated.
 264              	.LVL22:
 265              		.loc 1 155 0
 266 0000 0368     		ldr	r3, [r0]
 267 0002 0B60     		str	r3, [r1]
 268              		.loc 1 156 0
 269 0004 0160     		str	r1, [r0]
 270 0006 7047     		bx	lr
 271              		.cfi_endproc
 272              	.LFE11:
 273              		.size	chPoolFreeI, .-chPoolFreeI
 274              		.section	.text.chPoolFree,"ax",%progbits
 275              		.align	2
 276              		.p2align 4,,15
 277              		.global	chPoolFree
 278              		.thumb
 279              		.thumb_func
 280              		.type	chPoolFree, %function
 281              	chPoolFree:
 282              	.LFB12:
 283              		.loc 1 171 0
 284              		.cfi_startproc
 285              		@ args = 0, pretend = 0, frame = 0
ARM GAS  /tmp/ccD4Xo19.s 			page 6


 286              		@ frame_needed = 0, uses_anonymous_args = 0
 287              		@ link register save eliminated.
 288              	.LVL23:
 289              	.LBB31:
 290              		.loc 1 173 0
 291 0000 2023     		movs	r3, #32
 292              		.syntax unified
 293              	@ 173 "../../os/kernel/src/chmempools.c" 1
 294 0002 83F31188 		msr     BASEPRI, r3
 295              	@ 0 "" 2
 296              	.LVL24:
 297              		.thumb
 298              		.syntax unified
 299              	.LBE31:
 300              	.LBB32:
 301              	.LBB33:
 302              		.loc 1 155 0
 303 0006 0368     		ldr	r3, [r0]
 304 0008 0B60     		str	r3, [r1]
 305              	.LBE33:
 306              	.LBE32:
 307              	.LBB35:
 308              		.loc 1 175 0
 309 000a 0023     		movs	r3, #0
 310              	.LBE35:
 311              	.LBB36:
 312              	.LBB34:
 313              		.loc 1 156 0
 314 000c 0160     		str	r1, [r0]
 315              	.LVL25:
 316              	.LBE34:
 317              	.LBE36:
 318              	.LBB37:
 319              		.loc 1 175 0
 320              		.syntax unified
 321              	@ 175 "../../os/kernel/src/chmempools.c" 1
 322 000e 83F31188 		msr     BASEPRI, r3
 323              	@ 0 "" 2
 324              		.thumb
 325              		.syntax unified
 326 0012 7047     		bx	lr
 327              	.LBE37:
 328              		.cfi_endproc
 329              	.LFE12:
 330              		.size	chPoolFree, .-chPoolFree
 331              		.text
 332              	.Letext0:
 333              		.file 2 "/home/lithium/Descargas/gcc-arm-none-eabi-5_3-2016q1/lib/gcc/arm-none-eabi/5.3.1/include/
 334              		.file 3 "/home/lithium/Descargas/gcc-arm-none-eabi-5_3-2016q1/arm-none-eabi/include/machine/_defau
 335              		.file 4 "/home/lithium/Descargas/gcc-arm-none-eabi-5_3-2016q1/arm-none-eabi/include/sys/_stdint.h"
 336              		.file 5 "../../os/kernel/include/chmemcore.h"
 337              		.file 6 "../../os/kernel/include/chmempools.h"