ARM GAS  /tmp/ccfc6Ncq.s 			page 1


   1              		.syntax unified
   2              		.cpu cortex-m4
   3              		.fpu softvfp
   4              		.eabi_attribute 20, 1
   5              		.eabi_attribute 21, 1
   6              		.eabi_attribute 23, 3
   7              		.eabi_attribute 24, 1
   8              		.eabi_attribute 25, 1
   9              		.eabi_attribute 26, 1
  10              		.eabi_attribute 30, 2
  11              		.eabi_attribute 34, 1
  12              		.eabi_attribute 18, 4
  13              		.thumb
  14              		.syntax unified
  15              		.file	"chmtx.c"
  16              		.text
  17              	.Ltext0:
  18              		.cfi_sections	.debug_frame
  19              		.section	.text.chMtxInit,"ax",%progbits
  20              		.align	2
  21              		.p2align 4,,15
  22              		.global	chMtxInit
  23              		.thumb
  24              		.thumb_func
  25              		.type	chMtxInit, %function
  26              	chMtxInit:
  27              	.LFB7:
  28              		.file 1 "../../os/kernel/src/chmtx.c"
  29              		.loc 1 86 0
  30              		.cfi_startproc
  31              		@ args = 0, pretend = 0, frame = 0
  32              		@ frame_needed = 0, uses_anonymous_args = 0
  33              		@ link register save eliminated.
  34              	.LVL0:
  35              		.loc 1 91 0
  36 0000 0023     		movs	r3, #0
  37              		.loc 1 90 0
  38 0002 4060     		str	r0, [r0, #4]
  39 0004 0060     		str	r0, [r0]
  40              		.loc 1 91 0
  41 0006 8360     		str	r3, [r0, #8]
  42 0008 7047     		bx	lr
  43              		.cfi_endproc
  44              	.LFE7:
  45              		.size	chMtxInit, .-chMtxInit
  46 000a 00BF     		.section	.text.chMtxLockS,"ax",%progbits
  47              		.align	2
  48              		.p2align 4,,15
  49              		.global	chMtxLockS
  50              		.thumb
  51              		.thumb_func
  52              		.type	chMtxLockS, %function
  53              	chMtxLockS:
  54              	.LFB9:
  55              		.loc 1 121 0
  56              		.cfi_startproc
  57              		@ args = 0, pretend = 0, frame = 0
ARM GAS  /tmp/ccfc6Ncq.s 			page 2


  58              		@ frame_needed = 0, uses_anonymous_args = 0
  59              	.LVL1:
  60              		.loc 1 122 0
  61 0000 304B     		ldr	r3, .L28
  62              		.loc 1 128 0
  63 0002 8268     		ldr	r2, [r0, #8]
  64              		.loc 1 121 0
  65 0004 70B5     		push	{r4, r5, r6, lr}
  66              		.cfi_def_cfa_offset 16
  67              		.cfi_offset 4, -16
  68              		.cfi_offset 5, -12
  69              		.cfi_offset 6, -8
  70              		.cfi_offset 14, -4
  71              		.loc 1 122 0
  72 0006 9C69     		ldr	r4, [r3, #24]
  73              	.LVL2:
  74              		.loc 1 128 0
  75 0008 002A     		cmp	r2, #0
  76 000a 55D0     		beq	.L3
  77              	.LBB33:
  78              		.loc 1 135 0
  79 000c A168     		ldr	r1, [r4, #8]
  80 000e 9368     		ldr	r3, [r2, #8]
  81 0010 9942     		cmp	r1, r3
  82 0012 0546     		mov	r5, r0
  83              	.LVL3:
  84 0014 06D9     		bls	.L5
  85              	.LVL4:
  86              	.L10:
  87              		.loc 1 139 0
  88 0016 137F     		ldrb	r3, [r2, #28]	@ zero_extendqisi2
  89              		.loc 1 137 0
  90 0018 9160     		str	r1, [r2, #8]
  91              		.loc 1 139 0
  92 001a 042B     		cmp	r3, #4
  93 001c 33D0     		beq	.L6
  94 001e 052B     		cmp	r3, #5
  95 0020 1DD0     		beq	.L7
  96 0022 9BB1     		cbz	r3, .L27
  97              	.LVL5:
  98              	.L5:
  99              	.LBB34:
 100              	.LBB35:
 101              		.file 2 "../../os/kernel/include/chinline.h"
 102              		.loc 2 43 0
 103 0024 2B46     		mov	r3, r5
 104 0026 03E0     		b	.L18
 105              	.LVL6:
 106              	.L17:
 107              		.loc 2 46 0
 108 0028 9968     		ldr	r1, [r3, #8]
 109 002a A268     		ldr	r2, [r4, #8]
 110 002c 9142     		cmp	r1, r2
 111 002e 02D3     		bcc	.L19
 112              	.L18:
 113              		.loc 2 45 0
 114 0030 1B68     		ldr	r3, [r3]
ARM GAS  /tmp/ccfc6Ncq.s 			page 3


 115              	.LVL7:
 116              		.loc 2 46 0
 117 0032 9D42     		cmp	r5, r3
 118 0034 F8D1     		bne	.L17
 119              	.L19:
 120              		.loc 2 48 0
 121 0036 5A68     		ldr	r2, [r3, #4]
 122 0038 6260     		str	r2, [r4, #4]
 123              		.loc 2 47 0
 124 003a 2360     		str	r3, [r4]
 125              		.loc 2 49 0
 126 003c 5C60     		str	r4, [r3, #4]
 127 003e 1460     		str	r4, [r2]
 128              	.LVL8:
 129              	.LBE35:
 130              	.LBE34:
 131              		.loc 1 174 0
 132 0040 6562     		str	r5, [r4, #36]
 133              		.loc 1 175 0
 134 0042 0420     		movs	r0, #4
 135              	.LBE33:
 136              		.loc 1 187 0
 137 0044 BDE87040 		pop	{r4, r5, r6, lr}
 138              		.cfi_remember_state
 139              		.cfi_restore 14
 140              		.cfi_restore 6
 141              		.cfi_restore 5
 142              		.cfi_restore 4
 143              		.cfi_def_cfa_offset 0
 144              	.LVL9:
 145              	.LBB48:
 146              		.loc 1 175 0
 147 0048 FFF7FEBF 		b	chSchGoSleepS
 148              	.LVL10:
 149              	.L27:
 150              		.cfi_restore_state
 151              	.LBB36:
 152              	.LBB37:
 153              		.loc 2 75 0
 154 004c 92E80A00 		ldmia	r2, {r1, r3}
 155 0050 1960     		str	r1, [r3]
 156              		.loc 2 76 0
 157 0052 1168     		ldr	r1, [r2]
 158              	.LBE37:
 159              	.LBE36:
 160              		.loc 1 167 0
 161 0054 1046     		mov	r0, r2
 162              	.LBB39:
 163              	.LBB38:
 164              		.loc 2 76 0
 165 0056 4B60     		str	r3, [r1, #4]
 166              	.LVL11:
 167              	.LBE38:
 168              	.LBE39:
 169              		.loc 1 167 0
 170 0058 FFF7FEFF 		bl	chSchReadyI
 171              	.LVL12:
ARM GAS  /tmp/ccfc6Ncq.s 			page 4


 172              		.loc 1 168 0
 173 005c E2E7     		b	.L5
 174              	.LVL13:
 175              	.L7:
 176              	.LBB40:
 177              	.LBB41:
 178              		.loc 2 75 0
 179 005e 92E80900 		ldmia	r2, {r0, r3}
 180 0062 1860     		str	r0, [r3]
 181              		.loc 2 76 0
 182 0064 1068     		ldr	r0, [r2]
 183 0066 4360     		str	r3, [r0, #4]
 184              	.LVL14:
 185              	.LBE41:
 186              	.LBE40:
 187              		.loc 1 158 0
 188 0068 566A     		ldr	r6, [r2, #36]
 189              	.LVL15:
 190              	.LBB42:
 191              	.LBB43:
 192              		.loc 2 43 0
 193 006a 3346     		mov	r3, r6
 194 006c 02E0     		b	.L15
 195              	.LVL16:
 196              	.L14:
 197              		.loc 2 46 0
 198 006e 9868     		ldr	r0, [r3, #8]
 199 0070 8842     		cmp	r0, r1
 200 0072 02D3     		bcc	.L16
 201              	.LVL17:
 202              	.L15:
 203              		.loc 2 45 0
 204 0074 1B68     		ldr	r3, [r3]
 205              	.LVL18:
 206              		.loc 2 46 0
 207 0076 9E42     		cmp	r6, r3
 208 0078 F9D1     		bne	.L14
 209              	.L16:
 210              		.loc 2 48 0
 211 007a 5968     		ldr	r1, [r3, #4]
 212 007c 5160     		str	r1, [r2, #4]
 213              		.loc 2 47 0
 214 007e 1360     		str	r3, [r2]
 215              		.loc 2 49 0
 216 0080 5A60     		str	r2, [r3, #4]
 217 0082 0A60     		str	r2, [r1]
 218 0084 CEE7     		b	.L5
 219              	.LVL19:
 220              	.L6:
 221              	.LBE43:
 222              	.LBE42:
 223              	.LBB44:
 224              	.LBB45:
 225              		.loc 2 75 0
 226 0086 92E80900 		ldmia	r2, {r0, r3}
 227 008a 1860     		str	r0, [r3]
 228              		.loc 2 76 0
ARM GAS  /tmp/ccfc6Ncq.s 			page 5


 229 008c 1068     		ldr	r0, [r2]
 230 008e 4360     		str	r3, [r0, #4]
 231              	.LVL20:
 232              	.LBE45:
 233              	.LBE44:
 234              		.loc 1 142 0
 235 0090 566A     		ldr	r6, [r2, #36]
 236              	.LVL21:
 237 0092 3346     		mov	r3, r6
 238 0094 02E0     		b	.L12
 239              	.LVL22:
 240              	.L9:
 241              	.LBB46:
 242              	.LBB47:
 243              		.loc 2 46 0
 244 0096 9868     		ldr	r0, [r3, #8]
 245 0098 8842     		cmp	r0, r1
 246 009a 02D3     		bcc	.L13
 247              	.LVL23:
 248              	.L12:
 249              		.loc 2 45 0
 250 009c 1B68     		ldr	r3, [r3]
 251              	.LVL24:
 252              		.loc 2 46 0
 253 009e 9E42     		cmp	r6, r3
 254 00a0 F9D1     		bne	.L9
 255              	.L13:
 256              		.loc 2 48 0
 257 00a2 5968     		ldr	r1, [r3, #4]
 258 00a4 5160     		str	r1, [r2, #4]
 259              		.loc 2 47 0
 260 00a6 1360     		str	r3, [r2]
 261              		.loc 2 49 0
 262 00a8 5A60     		str	r2, [r3, #4]
 263 00aa 0A60     		str	r2, [r1]
 264              	.LVL25:
 265              	.LBE47:
 266              	.LBE46:
 267              		.loc 1 143 0
 268 00ac B268     		ldr	r2, [r6, #8]
 269              	.LVL26:
 270              		.loc 1 135 0
 271 00ae A168     		ldr	r1, [r4, #8]
 272 00b0 9368     		ldr	r3, [r2, #8]
 273              	.LVL27:
 274 00b2 8B42     		cmp	r3, r1
 275 00b4 AFD3     		bcc	.L10
 276 00b6 B5E7     		b	.L5
 277              	.LVL28:
 278              	.L3:
 279              	.LBE48:
 280              		.loc 1 184 0
 281 00b8 E36B     		ldr	r3, [r4, #60]
 282 00ba C360     		str	r3, [r0, #12]
 283              		.loc 1 183 0
 284 00bc 8460     		str	r4, [r0, #8]
 285              		.loc 1 185 0
ARM GAS  /tmp/ccfc6Ncq.s 			page 6


 286 00be E063     		str	r0, [r4, #60]
 287 00c0 70BD     		pop	{r4, r5, r6, pc}
 288              	.LVL29:
 289              	.L29:
 290 00c2 00BF     		.align	2
 291              	.L28:
 292 00c4 00000000 		.word	rlist
 293              		.cfi_endproc
 294              	.LFE9:
 295              		.size	chMtxLockS, .-chMtxLockS
 296              		.section	.text.chMtxLock,"ax",%progbits
 297              		.align	2
 298              		.p2align 4,,15
 299              		.global	chMtxLock
 300              		.thumb
 301              		.thumb_func
 302              		.type	chMtxLock, %function
 303              	chMtxLock:
 304              	.LFB8:
 305              		.loc 1 103 0
 306              		.cfi_startproc
 307              		@ args = 0, pretend = 0, frame = 0
 308              		@ frame_needed = 0, uses_anonymous_args = 0
 309              	.LVL30:
 310 0000 08B5     		push	{r3, lr}
 311              		.cfi_def_cfa_offset 8
 312              		.cfi_offset 3, -8
 313              		.cfi_offset 14, -4
 314              	.LBB49:
 315              		.loc 1 105 0
 316 0002 2023     		movs	r3, #32
 317              		.syntax unified
 318              	@ 105 "../../os/kernel/src/chmtx.c" 1
 319 0004 83F31188 		msr     BASEPRI, r3
 320              	@ 0 "" 2
 321              		.thumb
 322              		.syntax unified
 323              	.LBE49:
 324              		.loc 1 107 0
 325 0008 FFF7FEFF 		bl	chMtxLockS
 326              	.LVL31:
 327              	.LBB50:
 328              		.loc 1 109 0
 329 000c 0023     		movs	r3, #0
 330              		.syntax unified
 331              	@ 109 "../../os/kernel/src/chmtx.c" 1
 332 000e 83F31188 		msr     BASEPRI, r3
 333              	@ 0 "" 2
 334              		.thumb
 335              		.syntax unified
 336 0012 08BD     		pop	{r3, pc}
 337              	.LBE50:
 338              		.cfi_endproc
 339              	.LFE8:
 340              		.size	chMtxLock, .-chMtxLock
 341              		.section	.text.chMtxTryLock,"ax",%progbits
 342              		.align	2
ARM GAS  /tmp/ccfc6Ncq.s 			page 7


 343              		.p2align 4,,15
 344              		.global	chMtxTryLock
 345              		.thumb
 346              		.thumb_func
 347              		.type	chMtxTryLock, %function
 348              	chMtxTryLock:
 349              	.LFB10:
 350              		.loc 1 206 0
 351              		.cfi_startproc
 352              		@ args = 0, pretend = 0, frame = 0
 353              		@ frame_needed = 0, uses_anonymous_args = 0
 354              		@ link register save eliminated.
 355              	.LVL32:
 356              		.loc 1 206 0
 357 0000 0246     		mov	r2, r0
 358              	.LBB57:
 359              		.loc 1 209 0
 360 0002 2023     		movs	r3, #32
 361              		.syntax unified
 362              	@ 209 "../../os/kernel/src/chmtx.c" 1
 363 0004 83F31188 		msr     BASEPRI, r3
 364              	@ 0 "" 2
 365              	.LVL33:
 366              		.thumb
 367              		.syntax unified
 368              	.LBE57:
 369              	.LBB58:
 370              	.LBB59:
 371              		.loc 1 239 0
 372 0008 8368     		ldr	r3, [r0, #8]
 373              		.loc 1 240 0
 374 000a 0020     		movs	r0, #0
 375              	.LVL34:
 376              		.loc 1 239 0
 377 000c 1BB1     		cbz	r3, .L35
 378              	.LVL35:
 379              	.LBE59:
 380              	.LBE58:
 381              	.LBB63:
 382              		.loc 1 213 0
 383 000e 0023     		movs	r3, #0
 384              		.syntax unified
 385              	@ 213 "../../os/kernel/src/chmtx.c" 1
 386 0010 83F31188 		msr     BASEPRI, r3
 387              	@ 0 "" 2
 388              		.thumb
 389              		.syntax unified
 390              	.LBE63:
 391              		.loc 1 215 0
 392 0014 7047     		bx	lr
 393              	.LVL36:
 394              	.L35:
 395              	.LBB64:
 396              	.LBB62:
 397              	.LBB60:
 398              	.LBB61:
 399              		.loc 1 241 0
ARM GAS  /tmp/ccfc6Ncq.s 			page 8


 400 0016 054B     		ldr	r3, .L36
 401 0018 9B69     		ldr	r3, [r3, #24]
 402 001a 9360     		str	r3, [r2, #8]
 403              		.loc 1 242 0
 404 001c D96B     		ldr	r1, [r3, #60]
 405 001e D160     		str	r1, [r2, #12]
 406              		.loc 1 243 0
 407 0020 0120     		movs	r0, #1
 408 0022 DA63     		str	r2, [r3, #60]
 409              	.LVL37:
 410              	.LBE61:
 411              	.LBE60:
 412              	.LBE62:
 413              	.LBE64:
 414              	.LBB65:
 415              		.loc 1 213 0
 416 0024 0023     		movs	r3, #0
 417              		.syntax unified
 418              	@ 213 "../../os/kernel/src/chmtx.c" 1
 419 0026 83F31188 		msr     BASEPRI, r3
 420              	@ 0 "" 2
 421              		.thumb
 422              		.syntax unified
 423              	.LBE65:
 424              		.loc 1 215 0
 425 002a 7047     		bx	lr
 426              	.L37:
 427              		.align	2
 428              	.L36:
 429 002c 00000000 		.word	rlist
 430              		.cfi_endproc
 431              	.LFE10:
 432              		.size	chMtxTryLock, .-chMtxTryLock
 433              		.section	.text.chMtxTryLockS,"ax",%progbits
 434              		.align	2
 435              		.p2align 4,,15
 436              		.global	chMtxTryLockS
 437              		.thumb
 438              		.thumb_func
 439              		.type	chMtxTryLockS, %function
 440              	chMtxTryLockS:
 441              	.LFB11:
 442              		.loc 1 234 0
 443              		.cfi_startproc
 444              		@ args = 0, pretend = 0, frame = 0
 445              		@ frame_needed = 0, uses_anonymous_args = 0
 446              		@ link register save eliminated.
 447              	.LVL38:
 448              		.loc 1 239 0
 449 0000 8268     		ldr	r2, [r0, #8]
 450              		.loc 1 234 0
 451 0002 0346     		mov	r3, r0
 452              		.loc 1 239 0
 453 0004 0AB1     		cbz	r2, .L41
 454              		.loc 1 240 0
 455 0006 0020     		movs	r0, #0
 456              	.LVL39:
ARM GAS  /tmp/ccfc6Ncq.s 			page 9


 457              		.loc 1 245 0
 458 0008 7047     		bx	lr
 459              	.LVL40:
 460              	.L41:
 461              	.LBB68:
 462              	.LBB69:
 463              		.loc 1 241 0
 464 000a 044A     		ldr	r2, .L42
 465 000c 9269     		ldr	r2, [r2, #24]
 466 000e 8260     		str	r2, [r0, #8]
 467              		.loc 1 242 0
 468 0010 D16B     		ldr	r1, [r2, #60]
 469 0012 C160     		str	r1, [r0, #12]
 470              		.loc 1 243 0
 471 0014 0120     		movs	r0, #1
 472              	.LVL41:
 473 0016 D363     		str	r3, [r2, #60]
 474              	.LVL42:
 475 0018 7047     		bx	lr
 476              	.L43:
 477 001a 00BF     		.align	2
 478              	.L42:
 479 001c 00000000 		.word	rlist
 480              	.LBE69:
 481              	.LBE68:
 482              		.cfi_endproc
 483              	.LFE11:
 484              		.size	chMtxTryLockS, .-chMtxTryLockS
 485              		.section	.text.chMtxUnlock,"ax",%progbits
 486              		.align	2
 487              		.p2align 4,,15
 488              		.global	chMtxUnlock
 489              		.thumb
 490              		.thumb_func
 491              		.type	chMtxUnlock, %function
 492              	chMtxUnlock:
 493              	.LFB12:
 494              		.loc 1 257 0
 495              		.cfi_startproc
 496              		@ args = 0, pretend = 0, frame = 0
 497              		@ frame_needed = 0, uses_anonymous_args = 0
 498              		.loc 1 258 0
 499 0000 174A     		ldr	r2, .L55
 500              		.loc 1 257 0
 501 0002 38B5     		push	{r3, r4, r5, lr}
 502              		.cfi_def_cfa_offset 16
 503              		.cfi_offset 3, -16
 504              		.cfi_offset 4, -12
 505              		.cfi_offset 5, -8
 506              		.cfi_offset 14, -4
 507              		.loc 1 258 0
 508 0004 9069     		ldr	r0, [r2, #24]
 509              	.LVL43:
 510              	.LBB70:
 511              		.loc 1 261 0
 512 0006 2023     		movs	r3, #32
 513              		.syntax unified
ARM GAS  /tmp/ccfc6Ncq.s 			page 10


 514              	@ 261 "../../os/kernel/src/chmtx.c" 1
 515 0008 83F31188 		msr     BASEPRI, r3
 516              	@ 0 "" 2
 517              		.thumb
 518              		.syntax unified
 519              	.LBE70:
 520              		.loc 1 265 0
 521 000c C46B     		ldr	r4, [r0, #60]
 522              	.LVL44:
 523              		.loc 1 273 0
 524 000e 2568     		ldr	r5, [r4]
 525              		.loc 1 271 0
 526 0010 E368     		ldr	r3, [r4, #12]
 527 0012 C363     		str	r3, [r0, #60]
 528              		.loc 1 273 0
 529 0014 A542     		cmp	r5, r4
 530 0016 1CD0     		beq	.L45
 531              	.LBB71:
 532              		.loc 1 278 0
 533 0018 016C     		ldr	r1, [r0, #64]
 534              	.LVL45:
 535              		.loc 1 280 0
 536 001a 4BB1     		cbz	r3, .L46
 537              	.L48:
 538              		.loc 1 284 0
 539 001c 1A68     		ldr	r2, [r3]
 540 001e 9A42     		cmp	r2, r3
 541 0020 03D0     		beq	.L47
 542              		.loc 1 284 0 is_stmt 0 discriminator 1
 543 0022 9268     		ldr	r2, [r2, #8]
 544 0024 9142     		cmp	r1, r2
 545 0026 38BF     		it	cc
 546 0028 1146     		movcc	r1, r2
 547              	.LVL46:
 548              	.L47:
 549              		.loc 1 286 0 is_stmt 1
 550 002a DB68     		ldr	r3, [r3, #12]
 551              	.LVL47:
 552              		.loc 1 280 0
 553 002c 002B     		cmp	r3, #0
 554 002e F5D1     		bne	.L48
 555              	.L46:
 556              	.LBB72:
 557              	.LBB73:
 558              		.loc 2 62 0
 559 0030 2B68     		ldr	r3, [r5]
 560              	.LVL48:
 561              	.LBE73:
 562              	.LBE72:
 563              		.loc 1 295 0
 564 0032 EA6B     		ldr	r2, [r5, #60]
 565              		.loc 1 290 0
 566 0034 8160     		str	r1, [r0, #8]
 567              	.LVL49:
 568              	.LBB76:
 569              	.LBB74:
 570              		.loc 2 62 0
ARM GAS  /tmp/ccfc6Ncq.s 			page 11


 571 0036 2360     		str	r3, [r4]
 572              	.LBE74:
 573              	.LBE76:
 574              		.loc 1 297 0
 575 0038 2846     		mov	r0, r5
 576              	.LVL50:
 577              	.LBB77:
 578              	.LBB75:
 579              		.loc 2 62 0
 580 003a 5C60     		str	r4, [r3, #4]
 581              	.LVL51:
 582              	.LBE75:
 583              	.LBE77:
 584              		.loc 1 297 0
 585 003c 0021     		movs	r1, #0
 586              	.LVL52:
 587              		.loc 1 294 0
 588 003e A560     		str	r5, [r4, #8]
 589              		.loc 1 295 0
 590 0040 E260     		str	r2, [r4, #12]
 591              		.loc 1 296 0
 592 0042 EC63     		str	r4, [r5, #60]
 593              		.loc 1 297 0
 594 0044 FFF7FEFF 		bl	chSchWakeupS
 595              	.LVL53:
 596              	.LBE71:
 597              	.LBB78:
 598              		.loc 1 301 0
 599 0048 0023     		movs	r3, #0
 600              		.syntax unified
 601              	@ 301 "../../os/kernel/src/chmtx.c" 1
 602 004a 83F31188 		msr     BASEPRI, r3
 603              	@ 0 "" 2
 604              		.thumb
 605              		.syntax unified
 606              	.LBE78:
 607              		.loc 1 303 0
 608 004e 2046     		mov	r0, r4
 609 0050 38BD     		pop	{r3, r4, r5, pc}
 610              	.LVL54:
 611              	.L45:
 612              		.loc 1 300 0
 613 0052 0023     		movs	r3, #0
 614 0054 A360     		str	r3, [r4, #8]
 615              	.LBB79:
 616              		.loc 1 301 0
 617 0056 0023     		movs	r3, #0
 618              		.syntax unified
 619              	@ 301 "../../os/kernel/src/chmtx.c" 1
 620 0058 83F31188 		msr     BASEPRI, r3
 621              	@ 0 "" 2
 622              		.thumb
 623              		.syntax unified
 624              	.LBE79:
 625              		.loc 1 303 0
 626 005c 2046     		mov	r0, r4
 627              	.LVL55:
ARM GAS  /tmp/ccfc6Ncq.s 			page 12


 628 005e 38BD     		pop	{r3, r4, r5, pc}
 629              	.LVL56:
 630              	.L56:
 631              		.align	2
 632              	.L55:
 633 0060 00000000 		.word	rlist
 634              		.cfi_endproc
 635              	.LFE12:
 636              		.size	chMtxUnlock, .-chMtxUnlock
 637              		.section	.text.chMtxUnlockS,"ax",%progbits
 638              		.align	2
 639              		.p2align 4,,15
 640              		.global	chMtxUnlockS
 641              		.thumb
 642              		.thumb_func
 643              		.type	chMtxUnlockS, %function
 644              	chMtxUnlockS:
 645              	.LFB13:
 646              		.loc 1 317 0
 647              		.cfi_startproc
 648              		@ args = 0, pretend = 0, frame = 0
 649              		@ frame_needed = 0, uses_anonymous_args = 0
 650 0000 38B5     		push	{r3, r4, r5, lr}
 651              		.cfi_def_cfa_offset 16
 652              		.cfi_offset 3, -16
 653              		.cfi_offset 4, -12
 654              		.cfi_offset 5, -8
 655              		.cfi_offset 14, -4
 656              		.loc 1 318 0
 657 0002 124B     		ldr	r3, .L68
 658 0004 9869     		ldr	r0, [r3, #24]
 659              	.LVL57:
 660              		.loc 1 325 0
 661 0006 C46B     		ldr	r4, [r0, #60]
 662              	.LVL58:
 663              		.loc 1 334 0
 664 0008 2568     		ldr	r5, [r4]
 665              		.loc 1 332 0
 666 000a E368     		ldr	r3, [r4, #12]
 667 000c C363     		str	r3, [r0, #60]
 668              		.loc 1 334 0
 669 000e A542     		cmp	r5, r4
 670 0010 18D0     		beq	.L58
 671              	.LBB80:
 672              		.loc 1 339 0
 673 0012 016C     		ldr	r1, [r0, #64]
 674              	.LVL59:
 675              		.loc 1 341 0
 676 0014 4BB1     		cbz	r3, .L59
 677              	.L61:
 678              		.loc 1 345 0
 679 0016 1A68     		ldr	r2, [r3]
 680 0018 9A42     		cmp	r2, r3
 681 001a 03D0     		beq	.L60
 682              		.loc 1 345 0 is_stmt 0 discriminator 1
 683 001c 9268     		ldr	r2, [r2, #8]
 684 001e 9142     		cmp	r1, r2
ARM GAS  /tmp/ccfc6Ncq.s 			page 13


 685 0020 38BF     		it	cc
 686 0022 1146     		movcc	r1, r2
 687              	.LVL60:
 688              	.L60:
 689              		.loc 1 347 0 is_stmt 1
 690 0024 DB68     		ldr	r3, [r3, #12]
 691              	.LVL61:
 692              		.loc 1 341 0
 693 0026 002B     		cmp	r3, #0
 694 0028 F5D1     		bne	.L61
 695              	.L59:
 696              	.LBB81:
 697              	.LBB82:
 698              		.loc 2 62 0
 699 002a 2B68     		ldr	r3, [r5]
 700              	.LVL62:
 701              	.LBE82:
 702              	.LBE81:
 703              		.loc 1 354 0
 704 002c EA6B     		ldr	r2, [r5, #60]
 705              		.loc 1 349 0
 706 002e 8160     		str	r1, [r0, #8]
 707              	.LVL63:
 708              	.LBB85:
 709              	.LBB83:
 710              		.loc 2 62 0
 711 0030 2360     		str	r3, [r4]
 712              	.LBE83:
 713              	.LBE85:
 714              		.loc 1 356 0
 715 0032 2846     		mov	r0, r5
 716              	.LVL64:
 717              	.LBB86:
 718              	.LBB84:
 719              		.loc 2 62 0
 720 0034 5C60     		str	r4, [r3, #4]
 721              	.LVL65:
 722              	.LBE84:
 723              	.LBE86:
 724              		.loc 1 353 0
 725 0036 A560     		str	r5, [r4, #8]
 726              		.loc 1 354 0
 727 0038 E260     		str	r2, [r4, #12]
 728              		.loc 1 355 0
 729 003a EC63     		str	r4, [r5, #60]
 730              		.loc 1 356 0
 731 003c FFF7FEFF 		bl	chSchReadyI
 732              	.LVL66:
 733              	.LBE80:
 734              		.loc 1 361 0
 735 0040 2046     		mov	r0, r4
 736 0042 38BD     		pop	{r3, r4, r5, pc}
 737              	.LVL67:
 738              	.L58:
 739              		.loc 1 359 0
 740 0044 0023     		movs	r3, #0
 741 0046 A360     		str	r3, [r4, #8]
ARM GAS  /tmp/ccfc6Ncq.s 			page 14


 742              		.loc 1 361 0
 743 0048 2046     		mov	r0, r4
 744              	.LVL68:
 745 004a 38BD     		pop	{r3, r4, r5, pc}
 746              	.LVL69:
 747              	.L69:
 748              		.align	2
 749              	.L68:
 750 004c 00000000 		.word	rlist
 751              		.cfi_endproc
 752              	.LFE13:
 753              		.size	chMtxUnlockS, .-chMtxUnlockS
 754              		.section	.text.chMtxUnlockAll,"ax",%progbits
 755              		.align	2
 756              		.p2align 4,,15
 757              		.global	chMtxUnlockAll
 758              		.thumb
 759              		.thumb_func
 760              		.type	chMtxUnlockAll, %function
 761              	chMtxUnlockAll:
 762              	.LFB14:
 763              		.loc 1 374 0
 764              		.cfi_startproc
 765              		@ args = 0, pretend = 0, frame = 0
 766              		@ frame_needed = 0, uses_anonymous_args = 0
 767              		.loc 1 375 0
 768 0000 134A     		ldr	r2, .L82
 769              		.loc 1 374 0
 770 0002 70B5     		push	{r4, r5, r6, lr}
 771              		.cfi_def_cfa_offset 16
 772              		.cfi_offset 4, -16
 773              		.cfi_offset 5, -12
 774              		.cfi_offset 6, -8
 775              		.cfi_offset 14, -4
 776              	.LBB87:
 777              		.loc 1 377 0
 778 0004 2023     		movs	r3, #32
 779              	.LBE87:
 780              		.loc 1 375 0
 781 0006 9469     		ldr	r4, [r2, #24]
 782              	.LVL70:
 783              	.LBB88:
 784              		.loc 1 377 0
 785              		.syntax unified
 786              	@ 377 "../../os/kernel/src/chmtx.c" 1
 787 0008 83F31188 		msr     BASEPRI, r3
 788              	@ 0 "" 2
 789              		.thumb
 790              		.syntax unified
 791              	.LBE88:
 792              		.loc 1 378 0
 793 000c E36B     		ldr	r3, [r4, #60]
 794 000e D3B1     		cbz	r3, .L71
 795              	.LBB89:
 796              		.loc 1 390 0
 797 0010 0026     		movs	r6, #0
 798 0012 0AE0     		b	.L74
ARM GAS  /tmp/ccfc6Ncq.s 			page 15


 799              	.LVL71:
 800              	.L81:
 801              	.LBB90:
 802              	.LBB91:
 803              	.LBB92:
 804              		.loc 2 62 0
 805 0014 1168     		ldr	r1, [r2]
 806              	.LBE92:
 807              	.LBE91:
 808              		.loc 1 385 0
 809 0016 D56B     		ldr	r5, [r2, #60]
 810              	.LBB94:
 811              	.LBB93:
 812              		.loc 2 62 0
 813 0018 1960     		str	r1, [r3]
 814 001a 4B60     		str	r3, [r1, #4]
 815              	.LVL72:
 816              	.LBE93:
 817              	.LBE94:
 818              		.loc 1 384 0
 819 001c 9A60     		str	r2, [r3, #8]
 820              		.loc 1 385 0
 821 001e DD60     		str	r5, [r3, #12]
 822              		.loc 1 386 0
 823 0020 D363     		str	r3, [r2, #60]
 824              		.loc 1 387 0
 825 0022 FFF7FEFF 		bl	chSchReadyI
 826              	.LVL73:
 827              	.LBE90:
 828              	.LBE89:
 829              		.loc 1 391 0
 830 0026 E36B     		ldr	r3, [r4, #60]
 831 0028 4BB1     		cbz	r3, .L80
 832              	.L74:
 833              	.LVL74:
 834              	.LBB96:
 835              		.loc 1 382 0
 836 002a 1A68     		ldr	r2, [r3]
 837              	.LVL75:
 838              		.loc 1 381 0
 839 002c D968     		ldr	r1, [r3, #12]
 840 002e E163     		str	r1, [r4, #60]
 841              	.LVL76:
 842              		.loc 1 382 0
 843 0030 9A42     		cmp	r2, r3
 844              	.LBB95:
 845              		.loc 1 387 0
 846 0032 1046     		mov	r0, r2
 847              	.LBE95:
 848              		.loc 1 382 0
 849 0034 EED1     		bne	.L81
 850              		.loc 1 390 0
 851 0036 9E60     		str	r6, [r3, #8]
 852              	.LBE96:
 853              		.loc 1 391 0
 854 0038 E36B     		ldr	r3, [r4, #60]
 855              	.LVL77:
ARM GAS  /tmp/ccfc6Ncq.s 			page 16


 856 003a 002B     		cmp	r3, #0
 857 003c F5D1     		bne	.L74
 858              	.LVL78:
 859              	.L80:
 860              		.loc 1 392 0
 861 003e 236C     		ldr	r3, [r4, #64]
 862 0040 A360     		str	r3, [r4, #8]
 863              		.loc 1 393 0
 864 0042 FFF7FEFF 		bl	chSchRescheduleS
 865              	.LVL79:
 866              	.L71:
 867              	.LBB97:
 868              		.loc 1 395 0
 869 0046 0023     		movs	r3, #0
 870              		.syntax unified
 871              	@ 395 "../../os/kernel/src/chmtx.c" 1
 872 0048 83F31188 		msr     BASEPRI, r3
 873              	@ 0 "" 2
 874              		.thumb
 875              		.syntax unified
 876 004c 70BD     		pop	{r4, r5, r6, pc}
 877              	.LVL80:
 878              	.L83:
 879 004e 00BF     		.align	2
 880              	.L82:
 881 0050 00000000 		.word	rlist
 882              	.LBE97:
 883              		.cfi_endproc
 884              	.LFE14:
 885              		.size	chMtxUnlockAll, .-chMtxUnlockAll
 886              		.text
 887              	.Letext0:
 888              		.file 3 "/home/lithium/Descargas/gcc-arm-none-eabi-5_3-2016q1/arm-none-eabi/include/machine/_defau
 889              		.file 4 "/home/lithium/Descargas/gcc-arm-none-eabi-5_3-2016q1/arm-none-eabi/include/sys/_stdint.h"
 890              		.file 5 "../../os/ports/GCC/ARMCMx/chtypes.h"
 891              		.file 6 "../../os/kernel/include/chlists.h"
 892              		.file 7 "../../os/kernel/include/chthreads.h"
 893              		.file 8 "../../os/ports/GCC/ARMCMx/chcore_v7m.h"
 894              		.file 9 "../../os/kernel/include/chschd.h"
 895              		.file 10 "../../os/kernel/include/chmtx.h"