ARM GAS  /tmp/ccfc6Ncq.s 			page 1


   1              		.syntax unified
   2              		.cpu cortex-m4
   3              		.fpu softvfp
   4              		.eabi_attribute 20, 1
   5              		.eabi_attribute 21, 1
   6              		.eabi_attribute 23, 3
   7              		.eabi_attribute 24, 1
   8              		.eabi_attribute 25, 1
   9              		.eabi_attribute 26, 1
  10              		.eabi_attribute 30, 2
  11              		.eabi_attribute 34, 1
  12              		.eabi_attribute 18, 4
  13              		.thumb
  14              		.syntax unified
  15              		.file	"chmtx.c"
  16              		.text
  17              	.Ltext0:
  18              		.cfi_sections	.debug_frame
  19              		.section	.text.chMtxInit,"ax",%progbits
  20              		.align	2
  21              		.p2align 4,,15
  22              		.global	chMtxInit
  23              		.thumb
  24              		.thumb_func
  25              		.type	chMtxInit, %function
  26              	chMtxInit:
  27              	.LFB7:
  28              		.file 1 "../../os/kernel/src/chmtx.c"
  29              		.loc 1 86 0
  30              		.cfi_startproc
  31              		@ args = 0, pretend = 0, frame = 0
  32              		@ frame_needed = 0, uses_anonymous_args = 0
  33              		@ link register save eliminated.
  34              	.LVL0:
  35              		.loc 1 91 0
  36 0000 0023     		movs	r3, #0
  37              		.loc 1 90 0
  38 0002 4060     		str	r0, [r0, #4]
  39 0004 0060     		str	r0, [r0]
  40              		.loc 1 91 0
  41 0006 8360     		str	r3, [r0, #8]
  42 0008 7047     		bx	lr
  43              		.cfi_endproc
  44              	.LFE7:
  45              		.size	chMtxInit, .-chMtxInit
  46 000a 00BF     		.section	.text.chMtxLockS,"ax",%progbits
  47              		.align	2
  48              		.p2align 4,,15
  49              		.global	chMtxLockS
  50              		.thumb
  51              		.thumb_func
  52              		.type	chMtxLockS, %function
  53              	chMtxLockS:
  54              	.LFB9:
  55              		.loc 1 121 0
  56              		.cfi_startproc
  57              		@ args = 0, pretend = 0, frame = 0
ARM GAS  /tmp/ccfc6Ncq.s 			page 2


  58              		@ frame_needed = 0, uses_anonymous_args = 0
  59              	.LVL1:
  60              		.loc 1 122 0
  61 0000 304B     		ldr	r3, .L28
  62              		.loc 1 128 0
  63 0002 8268     		ldr	r2, [r0, #8]
  64              		.loc 1 121 0
  65 0004 70B5     		push	{r4, r5, r6, lr}
  66              		.cfi_def_cfa_offset 16
  67              		.cfi_offset 4, -16
  68              		.cfi_offset 5, -12
  69              		.cfi_offset 6, -8
  70              		.cfi_offset 14, -4
  71              		.loc 1 122 0
  72 0006 9C69     		ldr	r4, [r3, #24]
  73              	.LVL2:
  74              		.loc 1 128 0
  75 0008 002A     		cmp	r2, #0
  76 000a 55D0     		beq	.L3
  77              	.LBB33:
  78              		.loc 1 135 0
  79 000c A168     		ldr	r1, [r4, #8]
  80 000e 9368     		ldr	r3, [r2, #8]
  81 0010 9942     		cmp	r1, r3
  82 0012 0546     		mov	r5, r0
  83              	.LVL3:
  84 0014 06D9     		bls	.L5
  85              	.LVL4:
  86              	.L10:
  87              		.loc 1 139 0
  88 0016 137F     		ldrb	r3, [r2, #28]	@ zero_extendqisi2
  89              		.loc 1 137 0
  90 0018 9160     		str	r1, [r2, #8]
  91              		.loc 1 139 0
  92 001a 042B     		cmp	r3, #4
  93 001c 33D0     		beq	.L6
  94 001e 052B     		cmp	r3, #5
  95 0020 1DD0     		beq	.L7
  96 0022 9BB1     		cbz	r3, .L27
  97              	.LVL5:
  98              	.L5:
  99              	.LBB34:
 100              	.LBB35:
 101              		.file 2 "../../os/kernel/include/chinline.h"
 102              		.loc 2 43 0
 103 0024 2B46     		mov	r3, r5
 104 0026 03E0     		b	.L18
 105              	.LVL6:
 106              	.L17:
 107              		.loc 2 46 0
 108 0028 9968     		ldr	r1, [r3, #8]
 109 002a A268     		ldr	r2, [r4, #8]
 110 002c 9142     		cmp	r1, r2
 111 002e 02D3     		bcc	.L19
 112              	.L18:
 113              		.loc 2 45 0
 114 0030 1B68     		ldr	r3, [r3]
ARM GAS  /tmp/ccfc6Ncq.s 			page 3


 115              	.LVL7:
 116              		.loc 2 46 0
 117 0032 9D42     		cmp	r5, r3
 118 0034 F8D1     		bne	.L17
 119              	.L19:
 120              		.loc 2 48 0
 121 0036 5A68     		ldr	r2, [r3, #4]
 122 0038 6260     		str	r2, [r4, #4]
 123              		.loc 2 47 0
 124 003a 2360     		str	r3, [r4]
 125              		.loc 2 49 0
 126 003c 5C60     		str	r4, [r3, #4]
 127 003e 1460     		str	r4, [r2]
 128              	.LVL8:
 129              	.LBE35:
 130              	.LBE34:
 131              		.loc 1 174 0
 132 0040 6562     		str	r5, [r4, #36]
 133              		.loc 1 175 0
 134 0042 0420     		movs	r0, #4
 135              	.LBE33:
 136              		.loc 1 187 0
 137 0044 BDE87040 		pop	{r4, r5, r6, lr}
 138              		.cfi_remember_state
 139              		.cfi_restore 14
 140              		.cfi_restore 6
 141              		.cfi_restore 5
 142              		.cfi_restore 4
 143              		.cfi_def_cfa_offset 0
 144              	.LVL9:
 145              	.LBB48:
 146              		.loc 1 175 0
 147 0048 FFF7FEBF 		b	chSchGoSleepS
 148              	.LVL10:
 149              	.L27:
 150              		.cfi_restore_state
 151              	.LBB36:
 152              	.LBB37:
 153              		.loc 2 75 0
 154 004c 92E80A00 		ldmia	r2, {r1, r3}
 155 0050 1960     		str	r1, [r3]
 156              		.loc 2 76 0
 157 0052 1168     		ldr	r1, [r2]
 158              	.LBE37:
 159              	.LBE36:
 160              		.loc 1 167 0
 161 0054 1046     		mov	r0, r2
 162              	.LBB39:
 163              	.LBB38:
 164              		.loc 2 76 0
 165 0056 4B60     		str	r3, [r1, #4]
 166              	.LVL11:
 167              	.LBE38:
 168              	.LBE39:
 169              		.loc 1 167 0
 170 0058 FFF7FEFF 		bl	chSchReadyI
 171              	.LVL12:
ARM GAS  /tmp/ccfc6Ncq.s 			page 4


 172              		.loc 1 168 0
 173 005c E2E7     		b	.L5
 174              	.LVL13:
 175              	.L7:
 176              	.LBB40:
 177              	.LBB41:
 178              		.loc 2 75 0
 179 005e 92E80900 		ldmia	r2, {r0, r3}
 180 0062 1860     		str	r0, [r3]
 181              		.loc 2 76 0
 182 0064 1068     		ldr	r0, [r2]
 183 0066 4360     		str	r3, [r0, #4]
 184              	.LVL14:
 185              	.LBE41:
 186              	.LBE40:
 187              		.loc 1 158 0
 188 0068 566A     		ldr	r6, [r2, #36]
 189              	.LVL15:
 190              	.LBB42:
 191              	.LBB43:
 192              		.loc 2 43 0
 193 006a 3346     		mov	r3, r6
 194 006c 02E0     		b	.L15
 195              	.LVL16:
 196              	.L14:
 197              		.loc 2 46 0
 198 006e 9868     		ldr	r0, [r3, #8]
 199 0070 8842     		cmp	r0, r1
 200 0072 02D3     		bcc	.L16
 201              	.LVL17:
 202              	.L15:
 203              		.loc 2 45 0
 204 0074 1B68     		ldr	r3, [r3]
 205              	.LVL18:
 206              		.loc 2 46 0
 207 0076 9E42     		cmp	r6, r3
 208 0078 F9D1     		bne	.L14
 209              	.L16:
 210              		.loc 2 48 0
 211 007a 5968     		ldr	r1, [r3, #4]
 212 007c 5160     		str	r1, [r2, #4]
 213              		.loc 2 47 0
 214 007e 1360     		str	r3, [r2]
 215              		.loc 2 49 0
 216 0080 5A60     		str	r2, [r3, #4]
 217 0082 0A60     		str	r2, [r1]
 218 0084 CEE7     		b	.L5
 219              	.LVL19:
 220              	.L6:
 221              	.LBE43:
 222              	.LBE42:
 223              	.LBB44:
 224              	.LBB45:
 225              		.loc 2 75 0
 226 0086 92E80900 		ldmia	r2, {r0, r3}
 227 008a 1860     		str	r0, [r3]
 228              		.loc 2 76 0
ARM GAS  /tmp/ccfc6Ncq.s 			page 5


 229 008c 1068     		ldr	r0, [r2]
 230 008e 4360     		str	r3, [r0, #4]
 231              	.LVL20:
 232              	.LBE45:
 233              	.LBE44:
 234              		.loc 1 142 0
 235 0090 566A     		ldr	r6, [r2, #36]
 236              	.LVL21:
 237 0092 3346     		mov	r3, r6
 238 0094 02E0     		b	.L12
 239              	.LVL22:
 240              	.L9:
 241              	.LBB46:
 242              	.LBB47:
 243              		.loc 2 46 0
 244 0096 9868     		ldr	r0, [r3, #8]
 245 0098 8842     		cmp	r0, r1
 246 009a 02D3     		bcc	.L13
 247              	.LVL23:
 248              	.L12:
 249              		.loc 2 45 0
 250 009c 1B68     		ldr	r3, [r3]
 251              	.LVL24:
 252              		.loc 2 46 0
 253 009e 9E42     		cmp	r6, r3
 254 00a0 F9D1     		bne	.L9
 255              	.L13:
 256              		.loc 2 48 0
 257 00a2 5968     		ldr	r1, [r3, #4]
 258 00a4 5160     		str	r1, [r2, #4]
 259              		.loc 2 47 0
 260 00a6 1360     		str	r3, [r2]
 261              		.loc 2 49 0
 262 00a8 5A60     		str	r2, [r3, #4]
 263 00aa 0A60     		str	r2, [r1]
 264              	.LVL25:
 265              	.LBE47:
 266              	.LBE46:
 267              		.loc 1 143 0
 268 00ac B268     		ldr	r2, [r6, #8]
 269              	.LVL26:
 270              		.loc 1 135 0
 271 00ae A168     		ldr	r1, [r4, #8]
 272 00b0 9368     		ldr	r3, [r2, #8]
 273              	.LVL27:
 274 00b2 8B42     		cmp	r3, r1
 275 00b4 AFD3     		bcc	.L10
 276 00b6 B5E7     		b	.L5
 277              	.LVL28:
 278              	.L3:
 279              	.LBE48:
 280              		.loc 1 184 0
 281 00b8 E36B     		ldr	r3, [r4, #60]
 282 00ba C360     		str	r3, [r0, #12]
 283              		.loc 1 183 0
 284 00bc 8460     		str	r4, [r0, #8]
 285              		.loc 1 185 0
ARM GAS  /tmp/ccfc6Ncq.s 			page 6


 286 00be E063     		str	r0, [r4, #60]
 287 00c0 70BD     		pop	{r4, r5, r6, pc}
 288              	.LVL29:
 289              	.L29:
 290 00c2 00BF     		.align	2
 291              	.L28:
 292 00c4 00000000 		.word	rlist
 293              		.cfi_endproc
 294              	.LFE9:
 295              		.size	chMtxLockS, .-chMtxLockS
 296              		.section	.text.chMtxLock,"ax",%progbits
 297              		.align	2
 298              		.p2align 4,,15
 299              		.global	chMtxLock
 300              		.thumb
 301              		.thumb_func
 302              		.type	chMtxLock, %function
 303              	chMtxLock:
 304              	.LFB8:
 305              		.loc 1 103 0
 306              		.cfi_startproc
 307              		@ args = 0, pretend = 0, frame = 0
 308              		@ frame_needed = 0, uses_anonymous_args = 0
 309              	.LVL30:
 310 0000 08B5     		push	{r3, lr}
 311              		.cfi_def_cfa_offset 8
 312              		.cfi_offset 3, -8
 313              		.cfi_offset 14, -4
 314              	.LBB49:
 315              		.loc 1 105 0
 316 0002 2023     		movs	r3, #32
 317              		.syntax unified
 318              	@ 105 "../../os/kernel/src/chmtx.c" 1
 319 0004 83F31188 		msr     BASEPRI, r3
 320              	@ 0 "" 2
 321              		.thumb
 322              		.syntax unified
 323              	.LBE49:
 324              		.loc 1 107 0
 325 0008 FFF7FEFF 		bl	chMtxLockS
 326              	.LVL31:
 327              	.LBB50:
 328              		.loc 1 109 0
 329 000c 0023     		movs	r3, #0
 330              		.syntax unified
 331              	@ 109 "../../os/kernel/src/chmtx.c" 1
 332 000e 83F31188 		msr     BASEPRI, r3
 333              	@ 0 "" 2
 334              		.thumb
 335              		.syntax unified
 336 0012 08BD     		pop	{r3, pc}
 337              	.LBE50:
 338              		.cfi_endproc
 339              	.LFE8:
 340              		.size	chMtxLock, .-chMtxLock
 341              		.section	.text.chMtxTryLock,"ax",%progbits
 342              		.align	2
ARM GAS  /tmp/ccfc6Ncq.s 			page 7


 343              		.p2align 4,,15
 344              		.global	chMtxTryLock
 345              		.thumb
 346              		.thumb_func
 347              		.type	chMtxTryLock, %function
 348              	chMtxTryLock:
 349              	.LFB10:
 350              		.loc 1 206 0
 351              		.cfi_startproc
 352              		@ args = 0, pretend = 0, frame = 0
 353              		@ frame_needed = 0, uses_anonymous_args = 0
 354              		@ link register save eliminated.
 355              	.LVL32:
 356              		.loc 1 206 0
 357 0000 0246     		mov	r2, r0
 358              	.LBB57:
 359              		.loc 1 209 0
 360 0002 2023     		movs	r3, #32
 361              		.syntax unified
 362              	@ 209 "../../os/kernel/src/chmtx.c" 1
 363 0004 83F31188 		msr     BASEPRI, r3
 364              	@ 0 "" 2
 365              	.LVL33:
 366              		.thumb
 367              		.syntax unified
 368              	.LBE57:
 369              	.LBB58:
 370              	.LBB59:
 371              		.loc 1 239 0
 372 0008 8368     		ldr	r3, [r0, #8]
 373              		.loc 1 240 0
 374 000a 0020     		movs	r0, #0
 375              	.LVL34:
 376              		.loc 1 239 0
 377 000c 1BB1     		cbz	r3, .L35
 378              	.LVL35:
 379              	.LBE59:
 380              	.LBE58:
 381              	.LBB63:
 382              		.loc 1 213 0
 383 000e 0023     		movs	r3, #0
 384              		.syntax unified
 385              	@ 213 "../../os/kernel/src/chmtx.c" 1
 386 0010 83F31188 		msr     BASEPRI, r3
 387              	@ 0 "" 2
 388              		.thumb
 389              		.syntax unified
 390              	.LBE63:
 391              		.loc 1 215 0
 392 0014 7047     		bx	lr
 393              	.LVL36:
 394              	.L35:
 395              	.LBB64:
 396              	.LBB62:
 397              	.LBB60:
 398              	.LBB61:
 399              		.loc 1 241 0
ARM GAS  /tmp/ccfc6Ncq.s 			page 8


 400 0016 054B     		ldr	r3, .L36
 401 0018 9B69     		ldr	r3, [r3, #24]
 402 001a 9360     		str	r3, [r2, #8]
 403              		.loc 1 242 0
 404 001c D96B     		ldr	r1, [r3, #60]
 405 001e D160     		str	r1, [r2, #12]
 406              		.loc 1 243 0
 407 0020 0120     		movs	r0, #1
 408 0022 DA63     		str	r2, [r3, #60]
 409              	.LVL37:
 410              	.LBE61:
 411              	.LBE60:
 412              	.LBE62:
 413              	.LBE64:
 414              	.LBB65:
 415              		.loc 1 213 0
 416 0024 0023     		movs	r3, #0
 417              		.syntax unified
 418              	@ 213 "../../os/kernel/src/chmtx.c" 1
 419 0026 83F31188 		msr     BASEPRI, r3
 420              	@ 0 "" 2
 421              		.thumb
 422              		.syntax unified
 423              	.LBE65:
 424              		.loc 1 215 0
 425 002a 7047     		bx	lr
 426              	.L37:
 427              		.align	2
 428              	.L36:
 429 002c 00000000 		.word	rlist
 430              		.cfi_endproc
 431              	.LFE10:
 432              		.size	chMtxTryLock, .-chMtxTryLock
 433              		.section	.text.chMtxTryLockS,"ax",%progbits
 434              		.align	2
 435              		.p2align 4,,15
 436              		.global	chMtxTryLockS
 437              		.thumb
 438              		.thumb_func
 439              		.type	chMtxTryLockS, %function
 440              	chMtxTryLockS:
 441              	.LFB11:
 442              		.loc 1 234 0
 443              		.cfi_startproc
 444              		@ args = 0, pretend = 0, frame = 0
 445              		@ frame_needed = 0, uses_anonymous_args = 0
 446              		@ link register save eliminated.
 447              	.LVL38:
 448              		.loc 1 239 0
 449 0000 8268     		ldr	r2, [r0, #8]
 450              		.loc 1 234 0
 451 0002 0346     		mov	r3, r0
 452              		.loc 1 239 0
 453 0004 0AB1     		cbz	r2, .L41
 454              		.loc 1 240 0
 455 0006 0020     		movs	r0, #0
 456              	.LVL39:
ARM GAS  /tmp/ccfc6Ncq.s 			page 9


 457              		.loc 1 245 0
 458 0008 7047     		bx	lr
 459              	.LVL40:
 460              	.L41:
 461              	.LBB68:
 462              	.LBB69:
 463              		.loc 1 241 0
 464 000a 044A     		ldr	r2, .L42
 465 000c 9269     		ldr	r2, [r2, #24]
 466 000e 8260     		str	r2, [r0, #8]
 467              		.loc 1 242 0
 468 0010 D16B     		ldr	r1, [r2, #60]
 469 0012 C160     		str	r1, [r0, #12]
 470              		.loc 1 243 0
 471 0014 0120     		movs	r0, #1
 472              	.LVL41:
 473 0016 D363     		str	r3, [r2, #60]
 474              	.LVL42:
 475 0018 7047     		bx	lr
 476              	.L43:
 477 001a 00BF     		.align	2
 478              	.L42:
 479 001c 00000000 		.word	rlist
 480              	.LBE69:
 481              	.LBE68:
 482              		.cfi_endproc
 483              	.LFE11:
 484              		.size	chMtxTryLockS, .-chMtxTryLockS
 485              		.section	.text.chMtxUnlock,"ax",%progbits
 486              		.align	2
 487              		.p2align 4,,15
 488              		.global	chMtxUnlock
 489              		.thumb
 490              		.thumb_func
 491              		.type	chMtxUnlock, %function
 492              	chMtxUnlock:
 493              	.LFB12:
 494              		.loc 1 257 0
 495              		.cfi_startproc
 496              		@ args = 0, pretend = 0, frame = 0
 497              		@ frame_needed = 0, uses_anonymous_args = 0
 498              		.loc 1 258 0
 499 0000 174A     		ldr	r2, .L55
 500              		.loc 1 257 0
 501 0002 38B5     		push	{r3, r4, r5, lr}
 502              		.cfi_def_cfa_offset 16
 503              		.cfi_offset 3, -16
 504              		.cfi_offset 4, -12
 505              		.cfi_offset 5, -8
 506              		.cfi_offset 14, -4
 507              		.loc 1 258 0
 508 0004 9069     		ldr	r0, [r2, #24]
 509              	.LVL43:
 510              	.LBB70:
 511              		.loc 1 261 0
 512 0006 2023     		movs	r3, #32
 513              		.syntax unified
ARM GAS  /tmp/ccfc6Ncq.s 			page 10


 514              	@ 261 "../../os/kernel/src/chmtx.c" 1
 515 0008 83F31188 		msr     BASEPRI, r3
 516              	@ 0 "" 2
 517              		.thumb
 518              		.syntax unified
 519              	.LBE70:
 520              		.loc 1 265 0
 521 000c C46B     		ldr	r4, [r0, #60]
 522              	.LVL44:
 523              		.loc 1 273 0
 524 000e 2568     		ldr	r5, [r4]
 525              		.loc 1 271 0
 526 0010 E368     		ldr	r3, [r4, #12]
 527 0012 C363     		str	r3, [r0, #60]
 528              		.loc 1 273 0
 529 0014 A542     		cmp	r5, r4
 530 0016 1CD0     		beq	.L45
 531              	.LBB71:
 532              		.loc 1 278 0
 533 0018 016C     		ldr	r1, [r0, #64]
 534              	.LVL45:
 535              		.loc 1 280 0
 536 001a 4BB1     		cbz	r3, .L46
 537              	.L48:
 538              		.loc 1 284 0
 539 001c 1A68     		ldr	r2, [r3]
 540 001e 9A42     		cmp	r2, r3
 541 0020 03D0     		beq	.L47
 542              		.loc 1 284 0 is_stmt 0 discriminator 1
 543 0022 9268     		ldr	r2, [r2, #8]
 544 0024 9142     		cmp	r1, r2
 545 0026 38BF     		it	cc
 546 0028 1146     		movcc	r1, r2
 547              	.LVL46:
 548              	.L47:
 549              		.loc 1 286 0 is_stmt 1
 550 002a DB68     		ldr	r3, [r3, #12]
 551              	.LVL47:
 552              		.loc 1 280 0
 553 002c 002B     		cmp	r3, #0
 554 002e F5D1     		bne	.L48
 555              	.L46:
 556              	.LBB72:
 557              	.LBB73:
 558              		.loc 2 62 0
 559 0030 2B68     		ldr	r3, [r5]
 560              	.LVL48:
 561              	.LBE73:
 562              	.LBE72:
 563              		.loc 1 295 0
 564 0032 EA6B     		ldr	r2, [r5, #60]
 565              		.loc 1 290 0
 566 0034 8160     		str	r1, [r0, #8]
 567              	.LVL49:
 568              	.LBB76:
 569              	.LBB74:
 570              		.loc 2 62 0
ARM GAS  /tmp/ccfc6Ncq.s 			page 11


 571 0036 2360     		str	r3, [r4]
 572              	.LBE74:
 573              	.LBE76:
 574              		.loc 1 297 0
 575 0038 2846     		mov	r0, r5
 576              	.LVL50:
 577              	.LBB77:
 578              	.LBB75:
 579              		.loc 2 62 0
 580 003a 5C60     		str	r4, [r3, #4]
 581              	.LVL51:
 582              	.LBE75:
 583              	.LBE77:
 584              		.loc 1 297 0
 585 003c 0021     		movs	r1, #0
 586              	.LVL52:
 587              		.loc 1 294 0
 588 003e A560     		str	r5, [r4, #8]
 589              		.loc 1 295 0
 590 0040 E260     		str	r2, [r4, #12]
 591              		.loc 1 296 0
 592 0042 EC63     		str	r4, [r5, #60]
 593              		.loc 1 297 0
 594 0044 FFF7FEFF 		bl	chSchWakeupS
 595              	.LVL53:
 596              	.LBE71:
 597              	.LBB78:
 598              		.loc 1 301 0
 599 0048 0023     		movs	r3, #0
 600              		.syntax unified
 601              	@ 301 "../../os/kernel/src/chmtx.c" 1
 602 004a 83F31188 		msr     BASEPRI, r3
 603              	@ 0 "" 2
 604              		.thumb
 605              		.syntax unified
 606              	.LBE78:
 607              		.loc 1 303 0
 608 004e 2046     		mov	r0, r4
 609 0050 38BD     		pop	{r3, r4, r5, pc}
 610              	.LVL54:
 611              	.L45:
 612              		.loc 1 300 0
 613 0052 0023     		movs	r3, #0
 614 0054 A360     		str	r3, [r4, #8]
 615              	.LBB79:
 616              		.loc 1 301 0
 617 0056 0023     		movs	r3, #0
 618              		.syntax unified
 619              	@ 301 "../../os/kernel/src/chmtx.c" 1
 620 0058 83F31188 		msr     BASEPRI, r3
 621              	@ 0 "" 2
 622              		.thumb
 623              		.syntax unified
 624              	.LBE79:
 625              		.loc 1 303 0
 626 005c 2046     		mov	r0, r4
 627              	.LVL55:
ARM GAS  /tmp/ccfc6Ncq.s 			page 12


 628 005e 38BD     		pop	{r3, r4, r5, pc}
 629              	.LVL56:
 630              	.L56:
 631              		.align	2
 632              	.L55:
 633 0060 00000000 		.word	rlist
 634              		.cfi_endproc
 635              	.LFE12:
 636              		.size	chMtxUnlock, .-chMtxUnlock
 637              		.section	.text.chMtxUnlockS,"ax",%progbits
 638              		.align	2
 639              		.p2align 4,,15
 640              		.global	chMtxUnlockS
 641              		.thumb
 642              		.thumb_func
 643              		.type	chMtxUnlockS, %function
 644              	chMtxUnlockS:
 645              	.LFB13:
 646              		.loc 1 317 0
 647              		.cfi_startproc
 648              		@ args = 0, pretend = 0, frame = 0
 649              		@ frame_needed = 0, uses_anonymous_args = 0
 650 0000 38B5     		push	{r3, r4, r5, lr}
 651              		.cfi_def_cfa_offset 16
 652              		.cfi_offset 3, -16
 653              		.cfi_offset 4, -12
 654              		.cfi_offset 5, -8
 655              		.cfi_offset 14, -4
 656              		.loc 1 318 0
 657 0002 124B     		ldr	r3, .L68
 658 0004 9869     		ldr	r0, [r3, #24]
 659              	.LVL57:
 660              		.loc 1 325 0
 661 0006 C46B     		ldr	r4, [r0, #60]
 662              	.LVL58:
 663              		.loc 1 334 0
 664 0008 2568     		ldr	r5, [r4]
 665              		.loc 1 332 0
 666 000a E368     		ldr	r3, [r4, #12]
 667 000c C363     		str	r3, [r0, #60]
 668              		.loc 1 334 0
 669 000e A542     		cmp	r5, r4
 670 0010 18D0     		beq	.L58
 671              	.LBB80:
 672              		.loc 1 339 0
 673 0012 016C     		ldr	r1, [r0, #64]
 674              	.LVL59:
 675              		.loc 1 341 0
 676 0014 4BB1     		cbz	r3, .L59
 677              	.L61:
 678              		.loc 1 345 0
 679 0016 1A68     		ldr	r2, [r3]
 680 0018 9A42     		cmp	r2, r3
 681 001a 03D0     		beq	.L60
 682              		.loc 1 345 0 is_stmt 0 discriminator 1
 683 001c 9268     		ldr	r2, [r2, #8]
 684 001e 9142     		cmp	r1, r2
ARM GAS  /tmp/ccfc6Ncq.s 			page 13


 685 0020 38BF     		it	cc
 686 0022 1146     		movcc	r1, r2
 687              	.LVL60:
 688              	.L60:
 689              		.loc 1 347 0 is_stmt 1
 690 0024 DB68     		ldr	r3, [r3, #12]
 691              	.LVL61:
 692              		.loc 1 341 0
 693 0026 002B     		cmp	r3, #0
 694 0028 F5D1     		bne	.L61
 695              	.L59:
 696              	.LBB81:
 697              	.LBB82:
 698              		.loc 2 62 0
 699 002a 2B68     		ldr	r3, [r5]
 700              	.LVL62:
 701              	.LBE82:
 702              	.LBE81:
 703              		.loc 1 354 0
 704 002c EA6B     		ldr	r2, [r5, #60]
 705              		.loc 1 349 0
 706 002e 8160     		str	r1, [r0, #8]
 707              	.LVL63:
 708              	.LBB85:
 709              	.LBB83:
 710              		.loc 2 62 0
 711 0030 2360     		str	r3, [r4]
 712              	.LBE83:
 713              	.LBE85:
 714              		.loc 1 356 0
 715 0032 2846     		mov	r0, r5
 716              	.LVL64:
 717              	.LBB86:
 718              	.LBB84:
 719              		.loc 2 62 0
 720 0034 5C60     		str	r4, [r3, #4]
 721              	.LVL65:
 722              	.LBE84:
 723              	.LBE86:
 724              		.loc 1 353 0
 725 0036 A560     		str	r5, [r4, #8]
 726              		.loc 1 354 0
 727 0038 E260     		str	r2, [r4, #12]
 728              		.loc 1 355 0
 729 003a EC63     		str	r4, [r5, #60]
 730              		.loc 1 356 0
 731 003c FFF7FEFF 		bl	chSchReadyI
 732              	.LVL66:
 733              	.LBE80:
 734              		.loc 1 361 0
 735 0040 2046     		mov	r0, r4
 736 0042 38BD     		pop	{r3, r4, r5, pc}
 737              	.LVL67:
 738              	.L58:
 739              		.loc 1 359 0
 740 0044 0023     		movs	r3, #0
 741 0046 A360     		str	r3, [r4, #8]
ARM GAS  /tmp/ccfc6Ncq.s 			page 14


 742              		.loc 1 361 0
 743 0048 2046     		mov	r0, r4
 744              	.LVL68:
 745 004a 38BD     		pop	{r3, r4, r5, pc}
 746              	.LVL69:
 747              	.L69:
 748              		.align	2
 749              	.L68:
 750 004c 00000000 		.word	rlist
 751              		.cfi_endproc
 752              	.LFE13:
 753              		.size	chMtxUnlockS, .-chMtxUnlockS
 754              		.section	.text.chMtxUnlockAll,"ax",%progbits
 755              		.align	2
 756              		.p2align 4,,15
 757              		.global	chMtxUnlockAll
 758              		.thumb
 759              		.thumb_func
 760              		.type	chMtxUnlockAll, %function
 761              	chMtxUnlockAll:
 762              	.LFB14:
 763              		.loc 1 374 0
 764              		.cfi_startproc
 765              		@ args = 0, pretend = 0, frame = 0
 766              		@ frame_needed = 0, uses_anonymous_args = 0
 767              		.loc 1 375 0
 768 0000 134A     		ldr	r2, .L82
 769              		.loc 1 374 0
 770 0002 70B5     		push	{r4, r5, r6, lr}
 771              		.cfi_def_cfa_offset 16
 772              		.cfi_offset 4, -16
 773              		.cfi_offset 5, -12
 774              		.cfi_offset 6, -8
 775              		.cfi_offset 14, -4
 776              	.LBB87:
 777              		.loc 1 377 0
 778 0004 2023     		movs	r3, #32
 779              	.LBE87:
 780              		.loc 1 375 0
 781 0006 9469     		ldr	r4, [r2, #24]
 782              	.LVL70:
 783              	.LBB88:
 784              		.loc 1 377 0
 785              		.syntax unified
 786              	@ 377 "../../os/kernel/src/chmtx.c" 1
 787 0008 83F31188 		msr     BASEPRI, r3
 788              	@ 0 "" 2
 789              		.thumb
 790              		.syntax unified
 791              	.LBE88:
 792              		.loc 1 378 0
 793 000c E36B     		ldr	r3, [r4, #60]
 794 000e D3B1     		cbz	r3, .L71
 795              	.LBB89:
 796              		.loc 1 390 0
 797 0010 0026     		movs	r6, #0
 798 0012 0AE0     		b	.L74
ARM GAS  /tmp/ccfc6Ncq.s 			page 15


 799              	.LVL71:
 800              	.L81:
 801              	.LBB90:
 802              	.LBB91:
 803              	.LBB92:
 804              		.loc 2 62 0
 805 0014 1168     		ldr	r1, [r2]
 806              	.LBE92:
 807              	.LBE91:
 808              		.loc 1 385 0
 809 0016 D56B     		ldr	r5, [r2, #60]
 810              	.LBB94:
 811              	.LBB93:
 812              		.loc 2 62 0
 813 0018 1960     		str	r1, [r3]
 814 001a 4B60     		str	r3, [r1, #4]
 815              	.LVL72:
 816              	.LBE93:
 817              	.LBE94:
 818              		.loc 1 384 0
 819 001c 9A60     		str	r2, [r3, #8]
 820              		.loc 1 385 0
 821 001e DD60     		str	r5, [r3, #12]
 822              		.loc 1 386 0
 823 0020 D363     		str	r3, [r2, #60]
 824              		.loc 1 387 0
 825 0022 FFF7FEFF 		bl	chSchReadyI
 826              	.LVL73:
 827              	.LBE90:
 828              	.LBE89:
 829              		.loc 1 391 0
 830 0026 E36B     		ldr	r3, [r4, #60]
 831 0028 4BB1     		cbz	r3, .L80
 832              	.L74:
 833              	.LVL74:
 834              	.LBB96:
 835              		.loc 1 382 0
 836 002a 1A68     		ldr	r2, [r3]
 837              	.LVL75:
 838              		.loc 1 381 0
 839 002c D968     		ldr	r1, [r3, #12]
 840 002e E163     		str	r1, [r4, #60]
 841              	.LVL76:
 842              		.loc 1 382 0
 843 0030 9A42     		cmp	r2, r3
 844              	.LBB95:
 845              		.loc 1 387 0
 846 0032 1046     		mov	r0, r2
 847              	.LBE95:
 848              		.loc 1 382 0
 849 0034 EED1     		bne	.L81
 850              		.loc 1 390 0
 851 0036 9E60     		str	r6, [r3, #8]
 852              	.LBE96:
 853              		.loc 1 391 0
 854 0038 E36B     		ldr	r3, [r4, #60]
 855              	.LVL77:
ARM GAS  /tmp/ccfc6Ncq.s 			page 16


 856 003a 002B     		cmp	r3, #0
 857 003c F5D1     		bne	.L74
 858              	.LVL78:
 859              	.L80:
 860              		.loc 1 392 0
 861 003e 236C     		ldr	r3, [r4, #64]
 862 0040 A360     		str	r3, [r4, #8]
 863              		.loc 1 393 0
 864 0042 FFF7FEFF 		bl	chSchRescheduleS
 865              	.LVL79:
 866              	.L71:
 867              	.LBB97:
 868              		.loc 1 395 0
 869 0046 0023     		movs	r3, #0
 870              		.syntax unified
 871              	@ 395 "../../os/kernel/src/chmtx.c" 1
 872 0048 83F31188 		msr     BASEPRI, r3
 873              	@ 0 "" 2
 874              		.thumb
 875              		.syntax unified
 876 004c 70BD     		pop	{r4, r5, r6, pc}
 877              	.LVL80:
 878              	.L83:
 879 004e 00BF     		.align	2
 880              	.L82:
 881 0050 00000000 		.word	rlist
 882              	.LBE97:
 883              		.cfi_endproc
 884              	.LFE14:
 885              		.size	chMtxUnlockAll, .-chMtxUnlockAll
 886              		.text
 887              	.Letext0:
 888              		.file 3 "/home/lithium/Descargas/gcc-arm-none-eabi-5_3-2016q1/arm-none-eabi/include/machine/_defau
 889              		.file 4 "/home/lithium/Descargas/gcc-arm-none-eabi-5_3-2016q1/arm-none-eabi/include/sys/_stdint.h"
 890              		.file 5 "../../os/ports/GCC/ARMCMx/chtypes.h"
 891              		.file 6 "../../os/kernel/include/chlists.h"
 892              		.file 7 "../../os/kernel/include/chthreads.h"
 893              		.file 8 "../../os/ports/GCC/ARMCMx/chcore_v7m.h"
 894              		.file 9 "../../os/kernel/include/chschd.h"
 895              		.file 10 "../../os/kernel/include/chmtx.h"
 896              		.section	.debug_info,"",%progbits
 897              	.Ldebug_info0:
 898 0000 DA090000 		.4byte	0x9da
 899 0004 0400     		.2byte	0x4
 900 0006 00000000 		.4byte	.Ldebug_abbrev0
 901 000a 04       		.byte	0x4
 902 000b 01       		.uleb128 0x1
 903 000c 63020000 		.4byte	.LASF82
 904 0010 0C       		.byte	0xc
 905 0011 A1030000 		.4byte	.LASF83
 906 0015 03020000 		.4byte	.LASF84
 907 0019 18010000 		.4byte	.Ldebug_ranges0+0x118
 908 001d 00000000 		.4byte	0
 909 0021 00000000 		.4byte	.Ldebug_line0
 910 0025 02       		.uleb128 0x2
 911 0026 04       		.byte	0x4
 912 0027 05       		.byte	0x5
ARM GAS  /tmp/ccfc6Ncq.s 			page 17


 913 0028 696E7400 		.ascii	"int\000"
 914 002c 03       		.uleb128 0x3
 915 002d 04       		.byte	0x4
 916 002e 07       		.byte	0x7
 917 002f EA000000 		.4byte	.LASF0
 918 0033 03       		.uleb128 0x3
 919 0034 08       		.byte	0x8
 920 0035 05       		.byte	0x5
 921 0036 4A000000 		.4byte	.LASF1
 922 003a 03       		.uleb128 0x3
 923 003b 08       		.byte	0x8
 924 003c 04       		.byte	0x4
 925 003d 85010000 		.4byte	.LASF2
 926 0041 03       		.uleb128 0x3
 927 0042 01       		.byte	0x1
 928 0043 06       		.byte	0x6
 929 0044 58000000 		.4byte	.LASF3
 930 0048 04       		.uleb128 0x4
 931 0049 0D000000 		.4byte	.LASF7
 932 004d 03       		.byte	0x3
 933 004e 1D       		.byte	0x1d
 934 004f 53000000 		.4byte	0x53
 935 0053 03       		.uleb128 0x3
 936 0054 01       		.byte	0x1
 937 0055 08       		.byte	0x8
 938 0056 F5010000 		.4byte	.LASF4
 939 005a 03       		.uleb128 0x3
 940 005b 02       		.byte	0x2
 941 005c 05       		.byte	0x5
 942 005d 40020000 		.4byte	.LASF5
 943 0061 03       		.uleb128 0x3
 944 0062 02       		.byte	0x2
 945 0063 07       		.byte	0x7
 946 0064 11010000 		.4byte	.LASF6
 947 0068 04       		.uleb128 0x4
 948 0069 D9030000 		.4byte	.LASF8
 949 006d 03       		.byte	0x3
 950 006e 3F       		.byte	0x3f
 951 006f 73000000 		.4byte	0x73
 952 0073 03       		.uleb128 0x3
 953 0074 04       		.byte	0x4
 954 0075 05       		.byte	0x5
 955 0076 85000000 		.4byte	.LASF9
 956 007a 04       		.uleb128 0x4
 957 007b C9000000 		.4byte	.LASF10
 958 007f 03       		.byte	0x3
 959 0080 41       		.byte	0x41
 960 0081 85000000 		.4byte	0x85
 961 0085 03       		.uleb128 0x3
 962 0086 04       		.byte	0x4
 963 0087 07       		.byte	0x7
 964 0088 F7000000 		.4byte	.LASF11
 965 008c 03       		.uleb128 0x3
 966 008d 08       		.byte	0x8
 967 008e 07       		.byte	0x7
 968 008f 17000000 		.4byte	.LASF12
 969 0093 04       		.uleb128 0x4
ARM GAS  /tmp/ccfc6Ncq.s 			page 18


 970 0094 36040000 		.4byte	.LASF13
 971 0098 04       		.byte	0x4
 972 0099 14       		.byte	0x14
 973 009a 48000000 		.4byte	0x48
 974 009e 04       		.uleb128 0x4
 975 009f ED010000 		.4byte	.LASF14
 976 00a3 04       		.byte	0x4
 977 00a4 1F       		.byte	0x1f
 978 00a5 68000000 		.4byte	0x68
 979 00a9 04       		.uleb128 0x4
 980 00aa 73030000 		.4byte	.LASF15
 981 00ae 04       		.byte	0x4
 982 00af 20       		.byte	0x20
 983 00b0 7A000000 		.4byte	0x7a
 984 00b4 04       		.uleb128 0x4
 985 00b5 6C000000 		.4byte	.LASF16
 986 00b9 05       		.byte	0x5
 987 00ba 2B       		.byte	0x2b
 988 00bb BF000000 		.4byte	0xbf
 989 00bf 03       		.uleb128 0x3
 990 00c0 01       		.byte	0x1
 991 00c1 02       		.byte	0x2
 992 00c2 E7010000 		.4byte	.LASF17
 993 00c6 04       		.uleb128 0x4
 994 00c7 49010000 		.4byte	.LASF18
 995 00cb 05       		.byte	0x5
 996 00cc 2C       		.byte	0x2c
 997 00cd 93000000 		.4byte	0x93
 998 00d1 04       		.uleb128 0x4
 999 00d2 8E000000 		.4byte	.LASF19
 1000 00d6 05       		.byte	0x5
 1001 00d7 2D       		.byte	0x2d
 1002 00d8 93000000 		.4byte	0x93
 1003 00dc 04       		.uleb128 0x4
 1004 00dd D0010000 		.4byte	.LASF20
 1005 00e1 05       		.byte	0x5
 1006 00e2 2E       		.byte	0x2e
 1007 00e3 93000000 		.4byte	0x93
 1008 00e7 04       		.uleb128 0x4
 1009 00e8 7B000000 		.4byte	.LASF21
 1010 00ec 05       		.byte	0x5
 1011 00ed 2F       		.byte	0x2f
 1012 00ee 93000000 		.4byte	0x93
 1013 00f2 04       		.uleb128 0x4
 1014 00f3 DF010000 		.4byte	.LASF22
 1015 00f7 05       		.byte	0x5
 1016 00f8 30       		.byte	0x30
 1017 00f9 A9000000 		.4byte	0xa9
 1018 00fd 04       		.uleb128 0x4
 1019 00fe 24010000 		.4byte	.LASF23
 1020 0102 05       		.byte	0x5
 1021 0103 31       		.byte	0x31
 1022 0104 9E000000 		.4byte	0x9e
 1023 0108 04       		.uleb128 0x4
 1024 0109 5D010000 		.4byte	.LASF24
 1025 010d 05       		.byte	0x5
 1026 010e 33       		.byte	0x33
ARM GAS  /tmp/ccfc6Ncq.s 			page 19


 1027 010f A9000000 		.4byte	0xa9
 1028 0113 04       		.uleb128 0x4
 1029 0114 C4030000 		.4byte	.LASF25
 1030 0118 05       		.byte	0x5
 1031 0119 35       		.byte	0x35
 1032 011a A9000000 		.4byte	0xa9
 1033 011e 04       		.uleb128 0x4
 1034 011f 53030000 		.4byte	.LASF26
 1035 0123 06       		.byte	0x6
 1036 0124 2A       		.byte	0x2a
 1037 0125 29010000 		.4byte	0x129
 1038 0129 05       		.uleb128 0x5
 1039 012a 53030000 		.4byte	.LASF26
 1040 012e 48       		.byte	0x48
 1041 012f 07       		.byte	0x7
 1042 0130 5E       		.byte	0x5e
 1043 0131 26020000 		.4byte	0x226
 1044 0135 06       		.uleb128 0x6
 1045 0136 44030000 		.4byte	.LASF27
 1046 013a 07       		.byte	0x7
 1047 013b 5F       		.byte	0x5f
 1048 013c 47020000 		.4byte	0x247
 1049 0140 00       		.byte	0
 1050 0141 06       		.uleb128 0x6
 1051 0142 D8010000 		.4byte	.LASF28
 1052 0146 07       		.byte	0x7
 1053 0147 61       		.byte	0x61
 1054 0148 47020000 		.4byte	0x247
 1055 014c 04       		.byte	0x4
 1056 014d 06       		.uleb128 0x6
 1057 014e 43000000 		.4byte	.LASF29
 1058 0152 07       		.byte	0x7
 1059 0153 63       		.byte	0x63
 1060 0154 F2000000 		.4byte	0xf2
 1061 0158 08       		.byte	0x8
 1062 0159 06       		.uleb128 0x6
 1063 015a 54040000 		.4byte	.LASF30
 1064 015e 07       		.byte	0x7
 1065 015f 64       		.byte	0x64
 1066 0160 01030000 		.4byte	0x301
 1067 0164 0C       		.byte	0xc
 1068 0165 06       		.uleb128 0x6
 1069 0166 B0000000 		.4byte	.LASF31
 1070 016a 07       		.byte	0x7
 1071 016b 66       		.byte	0x66
 1072 016c 47020000 		.4byte	0x247
 1073 0170 10       		.byte	0x10
 1074 0171 06       		.uleb128 0x6
 1075 0172 9B010000 		.4byte	.LASF32
 1076 0176 07       		.byte	0x7
 1077 0177 67       		.byte	0x67
 1078 0178 47020000 		.4byte	0x247
 1079 017c 14       		.byte	0x14
 1080 017d 06       		.uleb128 0x6
 1081 017e 45040000 		.4byte	.LASF33
 1082 0182 07       		.byte	0x7
 1083 0183 6E       		.byte	0x6e
ARM GAS  /tmp/ccfc6Ncq.s 			page 20


 1084 0184 01040000 		.4byte	0x401
 1085 0188 18       		.byte	0x18
 1086 0189 06       		.uleb128 0x6
 1087 018a 4A020000 		.4byte	.LASF34
 1088 018e 07       		.byte	0x7
 1089 018f 79       		.byte	0x79
 1090 0190 D1000000 		.4byte	0xd1
 1091 0194 1C       		.byte	0x1c
 1092 0195 06       		.uleb128 0x6
 1093 0196 4B030000 		.4byte	.LASF35
 1094 019a 07       		.byte	0x7
 1095 019b 7D       		.byte	0x7d
 1096 019c C6000000 		.4byte	0xc6
 1097 01a0 1D       		.byte	0x1d
 1098 01a1 06       		.uleb128 0x6
 1099 01a2 1F040000 		.4byte	.LASF36
 1100 01a6 07       		.byte	0x7
 1101 01a7 82       		.byte	0x82
 1102 01a8 DC000000 		.4byte	0xdc
 1103 01ac 1E       		.byte	0x1e
 1104 01ad 06       		.uleb128 0x6
 1105 01ae 52020000 		.4byte	.LASF37
 1106 01b2 07       		.byte	0x7
 1107 01b3 88       		.byte	0x88
 1108 01b4 E7000000 		.4byte	0xe7
 1109 01b8 1F       		.byte	0x1f
 1110 01b9 06       		.uleb128 0x6
 1111 01ba EF030000 		.4byte	.LASF38
 1112 01be 07       		.byte	0x7
 1113 01bf 8F       		.byte	0x8f
 1114 01c0 29030000 		.4byte	0x329
 1115 01c4 20       		.byte	0x20
 1116 01c5 07       		.uleb128 0x7
 1117 01c6 705F7500 		.ascii	"p_u\000"
 1118 01ca 07       		.byte	0x7
 1119 01cb B4       		.byte	0xb4
 1120 01cc CC030000 		.4byte	0x3cc
 1121 01d0 24       		.byte	0x24
 1122 01d1 06       		.uleb128 0x6
 1123 01d2 5A040000 		.4byte	.LASF39
 1124 01d6 07       		.byte	0x7
 1125 01d7 B9       		.byte	0xb9
 1126 01d8 6D020000 		.4byte	0x26d
 1127 01dc 28       		.byte	0x28
 1128 01dd 06       		.uleb128 0x6
 1129 01de FD030000 		.4byte	.LASF40
 1130 01e2 07       		.byte	0x7
 1131 01e3 BF       		.byte	0xbf
 1132 01e4 4D020000 		.4byte	0x24d
 1133 01e8 2C       		.byte	0x2c
 1134 01e9 06       		.uleb128 0x6
 1135 01ea 00000000 		.4byte	.LASF41
 1136 01ee 07       		.byte	0x7
 1137 01ef C3       		.byte	0xc3
 1138 01f0 FD000000 		.4byte	0xfd
 1139 01f4 34       		.byte	0x34
 1140 01f5 06       		.uleb128 0x6
ARM GAS  /tmp/ccfc6Ncq.s 			page 21


 1141 01f6 68030000 		.4byte	.LASF42
 1142 01fa 07       		.byte	0x7
 1143 01fb C9       		.byte	0xc9
 1144 01fc 08010000 		.4byte	0x108
 1145 0200 38       		.byte	0x38
 1146 0201 06       		.uleb128 0x6
 1147 0202 36020000 		.4byte	.LASF43
 1148 0206 07       		.byte	0x7
 1149 0207 D0       		.byte	0xd0
 1150 0208 13040000 		.4byte	0x413
 1151 020c 3C       		.byte	0x3c
 1152 020d 06       		.uleb128 0x6
 1153 020e CE030000 		.4byte	.LASF44
 1154 0212 07       		.byte	0x7
 1155 0213 D4       		.byte	0xd4
 1156 0214 F2000000 		.4byte	0xf2
 1157 0218 40       		.byte	0x40
 1158 0219 06       		.uleb128 0x6
 1159 021a 64000000 		.4byte	.LASF45
 1160 021e 07       		.byte	0x7
 1161 021f DA       		.byte	0xda
 1162 0220 83020000 		.4byte	0x283
 1163 0224 44       		.byte	0x44
 1164 0225 00       		.byte	0
 1165 0226 08       		.uleb128 0x8
 1166 0227 08       		.byte	0x8
 1167 0228 06       		.byte	0x6
 1168 0229 61       		.byte	0x61
 1169 022a 47020000 		.4byte	0x247
 1170 022e 06       		.uleb128 0x6
 1171 022f 44030000 		.4byte	.LASF27
 1172 0233 06       		.byte	0x6
 1173 0234 62       		.byte	0x62
 1174 0235 47020000 		.4byte	0x247
 1175 0239 00       		.byte	0
 1176 023a 06       		.uleb128 0x6
 1177 023b D8010000 		.4byte	.LASF28
 1178 023f 06       		.byte	0x6
 1179 0240 64       		.byte	0x64
 1180 0241 47020000 		.4byte	0x247
 1181 0245 04       		.byte	0x4
 1182 0246 00       		.byte	0
 1183 0247 09       		.uleb128 0x9
 1184 0248 04       		.byte	0x4
 1185 0249 1E010000 		.4byte	0x11e
 1186 024d 04       		.uleb128 0x4
 1187 024e A9010000 		.4byte	.LASF46
 1188 0252 06       		.byte	0x6
 1189 0253 66       		.byte	0x66
 1190 0254 26020000 		.4byte	0x226
 1191 0258 08       		.uleb128 0x8
 1192 0259 04       		.byte	0x4
 1193 025a 06       		.byte	0x6
 1194 025b 6B       		.byte	0x6b
 1195 025c 6D020000 		.4byte	0x26d
 1196 0260 06       		.uleb128 0x6
 1197 0261 44030000 		.4byte	.LASF27
ARM GAS  /tmp/ccfc6Ncq.s 			page 22


 1198 0265 06       		.byte	0x6
 1199 0266 6D       		.byte	0x6d
 1200 0267 47020000 		.4byte	0x247
 1201 026b 00       		.byte	0
 1202 026c 00       		.byte	0
 1203 026d 04       		.uleb128 0x4
 1204 026e 51010000 		.4byte	.LASF47
 1205 0272 06       		.byte	0x6
 1206 0273 70       		.byte	0x70
 1207 0274 58020000 		.4byte	0x258
 1208 0278 04       		.uleb128 0x4
 1209 0279 D4000000 		.4byte	.LASF48
 1210 027d 08       		.byte	0x8
 1211 027e E5       		.byte	0xe5
 1212 027f 83020000 		.4byte	0x283
 1213 0283 0A       		.uleb128 0xa
 1214 0284 04       		.byte	0x4
 1215 0285 0B       		.uleb128 0xb
 1216 0286 F6030000 		.4byte	.LASF49
 1217 028a 24       		.byte	0x24
 1218 028b 08       		.byte	0x8
 1219 028c 0C01     		.2byte	0x10c
 1220 028e 01030000 		.4byte	0x301
 1221 0292 0C       		.uleb128 0xc
 1222 0293 723400   		.ascii	"r4\000"
 1223 0296 08       		.byte	0x8
 1224 0297 1F01     		.2byte	0x11f
 1225 0299 78020000 		.4byte	0x278
 1226 029d 00       		.byte	0
 1227 029e 0C       		.uleb128 0xc
 1228 029f 723500   		.ascii	"r5\000"
 1229 02a2 08       		.byte	0x8
 1230 02a3 2001     		.2byte	0x120
 1231 02a5 78020000 		.4byte	0x278
 1232 02a9 04       		.byte	0x4
 1233 02aa 0C       		.uleb128 0xc
 1234 02ab 723600   		.ascii	"r6\000"
 1235 02ae 08       		.byte	0x8
 1236 02af 2101     		.2byte	0x121
 1237 02b1 78020000 		.4byte	0x278
 1238 02b5 08       		.byte	0x8
 1239 02b6 0C       		.uleb128 0xc
 1240 02b7 723700   		.ascii	"r7\000"
 1241 02ba 08       		.byte	0x8
 1242 02bb 2201     		.2byte	0x122
 1243 02bd 78020000 		.4byte	0x278
 1244 02c1 0C       		.byte	0xc
 1245 02c2 0C       		.uleb128 0xc
 1246 02c3 723800   		.ascii	"r8\000"
 1247 02c6 08       		.byte	0x8
 1248 02c7 2301     		.2byte	0x123
 1249 02c9 78020000 		.4byte	0x278
 1250 02cd 10       		.byte	0x10
 1251 02ce 0C       		.uleb128 0xc
 1252 02cf 723900   		.ascii	"r9\000"
 1253 02d2 08       		.byte	0x8
 1254 02d3 2401     		.2byte	0x124
ARM GAS  /tmp/ccfc6Ncq.s 			page 23


 1255 02d5 78020000 		.4byte	0x278
 1256 02d9 14       		.byte	0x14
 1257 02da 0C       		.uleb128 0xc
 1258 02db 72313000 		.ascii	"r10\000"
 1259 02df 08       		.byte	0x8
 1260 02e0 2501     		.2byte	0x125
 1261 02e2 78020000 		.4byte	0x278
 1262 02e6 18       		.byte	0x18
 1263 02e7 0C       		.uleb128 0xc
 1264 02e8 72313100 		.ascii	"r11\000"
 1265 02ec 08       		.byte	0x8
 1266 02ed 2601     		.2byte	0x126
 1267 02ef 78020000 		.4byte	0x278
 1268 02f3 1C       		.byte	0x1c
 1269 02f4 0C       		.uleb128 0xc
 1270 02f5 6C7200   		.ascii	"lr\000"
 1271 02f8 08       		.byte	0x8
 1272 02f9 2701     		.2byte	0x127
 1273 02fb 78020000 		.4byte	0x278
 1274 02ff 20       		.byte	0x20
 1275 0300 00       		.byte	0
 1276 0301 0B       		.uleb128 0xb
 1277 0302 09010000 		.4byte	.LASF50
 1278 0306 04       		.byte	0x4
 1279 0307 08       		.byte	0x8
 1280 0308 3101     		.2byte	0x131
 1281 030a 1C030000 		.4byte	0x31c
 1282 030e 0C       		.uleb128 0xc
 1283 030f 72313300 		.ascii	"r13\000"
 1284 0313 08       		.byte	0x8
 1285 0314 3201     		.2byte	0x132
 1286 0316 1C030000 		.4byte	0x31c
 1287 031a 00       		.byte	0
 1288 031b 00       		.byte	0
 1289 031c 09       		.uleb128 0x9
 1290 031d 04       		.byte	0x4
 1291 031e 85020000 		.4byte	0x285
 1292 0322 03       		.uleb128 0x3
 1293 0323 04       		.byte	0x4
 1294 0324 07       		.byte	0x7
 1295 0325 7C010000 		.4byte	.LASF51
 1296 0329 0D       		.uleb128 0xd
 1297 032a 13010000 		.4byte	0x113
 1298 032e 08       		.uleb128 0x8
 1299 032f 1C       		.byte	0x1c
 1300 0330 09       		.byte	0x9
 1301 0331 5E       		.byte	0x5e
 1302 0332 7F030000 		.4byte	0x37f
 1303 0336 06       		.uleb128 0x6
 1304 0337 7C030000 		.4byte	.LASF52
 1305 033b 09       		.byte	0x9
 1306 033c 5F       		.byte	0x5f
 1307 033d 4D020000 		.4byte	0x24d
 1308 0341 00       		.byte	0
 1309 0342 06       		.uleb128 0x6
 1310 0343 5C020000 		.4byte	.LASF53
 1311 0347 09       		.byte	0x9
ARM GAS  /tmp/ccfc6Ncq.s 			page 24


 1312 0348 60       		.byte	0x60
 1313 0349 F2000000 		.4byte	0xf2
 1314 034d 08       		.byte	0x8
 1315 034e 06       		.uleb128 0x6
 1316 034f A3010000 		.4byte	.LASF54
 1317 0353 09       		.byte	0x9
 1318 0354 62       		.byte	0x62
 1319 0355 01030000 		.4byte	0x301
 1320 0359 0C       		.byte	0xc
 1321 035a 06       		.uleb128 0x6
 1322 035b 2A010000 		.4byte	.LASF55
 1323 035f 09       		.byte	0x9
 1324 0360 65       		.byte	0x65
 1325 0361 47020000 		.4byte	0x247
 1326 0365 10       		.byte	0x10
 1327 0366 06       		.uleb128 0x6
 1328 0367 C8010000 		.4byte	.LASF56
 1329 036b 09       		.byte	0x9
 1330 036c 66       		.byte	0x66
 1331 036d 47020000 		.4byte	0x247
 1332 0371 14       		.byte	0x14
 1333 0372 06       		.uleb128 0x6
 1334 0373 BE010000 		.4byte	.LASF57
 1335 0377 09       		.byte	0x9
 1336 0378 69       		.byte	0x69
 1337 0379 47020000 		.4byte	0x247
 1338 037d 18       		.byte	0x18
 1339 037e 00       		.byte	0
 1340 037f 04       		.uleb128 0x4
 1341 0380 26040000 		.4byte	.LASF58
 1342 0384 09       		.byte	0x9
 1343 0385 6B       		.byte	0x6b
 1344 0386 2E030000 		.4byte	0x32e
 1345 038a 05       		.uleb128 0x5
 1346 038b 76010000 		.4byte	.LASF59
 1347 038f 10       		.byte	0x10
 1348 0390 0A       		.byte	0xa
 1349 0391 2C       		.byte	0x2c
 1350 0392 BB030000 		.4byte	0x3bb
 1351 0396 06       		.uleb128 0x6
 1352 0397 73000000 		.4byte	.LASF60
 1353 039b 0A       		.byte	0xa
 1354 039c 2D       		.byte	0x2d
 1355 039d 4D020000 		.4byte	0x24d
 1356 03a1 00       		.byte	0
 1357 03a2 06       		.uleb128 0x6
 1358 03a3 4C040000 		.4byte	.LASF61
 1359 03a7 0A       		.byte	0xa
 1360 03a8 2F       		.byte	0x2f
 1361 03a9 47020000 		.4byte	0x247
 1362 03ad 08       		.byte	0x8
 1363 03ae 06       		.uleb128 0x6
 1364 03af BD030000 		.4byte	.LASF62
 1365 03b3 0A       		.byte	0xa
 1366 03b4 31       		.byte	0x31
 1367 03b5 BB030000 		.4byte	0x3bb
 1368 03b9 0C       		.byte	0xc
ARM GAS  /tmp/ccfc6Ncq.s 			page 25


 1369 03ba 00       		.byte	0
 1370 03bb 09       		.uleb128 0x9
 1371 03bc 04       		.byte	0x4
 1372 03bd 8A030000 		.4byte	0x38a
 1373 03c1 04       		.uleb128 0x4
 1374 03c2 76010000 		.4byte	.LASF59
 1375 03c6 0A       		.byte	0xa
 1376 03c7 33       		.byte	0x33
 1377 03c8 8A030000 		.4byte	0x38a
 1378 03cc 0E       		.uleb128 0xe
 1379 03cd 04       		.byte	0x4
 1380 03ce 07       		.byte	0x7
 1381 03cf 96       		.byte	0x96
 1382 03d0 01040000 		.4byte	0x401
 1383 03d4 0F       		.uleb128 0xf
 1384 03d5 06000000 		.4byte	.LASF63
 1385 03d9 07       		.byte	0x7
 1386 03da 9D       		.byte	0x9d
 1387 03db FD000000 		.4byte	0xfd
 1388 03df 0F       		.uleb128 0xf
 1389 03e0 2E000000 		.4byte	.LASF64
 1390 03e4 07       		.byte	0x7
 1391 03e5 A4       		.byte	0xa4
 1392 03e6 FD000000 		.4byte	0xfd
 1393 03ea 0F       		.uleb128 0xf
 1394 03eb 3E040000 		.4byte	.LASF65
 1395 03ef 07       		.byte	0x7
 1396 03f0 AB       		.byte	0xab
 1397 03f1 83020000 		.4byte	0x283
 1398 03f5 0F       		.uleb128 0xf
 1399 03f6 3D030000 		.4byte	.LASF66
 1400 03fa 07       		.byte	0x7
 1401 03fb B2       		.byte	0xb2
 1402 03fc 08010000 		.4byte	0x108
 1403 0400 00       		.byte	0
 1404 0401 09       		.uleb128 0x9
 1405 0402 04       		.byte	0x4
 1406 0403 0E040000 		.4byte	0x40e
 1407 0407 03       		.uleb128 0x3
 1408 0408 01       		.byte	0x1
 1409 0409 08       		.byte	0x8
 1410 040a 90030000 		.4byte	.LASF67
 1411 040e 10       		.uleb128 0x10
 1412 040f 07040000 		.4byte	0x407
 1413 0413 09       		.uleb128 0x9
 1414 0414 04       		.byte	0x4
 1415 0415 C1030000 		.4byte	0x3c1
 1416 0419 11       		.uleb128 0x11
 1417 041a E3030000 		.4byte	.LASF85
 1418 041e 02       		.byte	0x2
 1419 041f 29       		.byte	0x29
 1420 0420 03       		.byte	0x3
 1421 0421 45040000 		.4byte	0x445
 1422 0425 12       		.uleb128 0x12
 1423 0426 747000   		.ascii	"tp\000"
 1424 0429 02       		.byte	0x2
 1425 042a 29       		.byte	0x29
ARM GAS  /tmp/ccfc6Ncq.s 			page 26


 1426 042b 47020000 		.4byte	0x247
 1427 042f 12       		.uleb128 0x12
 1428 0430 74717000 		.ascii	"tqp\000"
 1429 0434 02       		.byte	0x2
 1430 0435 29       		.byte	0x29
 1431 0436 45040000 		.4byte	0x445
 1432 043a 13       		.uleb128 0x13
 1433 043b 637000   		.ascii	"cp\000"
 1434 043e 02       		.byte	0x2
 1435 043f 2B       		.byte	0x2b
 1436 0440 47020000 		.4byte	0x247
 1437 0444 00       		.byte	0
 1438 0445 09       		.uleb128 0x9
 1439 0446 04       		.byte	0x4
 1440 0447 4D020000 		.4byte	0x24d
 1441 044b 14       		.uleb128 0x14
 1442 044c B6010000 		.4byte	.LASF68
 1443 0450 02       		.byte	0x2
 1444 0451 49       		.byte	0x49
 1445 0452 47020000 		.4byte	0x247
 1446 0456 03       		.byte	0x3
 1447 0457 66040000 		.4byte	0x466
 1448 045b 12       		.uleb128 0x12
 1449 045c 747000   		.ascii	"tp\000"
 1450 045f 02       		.byte	0x2
 1451 0460 49       		.byte	0x49
 1452 0461 47020000 		.4byte	0x247
 1453 0465 00       		.byte	0
 1454 0466 15       		.uleb128 0x15
 1455 0467 A2000000 		.4byte	.LASF86
 1456 046b 01       		.byte	0x1
 1457 046c EA       		.byte	0xea
 1458 046d B4000000 		.4byte	0xb4
 1459 0471 01       		.byte	0x1
 1460 0472 81040000 		.4byte	0x481
 1461 0476 12       		.uleb128 0x12
 1462 0477 6D7000   		.ascii	"mp\000"
 1463 047a 01       		.byte	0x1
 1464 047b EA       		.byte	0xea
 1465 047c 13040000 		.4byte	0x413
 1466 0480 00       		.byte	0
 1467 0481 14       		.uleb128 0x14
 1468 0482 95030000 		.4byte	.LASF69
 1469 0486 02       		.byte	0x2
 1470 0487 3B       		.byte	0x3b
 1471 0488 47020000 		.4byte	0x247
 1472 048c 03       		.byte	0x3
 1473 048d A7040000 		.4byte	0x4a7
 1474 0491 12       		.uleb128 0x12
 1475 0492 74717000 		.ascii	"tqp\000"
 1476 0496 02       		.byte	0x2
 1477 0497 3B       		.byte	0x3b
 1478 0498 45040000 		.4byte	0x445
 1479 049c 13       		.uleb128 0x13
 1480 049d 747000   		.ascii	"tp\000"
 1481 04a0 02       		.byte	0x2
 1482 04a1 3C       		.byte	0x3c
ARM GAS  /tmp/ccfc6Ncq.s 			page 27


 1483 04a2 47020000 		.4byte	0x247
 1484 04a6 00       		.byte	0
 1485 04a7 16       		.uleb128 0x16
 1486 04a8 15040000 		.4byte	.LASF70
 1487 04ac 01       		.byte	0x1
 1488 04ad 56       		.byte	0x56
 1489 04ae 00000000 		.4byte	.LFB7
 1490 04b2 0A000000 		.4byte	.LFE7-.LFB7
 1491 04b6 01       		.uleb128 0x1
 1492 04b7 9C       		.byte	0x9c
 1493 04b8 C9040000 		.4byte	0x4c9
 1494 04bc 17       		.uleb128 0x17
 1495 04bd 6D7000   		.ascii	"mp\000"
 1496 04c0 01       		.byte	0x1
 1497 04c1 56       		.byte	0x56
 1498 04c2 13040000 		.4byte	0x413
 1499 04c6 01       		.uleb128 0x1
 1500 04c7 50       		.byte	0x50
 1501 04c8 00       		.byte	0
 1502 04c9 16       		.uleb128 0x16
 1503 04ca 97000000 		.4byte	.LASF71
 1504 04ce 01       		.byte	0x1
 1505 04cf 79       		.byte	0x79
 1506 04d0 00000000 		.4byte	.LFB9
 1507 04d4 C8000000 		.4byte	.LFE9-.LFB9
 1508 04d8 01       		.uleb128 0x1
 1509 04d9 9C       		.byte	0x9c
 1510 04da 26060000 		.4byte	0x626
 1511 04de 18       		.uleb128 0x18
 1512 04df 6D7000   		.ascii	"mp\000"
 1513 04e2 01       		.byte	0x1
 1514 04e3 79       		.byte	0x79
 1515 04e4 13040000 		.4byte	0x413
 1516 04e8 00000000 		.4byte	.LLST0
 1517 04ec 19       		.uleb128 0x19
 1518 04ed 63747000 		.ascii	"ctp\000"
 1519 04f1 01       		.byte	0x1
 1520 04f2 7A       		.byte	0x7a
 1521 04f3 47020000 		.4byte	0x247
 1522 04f7 42000000 		.4byte	.LLST1
 1523 04fb 1A       		.uleb128 0x1a
 1524 04fc 00000000 		.4byte	.Ldebug_ranges0+0
 1525 0500 19       		.uleb128 0x19
 1526 0501 747000   		.ascii	"tp\000"
 1527 0504 01       		.byte	0x1
 1528 0505 84       		.byte	0x84
 1529 0506 47020000 		.4byte	0x247
 1530 050a 60000000 		.4byte	.LLST2
 1531 050e 1B       		.uleb128 0x1b
 1532 050f 19040000 		.4byte	0x419
 1533 0513 24000000 		.4byte	.LBB34
 1534 0517 1C000000 		.4byte	.LBE34-.LBB34
 1535 051b 01       		.byte	0x1
 1536 051c AD       		.byte	0xad
 1537 051d 47050000 		.4byte	0x547
 1538 0521 1C       		.uleb128 0x1c
 1539 0522 2F040000 		.4byte	0x42f
ARM GAS  /tmp/ccfc6Ncq.s 			page 28


 1540 0526 89000000 		.4byte	.LLST3
 1541 052a 1C       		.uleb128 0x1c
 1542 052b 25040000 		.4byte	0x425
 1543 052f 9C000000 		.4byte	.LLST4
 1544 0533 1D       		.uleb128 0x1d
 1545 0534 24000000 		.4byte	.LBB35
 1546 0538 1C000000 		.4byte	.LBE35-.LBB35
 1547 053c 1E       		.uleb128 0x1e
 1548 053d 3A040000 		.4byte	0x43a
 1549 0541 AF000000 		.4byte	.LLST5
 1550 0545 00       		.byte	0
 1551 0546 00       		.byte	0
 1552 0547 1F       		.uleb128 0x1f
 1553 0548 4B040000 		.4byte	0x44b
 1554 054c 4C000000 		.4byte	.LBB36
 1555 0550 18000000 		.4byte	.Ldebug_ranges0+0x18
 1556 0554 01       		.byte	0x1
 1557 0555 A7       		.byte	0xa7
 1558 0556 64050000 		.4byte	0x564
 1559 055a 1C       		.uleb128 0x1c
 1560 055b 5B040000 		.4byte	0x45b
 1561 055f CD000000 		.4byte	.LLST6
 1562 0563 00       		.byte	0
 1563 0564 1B       		.uleb128 0x1b
 1564 0565 4B040000 		.4byte	0x44b
 1565 0569 5E000000 		.4byte	.LBB40
 1566 056d 0A000000 		.4byte	.LBE40-.LBB40
 1567 0571 01       		.byte	0x1
 1568 0572 9E       		.byte	0x9e
 1569 0573 81050000 		.4byte	0x581
 1570 0577 1C       		.uleb128 0x1c
 1571 0578 5B040000 		.4byte	0x45b
 1572 057c E0000000 		.4byte	.LLST7
 1573 0580 00       		.byte	0
 1574 0581 1B       		.uleb128 0x1b
 1575 0582 19040000 		.4byte	0x419
 1576 0586 6A000000 		.4byte	.LBB42
 1577 058a 1C000000 		.4byte	.LBE42-.LBB42
 1578 058e 01       		.byte	0x1
 1579 058f 9E       		.byte	0x9e
 1580 0590 B6050000 		.4byte	0x5b6
 1581 0594 1C       		.uleb128 0x1c
 1582 0595 2F040000 		.4byte	0x42f
 1583 0599 F3000000 		.4byte	.LLST8
 1584 059d 20       		.uleb128 0x20
 1585 059e 25040000 		.4byte	0x425
 1586 05a2 1D       		.uleb128 0x1d
 1587 05a3 6A000000 		.4byte	.LBB43
 1588 05a7 1C000000 		.4byte	.LBE43-.LBB43
 1589 05ab 1E       		.uleb128 0x1e
 1590 05ac 3A040000 		.4byte	0x43a
 1591 05b0 06010000 		.4byte	.LLST9
 1592 05b4 00       		.byte	0
 1593 05b5 00       		.byte	0
 1594 05b6 1B       		.uleb128 0x1b
 1595 05b7 4B040000 		.4byte	0x44b
 1596 05bb 86000000 		.4byte	.LBB44
ARM GAS  /tmp/ccfc6Ncq.s 			page 29


 1597 05bf 0A000000 		.4byte	.LBE44-.LBB44
 1598 05c3 01       		.byte	0x1
 1599 05c4 8E       		.byte	0x8e
 1600 05c5 D3050000 		.4byte	0x5d3
 1601 05c9 1C       		.uleb128 0x1c
 1602 05ca 5B040000 		.4byte	0x45b
 1603 05ce 19010000 		.4byte	.LLST10
 1604 05d2 00       		.byte	0
 1605 05d3 1B       		.uleb128 0x1b
 1606 05d4 19040000 		.4byte	0x419
 1607 05d8 96000000 		.4byte	.LBB46
 1608 05dc 16000000 		.4byte	.LBE46-.LBB46
 1609 05e0 01       		.byte	0x1
 1610 05e1 8E       		.byte	0x8e
 1611 05e2 08060000 		.4byte	0x608
 1612 05e6 1C       		.uleb128 0x1c
 1613 05e7 2F040000 		.4byte	0x42f
 1614 05eb 2C010000 		.4byte	.LLST11
 1615 05ef 20       		.uleb128 0x20
 1616 05f0 25040000 		.4byte	0x425
 1617 05f4 1D       		.uleb128 0x1d
 1618 05f5 96000000 		.4byte	.LBB47
 1619 05f9 16000000 		.4byte	.LBE47-.LBB47
 1620 05fd 1E       		.uleb128 0x1e
 1621 05fe 3A040000 		.4byte	0x43a
 1622 0602 3F010000 		.4byte	.LLST12
 1623 0606 00       		.byte	0
 1624 0607 00       		.byte	0
 1625 0608 21       		.uleb128 0x21
 1626 0609 4C000000 		.4byte	.LVL10
 1627 060d B1090000 		.4byte	0x9b1
 1628 0611 1B060000 		.4byte	0x61b
 1629 0615 22       		.uleb128 0x22
 1630 0616 01       		.uleb128 0x1
 1631 0617 50       		.byte	0x50
 1632 0618 01       		.uleb128 0x1
 1633 0619 34       		.byte	0x34
 1634 061a 00       		.byte	0
 1635 061b 23       		.uleb128 0x23
 1636 061c 5C000000 		.4byte	.LVL12
 1637 0620 BC090000 		.4byte	0x9bc
 1638 0624 00       		.byte	0
 1639 0625 00       		.byte	0
 1640 0626 16       		.uleb128 0x16
 1641 0627 91010000 		.4byte	.LASF72
 1642 062b 01       		.byte	0x1
 1643 062c 67       		.byte	0x67
 1644 062d 00000000 		.4byte	.LFB8
 1645 0631 14000000 		.4byte	.LFE8-.LFB8
 1646 0635 01       		.uleb128 0x1
 1647 0636 9C       		.byte	0x9c
 1648 0637 91060000 		.4byte	0x691
 1649 063b 18       		.uleb128 0x18
 1650 063c 6D7000   		.ascii	"mp\000"
 1651 063f 01       		.byte	0x1
 1652 0640 67       		.byte	0x67
 1653 0641 13040000 		.4byte	0x413
ARM GAS  /tmp/ccfc6Ncq.s 			page 30


 1654 0645 52010000 		.4byte	.LLST13
 1655 0649 24       		.uleb128 0x24
 1656 064a 02000000 		.4byte	.LBB49
 1657 064e 06000000 		.4byte	.LBE49-.LBB49
 1658 0652 64060000 		.4byte	0x664
 1659 0656 25       		.uleb128 0x25
 1660 0657 746D7000 		.ascii	"tmp\000"
 1661 065b 01       		.byte	0x1
 1662 065c 69       		.byte	0x69
 1663 065d A9000000 		.4byte	0xa9
 1664 0661 01       		.uleb128 0x1
 1665 0662 53       		.byte	0x53
 1666 0663 00       		.byte	0
 1667 0664 24       		.uleb128 0x24
 1668 0665 0C000000 		.4byte	.LBB50
 1669 0669 08000000 		.4byte	.LBE50-.LBB50
 1670 066d 7F060000 		.4byte	0x67f
 1671 0671 25       		.uleb128 0x25
 1672 0672 746D7000 		.ascii	"tmp\000"
 1673 0676 01       		.byte	0x1
 1674 0677 6D       		.byte	0x6d
 1675 0678 A9000000 		.4byte	0xa9
 1676 067c 01       		.uleb128 0x1
 1677 067d 53       		.byte	0x53
 1678 067e 00       		.byte	0
 1679 067f 26       		.uleb128 0x26
 1680 0680 0C000000 		.4byte	.LVL31
 1681 0684 C9040000 		.4byte	0x4c9
 1682 0688 22       		.uleb128 0x22
 1683 0689 01       		.uleb128 0x1
 1684 068a 50       		.byte	0x50
 1685 068b 03       		.uleb128 0x3
 1686 068c F3       		.byte	0xf3
 1687 068d 01       		.uleb128 0x1
 1688 068e 50       		.byte	0x50
 1689 068f 00       		.byte	0
 1690 0690 00       		.byte	0
 1691 0691 27       		.uleb128 0x27
 1692 0692 69010000 		.4byte	.LASF73
 1693 0696 01       		.byte	0x1
 1694 0697 CE       		.byte	0xce
 1695 0698 B4000000 		.4byte	0xb4
 1696 069c 00000000 		.4byte	.LFB10
 1697 06a0 30000000 		.4byte	.LFE10-.LFB10
 1698 06a4 01       		.uleb128 0x1
 1699 06a5 9C       		.byte	0x9c
 1700 06a6 20070000 		.4byte	0x720
 1701 06aa 18       		.uleb128 0x18
 1702 06ab 6D7000   		.ascii	"mp\000"
 1703 06ae 01       		.byte	0x1
 1704 06af CE       		.byte	0xce
 1705 06b0 13040000 		.4byte	0x413
 1706 06b4 73010000 		.4byte	.LLST14
 1707 06b8 13       		.uleb128 0x13
 1708 06b9 6200     		.ascii	"b\000"
 1709 06bb 01       		.byte	0x1
 1710 06bc CF       		.byte	0xcf
ARM GAS  /tmp/ccfc6Ncq.s 			page 31


 1711 06bd B4000000 		.4byte	0xb4
 1712 06c1 24       		.uleb128 0x24
 1713 06c2 02000000 		.4byte	.LBB57
 1714 06c6 06000000 		.4byte	.LBE57-.LBB57
 1715 06ca DC060000 		.4byte	0x6dc
 1716 06ce 25       		.uleb128 0x25
 1717 06cf 746D7000 		.ascii	"tmp\000"
 1718 06d3 01       		.byte	0x1
 1719 06d4 D1       		.byte	0xd1
 1720 06d5 A9000000 		.4byte	0xa9
 1721 06d9 01       		.uleb128 0x1
 1722 06da 53       		.byte	0x53
 1723 06db 00       		.byte	0
 1724 06dc 1F       		.uleb128 0x1f
 1725 06dd 66040000 		.4byte	0x466
 1726 06e1 08000000 		.4byte	.LBB58
 1727 06e5 30000000 		.4byte	.Ldebug_ranges0+0x30
 1728 06e9 01       		.byte	0x1
 1729 06ea D3       		.byte	0xd3
 1730 06eb 0C070000 		.4byte	0x70c
 1731 06ef 1C       		.uleb128 0x1c
 1732 06f0 76040000 		.4byte	0x476
 1733 06f4 91010000 		.4byte	.LLST15
 1734 06f8 1D       		.uleb128 0x1d
 1735 06f9 16000000 		.4byte	.LBB60
 1736 06fd 0E000000 		.4byte	.LBE60-.LBB60
 1737 0701 1C       		.uleb128 0x1c
 1738 0702 76040000 		.4byte	0x476
 1739 0706 BA010000 		.4byte	.LLST16
 1740 070a 00       		.byte	0
 1741 070b 00       		.byte	0
 1742 070c 1A       		.uleb128 0x1a
 1743 070d 48000000 		.4byte	.Ldebug_ranges0+0x48
 1744 0711 25       		.uleb128 0x25
 1745 0712 746D7000 		.ascii	"tmp\000"
 1746 0716 01       		.byte	0x1
 1747 0717 D5       		.byte	0xd5
 1748 0718 A9000000 		.4byte	0xa9
 1749 071c 01       		.uleb128 0x1
 1750 071d 53       		.byte	0x53
 1751 071e 00       		.byte	0
 1752 071f 00       		.byte	0
 1753 0720 28       		.uleb128 0x28
 1754 0721 66040000 		.4byte	0x466
 1755 0725 00000000 		.4byte	.LFB11
 1756 0729 20000000 		.4byte	.LFE11-.LFB11
 1757 072d 01       		.uleb128 0x1
 1758 072e 9C       		.byte	0x9c
 1759 072f 50070000 		.4byte	0x750
 1760 0733 1C       		.uleb128 0x1c
 1761 0734 76040000 		.4byte	0x476
 1762 0738 CD010000 		.4byte	.LLST17
 1763 073c 1D       		.uleb128 0x1d
 1764 073d 0A000000 		.4byte	.LBB68
 1765 0741 16000000 		.4byte	.LBE68-.LBB68
 1766 0745 1C       		.uleb128 0x1c
 1767 0746 76040000 		.4byte	0x476
ARM GAS  /tmp/ccfc6Ncq.s 			page 32


 1768 074a 01020000 		.4byte	.LLST18
 1769 074e 00       		.byte	0
 1770 074f 00       		.byte	0
 1771 0750 29       		.uleb128 0x29
 1772 0751 37000000 		.4byte	.LASF74
 1773 0755 01       		.byte	0x1
 1774 0756 0101     		.2byte	0x101
 1775 0758 13040000 		.4byte	0x413
 1776 075c 00000000 		.4byte	.LFB12
 1777 0760 64000000 		.4byte	.LFE12-.LFB12
 1778 0764 01       		.uleb128 0x1
 1779 0765 9C       		.byte	0x9c
 1780 0766 35080000 		.4byte	0x835
 1781 076a 2A       		.uleb128 0x2a
 1782 076b 63747000 		.ascii	"ctp\000"
 1783 076f 01       		.byte	0x1
 1784 0770 0201     		.2byte	0x102
 1785 0772 47020000 		.4byte	0x247
 1786 0776 1F020000 		.4byte	.LLST19
 1787 077a 2A       		.uleb128 0x2a
 1788 077b 756D7000 		.ascii	"ump\000"
 1789 077f 01       		.byte	0x1
 1790 0780 0301     		.2byte	0x103
 1791 0782 13040000 		.4byte	0x413
 1792 0786 49020000 		.4byte	.LLST20
 1793 078a 2A       		.uleb128 0x2a
 1794 078b 6D7000   		.ascii	"mp\000"
 1795 078e 01       		.byte	0x1
 1796 078f 0301     		.2byte	0x103
 1797 0791 13040000 		.4byte	0x413
 1798 0795 67020000 		.4byte	.LLST21
 1799 0799 24       		.uleb128 0x24
 1800 079a 06000000 		.4byte	.LBB70
 1801 079e 06000000 		.4byte	.LBE70-.LBB70
 1802 07a2 B5070000 		.4byte	0x7b5
 1803 07a6 2B       		.uleb128 0x2b
 1804 07a7 746D7000 		.ascii	"tmp\000"
 1805 07ab 01       		.byte	0x1
 1806 07ac 0501     		.2byte	0x105
 1807 07ae A9000000 		.4byte	0xa9
 1808 07b2 01       		.uleb128 0x1
 1809 07b3 53       		.byte	0x53
 1810 07b4 00       		.byte	0
 1811 07b5 24       		.uleb128 0x24
 1812 07b6 18000000 		.4byte	.LBB71
 1813 07ba 30000000 		.4byte	.LBE71-.LBB71
 1814 07be 20080000 		.4byte	0x820
 1815 07c2 2C       		.uleb128 0x2c
 1816 07c3 747000   		.ascii	"tp\000"
 1817 07c6 01       		.byte	0x1
 1818 07c7 1201     		.2byte	0x112
 1819 07c9 47020000 		.4byte	0x247
 1820 07cd 2D       		.uleb128 0x2d
 1821 07ce 41010000 		.4byte	.LASF75
 1822 07d2 01       		.byte	0x1
 1823 07d3 1601     		.2byte	0x116
 1824 07d5 F2000000 		.4byte	0xf2
ARM GAS  /tmp/ccfc6Ncq.s 			page 33


 1825 07d9 7A020000 		.4byte	.LLST22
 1826 07dd 2E       		.uleb128 0x2e
 1827 07de 81040000 		.4byte	0x481
 1828 07e2 30000000 		.4byte	.LBB72
 1829 07e6 60000000 		.4byte	.Ldebug_ranges0+0x60
 1830 07ea 01       		.byte	0x1
 1831 07eb 2501     		.2byte	0x125
 1832 07ed 0A080000 		.4byte	0x80a
 1833 07f1 1C       		.uleb128 0x1c
 1834 07f2 91040000 		.4byte	0x491
 1835 07f6 8D020000 		.4byte	.LLST23
 1836 07fa 1A       		.uleb128 0x1a
 1837 07fb 60000000 		.4byte	.Ldebug_ranges0+0x60
 1838 07ff 1E       		.uleb128 0x1e
 1839 0800 9C040000 		.4byte	0x49c
 1840 0804 A0020000 		.4byte	.LLST24
 1841 0808 00       		.byte	0
 1842 0809 00       		.byte	0
 1843 080a 26       		.uleb128 0x26
 1844 080b 48000000 		.4byte	.LVL53
 1845 080f C7090000 		.4byte	0x9c7
 1846 0813 22       		.uleb128 0x22
 1847 0814 01       		.uleb128 0x1
 1848 0815 50       		.byte	0x50
 1849 0816 02       		.uleb128 0x2
 1850 0817 75       		.byte	0x75
 1851 0818 00       		.sleb128 0
 1852 0819 22       		.uleb128 0x22
 1853 081a 01       		.uleb128 0x1
 1854 081b 51       		.byte	0x51
 1855 081c 01       		.uleb128 0x1
 1856 081d 30       		.byte	0x30
 1857 081e 00       		.byte	0
 1858 081f 00       		.byte	0
 1859 0820 1A       		.uleb128 0x1a
 1860 0821 80000000 		.4byte	.Ldebug_ranges0+0x80
 1861 0825 2B       		.uleb128 0x2b
 1862 0826 746D7000 		.ascii	"tmp\000"
 1863 082a 01       		.byte	0x1
 1864 082b 2D01     		.2byte	0x12d
 1865 082d A9000000 		.4byte	0xa9
 1866 0831 01       		.uleb128 0x1
 1867 0832 53       		.byte	0x53
 1868 0833 00       		.byte	0
 1869 0834 00       		.byte	0
 1870 0835 29       		.uleb128 0x29
 1871 0836 DD000000 		.4byte	.LASF76
 1872 083a 01       		.byte	0x1
 1873 083b 3D01     		.2byte	0x13d
 1874 083d 13040000 		.4byte	0x413
 1875 0841 00000000 		.4byte	.LFB13
 1876 0845 50000000 		.4byte	.LFE13-.LFB13
 1877 0849 01       		.uleb128 0x1
 1878 084a 9C       		.byte	0x9c
 1879 084b E1080000 		.4byte	0x8e1
 1880 084f 2A       		.uleb128 0x2a
 1881 0850 63747000 		.ascii	"ctp\000"
ARM GAS  /tmp/ccfc6Ncq.s 			page 34


 1882 0854 01       		.byte	0x1
 1883 0855 3E01     		.2byte	0x13e
 1884 0857 47020000 		.4byte	0x247
 1885 085b B3020000 		.4byte	.LLST25
 1886 085f 2A       		.uleb128 0x2a
 1887 0860 756D7000 		.ascii	"ump\000"
 1888 0864 01       		.byte	0x1
 1889 0865 3F01     		.2byte	0x13f
 1890 0867 13040000 		.4byte	0x413
 1891 086b D1020000 		.4byte	.LLST26
 1892 086f 2A       		.uleb128 0x2a
 1893 0870 6D7000   		.ascii	"mp\000"
 1894 0873 01       		.byte	0x1
 1895 0874 3F01     		.2byte	0x13f
 1896 0876 13040000 		.4byte	0x413
 1897 087a EF020000 		.4byte	.LLST27
 1898 087e 1D       		.uleb128 0x1d
 1899 087f 12000000 		.4byte	.LBB80
 1900 0883 2E000000 		.4byte	.LBE80-.LBB80
 1901 0887 2C       		.uleb128 0x2c
 1902 0888 747000   		.ascii	"tp\000"
 1903 088b 01       		.byte	0x1
 1904 088c 4F01     		.2byte	0x14f
 1905 088e 47020000 		.4byte	0x247
 1906 0892 2D       		.uleb128 0x2d
 1907 0893 41010000 		.4byte	.LASF75
 1908 0897 01       		.byte	0x1
 1909 0898 5301     		.2byte	0x153
 1910 089a F2000000 		.4byte	0xf2
 1911 089e 02030000 		.4byte	.LLST28
 1912 08a2 2E       		.uleb128 0x2e
 1913 08a3 81040000 		.4byte	0x481
 1914 08a7 2A000000 		.4byte	.LBB81
 1915 08ab 98000000 		.4byte	.Ldebug_ranges0+0x98
 1916 08af 01       		.byte	0x1
 1917 08b0 6001     		.2byte	0x160
 1918 08b2 CF080000 		.4byte	0x8cf
 1919 08b6 1C       		.uleb128 0x1c
 1920 08b7 91040000 		.4byte	0x491
 1921 08bb 15030000 		.4byte	.LLST29
 1922 08bf 1A       		.uleb128 0x1a
 1923 08c0 98000000 		.4byte	.Ldebug_ranges0+0x98
 1924 08c4 1E       		.uleb128 0x1e
 1925 08c5 9C040000 		.4byte	0x49c
 1926 08c9 28030000 		.4byte	.LLST30
 1927 08cd 00       		.byte	0
 1928 08ce 00       		.byte	0
 1929 08cf 26       		.uleb128 0x26
 1930 08d0 40000000 		.4byte	.LVL66
 1931 08d4 BC090000 		.4byte	0x9bc
 1932 08d8 22       		.uleb128 0x22
 1933 08d9 01       		.uleb128 0x1
 1934 08da 50       		.byte	0x50
 1935 08db 02       		.uleb128 0x2
 1936 08dc 75       		.byte	0x75
 1937 08dd 00       		.sleb128 0
 1938 08de 00       		.byte	0
ARM GAS  /tmp/ccfc6Ncq.s 			page 35


 1939 08df 00       		.byte	0
 1940 08e0 00       		.byte	0
 1941 08e1 2F       		.uleb128 0x2f
 1942 08e2 32010000 		.4byte	.LASF77
 1943 08e6 01       		.byte	0x1
 1944 08e7 7601     		.2byte	0x176
 1945 08e9 00000000 		.4byte	.LFB14
 1946 08ed 54000000 		.4byte	.LFE14-.LFB14
 1947 08f1 01       		.uleb128 0x1
 1948 08f2 9C       		.byte	0x9c
 1949 08f3 A6090000 		.4byte	0x9a6
 1950 08f7 2A       		.uleb128 0x2a
 1951 08f8 63747000 		.ascii	"ctp\000"
 1952 08fc 01       		.byte	0x1
 1953 08fd 7701     		.2byte	0x177
 1954 08ff 47020000 		.4byte	0x247
 1955 0903 3B030000 		.4byte	.LLST31
 1956 0907 30       		.uleb128 0x30
 1957 0908 B8000000 		.4byte	.Ldebug_ranges0+0xb8
 1958 090c 1F090000 		.4byte	0x91f
 1959 0910 2B       		.uleb128 0x2b
 1960 0911 746D7000 		.ascii	"tmp\000"
 1961 0915 01       		.byte	0x1
 1962 0916 7901     		.2byte	0x179
 1963 0918 A9000000 		.4byte	0xa9
 1964 091c 01       		.uleb128 0x1
 1965 091d 53       		.byte	0x53
 1966 091e 00       		.byte	0
 1967 091f 30       		.uleb128 0x30
 1968 0920 D0000000 		.4byte	.Ldebug_ranges0+0xd0
 1969 0924 80090000 		.4byte	0x980
 1970 0928 2A       		.uleb128 0x2a
 1971 0929 756D7000 		.ascii	"ump\000"
 1972 092d 01       		.byte	0x1
 1973 092e 7C01     		.2byte	0x17c
 1974 0930 13040000 		.4byte	0x413
 1975 0934 4E030000 		.4byte	.LLST32
 1976 0938 1A       		.uleb128 0x1a
 1977 0939 E8000000 		.4byte	.Ldebug_ranges0+0xe8
 1978 093d 2C       		.uleb128 0x2c
 1979 093e 747000   		.ascii	"tp\000"
 1980 0941 01       		.byte	0x1
 1981 0942 7F01     		.2byte	0x17f
 1982 0944 47020000 		.4byte	0x247
 1983 0948 2E       		.uleb128 0x2e
 1984 0949 81040000 		.4byte	0x481
 1985 094d 14000000 		.4byte	.LBB91
 1986 0951 00010000 		.4byte	.Ldebug_ranges0+0x100
 1987 0955 01       		.byte	0x1
 1988 0956 7F01     		.2byte	0x17f
 1989 0958 75090000 		.4byte	0x975
 1990 095c 1C       		.uleb128 0x1c
 1991 095d 91040000 		.4byte	0x491
 1992 0961 62030000 		.4byte	.LLST33
 1993 0965 1A       		.uleb128 0x1a
 1994 0966 00010000 		.4byte	.Ldebug_ranges0+0x100
 1995 096a 1E       		.uleb128 0x1e
ARM GAS  /tmp/ccfc6Ncq.s 			page 36


 1996 096b 9C040000 		.4byte	0x49c
 1997 096f 80030000 		.4byte	.LLST34
 1998 0973 00       		.byte	0
 1999 0974 00       		.byte	0
 2000 0975 23       		.uleb128 0x23
 2001 0976 26000000 		.4byte	.LVL73
 2002 097a BC090000 		.4byte	0x9bc
 2003 097e 00       		.byte	0
 2004 097f 00       		.byte	0
 2005 0980 24       		.uleb128 0x24
 2006 0981 46000000 		.4byte	.LBB97
 2007 0985 0E000000 		.4byte	.LBE97-.LBB97
 2008 0989 9C090000 		.4byte	0x99c
 2009 098d 2B       		.uleb128 0x2b
 2010 098e 746D7000 		.ascii	"tmp\000"
 2011 0992 01       		.byte	0x1
 2012 0993 8B01     		.2byte	0x18b
 2013 0995 A9000000 		.4byte	0xa9
 2014 0999 01       		.uleb128 0x1
 2015 099a 53       		.byte	0x53
 2016 099b 00       		.byte	0
 2017 099c 23       		.uleb128 0x23
 2018 099d 46000000 		.4byte	.LVL79
 2019 09a1 D2090000 		.4byte	0x9d2
 2020 09a5 00       		.byte	0
 2021 09a6 31       		.uleb128 0x31
 2022 09a7 30040000 		.4byte	.LASF87
 2023 09ab 09       		.byte	0x9
 2024 09ac 6F       		.byte	0x6f
 2025 09ad 7F030000 		.4byte	0x37f
 2026 09b1 32       		.uleb128 0x32
 2027 09b2 5A030000 		.4byte	.LASF78
 2028 09b6 5A030000 		.4byte	.LASF78
 2029 09ba 09       		.byte	0x9
 2030 09bb 93       		.byte	0x93
 2031 09bc 32       		.uleb128 0x32
 2032 09bd 84030000 		.4byte	.LASF79
 2033 09c1 84030000 		.4byte	.LASF79
 2034 09c5 09       		.byte	0x9
 2035 09c6 90       		.byte	0x90
 2036 09c7 32       		.uleb128 0x32
 2037 09c8 08040000 		.4byte	.LASF80
 2038 09cc 08040000 		.4byte	.LASF80
 2039 09d0 09       		.byte	0x9
 2040 09d1 99       		.byte	0x99
 2041 09d2 32       		.uleb128 0x32
 2042 09d3 B8000000 		.4byte	.LASF81
 2043 09d7 B8000000 		.4byte	.LASF81
 2044 09db 09       		.byte	0x9
 2045 09dc 9C       		.byte	0x9c
 2046 09dd 00       		.byte	0
 2047              		.section	.debug_abbrev,"",%progbits
 2048              	.Ldebug_abbrev0:
 2049 0000 01       		.uleb128 0x1
 2050 0001 11       		.uleb128 0x11
 2051 0002 01       		.byte	0x1
 2052 0003 25       		.uleb128 0x25
ARM GAS  /tmp/ccfc6Ncq.s 			page 37


 2053 0004 0E       		.uleb128 0xe
 2054 0005 13       		.uleb128 0x13
 2055 0006 0B       		.uleb128 0xb
 2056 0007 03       		.uleb128 0x3
 2057 0008 0E       		.uleb128 0xe
 2058 0009 1B       		.uleb128 0x1b
 2059 000a 0E       		.uleb128 0xe
 2060 000b 55       		.uleb128 0x55
 2061 000c 17       		.uleb128 0x17
 2062 000d 11       		.uleb128 0x11
 2063 000e 01       		.uleb128 0x1
 2064 000f 10       		.uleb128 0x10
 2065 0010 17       		.uleb128 0x17
 2066 0011 00       		.byte	0
 2067 0012 00       		.byte	0
 2068 0013 02       		.uleb128 0x2
 2069 0014 24       		.uleb128 0x24
 2070 0015 00       		.byte	0
 2071 0016 0B       		.uleb128 0xb
 2072 0017 0B       		.uleb128 0xb
 2073 0018 3E       		.uleb128 0x3e
 2074 0019 0B       		.uleb128 0xb
 2075 001a 03       		.uleb128 0x3
 2076 001b 08       		.uleb128 0x8
 2077 001c 00       		.byte	0
 2078 001d 00       		.byte	0
 2079 001e 03       		.uleb128 0x3
 2080 001f 24       		.uleb128 0x24
 2081 0020 00       		.byte	0
 2082 0021 0B       		.uleb128 0xb
 2083 0022 0B       		.uleb128 0xb
 2084 0023 3E       		.uleb128 0x3e
 2085 0024 0B       		.uleb128 0xb
 2086 0025 03       		.uleb128 0x3
 2087 0026 0E       		.uleb128 0xe
 2088 0027 00       		.byte	0
 2089 0028 00       		.byte	0
 2090 0029 04       		.uleb128 0x4
 2091 002a 16       		.uleb128 0x16
 2092 002b 00       		.byte	0
 2093 002c 03       		.uleb128 0x3
 2094 002d 0E       		.uleb128 0xe
 2095 002e 3A       		.uleb128 0x3a
 2096 002f 0B       		.uleb128 0xb
 2097 0030 3B       		.uleb128 0x3b
 2098 0031 0B       		.uleb128 0xb
 2099 0032 49       		.uleb128 0x49
 2100 0033 13       		.uleb128 0x13
 2101 0034 00       		.byte	0
 2102 0035 00       		.byte	0
 2103 0036 05       		.uleb128 0x5
 2104 0037 13       		.uleb128 0x13
 2105 0038 01       		.byte	0x1
 2106 0039 03       		.uleb128 0x3
 2107 003a 0E       		.uleb128 0xe
 2108 003b 0B       		.uleb128 0xb
 2109 003c 0B       		.uleb128 0xb
ARM GAS  /tmp/ccfc6Ncq.s 			page 38


 2110 003d 3A       		.uleb128 0x3a
 2111 003e 0B       		.uleb128 0xb
 2112 003f 3B       		.uleb128 0x3b
 2113 0040 0B       		.uleb128 0xb
 2114 0041 01       		.uleb128 0x1
 2115 0042 13       		.uleb128 0x13
 2116 0043 00       		.byte	0
 2117 0044 00       		.byte	0
 2118 0045 06       		.uleb128 0x6
 2119 0046 0D       		.uleb128 0xd
 2120 0047 00       		.byte	0
 2121 0048 03       		.uleb128 0x3
 2122 0049 0E       		.uleb128 0xe
 2123 004a 3A       		.uleb128 0x3a
 2124 004b 0B       		.uleb128 0xb
 2125 004c 3B       		.uleb128 0x3b
 2126 004d 0B       		.uleb128 0xb
 2127 004e 49       		.uleb128 0x49
 2128 004f 13       		.uleb128 0x13
 2129 0050 38       		.uleb128 0x38
 2130 0051 0B       		.uleb128 0xb
 2131 0052 00       		.byte	0
 2132 0053 00       		.byte	0
 2133 0054 07       		.uleb128 0x7
 2134 0055 0D       		.uleb128 0xd
 2135 0056 00       		.byte	0
 2136 0057 03       		.uleb128 0x3
 2137 0058 08       		.uleb128 0x8
 2138 0059 3A       		.uleb128 0x3a
 2139 005a 0B       		.uleb128 0xb
 2140 005b 3B       		.uleb128 0x3b
 2141 005c 0B       		.uleb128 0xb
 2142 005d 49       		.uleb128 0x49
 2143 005e 13       		.uleb128 0x13
 2144 005f 38       		.uleb128 0x38
 2145 0060 0B       		.uleb128 0xb
 2146 0061 00       		.byte	0
 2147 0062 00       		.byte	0
 2148 0063 08       		.uleb128 0x8
 2149 0064 13       		.uleb128 0x13
 2150 0065 01       		.byte	0x1
 2151 0066 0B       		.uleb128 0xb
 2152 0067 0B       		.uleb128 0xb
 2153 0068 3A       		.uleb128 0x3a
 2154 0069 0B       		.uleb128 0xb
 2155 006a 3B       		.uleb128 0x3b
 2156 006b 0B       		.uleb128 0xb
 2157 006c 01       		.uleb128 0x1
 2158 006d 13       		.uleb128 0x13
 2159 006e 00       		.byte	0
 2160 006f 00       		.byte	0
 2161 0070 09       		.uleb128 0x9
 2162 0071 0F       		.uleb128 0xf
 2163 0072 00       		.byte	0
 2164 0073 0B       		.uleb128 0xb
 2165 0074 0B       		.uleb128 0xb
 2166 0075 49       		.uleb128 0x49
ARM GAS  /tmp/ccfc6Ncq.s 			page 39


 2167 0076 13       		.uleb128 0x13
 2168 0077 00       		.byte	0
 2169 0078 00       		.byte	0
 2170 0079 0A       		.uleb128 0xa
 2171 007a 0F       		.uleb128 0xf
 2172 007b 00       		.byte	0
 2173 007c 0B       		.uleb128 0xb
 2174 007d 0B       		.uleb128 0xb
 2175 007e 00       		.byte	0
 2176 007f 00       		.byte	0
 2177 0080 0B       		.uleb128 0xb
 2178 0081 13       		.uleb128 0x13
 2179 0082 01       		.byte	0x1
 2180 0083 03       		.uleb128 0x3
 2181 0084 0E       		.uleb128 0xe
 2182 0085 0B       		.uleb128 0xb
 2183 0086 0B       		.uleb128 0xb
 2184 0087 3A       		.uleb128 0x3a
 2185 0088 0B       		.uleb128 0xb
 2186 0089 3B       		.uleb128 0x3b
 2187 008a 05       		.uleb128 0x5
 2188 008b 01       		.uleb128 0x1
 2189 008c 13       		.uleb128 0x13
 2190 008d 00       		.byte	0
 2191 008e 00       		.byte	0
 2192 008f 0C       		.uleb128 0xc
 2193 0090 0D       		.uleb128 0xd
 2194 0091 00       		.byte	0
 2195 0092 03       		.uleb128 0x3
 2196 0093 08       		.uleb128 0x8
 2197 0094 3A       		.uleb128 0x3a
 2198 0095 0B       		.uleb128 0xb
 2199 0096 3B       		.uleb128 0x3b
 2200 0097 05       		.uleb128 0x5
 2201 0098 49       		.uleb128 0x49
 2202 0099 13       		.uleb128 0x13
 2203 009a 38       		.uleb128 0x38
 2204 009b 0B       		.uleb128 0xb
 2205 009c 00       		.byte	0
 2206 009d 00       		.byte	0
 2207 009e 0D       		.uleb128 0xd
 2208 009f 35       		.uleb128 0x35
 2209 00a0 00       		.byte	0
 2210 00a1 49       		.uleb128 0x49
 2211 00a2 13       		.uleb128 0x13
 2212 00a3 00       		.byte	0
 2213 00a4 00       		.byte	0
 2214 00a5 0E       		.uleb128 0xe
 2215 00a6 17       		.uleb128 0x17
 2216 00a7 01       		.byte	0x1
 2217 00a8 0B       		.uleb128 0xb
 2218 00a9 0B       		.uleb128 0xb
 2219 00aa 3A       		.uleb128 0x3a
 2220 00ab 0B       		.uleb128 0xb
 2221 00ac 3B       		.uleb128 0x3b
 2222 00ad 0B       		.uleb128 0xb
 2223 00ae 01       		.uleb128 0x1
ARM GAS  /tmp/ccfc6Ncq.s 			page 40


 2224 00af 13       		.uleb128 0x13
 2225 00b0 00       		.byte	0
 2226 00b1 00       		.byte	0
 2227 00b2 0F       		.uleb128 0xf
 2228 00b3 0D       		.uleb128 0xd
 2229 00b4 00       		.byte	0
 2230 00b5 03       		.uleb128 0x3
 2231 00b6 0E       		.uleb128 0xe
 2232 00b7 3A       		.uleb128 0x3a
 2233 00b8 0B       		.uleb128 0xb
 2234 00b9 3B       		.uleb128 0x3b
 2235 00ba 0B       		.uleb128 0xb
 2236 00bb 49       		.uleb128 0x49
 2237 00bc 13       		.uleb128 0x13
 2238 00bd 00       		.byte	0
 2239 00be 00       		.byte	0
 2240 00bf 10       		.uleb128 0x10
 2241 00c0 26       		.uleb128 0x26
 2242 00c1 00       		.byte	0
 2243 00c2 49       		.uleb128 0x49
 2244 00c3 13       		.uleb128 0x13
 2245 00c4 00       		.byte	0
 2246 00c5 00       		.byte	0
 2247 00c6 11       		.uleb128 0x11
 2248 00c7 2E       		.uleb128 0x2e
 2249 00c8 01       		.byte	0x1
 2250 00c9 03       		.uleb128 0x3
 2251 00ca 0E       		.uleb128 0xe
 2252 00cb 3A       		.uleb128 0x3a
 2253 00cc 0B       		.uleb128 0xb
 2254 00cd 3B       		.uleb128 0x3b
 2255 00ce 0B       		.uleb128 0xb
 2256 00cf 27       		.uleb128 0x27
 2257 00d0 19       		.uleb128 0x19
 2258 00d1 20       		.uleb128 0x20
 2259 00d2 0B       		.uleb128 0xb
 2260 00d3 01       		.uleb128 0x1
 2261 00d4 13       		.uleb128 0x13
 2262 00d5 00       		.byte	0
 2263 00d6 00       		.byte	0
 2264 00d7 12       		.uleb128 0x12
 2265 00d8 05       		.uleb128 0x5
 2266 00d9 00       		.byte	0
 2267 00da 03       		.uleb128 0x3
 2268 00db 08       		.uleb128 0x8
 2269 00dc 3A       		.uleb128 0x3a
 2270 00dd 0B       		.uleb128 0xb
 2271 00de 3B       		.uleb128 0x3b
 2272 00df 0B       		.uleb128 0xb
 2273 00e0 49       		.uleb128 0x49
 2274 00e1 13       		.uleb128 0x13
 2275 00e2 00       		.byte	0
 2276 00e3 00       		.byte	0
 2277 00e4 13       		.uleb128 0x13
 2278 00e5 34       		.uleb128 0x34
 2279 00e6 00       		.byte	0
 2280 00e7 03       		.uleb128 0x3
ARM GAS  /tmp/ccfc6Ncq.s 			page 41


 2281 00e8 08       		.uleb128 0x8
 2282 00e9 3A       		.uleb128 0x3a
 2283 00ea 0B       		.uleb128 0xb
 2284 00eb 3B       		.uleb128 0x3b
 2285 00ec 0B       		.uleb128 0xb
 2286 00ed 49       		.uleb128 0x49
 2287 00ee 13       		.uleb128 0x13
 2288 00ef 00       		.byte	0
 2289 00f0 00       		.byte	0
 2290 00f1 14       		.uleb128 0x14
 2291 00f2 2E       		.uleb128 0x2e
 2292 00f3 01       		.byte	0x1
 2293 00f4 03       		.uleb128 0x3
 2294 00f5 0E       		.uleb128 0xe
 2295 00f6 3A       		.uleb128 0x3a
 2296 00f7 0B       		.uleb128 0xb
 2297 00f8 3B       		.uleb128 0x3b
 2298 00f9 0B       		.uleb128 0xb
 2299 00fa 27       		.uleb128 0x27
 2300 00fb 19       		.uleb128 0x19
 2301 00fc 49       		.uleb128 0x49
 2302 00fd 13       		.uleb128 0x13
 2303 00fe 20       		.uleb128 0x20
 2304 00ff 0B       		.uleb128 0xb
 2305 0100 01       		.uleb128 0x1
 2306 0101 13       		.uleb128 0x13
 2307 0102 00       		.byte	0
 2308 0103 00       		.byte	0
 2309 0104 15       		.uleb128 0x15
 2310 0105 2E       		.uleb128 0x2e
 2311 0106 01       		.byte	0x1
 2312 0107 3F       		.uleb128 0x3f
 2313 0108 19       		.uleb128 0x19
 2314 0109 03       		.uleb128 0x3
 2315 010a 0E       		.uleb128 0xe
 2316 010b 3A       		.uleb128 0x3a
 2317 010c 0B       		.uleb128 0xb
 2318 010d 3B       		.uleb128 0x3b
 2319 010e 0B       		.uleb128 0xb
 2320 010f 27       		.uleb128 0x27
 2321 0110 19       		.uleb128 0x19
 2322 0111 49       		.uleb128 0x49
 2323 0112 13       		.uleb128 0x13
 2324 0113 20       		.uleb128 0x20
 2325 0114 0B       		.uleb128 0xb
 2326 0115 01       		.uleb128 0x1
 2327 0116 13       		.uleb128 0x13
 2328 0117 00       		.byte	0
 2329 0118 00       		.byte	0
 2330 0119 16       		.uleb128 0x16
 2331 011a 2E       		.uleb128 0x2e
 2332 011b 01       		.byte	0x1
 2333 011c 3F       		.uleb128 0x3f
 2334 011d 19       		.uleb128 0x19
 2335 011e 03       		.uleb128 0x3
 2336 011f 0E       		.uleb128 0xe
 2337 0120 3A       		.uleb128 0x3a
ARM GAS  /tmp/ccfc6Ncq.s 			page 42


 2338 0121 0B       		.uleb128 0xb
 2339 0122 3B       		.uleb128 0x3b
 2340 0123 0B       		.uleb128 0xb
 2341 0124 27       		.uleb128 0x27
 2342 0125 19       		.uleb128 0x19
 2343 0126 11       		.uleb128 0x11
 2344 0127 01       		.uleb128 0x1
 2345 0128 12       		.uleb128 0x12
 2346 0129 06       		.uleb128 0x6
 2347 012a 40       		.uleb128 0x40
 2348 012b 18       		.uleb128 0x18
 2349 012c 9742     		.uleb128 0x2117
 2350 012e 19       		.uleb128 0x19
 2351 012f 01       		.uleb128 0x1
 2352 0130 13       		.uleb128 0x13
 2353 0131 00       		.byte	0
 2354 0132 00       		.byte	0
 2355 0133 17       		.uleb128 0x17
 2356 0134 05       		.uleb128 0x5
 2357 0135 00       		.byte	0
 2358 0136 03       		.uleb128 0x3
 2359 0137 08       		.uleb128 0x8
 2360 0138 3A       		.uleb128 0x3a
 2361 0139 0B       		.uleb128 0xb
 2362 013a 3B       		.uleb128 0x3b
 2363 013b 0B       		.uleb128 0xb
 2364 013c 49       		.uleb128 0x49
 2365 013d 13       		.uleb128 0x13
 2366 013e 02       		.uleb128 0x2
 2367 013f 18       		.uleb128 0x18
 2368 0140 00       		.byte	0
 2369 0141 00       		.byte	0
 2370 0142 18       		.uleb128 0x18
 2371 0143 05       		.uleb128 0x5
 2372 0144 00       		.byte	0
 2373 0145 03       		.uleb128 0x3
 2374 0146 08       		.uleb128 0x8
 2375 0147 3A       		.uleb128 0x3a
 2376 0148 0B       		.uleb128 0xb
 2377 0149 3B       		.uleb128 0x3b
 2378 014a 0B       		.uleb128 0xb
 2379 014b 49       		.uleb128 0x49
 2380 014c 13       		.uleb128 0x13
 2381 014d 02       		.uleb128 0x2
 2382 014e 17       		.uleb128 0x17
 2383 014f 00       		.byte	0
 2384 0150 00       		.byte	0
 2385 0151 19       		.uleb128 0x19
 2386 0152 34       		.uleb128 0x34
 2387 0153 00       		.byte	0
 2388 0154 03       		.uleb128 0x3
 2389 0155 08       		.uleb128 0x8
 2390 0156 3A       		.uleb128 0x3a
 2391 0157 0B       		.uleb128 0xb
 2392 0158 3B       		.uleb128 0x3b
 2393 0159 0B       		.uleb128 0xb
 2394 015a 49       		.uleb128 0x49
ARM GAS  /tmp/ccfc6Ncq.s 			page 43


 2395 015b 13       		.uleb128 0x13
 2396 015c 02       		.uleb128 0x2
 2397 015d 17       		.uleb128 0x17
 2398 015e 00       		.byte	0
 2399 015f 00       		.byte	0
 2400 0160 1A       		.uleb128 0x1a
 2401 0161 0B       		.uleb128 0xb
 2402 0162 01       		.byte	0x1
 2403 0163 55       		.uleb128 0x55
 2404 0164 17       		.uleb128 0x17
 2405 0165 00       		.byte	0
 2406 0166 00       		.byte	0
 2407 0167 1B       		.uleb128 0x1b
 2408 0168 1D       		.uleb128 0x1d
 2409 0169 01       		.byte	0x1
 2410 016a 31       		.uleb128 0x31
 2411 016b 13       		.uleb128 0x13
 2412 016c 11       		.uleb128 0x11
 2413 016d 01       		.uleb128 0x1
 2414 016e 12       		.uleb128 0x12
 2415 016f 06       		.uleb128 0x6
 2416 0170 58       		.uleb128 0x58
 2417 0171 0B       		.uleb128 0xb
 2418 0172 59       		.uleb128 0x59
 2419 0173 0B       		.uleb128 0xb
 2420 0174 01       		.uleb128 0x1
 2421 0175 13       		.uleb128 0x13
 2422 0176 00       		.byte	0
 2423 0177 00       		.byte	0
 2424 0178 1C       		.uleb128 0x1c
 2425 0179 05       		.uleb128 0x5
 2426 017a 00       		.byte	0
 2427 017b 31       		.uleb128 0x31
 2428 017c 13       		.uleb128 0x13
 2429 017d 02       		.uleb128 0x2
 2430 017e 17       		.uleb128 0x17
 2431 017f 00       		.byte	0
 2432 0180 00       		.byte	0
 2433 0181 1D       		.uleb128 0x1d
 2434 0182 0B       		.uleb128 0xb
 2435 0183 01       		.byte	0x1
 2436 0184 11       		.uleb128 0x11
 2437 0185 01       		.uleb128 0x1
 2438 0186 12       		.uleb128 0x12
 2439 0187 06       		.uleb128 0x6
 2440 0188 00       		.byte	0
 2441 0189 00       		.byte	0
 2442 018a 1E       		.uleb128 0x1e
 2443 018b 34       		.uleb128 0x34
 2444 018c 00       		.byte	0
 2445 018d 31       		.uleb128 0x31
 2446 018e 13       		.uleb128 0x13
 2447 018f 02       		.uleb128 0x2
 2448 0190 17       		.uleb128 0x17
 2449 0191 00       		.byte	0
 2450 0192 00       		.byte	0
 2451 0193 1F       		.uleb128 0x1f
ARM GAS  /tmp/ccfc6Ncq.s 			page 44


 2452 0194 1D       		.uleb128 0x1d
 2453 0195 01       		.byte	0x1
 2454 0196 31       		.uleb128 0x31
 2455 0197 13       		.uleb128 0x13
 2456 0198 52       		.uleb128 0x52
 2457 0199 01       		.uleb128 0x1
 2458 019a 55       		.uleb128 0x55
 2459 019b 17       		.uleb128 0x17
 2460 019c 58       		.uleb128 0x58
 2461 019d 0B       		.uleb128 0xb
 2462 019e 59       		.uleb128 0x59
 2463 019f 0B       		.uleb128 0xb
 2464 01a0 01       		.uleb128 0x1
 2465 01a1 13       		.uleb128 0x13
 2466 01a2 00       		.byte	0
 2467 01a3 00       		.byte	0
 2468 01a4 20       		.uleb128 0x20
 2469 01a5 05       		.uleb128 0x5
 2470 01a6 00       		.byte	0
 2471 01a7 31       		.uleb128 0x31
 2472 01a8 13       		.uleb128 0x13
 2473 01a9 00       		.byte	0
 2474 01aa 00       		.byte	0
 2475 01ab 21       		.uleb128 0x21
 2476 01ac 898201   		.uleb128 0x4109
 2477 01af 01       		.byte	0x1
 2478 01b0 11       		.uleb128 0x11
 2479 01b1 01       		.uleb128 0x1
 2480 01b2 9542     		.uleb128 0x2115
 2481 01b4 19       		.uleb128 0x19
 2482 01b5 31       		.uleb128 0x31
 2483 01b6 13       		.uleb128 0x13
 2484 01b7 01       		.uleb128 0x1
 2485 01b8 13       		.uleb128 0x13
 2486 01b9 00       		.byte	0
 2487 01ba 00       		.byte	0
 2488 01bb 22       		.uleb128 0x22
 2489 01bc 8A8201   		.uleb128 0x410a
 2490 01bf 00       		.byte	0
 2491 01c0 02       		.uleb128 0x2
 2492 01c1 18       		.uleb128 0x18
 2493 01c2 9142     		.uleb128 0x2111
 2494 01c4 18       		.uleb128 0x18
 2495 01c5 00       		.byte	0
 2496 01c6 00       		.byte	0
 2497 01c7 23       		.uleb128 0x23
 2498 01c8 898201   		.uleb128 0x4109
 2499 01cb 00       		.byte	0
 2500 01cc 11       		.uleb128 0x11
 2501 01cd 01       		.uleb128 0x1
 2502 01ce 31       		.uleb128 0x31
 2503 01cf 13       		.uleb128 0x13
 2504 01d0 00       		.byte	0
 2505 01d1 00       		.byte	0
 2506 01d2 24       		.uleb128 0x24
 2507 01d3 0B       		.uleb128 0xb
 2508 01d4 01       		.byte	0x1
ARM GAS  /tmp/ccfc6Ncq.s 			page 45


 2509 01d5 11       		.uleb128 0x11
 2510 01d6 01       		.uleb128 0x1
 2511 01d7 12       		.uleb128 0x12
 2512 01d8 06       		.uleb128 0x6
 2513 01d9 01       		.uleb128 0x1
 2514 01da 13       		.uleb128 0x13
 2515 01db 00       		.byte	0
 2516 01dc 00       		.byte	0
 2517 01dd 25       		.uleb128 0x25
 2518 01de 34       		.uleb128 0x34
 2519 01df 00       		.byte	0
 2520 01e0 03       		.uleb128 0x3
 2521 01e1 08       		.uleb128 0x8
 2522 01e2 3A       		.uleb128 0x3a
 2523 01e3 0B       		.uleb128 0xb
 2524 01e4 3B       		.uleb128 0x3b
 2525 01e5 0B       		.uleb128 0xb
 2526 01e6 49       		.uleb128 0x49
 2527 01e7 13       		.uleb128 0x13
 2528 01e8 02       		.uleb128 0x2
 2529 01e9 18       		.uleb128 0x18
 2530 01ea 00       		.byte	0
 2531 01eb 00       		.byte	0
 2532 01ec 26       		.uleb128 0x26
 2533 01ed 898201   		.uleb128 0x4109
 2534 01f0 01       		.byte	0x1
 2535 01f1 11       		.uleb128 0x11
 2536 01f2 01       		.uleb128 0x1
 2537 01f3 31       		.uleb128 0x31
 2538 01f4 13       		.uleb128 0x13
 2539 01f5 00       		.byte	0
 2540 01f6 00       		.byte	0
 2541 01f7 27       		.uleb128 0x27
 2542 01f8 2E       		.uleb128 0x2e
 2543 01f9 01       		.byte	0x1
 2544 01fa 3F       		.uleb128 0x3f
 2545 01fb 19       		.uleb128 0x19
 2546 01fc 03       		.uleb128 0x3
 2547 01fd 0E       		.uleb128 0xe
 2548 01fe 3A       		.uleb128 0x3a
 2549 01ff 0B       		.uleb128 0xb
 2550 0200 3B       		.uleb128 0x3b
 2551 0201 0B       		.uleb128 0xb
 2552 0202 27       		.uleb128 0x27
 2553 0203 19       		.uleb128 0x19
 2554 0204 49       		.uleb128 0x49
 2555 0205 13       		.uleb128 0x13
 2556 0206 11       		.uleb128 0x11
 2557 0207 01       		.uleb128 0x1
 2558 0208 12       		.uleb128 0x12
 2559 0209 06       		.uleb128 0x6
 2560 020a 40       		.uleb128 0x40
 2561 020b 18       		.uleb128 0x18
 2562 020c 9742     		.uleb128 0x2117
 2563 020e 19       		.uleb128 0x19
 2564 020f 01       		.uleb128 0x1
 2565 0210 13       		.uleb128 0x13
ARM GAS  /tmp/ccfc6Ncq.s 			page 46


 2566 0211 00       		.byte	0
 2567 0212 00       		.byte	0
 2568 0213 28       		.uleb128 0x28
 2569 0214 2E       		.uleb128 0x2e
 2570 0215 01       		.byte	0x1
 2571 0216 31       		.uleb128 0x31
 2572 0217 13       		.uleb128 0x13
 2573 0218 11       		.uleb128 0x11
 2574 0219 01       		.uleb128 0x1
 2575 021a 12       		.uleb128 0x12
 2576 021b 06       		.uleb128 0x6
 2577 021c 40       		.uleb128 0x40
 2578 021d 18       		.uleb128 0x18
 2579 021e 9742     		.uleb128 0x2117
 2580 0220 19       		.uleb128 0x19
 2581 0221 01       		.uleb128 0x1
 2582 0222 13       		.uleb128 0x13
 2583 0223 00       		.byte	0
 2584 0224 00       		.byte	0
 2585 0225 29       		.uleb128 0x29
 2586 0226 2E       		.uleb128 0x2e
 2587 0227 01       		.byte	0x1
 2588 0228 3F       		.uleb128 0x3f
 2589 0229 19       		.uleb128 0x19
 2590 022a 03       		.uleb128 0x3
 2591 022b 0E       		.uleb128 0xe
 2592 022c 3A       		.uleb128 0x3a
 2593 022d 0B       		.uleb128 0xb
 2594 022e 3B       		.uleb128 0x3b
 2595 022f 05       		.uleb128 0x5
 2596 0230 27       		.uleb128 0x27
 2597 0231 19       		.uleb128 0x19
 2598 0232 49       		.uleb128 0x49
 2599 0233 13       		.uleb128 0x13
 2600 0234 11       		.uleb128 0x11
 2601 0235 01       		.uleb128 0x1
 2602 0236 12       		.uleb128 0x12
 2603 0237 06       		.uleb128 0x6
 2604 0238 40       		.uleb128 0x40
 2605 0239 18       		.uleb128 0x18
 2606 023a 9742     		.uleb128 0x2117
 2607 023c 19       		.uleb128 0x19
 2608 023d 01       		.uleb128 0x1
 2609 023e 13       		.uleb128 0x13
 2610 023f 00       		.byte	0
 2611 0240 00       		.byte	0
 2612 0241 2A       		.uleb128 0x2a
 2613 0242 34       		.uleb128 0x34
 2614 0243 00       		.byte	0
 2615 0244 03       		.uleb128 0x3
 2616 0245 08       		.uleb128 0x8
 2617 0246 3A       		.uleb128 0x3a
 2618 0247 0B       		.uleb128 0xb
 2619 0248 3B       		.uleb128 0x3b
 2620 0249 05       		.uleb128 0x5
 2621 024a 49       		.uleb128 0x49
 2622 024b 13       		.uleb128 0x13
ARM GAS  /tmp/ccfc6Ncq.s 			page 47


 2623 024c 02       		.uleb128 0x2
 2624 024d 17       		.uleb128 0x17
 2625 024e 00       		.byte	0
 2626 024f 00       		.byte	0
 2627 0250 2B       		.uleb128 0x2b
 2628 0251 34       		.uleb128 0x34
 2629 0252 00       		.byte	0
 2630 0253 03       		.uleb128 0x3
 2631 0254 08       		.uleb128 0x8
 2632 0255 3A       		.uleb128 0x3a
 2633 0256 0B       		.uleb128 0xb
 2634 0257 3B       		.uleb128 0x3b
 2635 0258 05       		.uleb128 0x5
 2636 0259 49       		.uleb128 0x49
 2637 025a 13       		.uleb128 0x13
 2638 025b 02       		.uleb128 0x2
 2639 025c 18       		.uleb128 0x18
 2640 025d 00       		.byte	0
 2641 025e 00       		.byte	0
 2642 025f 2C       		.uleb128 0x2c
 2643 0260 34       		.uleb128 0x34
 2644 0261 00       		.byte	0
 2645 0262 03       		.uleb128 0x3
 2646 0263 08       		.uleb128 0x8
 2647 0264 3A       		.uleb128 0x3a
 2648 0265 0B       		.uleb128 0xb
 2649 0266 3B       		.uleb128 0x3b
 2650 0267 05       		.uleb128 0x5
 2651 0268 49       		.uleb128 0x49
 2652 0269 13       		.uleb128 0x13
 2653 026a 00       		.byte	0
 2654 026b 00       		.byte	0
 2655 026c 2D       		.uleb128 0x2d
 2656 026d 34       		.uleb128 0x34
 2657 026e 00       		.byte	0
 2658 026f 03       		.uleb128 0x3
 2659 0270 0E       		.uleb128 0xe
 2660 0271 3A       		.uleb128 0x3a
 2661 0272 0B       		.uleb128 0xb
 2662 0273 3B       		.uleb128 0x3b
 2663 0274 05       		.uleb128 0x5
 2664 0275 49       		.uleb128 0x49
 2665 0276 13       		.uleb128 0x13
 2666 0277 02       		.uleb128 0x2
 2667 0278 17       		.uleb128 0x17
 2668 0279 00       		.byte	0
 2669 027a 00       		.byte	0
 2670 027b 2E       		.uleb128 0x2e
 2671 027c 1D       		.uleb128 0x1d
 2672 027d 01       		.byte	0x1
 2673 027e 31       		.uleb128 0x31
 2674 027f 13       		.uleb128 0x13
 2675 0280 52       		.uleb128 0x52
 2676 0281 01       		.uleb128 0x1
 2677 0282 55       		.uleb128 0x55
 2678 0283 17       		.uleb128 0x17
 2679 0284 58       		.uleb128 0x58
ARM GAS  /tmp/ccfc6Ncq.s 			page 48


 2680 0285 0B       		.uleb128 0xb
 2681 0286 59       		.uleb128 0x59
 2682 0287 05       		.uleb128 0x5
 2683 0288 01       		.uleb128 0x1
 2684 0289 13       		.uleb128 0x13
 2685 028a 00       		.byte	0
 2686 028b 00       		.byte	0
 2687 028c 2F       		.uleb128 0x2f
 2688 028d 2E       		.uleb128 0x2e
 2689 028e 01       		.byte	0x1
 2690 028f 3F       		.uleb128 0x3f
 2691 0290 19       		.uleb128 0x19
 2692 0291 03       		.uleb128 0x3
 2693 0292 0E       		.uleb128 0xe
 2694 0293 3A       		.uleb128 0x3a
 2695 0294 0B       		.uleb128 0xb
 2696 0295 3B       		.uleb128 0x3b
 2697 0296 05       		.uleb128 0x5
 2698 0297 27       		.uleb128 0x27
 2699 0298 19       		.uleb128 0x19
 2700 0299 11       		.uleb128 0x11
 2701 029a 01       		.uleb128 0x1
 2702 029b 12       		.uleb128 0x12
 2703 029c 06       		.uleb128 0x6
 2704 029d 40       		.uleb128 0x40
 2705 029e 18       		.uleb128 0x18
 2706 029f 9742     		.uleb128 0x2117
 2707 02a1 19       		.uleb128 0x19
 2708 02a2 01       		.uleb128 0x1
 2709 02a3 13       		.uleb128 0x13
 2710 02a4 00       		.byte	0
 2711 02a5 00       		.byte	0
 2712 02a6 30       		.uleb128 0x30
 2713 02a7 0B       		.uleb128 0xb
 2714 02a8 01       		.byte	0x1
 2715 02a9 55       		.uleb128 0x55
 2716 02aa 17       		.uleb128 0x17
 2717 02ab 01       		.uleb128 0x1
 2718 02ac 13       		.uleb128 0x13
 2719 02ad 00       		.byte	0
 2720 02ae 00       		.byte	0
 2721 02af 31       		.uleb128 0x31
 2722 02b0 34       		.uleb128 0x34
 2723 02b1 00       		.byte	0
 2724 02b2 03       		.uleb128 0x3
 2725 02b3 0E       		.uleb128 0xe
 2726 02b4 3A       		.uleb128 0x3a
 2727 02b5 0B       		.uleb128 0xb
 2728 02b6 3B       		.uleb128 0x3b
 2729 02b7 0B       		.uleb128 0xb
 2730 02b8 49       		.uleb128 0x49
 2731 02b9 13       		.uleb128 0x13
 2732 02ba 3F       		.uleb128 0x3f
 2733 02bb 19       		.uleb128 0x19
 2734 02bc 3C       		.uleb128 0x3c
 2735 02bd 19       		.uleb128 0x19
 2736 02be 00       		.byte	0
ARM GAS  /tmp/ccfc6Ncq.s 			page 49


 2737 02bf 00       		.byte	0
 2738 02c0 32       		.uleb128 0x32
 2739 02c1 2E       		.uleb128 0x2e
 2740 02c2 00       		.byte	0
 2741 02c3 3F       		.uleb128 0x3f
 2742 02c4 19       		.uleb128 0x19
 2743 02c5 3C       		.uleb128 0x3c
 2744 02c6 19       		.uleb128 0x19
 2745 02c7 6E       		.uleb128 0x6e
 2746 02c8 0E       		.uleb128 0xe
 2747 02c9 03       		.uleb128 0x3
 2748 02ca 0E       		.uleb128 0xe
 2749 02cb 3A       		.uleb128 0x3a
 2750 02cc 0B       		.uleb128 0xb
 2751 02cd 3B       		.uleb128 0x3b
 2752 02ce 0B       		.uleb128 0xb
 2753 02cf 00       		.byte	0
 2754 02d0 00       		.byte	0
 2755 02d1 00       		.byte	0
 2756              		.section	.debug_loc,"",%progbits
 2757              	.Ldebug_loc0:
 2758              	.LLST0:
 2759 0000 00000000 		.4byte	.LVL1
 2760 0004 16000000 		.4byte	.LVL4
 2761 0008 0100     		.2byte	0x1
 2762 000a 50       		.byte	0x50
 2763 000b 16000000 		.4byte	.LVL4
 2764 000f 48000000 		.4byte	.LVL9
 2765 0013 0100     		.2byte	0x1
 2766 0015 55       		.byte	0x55
 2767 0016 48000000 		.4byte	.LVL9
 2768 001a 4C000000 		.4byte	.LVL10
 2769 001e 0400     		.2byte	0x4
 2770 0020 F3       		.byte	0xf3
 2771 0021 01       		.uleb128 0x1
 2772 0022 50       		.byte	0x50
 2773 0023 9F       		.byte	0x9f
 2774 0024 4C000000 		.4byte	.LVL10
 2775 0028 B8000000 		.4byte	.LVL28
 2776 002c 0100     		.2byte	0x1
 2777 002e 55       		.byte	0x55
 2778 002f B8000000 		.4byte	.LVL28
 2779 0033 C8000000 		.4byte	.LFE9
 2780 0037 0100     		.2byte	0x1
 2781 0039 50       		.byte	0x50
 2782 003a 00000000 		.4byte	0
 2783 003e 00000000 		.4byte	0
 2784              	.LLST1:
 2785 0042 08000000 		.4byte	.LVL2
 2786 0046 48000000 		.4byte	.LVL9
 2787 004a 0100     		.2byte	0x1
 2788 004c 54       		.byte	0x54
 2789 004d 4C000000 		.4byte	.LVL10
 2790 0051 C2000000 		.4byte	.LVL29
 2791 0055 0100     		.2byte	0x1
 2792 0057 54       		.byte	0x54
 2793 0058 00000000 		.4byte	0
ARM GAS  /tmp/ccfc6Ncq.s 			page 50


 2794 005c 00000000 		.4byte	0
 2795              	.LLST2:
 2796 0060 14000000 		.4byte	.LVL3
 2797 0064 24000000 		.4byte	.LVL5
 2798 0068 0100     		.2byte	0x1
 2799 006a 52       		.byte	0x52
 2800 006b 4C000000 		.4byte	.LVL10
 2801 006f 5B000000 		.4byte	.LVL12-1
 2802 0073 0100     		.2byte	0x1
 2803 0075 52       		.byte	0x52
 2804 0076 5E000000 		.4byte	.LVL13
 2805 007a B8000000 		.4byte	.LVL28
 2806 007e 0100     		.2byte	0x1
 2807 0080 52       		.byte	0x52
 2808 0081 00000000 		.4byte	0
 2809 0085 00000000 		.4byte	0
 2810              	.LLST3:
 2811 0089 24000000 		.4byte	.LVL5
 2812 008d 40000000 		.4byte	.LVL8
 2813 0091 0100     		.2byte	0x1
 2814 0093 55       		.byte	0x55
 2815 0094 00000000 		.4byte	0
 2816 0098 00000000 		.4byte	0
 2817              	.LLST4:
 2818 009c 24000000 		.4byte	.LVL5
 2819 00a0 40000000 		.4byte	.LVL8
 2820 00a4 0100     		.2byte	0x1
 2821 00a6 54       		.byte	0x54
 2822 00a7 00000000 		.4byte	0
 2823 00ab 00000000 		.4byte	0
 2824              	.LLST5:
 2825 00af 24000000 		.4byte	.LVL5
 2826 00b3 28000000 		.4byte	.LVL6
 2827 00b7 0100     		.2byte	0x1
 2828 00b9 55       		.byte	0x55
 2829 00ba 28000000 		.4byte	.LVL6
 2830 00be 4B000000 		.4byte	.LVL10-1
 2831 00c2 0100     		.2byte	0x1
 2832 00c4 53       		.byte	0x53
 2833 00c5 00000000 		.4byte	0
 2834 00c9 00000000 		.4byte	0
 2835              	.LLST6:
 2836 00cd 4C000000 		.4byte	.LVL10
 2837 00d1 58000000 		.4byte	.LVL11
 2838 00d5 0100     		.2byte	0x1
 2839 00d7 52       		.byte	0x52
 2840 00d8 00000000 		.4byte	0
 2841 00dc 00000000 		.4byte	0
 2842              	.LLST7:
 2843 00e0 5E000000 		.4byte	.LVL13
 2844 00e4 68000000 		.4byte	.LVL14
 2845 00e8 0100     		.2byte	0x1
 2846 00ea 52       		.byte	0x52
 2847 00eb 00000000 		.4byte	0
 2848 00ef 00000000 		.4byte	0
 2849              	.LLST8:
 2850 00f3 6A000000 		.4byte	.LVL15
ARM GAS  /tmp/ccfc6Ncq.s 			page 51


 2851 00f7 86000000 		.4byte	.LVL19
 2852 00fb 0100     		.2byte	0x1
 2853 00fd 56       		.byte	0x56
 2854 00fe 00000000 		.4byte	0
 2855 0102 00000000 		.4byte	0
 2856              	.LLST9:
 2857 0106 6E000000 		.4byte	.LVL16
 2858 010a 86000000 		.4byte	.LVL19
 2859 010e 0100     		.2byte	0x1
 2860 0110 53       		.byte	0x53
 2861 0111 00000000 		.4byte	0
 2862 0115 00000000 		.4byte	0
 2863              	.LLST10:
 2864 0119 86000000 		.4byte	.LVL19
 2865 011d 90000000 		.4byte	.LVL20
 2866 0121 0100     		.2byte	0x1
 2867 0123 52       		.byte	0x52
 2868 0124 00000000 		.4byte	0
 2869 0128 00000000 		.4byte	0
 2870              	.LLST11:
 2871 012c 92000000 		.4byte	.LVL21
 2872 0130 AC000000 		.4byte	.LVL25
 2873 0134 0100     		.2byte	0x1
 2874 0136 56       		.byte	0x56
 2875 0137 00000000 		.4byte	0
 2876 013b 00000000 		.4byte	0
 2877              	.LLST12:
 2878 013f 96000000 		.4byte	.LVL22
 2879 0143 B2000000 		.4byte	.LVL27
 2880 0147 0100     		.2byte	0x1
 2881 0149 53       		.byte	0x53
 2882 014a 00000000 		.4byte	0
 2883 014e 00000000 		.4byte	0
 2884              	.LLST13:
 2885 0152 00000000 		.4byte	.LVL30
 2886 0156 0B000000 		.4byte	.LVL31-1
 2887 015a 0100     		.2byte	0x1
 2888 015c 50       		.byte	0x50
 2889 015d 0B000000 		.4byte	.LVL31-1
 2890 0161 14000000 		.4byte	.LFE8
 2891 0165 0400     		.2byte	0x4
 2892 0167 F3       		.byte	0xf3
 2893 0168 01       		.uleb128 0x1
 2894 0169 50       		.byte	0x50
 2895 016a 9F       		.byte	0x9f
 2896 016b 00000000 		.4byte	0
 2897 016f 00000000 		.4byte	0
 2898              	.LLST14:
 2899 0173 00000000 		.4byte	.LVL32
 2900 0177 0C000000 		.4byte	.LVL34
 2901 017b 0100     		.2byte	0x1
 2902 017d 50       		.byte	0x50
 2903 017e 0C000000 		.4byte	.LVL34
 2904 0182 30000000 		.4byte	.LFE10
 2905 0186 0100     		.2byte	0x1
 2906 0188 52       		.byte	0x52
 2907 0189 00000000 		.4byte	0
ARM GAS  /tmp/ccfc6Ncq.s 			page 52


 2908 018d 00000000 		.4byte	0
 2909              	.LLST15:
 2910 0191 08000000 		.4byte	.LVL33
 2911 0195 0C000000 		.4byte	.LVL34
 2912 0199 0100     		.2byte	0x1
 2913 019b 50       		.byte	0x50
 2914 019c 0C000000 		.4byte	.LVL34
 2915 01a0 0E000000 		.4byte	.LVL35
 2916 01a4 0100     		.2byte	0x1
 2917 01a6 52       		.byte	0x52
 2918 01a7 16000000 		.4byte	.LVL36
 2919 01ab 24000000 		.4byte	.LVL37
 2920 01af 0100     		.2byte	0x1
 2921 01b1 52       		.byte	0x52
 2922 01b2 00000000 		.4byte	0
 2923 01b6 00000000 		.4byte	0
 2924              	.LLST16:
 2925 01ba 16000000 		.4byte	.LVL36
 2926 01be 24000000 		.4byte	.LVL37
 2927 01c2 0100     		.2byte	0x1
 2928 01c4 52       		.byte	0x52
 2929 01c5 00000000 		.4byte	0
 2930 01c9 00000000 		.4byte	0
 2931              	.LLST17:
 2932 01cd 00000000 		.4byte	.LVL38
 2933 01d1 08000000 		.4byte	.LVL39
 2934 01d5 0100     		.2byte	0x1
 2935 01d7 50       		.byte	0x50
 2936 01d8 08000000 		.4byte	.LVL39
 2937 01dc 0A000000 		.4byte	.LVL40
 2938 01e0 0100     		.2byte	0x1
 2939 01e2 53       		.byte	0x53
 2940 01e3 0A000000 		.4byte	.LVL40
 2941 01e7 16000000 		.4byte	.LVL41
 2942 01eb 0100     		.2byte	0x1
 2943 01ed 50       		.byte	0x50
 2944 01ee 16000000 		.4byte	.LVL41
 2945 01f2 20000000 		.4byte	.LFE11
 2946 01f6 0100     		.2byte	0x1
 2947 01f8 53       		.byte	0x53
 2948 01f9 00000000 		.4byte	0
 2949 01fd 00000000 		.4byte	0
 2950              	.LLST18:
 2951 0201 0A000000 		.4byte	.LVL40
 2952 0205 16000000 		.4byte	.LVL41
 2953 0209 0100     		.2byte	0x1
 2954 020b 50       		.byte	0x50
 2955 020c 16000000 		.4byte	.LVL41
 2956 0210 18000000 		.4byte	.LVL42
 2957 0214 0100     		.2byte	0x1
 2958 0216 53       		.byte	0x53
 2959 0217 00000000 		.4byte	0
 2960 021b 00000000 		.4byte	0
 2961              	.LLST19:
 2962 021f 06000000 		.4byte	.LVL43
 2963 0223 3A000000 		.4byte	.LVL50
 2964 0227 0100     		.2byte	0x1
ARM GAS  /tmp/ccfc6Ncq.s 			page 53


 2965 0229 50       		.byte	0x50
 2966 022a 52000000 		.4byte	.LVL54
 2967 022e 5E000000 		.4byte	.LVL55
 2968 0232 0100     		.2byte	0x1
 2969 0234 50       		.byte	0x50
 2970 0235 5E000000 		.4byte	.LVL55
 2971 0239 64000000 		.4byte	.LFE12
 2972 023d 0200     		.2byte	0x2
 2973 023f 72       		.byte	0x72
 2974 0240 18       		.sleb128 24
 2975 0241 00000000 		.4byte	0
 2976 0245 00000000 		.4byte	0
 2977              	.LLST20:
 2978 0249 0E000000 		.4byte	.LVL44
 2979 024d 60000000 		.4byte	.LVL56
 2980 0251 0100     		.2byte	0x1
 2981 0253 54       		.byte	0x54
 2982 0254 60000000 		.4byte	.LVL56
 2983 0258 64000000 		.4byte	.LFE12
 2984 025c 0100     		.2byte	0x1
 2985 025e 50       		.byte	0x50
 2986 025f 00000000 		.4byte	0
 2987 0263 00000000 		.4byte	0
 2988              	.LLST21:
 2989 0267 1A000000 		.4byte	.LVL45
 2990 026b 32000000 		.4byte	.LVL48
 2991 026f 0100     		.2byte	0x1
 2992 0271 53       		.byte	0x53
 2993 0272 00000000 		.4byte	0
 2994 0276 00000000 		.4byte	0
 2995              	.LLST22:
 2996 027a 1A000000 		.4byte	.LVL45
 2997 027e 3E000000 		.4byte	.LVL52
 2998 0282 0100     		.2byte	0x1
 2999 0284 51       		.byte	0x51
 3000 0285 00000000 		.4byte	0
 3001 0289 00000000 		.4byte	0
 3002              	.LLST23:
 3003 028d 36000000 		.4byte	.LVL49
 3004 0291 3C000000 		.4byte	.LVL51
 3005 0295 0100     		.2byte	0x1
 3006 0297 54       		.byte	0x54
 3007 0298 00000000 		.4byte	0
 3008 029c 00000000 		.4byte	0
 3009              	.LLST24:
 3010 02a0 36000000 		.4byte	.LVL49
 3011 02a4 3C000000 		.4byte	.LVL51
 3012 02a8 0100     		.2byte	0x1
 3013 02aa 55       		.byte	0x55
 3014 02ab 00000000 		.4byte	0
 3015 02af 00000000 		.4byte	0
 3016              	.LLST25:
 3017 02b3 06000000 		.4byte	.LVL57
 3018 02b7 34000000 		.4byte	.LVL64
 3019 02bb 0100     		.2byte	0x1
 3020 02bd 50       		.byte	0x50
 3021 02be 44000000 		.4byte	.LVL67
ARM GAS  /tmp/ccfc6Ncq.s 			page 54


 3022 02c2 4A000000 		.4byte	.LVL68
 3023 02c6 0100     		.2byte	0x1
 3024 02c8 50       		.byte	0x50
 3025 02c9 00000000 		.4byte	0
 3026 02cd 00000000 		.4byte	0
 3027              	.LLST26:
 3028 02d1 08000000 		.4byte	.LVL58
 3029 02d5 4C000000 		.4byte	.LVL69
 3030 02d9 0100     		.2byte	0x1
 3031 02db 54       		.byte	0x54
 3032 02dc 4C000000 		.4byte	.LVL69
 3033 02e0 50000000 		.4byte	.LFE13
 3034 02e4 0100     		.2byte	0x1
 3035 02e6 50       		.byte	0x50
 3036 02e7 00000000 		.4byte	0
 3037 02eb 00000000 		.4byte	0
 3038              	.LLST27:
 3039 02ef 14000000 		.4byte	.LVL59
 3040 02f3 2C000000 		.4byte	.LVL62
 3041 02f7 0100     		.2byte	0x1
 3042 02f9 53       		.byte	0x53
 3043 02fa 00000000 		.4byte	0
 3044 02fe 00000000 		.4byte	0
 3045              	.LLST28:
 3046 0302 14000000 		.4byte	.LVL59
 3047 0306 3F000000 		.4byte	.LVL66-1
 3048 030a 0100     		.2byte	0x1
 3049 030c 51       		.byte	0x51
 3050 030d 00000000 		.4byte	0
 3051 0311 00000000 		.4byte	0
 3052              	.LLST29:
 3053 0315 30000000 		.4byte	.LVL63
 3054 0319 36000000 		.4byte	.LVL65
 3055 031d 0100     		.2byte	0x1
 3056 031f 54       		.byte	0x54
 3057 0320 00000000 		.4byte	0
 3058 0324 00000000 		.4byte	0
 3059              	.LLST30:
 3060 0328 30000000 		.4byte	.LVL63
 3061 032c 36000000 		.4byte	.LVL65
 3062 0330 0100     		.2byte	0x1
 3063 0332 55       		.byte	0x55
 3064 0333 00000000 		.4byte	0
 3065 0337 00000000 		.4byte	0
 3066              	.LLST31:
 3067 033b 08000000 		.4byte	.LVL70
 3068 033f 4E000000 		.4byte	.LVL80
 3069 0343 0100     		.2byte	0x1
 3070 0345 54       		.byte	0x54
 3071 0346 00000000 		.4byte	0
 3072 034a 00000000 		.4byte	0
 3073              	.LLST32:
 3074 034e 2A000000 		.4byte	.LVL74
 3075 0352 30000000 		.4byte	.LVL76
 3076 0356 0200     		.2byte	0x2
 3077 0358 74       		.byte	0x74
 3078 0359 3C       		.sleb128 60
ARM GAS  /tmp/ccfc6Ncq.s 			page 55


 3079 035a 00000000 		.4byte	0
 3080 035e 00000000 		.4byte	0
 3081              	.LLST33:
 3082 0362 14000000 		.4byte	.LVL71
 3083 0366 1C000000 		.4byte	.LVL72
 3084 036a 0100     		.2byte	0x1
 3085 036c 53       		.byte	0x53
 3086 036d 2A000000 		.4byte	.LVL74
 3087 0371 3A000000 		.4byte	.LVL77
 3088 0375 0100     		.2byte	0x1
 3089 0377 53       		.byte	0x53
 3090 0378 00000000 		.4byte	0
 3091 037c 00000000 		.4byte	0
 3092              	.LLST34:
 3093 0380 14000000 		.4byte	.LVL71
 3094 0384 1C000000 		.4byte	.LVL72
 3095 0388 0100     		.2byte	0x1
 3096 038a 50       		.byte	0x50
 3097 038b 2C000000 		.4byte	.LVL75
 3098 038f 3E000000 		.4byte	.LVL78
 3099 0393 0100     		.2byte	0x1
 3100 0395 52       		.byte	0x52
 3101 0396 00000000 		.4byte	0
 3102 039a 00000000 		.4byte	0
 3103              		.section	.debug_aranges,"",%progbits
 3104 0000 54000000 		.4byte	0x54
 3105 0004 0200     		.2byte	0x2
 3106 0006 00000000 		.4byte	.Ldebug_info0
 3107 000a 04       		.byte	0x4
 3108 000b 00       		.byte	0
 3109 000c 0000     		.2byte	0
 3110 000e 0000     		.2byte	0
 3111 0010 00000000 		.4byte	.LFB7
 3112 0014 0A000000 		.4byte	.LFE7-.LFB7
 3113 0018 00000000 		.4byte	.LFB9
 3114 001c C8000000 		.4byte	.LFE9-.LFB9
 3115 0020 00000000 		.4byte	.LFB8
 3116 0024 14000000 		.4byte	.LFE8-.LFB8
 3117 0028 00000000 		.4byte	.LFB10
 3118 002c 30000000 		.4byte	.LFE10-.LFB10
 3119 0030 00000000 		.4byte	.LFB11
 3120 0034 20000000 		.4byte	.LFE11-.LFB11
 3121 0038 00000000 		.4byte	.LFB12
 3122 003c 64000000 		.4byte	.LFE12-.LFB12
 3123 0040 00000000 		.4byte	.LFB13
 3124 0044 50000000 		.4byte	.LFE13-.LFB13
 3125 0048 00000000 		.4byte	.LFB14
 3126 004c 54000000 		.4byte	.LFE14-.LFB14
 3127 0050 00000000 		.4byte	0
 3128 0054 00000000 		.4byte	0
 3129              		.section	.debug_ranges,"",%progbits
 3130              	.Ldebug_ranges0:
 3131 0000 0C000000 		.4byte	.LBB33
 3132 0004 44000000 		.4byte	.LBE33
 3133 0008 48000000 		.4byte	.LBB48
 3134 000c B8000000 		.4byte	.LBE48
 3135 0010 00000000 		.4byte	0
ARM GAS  /tmp/ccfc6Ncq.s 			page 56


 3136 0014 00000000 		.4byte	0
 3137 0018 4C000000 		.4byte	.LBB36
 3138 001c 54000000 		.4byte	.LBE36
 3139 0020 56000000 		.4byte	.LBB39
 3140 0024 58000000 		.4byte	.LBE39
 3141 0028 00000000 		.4byte	0
 3142 002c 00000000 		.4byte	0
 3143 0030 08000000 		.4byte	.LBB58
 3144 0034 0E000000 		.4byte	.LBE58
 3145 0038 16000000 		.4byte	.LBB64
 3146 003c 24000000 		.4byte	.LBE64
 3147 0040 00000000 		.4byte	0
 3148 0044 00000000 		.4byte	0
 3149 0048 0E000000 		.4byte	.LBB63
 3150 004c 14000000 		.4byte	.LBE63
 3151 0050 24000000 		.4byte	.LBB65
 3152 0054 2A000000 		.4byte	.LBE65
 3153 0058 00000000 		.4byte	0
 3154 005c 00000000 		.4byte	0
 3155 0060 30000000 		.4byte	.LBB72
 3156 0064 32000000 		.4byte	.LBE72
 3157 0068 36000000 		.4byte	.LBB76
 3158 006c 38000000 		.4byte	.LBE76
 3159 0070 3A000000 		.4byte	.LBB77
 3160 0074 3C000000 		.4byte	.LBE77
 3161 0078 00000000 		.4byte	0
 3162 007c 00000000 		.4byte	0
 3163 0080 48000000 		.4byte	.LBB78
 3164 0084 4E000000 		.4byte	.LBE78
 3165 0088 56000000 		.4byte	.LBB79
 3166 008c 5C000000 		.4byte	.LBE79
 3167 0090 00000000 		.4byte	0
 3168 0094 00000000 		.4byte	0
 3169 0098 2A000000 		.4byte	.LBB81
 3170 009c 2C000000 		.4byte	.LBE81
 3171 00a0 30000000 		.4byte	.LBB85
 3172 00a4 32000000 		.4byte	.LBE85
 3173 00a8 34000000 		.4byte	.LBB86
 3174 00ac 36000000 		.4byte	.LBE86
 3175 00b0 00000000 		.4byte	0
 3176 00b4 00000000 		.4byte	0
 3177 00b8 04000000 		.4byte	.LBB87
 3178 00bc 06000000 		.4byte	.LBE87
 3179 00c0 08000000 		.4byte	.LBB88
 3180 00c4 0C000000 		.4byte	.LBE88
 3181 00c8 00000000 		.4byte	0
 3182 00cc 00000000 		.4byte	0
 3183 00d0 10000000 		.4byte	.LBB89
 3184 00d4 26000000 		.4byte	.LBE89
 3185 00d8 2A000000 		.4byte	.LBB96
 3186 00dc 38000000 		.4byte	.LBE96
 3187 00e0 00000000 		.4byte	0
 3188 00e4 00000000 		.4byte	0
 3189 00e8 14000000 		.4byte	.LBB90
 3190 00ec 26000000 		.4byte	.LBE90
 3191 00f0 32000000 		.4byte	.LBB95
 3192 00f4 34000000 		.4byte	.LBE95
ARM GAS  /tmp/ccfc6Ncq.s 			page 57


 3193 00f8 00000000 		.4byte	0
 3194 00fc 00000000 		.4byte	0
 3195 0100 14000000 		.4byte	.LBB91
 3196 0104 16000000 		.4byte	.LBE91
 3197 0108 18000000 		.4byte	.LBB94
 3198 010c 1C000000 		.4byte	.LBE94
 3199 0110 00000000 		.4byte	0
 3200 0114 00000000 		.4byte	0
 3201 0118 00000000 		.4byte	.LFB7
 3202 011c 0A000000 		.4byte	.LFE7
 3203 0120 00000000 		.4byte	.LFB9
 3204 0124 C8000000 		.4byte	.LFE9
 3205 0128 00000000 		.4byte	.LFB8
 3206 012c 14000000 		.4byte	.LFE8
 3207 0130 00000000 		.4byte	.LFB10
 3208 0134 30000000 		.4byte	.LFE10
 3209 0138 00000000 		.4byte	.LFB11
 3210 013c 20000000 		.4byte	.LFE11
 3211 0140 00000000 		.4byte	.LFB12
 3212 0144 64000000 		.4byte	.LFE12
 3213 0148 00000000 		.4byte	.LFB13
 3214 014c 50000000 		.4byte	.LFE13
 3215 0150 00000000 		.4byte	.LFB14
 3216 0154 54000000 		.4byte	.LFE14
 3217 0158 00000000 		.4byte	0
 3218 015c 00000000 		.4byte	0
 3219              		.section	.debug_line,"",%progbits
 3220              	.Ldebug_line0:
 3221 0000 5C030000 		.section	.debug_str,"MS",%progbits,1
 3221      02008501 
 3221      00000201 
 3221      FB0E0D00 
 3221      01010101 
 3222              	.LASF41:
 3223 0000 705F6D73 		.ascii	"p_msg\000"
 3223      6700
 3224              	.LASF63:
 3225 0006 7264796D 		.ascii	"rdymsg\000"
 3225      736700
 3226              	.LASF7:
 3227 000d 5F5F7569 		.ascii	"__uint8_t\000"
 3227      6E74385F 
 3227      7400
 3228              	.LASF12:
 3229 0017 6C6F6E67 		.ascii	"long long unsigned int\000"
 3229      206C6F6E 
 3229      6720756E 
 3229      7369676E 
 3229      65642069 
 3230              	.LASF64:
 3231 002e 65786974 		.ascii	"exitcode\000"
 3231      636F6465 
 3231      00
 3232              	.LASF74:
 3233 0037 63684D74 		.ascii	"chMtxUnlock\000"
 3233      78556E6C 
 3233      6F636B00 
ARM GAS  /tmp/ccfc6Ncq.s 			page 58


 3234              	.LASF29:
 3235 0043 705F7072 		.ascii	"p_prio\000"
 3235      696F00
 3236              	.LASF1:
 3237 004a 6C6F6E67 		.ascii	"long long int\000"
 3237      206C6F6E 
 3237      6720696E 
 3237      7400
 3238              	.LASF3:
 3239 0058 7369676E 		.ascii	"signed char\000"
 3239      65642063 
 3239      68617200 
 3240              	.LASF45:
 3241 0064 705F6D70 		.ascii	"p_mpool\000"
 3241      6F6F6C00 
 3242              	.LASF16:
 3243 006c 626F6F6C 		.ascii	"bool_t\000"
 3243      5F7400
 3244              	.LASF60:
 3245 0073 6D5F7175 		.ascii	"m_queue\000"
 3245      65756500 
 3246              	.LASF21:
 3247 007b 74736C69 		.ascii	"tslices_t\000"
 3247      6365735F 
 3247      7400
 3248              	.LASF9:
 3249 0085 6C6F6E67 		.ascii	"long int\000"
 3249      20696E74 
 3249      00
 3250              	.LASF19:
 3251 008e 74737461 		.ascii	"tstate_t\000"
 3251      74655F74 
 3251      00
 3252              	.LASF71:
 3253 0097 63684D74 		.ascii	"chMtxLockS\000"
 3253      784C6F63 
 3253      6B5300
 3254              	.LASF86:
 3255 00a2 63684D74 		.ascii	"chMtxTryLockS\000"
 3255      78547279 
 3255      4C6F636B 
 3255      5300
 3256              	.LASF31:
 3257 00b0 705F6E65 		.ascii	"p_newer\000"
 3257      77657200 
 3258              	.LASF81:
 3259 00b8 63685363 		.ascii	"chSchRescheduleS\000"
 3259      68526573 
 3259      63686564 
 3259      756C6553 
 3259      00
 3260              	.LASF10:
 3261 00c9 5F5F7569 		.ascii	"__uint32_t\000"
 3261      6E743332 
 3261      5F7400
 3262              	.LASF48:
 3263 00d4 72656761 		.ascii	"regarm_t\000"
ARM GAS  /tmp/ccfc6Ncq.s 			page 59


 3263      726D5F74 
 3263      00
 3264              	.LASF76:
 3265 00dd 63684D74 		.ascii	"chMtxUnlockS\000"
 3265      78556E6C 
 3265      6F636B53 
 3265      00
 3266              	.LASF0:
 3267 00ea 756E7369 		.ascii	"unsigned int\000"
 3267      676E6564 
 3267      20696E74 
 3267      00
 3268              	.LASF11:
 3269 00f7 6C6F6E67 		.ascii	"long unsigned int\000"
 3269      20756E73 
 3269      69676E65 
 3269      6420696E 
 3269      7400
 3270              	.LASF50:
 3271 0109 636F6E74 		.ascii	"context\000"
 3271      65787400 
 3272              	.LASF6:
 3273 0111 73686F72 		.ascii	"short unsigned int\000"
 3273      7420756E 
 3273      7369676E 
 3273      65642069 
 3273      6E7400
 3274              	.LASF23:
 3275 0124 6D73675F 		.ascii	"msg_t\000"
 3275      7400
 3276              	.LASF55:
 3277 012a 725F6E65 		.ascii	"r_newer\000"
 3277      77657200 
 3278              	.LASF77:
 3279 0132 63684D74 		.ascii	"chMtxUnlockAll\000"
 3279      78556E6C 
 3279      6F636B41 
 3279      6C6C00
 3280              	.LASF75:
 3281 0141 6E657770 		.ascii	"newprio\000"
 3281      72696F00 
 3282              	.LASF18:
 3283 0149 746D6F64 		.ascii	"tmode_t\000"
 3283      655F7400 
 3284              	.LASF47:
 3285 0151 54687265 		.ascii	"ThreadsList\000"
 3285      6164734C 
 3285      69737400 
 3286              	.LASF24:
 3287 015d 6576656E 		.ascii	"eventmask_t\000"
 3287      746D6173 
 3287      6B5F7400 
 3288              	.LASF73:
 3289 0169 63684D74 		.ascii	"chMtxTryLock\000"
 3289      78547279 
 3289      4C6F636B 
 3289      00
ARM GAS  /tmp/ccfc6Ncq.s 			page 60


 3290              	.LASF59:
 3291 0176 4D757465 		.ascii	"Mutex\000"
 3291      7800
 3292              	.LASF51:
 3293 017c 73697A65 		.ascii	"sizetype\000"
 3293      74797065 
 3293      00
 3294              	.LASF2:
 3295 0185 6C6F6E67 		.ascii	"long double\000"
 3295      20646F75 
 3295      626C6500 
 3296              	.LASF72:
 3297 0191 63684D74 		.ascii	"chMtxLock\000"
 3297      784C6F63 
 3297      6B00
 3298              	.LASF32:
 3299 019b 705F6F6C 		.ascii	"p_older\000"
 3299      64657200 
 3300              	.LASF54:
 3301 01a3 725F6374 		.ascii	"r_ctx\000"
 3301      7800
 3302              	.LASF46:
 3303 01a9 54687265 		.ascii	"ThreadsQueue\000"
 3303      61647351 
 3303      75657565 
 3303      00
 3304              	.LASF68:
 3305 01b6 64657175 		.ascii	"dequeue\000"
 3305      65756500 
 3306              	.LASF57:
 3307 01be 725F6375 		.ascii	"r_current\000"
 3307      7272656E 
 3307      7400
 3308              	.LASF56:
 3309 01c8 725F6F6C 		.ascii	"r_older\000"
 3309      64657200 
 3310              	.LASF20:
 3311 01d0 74726566 		.ascii	"trefs_t\000"
 3311      735F7400 
 3312              	.LASF28:
 3313 01d8 705F7072 		.ascii	"p_prev\000"
 3313      657600
 3314              	.LASF22:
 3315 01df 74707269 		.ascii	"tprio_t\000"
 3315      6F5F7400 
 3316              	.LASF17:
 3317 01e7 5F426F6F 		.ascii	"_Bool\000"
 3317      6C00
 3318              	.LASF14:
 3319 01ed 696E7433 		.ascii	"int32_t\000"
 3319      325F7400 
 3320              	.LASF4:
 3321 01f5 756E7369 		.ascii	"unsigned char\000"
 3321      676E6564 
 3321      20636861 
 3321      7200
 3322              	.LASF84:
ARM GAS  /tmp/ccfc6Ncq.s 			page 61


 3323 0203 2F686F6D 		.ascii	"/home/lithium/Documentos/ChibiOS_2.6.8/demos/ESPv1\000"
 3323      652F6C69 
 3323      74686975 
 3323      6D2F446F 
 3323      63756D65 
 3324              	.LASF43:
 3325 0236 705F6D74 		.ascii	"p_mtxlist\000"
 3325      786C6973 
 3325      7400
 3326              	.LASF5:
 3327 0240 73686F72 		.ascii	"short int\000"
 3327      7420696E 
 3327      7400
 3328              	.LASF34:
 3329 024a 705F7374 		.ascii	"p_state\000"
 3329      61746500 
 3330              	.LASF37:
 3331 0252 705F7072 		.ascii	"p_preempt\000"
 3331      65656D70 
 3331      7400
 3332              	.LASF53:
 3333 025c 725F7072 		.ascii	"r_prio\000"
 3333      696F00
 3334              	.LASF82:
 3335 0263 474E5520 		.ascii	"GNU C11 5.3.1 20160307 (release) [ARM/embedded-5-br"
 3335      43313120 
 3335      352E332E 
 3335      31203230 
 3335      31363033 
 3336 0296 616E6368 		.ascii	"anch revision 234589] -mcpu=cortex-m4 -mno-thumb-in"
 3336      20726576 
 3336      6973696F 
 3336      6E203233 
 3336      34353839 
 3337 02c9 74657277 		.ascii	"terwork -mthumb -ggdb -O2 -fomit-frame-pointer -fal"
 3337      6F726B20 
 3337      2D6D7468 
 3337      756D6220 
 3337      2D676764 
 3338 02fc 69676E2D 		.ascii	"ign-functions=16 -ffunction-sections -fdata-section"
 3338      66756E63 
 3338      74696F6E 
 3338      733D3136 
 3338      202D6666 
 3339 032f 73202D66 		.ascii	"s -fno-common\000"
 3339      6E6F2D63 
 3339      6F6D6D6F 
 3339      6E00
 3340              	.LASF66:
 3341 033d 65776D61 		.ascii	"ewmask\000"
 3341      736B00
 3342              	.LASF27:
 3343 0344 705F6E65 		.ascii	"p_next\000"
 3343      787400
 3344              	.LASF35:
 3345 034b 705F666C 		.ascii	"p_flags\000"
 3345      61677300 
ARM GAS  /tmp/ccfc6Ncq.s 			page 62


 3346              	.LASF26:
 3347 0353 54687265 		.ascii	"Thread\000"
 3347      616400
 3348              	.LASF78:
 3349 035a 63685363 		.ascii	"chSchGoSleepS\000"
 3349      68476F53 
 3349      6C656570 
 3349      5300
 3350              	.LASF42:
 3351 0368 705F6570 		.ascii	"p_epending\000"
 3351      656E6469 
 3351      6E6700
 3352              	.LASF15:
 3353 0373 75696E74 		.ascii	"uint32_t\000"
 3353      33325F74 
 3353      00
 3354              	.LASF52:
 3355 037c 725F7175 		.ascii	"r_queue\000"
 3355      65756500 
 3356              	.LASF79:
 3357 0384 63685363 		.ascii	"chSchReadyI\000"
 3357      68526561 
 3357      64794900 
 3358              	.LASF67:
 3359 0390 63686172 		.ascii	"char\000"
 3359      00
 3360              	.LASF69:
 3361 0395 6669666F 		.ascii	"fifo_remove\000"
 3361      5F72656D 
 3361      6F766500 
 3362              	.LASF83:
 3363 03a1 2E2E2F2E 		.ascii	"../../os/kernel/src/chmtx.c\000"
 3363      2E2F6F73 
 3363      2F6B6572 
 3363      6E656C2F 
 3363      7372632F 
 3364              	.LASF62:
 3365 03bd 6D5F6E65 		.ascii	"m_next\000"
 3365      787400
 3366              	.LASF25:
 3367 03c4 73797374 		.ascii	"systime_t\000"
 3367      696D655F 
 3367      7400
 3368              	.LASF44:
 3369 03ce 705F7265 		.ascii	"p_realprio\000"
 3369      616C7072 
 3369      696F00
 3370              	.LASF8:
 3371 03d9 5F5F696E 		.ascii	"__int32_t\000"
 3371      7433325F 
 3371      7400
 3372              	.LASF85:
 3373 03e3 7072696F 		.ascii	"prio_insert\000"
 3373      5F696E73 
 3373      65727400 
 3374              	.LASF38:
 3375 03ef 705F7469 		.ascii	"p_time\000"
ARM GAS  /tmp/ccfc6Ncq.s 			page 63


 3375      6D6500
 3376              	.LASF49:
 3377 03f6 696E7463 		.ascii	"intctx\000"
 3377      747800
 3378              	.LASF40:
 3379 03fd 705F6D73 		.ascii	"p_msgqueue\000"
 3379      67717565 
 3379      756500
 3380              	.LASF80:
 3381 0408 63685363 		.ascii	"chSchWakeupS\000"
 3381      6857616B 
 3381      65757053 
 3381      00
 3382              	.LASF70:
 3383 0415 63684D74 		.ascii	"chMtxInit\000"
 3383      78496E69 
 3383      7400
 3384              	.LASF36:
 3385 041f 705F7265 		.ascii	"p_refs\000"
 3385      667300
 3386              	.LASF58:
 3387 0426 52656164 		.ascii	"ReadyList\000"
 3387      794C6973 
 3387      7400
 3388              	.LASF87:
 3389 0430 726C6973 		.ascii	"rlist\000"
 3389      7400
 3390              	.LASF13:
 3391 0436 75696E74 		.ascii	"uint8_t\000"
 3391      385F7400 
 3392              	.LASF65:
 3393 043e 77746F62 		.ascii	"wtobjp\000"
 3393      6A7000
 3394              	.LASF33:
 3395 0445 705F6E61 		.ascii	"p_name\000"
 3395      6D6500
 3396              	.LASF61:
 3397 044c 6D5F6F77 		.ascii	"m_owner\000"
 3397      6E657200 
 3398              	.LASF30:
 3399 0454 705F6374 		.ascii	"p_ctx\000"
 3399      7800
 3400              	.LASF39:
 3401 045a 705F7761 		.ascii	"p_waiting\000"
 3401      6974696E 
 3401      6700
 3402              		.ident	"GCC: (GNU Tools for ARM Embedded Processors) 5.3.1 20160307 (release) [ARM/embedded-5-bran
ARM GAS  /tmp/ccfc6Ncq.s 			page 64


DEFINED SYMBOLS
                            *ABS*:00000000 chmtx.c
     /tmp/ccfc6Ncq.s:20     .text.chMtxInit:00000000 $t
     /tmp/ccfc6Ncq.s:26     .text.chMtxInit:00000000 chMtxInit
     /tmp/ccfc6Ncq.s:47     .text.chMtxLockS:00000000 $t
     /tmp/ccfc6Ncq.s:53     .text.chMtxLockS:00000000 chMtxLockS
     /tmp/ccfc6Ncq.s:292    .text.chMtxLockS:000000c4 $d
     /tmp/ccfc6Ncq.s:297    .text.chMtxLock:00000000 $t
     /tmp/ccfc6Ncq.s:303    .text.chMtxLock:00000000 chMtxLock
     /tmp/ccfc6Ncq.s:342    .text.chMtxTryLock:00000000 $t
     /tmp/ccfc6Ncq.s:348    .text.chMtxTryLock:00000000 chMtxTryLock
     /tmp/ccfc6Ncq.s:429    .text.chMtxTryLock:0000002c $d
     /tmp/ccfc6Ncq.s:434    .text.chMtxTryLockS:00000000 $t
     /tmp/ccfc6Ncq.s:440    .text.chMtxTryLockS:00000000 chMtxTryLockS
     /tmp/ccfc6Ncq.s:479    .text.chMtxTryLockS:0000001c $d
     /tmp/ccfc6Ncq.s:486    .text.chMtxUnlock:00000000 $t
     /tmp/ccfc6Ncq.s:492    .text.chMtxUnlock:00000000 chMtxUnlock
     /tmp/ccfc6Ncq.s:633    .text.chMtxUnlock:00000060 $d
     /tmp/ccfc6Ncq.s:638    .text.chMtxUnlockS:00000000 $t
     /tmp/ccfc6Ncq.s:644    .text.chMtxUnlockS:00000000 chMtxUnlockS
     /tmp/ccfc6Ncq.s:750    .text.chMtxUnlockS:0000004c $d
     /tmp/ccfc6Ncq.s:755    .text.chMtxUnlockAll:00000000 $t
     /tmp/ccfc6Ncq.s:761    .text.chMtxUnlockAll:00000000 chMtxUnlockAll
     /tmp/ccfc6Ncq.s:881    .text.chMtxUnlockAll:00000050 $d
                     .debug_frame:00000010 $d

UNDEFINED SYMBOLS
chSchGoSleepS
chSchReadyI
rlist
chSchWakeupS
chSchRescheduleS
