ARM GAS  /tmp/ccOVOLhf.s 			page 1


   1              		.syntax unified
   2              		.cpu cortex-m4
   3              		.fpu softvfp
   4              		.eabi_attribute 20, 1
   5              		.eabi_attribute 21, 1
   6              		.eabi_attribute 23, 3
   7              		.eabi_attribute 24, 1
   8              		.eabi_attribute 25, 1
   9              		.eabi_attribute 26, 1
  10              		.eabi_attribute 30, 2
  11              		.eabi_attribute 34, 1
  12              		.eabi_attribute 18, 4
  13              		.thumb
  14              		.syntax unified
  15              		.file	"chprintf.c"
  16              		.text
  17              	.Ltext0:
  18              		.cfi_sections	.debug_frame
  19              		.section	.text.ltoa,"ax",%progbits
  20              		.align	2
  21              		.p2align 4,,15
  22              		.thumb
  23              		.thumb_func
  24              		.type	ltoa, %function
  25              	ltoa:
  26              	.LFB9:
  27              		.file 1 "../../os/various/chprintf.c"
  28              		.loc 1 70 0
  29              		.cfi_startproc
  30              		@ args = 0, pretend = 0, frame = 0
  31              		@ frame_needed = 0, uses_anonymous_args = 0
  32              		@ link register save eliminated.
  33              	.LVL0:
  34 0000 F0B4     		push	{r4, r5, r6, r7}
  35              		.cfi_def_cfa_offset 16
  36              		.cfi_offset 4, -16
  37              		.cfi_offset 5, -12
  38              		.cfi_offset 6, -8
  39              		.cfi_offset 7, -4
  40              	.LBB4:
  41              	.LBB5:
  42              		.loc 1 52 0
  43 0002 00F10B07 		add	r7, r0, #11
  44              	.LVL1:
  45 0006 3C46     		mov	r4, r7
  46 0008 0D46     		mov	r5, r1
  47              	.LVL2:
  48              	.L3:
  49              		.loc 1 54 0
  50 000a B1FBF2F6 		udiv	r6, r1, r2
  51 000e 02FB1611 		mls	r1, r2, r6, r1
  52              	.LVL3:
  53              		.loc 1 55 0
  54 0012 01F13003 		add	r3, r1, #48
  55              	.LVL4:
  56              		.loc 1 56 0
  57 0016 392B     		cmp	r3, #57
ARM GAS  /tmp/ccOVOLhf.s 			page 2


  58              		.loc 1 57 0
  59 0018 C8BF     		it	gt
  60 001a 01F13703 		addgt	r3, r1, #55
  61              	.LVL5:
  62              		.loc 1 58 0
  63 001e DBB2     		uxtb	r3, r3
  64              	.LVL6:
  65 0020 04F8013D 		strb	r3, [r4, #-1]!
  66              	.LVL7:
  67              		.loc 1 60 0
  68 0024 B5FBF2F5 		udiv	r5, r5, r2
  69              	.LVL8:
  70              		.loc 1 59 0
  71 0028 3146     		mov	r1, r6
  72              	.LVL9:
  73              		.loc 1 60 0
  74 002a 002D     		cmp	r5, #0
  75 002c EDD1     		bne	.L3
  76              	.LVL10:
  77 002e 3A1B     		subs	r2, r7, r4
  78              	.LVL11:
  79 0030 0244     		add	r2, r2, r0
  80 0032 01E0     		b	.L5
  81              	.LVL12:
  82              	.L10:
  83 0034 14F8013F 		ldrb	r3, [r4, #1]!	@ zero_extendqisi2
  84              	.LVL13:
  85              	.L5:
  86              		.loc 1 64 0
  87 0038 00F8013B 		strb	r3, [r0], #1
  88              	.LVL14:
  89              		.loc 1 65 0
  90 003c 9042     		cmp	r0, r2
  91 003e F9D1     		bne	.L10
  92              	.LVL15:
  93              	.LBE5:
  94              	.LBE4:
  95              		.loc 1 73 0
  96 0040 F0BC     		pop	{r4, r5, r6, r7}
  97              		.cfi_restore 7
  98              		.cfi_restore 6
  99              		.cfi_restore 5
 100              		.cfi_restore 4
 101              		.cfi_def_cfa_offset 0
 102              	.LVL16:
 103 0042 7047     		bx	lr
 104              		.cfi_endproc
 105              	.LFE9:
 106              		.size	ltoa, .-ltoa
 107              		.section	.text.chvprintf,"ax",%progbits
 108              		.align	2
 109              		.p2align 4,,15
 110              		.global	chvprintf
 111              		.thumb
 112              		.thumb_func
 113              		.type	chvprintf, %function
 114              	chvprintf:
ARM GAS  /tmp/ccOVOLhf.s 			page 3


 115              	.LFB10:
 116              		.loc 1 112 0
 117              		.cfi_startproc
 118              		@ args = 0, pretend = 0, frame = 24
 119              		@ frame_needed = 0, uses_anonymous_args = 0
 120              	.LVL17:
 121 0000 2DE9F04F 		push	{r4, r5, r6, r7, r8, r9, r10, fp, lr}
 122              		.cfi_def_cfa_offset 36
 123              		.cfi_offset 4, -36
 124              		.cfi_offset 5, -32
 125              		.cfi_offset 6, -28
 126              		.cfi_offset 7, -24
 127              		.cfi_offset 8, -20
 128              		.cfi_offset 9, -16
 129              		.cfi_offset 10, -12
 130              		.cfi_offset 11, -8
 131              		.cfi_offset 14, -4
 132 0004 87B0     		sub	sp, sp, #28
 133              		.cfi_def_cfa_offset 64
 134 0006 0DF10C0A 		add	r10, sp, #12
 135 000a 0DF10D03 		add	r3, sp, #13
 136 000e CAEB0303 		rsb	r3, r10, r3
 137              		.loc 1 112 0
 138 0012 0646     		mov	r6, r0
 139 0014 0D46     		mov	r5, r1
 140 0016 1746     		mov	r7, r2
 141 0018 0193     		str	r3, [sp, #4]
 142              	.LVL18:
 143              	.L12:
 144              		.loc 1 125 0
 145 001a 2978     		ldrb	r1, [r5]	@ zero_extendqisi2
 146 001c 6B1C     		adds	r3, r5, #1
 147              	.LVL19:
 148              		.loc 1 126 0
 149 001e 51B1     		cbz	r1, .L11
 150              	.L98:
 151              		.loc 1 128 0
 152 0020 2529     		cmp	r1, #37
 153 0022 0BD0     		beq	.L14
 154              		.loc 1 129 0
 155 0024 3268     		ldr	r2, [r6]
 156              	.LVL20:
 157              		.loc 1 125 0
 158 0026 1D46     		mov	r5, r3
 159              		.loc 1 129 0
 160 0028 9268     		ldr	r2, [r2, #8]
 161 002a 3046     		mov	r0, r6
 162 002c 9047     		blx	r2
 163              	.LVL21:
 164              		.loc 1 125 0
 165 002e 2978     		ldrb	r1, [r5]	@ zero_extendqisi2
 166 0030 6B1C     		adds	r3, r5, #1
 167              	.LVL22:
 168              		.loc 1 126 0
 169 0032 0029     		cmp	r1, #0
 170 0034 F4D1     		bne	.L98
 171              	.LVL23:
ARM GAS  /tmp/ccOVOLhf.s 			page 4


 172              	.L11:
 173              		.loc 1 261 0
 174 0036 07B0     		add	sp, sp, #28
 175              		.cfi_remember_state
 176              		.cfi_def_cfa_offset 36
 177              		@ sp needed
 178 0038 BDE8F08F 		pop	{r4, r5, r6, r7, r8, r9, r10, fp, pc}
 179              	.LVL24:
 180              	.L14:
 181              		.cfi_restore_state
 182              		.loc 1 135 0
 183 003c 6A78     		ldrb	r2, [r5, #1]	@ zero_extendqisi2
 184              	.LVL25:
 185 003e 2D2A     		cmp	r2, #45
 186 0040 05BF     		ittet	eq
 187 0042 AA78     		ldrbeq	r2, [r5, #2]	@ zero_extendqisi2
 188              		.loc 1 137 0
 189 0044 0121     		moveq	r1, #1
 190              	.LVL26:
 191              		.loc 1 134 0
 192 0046 0021     		movne	r1, #0
 193              		.loc 1 136 0
 194 0048 AB1C     		addeq	r3, r5, #2
 195              	.LVL27:
 196              		.loc 1 140 0
 197 004a 2E2A     		cmp	r2, #46
 198              		.loc 1 134 0
 199 004c 0091     		str	r1, [sp]
 200              	.LVL28:
 201              		.loc 1 140 0
 202 004e 00F00E81 		beq	.L17
 203              		.loc 1 140 0 is_stmt 0 discriminator 1
 204 0052 302A     		cmp	r2, #48
 205 0054 00F00B81 		beq	.L17
 206              		.loc 1 139 0 is_stmt 1
 207 0058 4FF02008 		mov	r8, #32
 208              	.LVL29:
 209              	.L18:
 210 005c 591C     		adds	r1, r3, #1
 211              		.loc 1 144 0
 212 005e 0024     		movs	r4, #0
 213 0060 05E0     		b	.L21
 214              	.LVL30:
 215              	.L99:
 216              		.loc 1 150 0
 217 0062 3B78     		ldrb	r3, [r7]	@ zero_extendqisi2
 218              	.LVL31:
 219 0064 0437     		adds	r7, r7, #4
 220              	.LVL32:
 221              	.L19:
 222 0066 2A78     		ldrb	r2, [r5]	@ zero_extendqisi2
 223              		.loc 1 153 0
 224 0068 03EB4004 		add	r4, r3, r0, lsl #1
 225              	.LVL33:
 226 006c 0131     		adds	r1, r1, #1
 227              	.LVL34:
 228              	.L21:
ARM GAS  /tmp/ccOVOLhf.s 			page 5


 229              		.loc 1 147 0
 230 006e A2F13003 		sub	r3, r2, #48
 231 0072 DBB2     		uxtb	r3, r3
 232 0074 092B     		cmp	r3, #9
 233              		.loc 1 146 0
 234 0076 0D46     		mov	r5, r1
 235              	.LVL35:
 236              		.loc 1 153 0
 237 0078 04EB8400 		add	r0, r4, r4, lsl #2
 238              		.loc 1 147 0
 239 007c F3D9     		bls	.L19
 240              		.loc 1 149 0
 241 007e 2A2A     		cmp	r2, #42
 242 0080 EFD0     		beq	.L99
 243              	.LVL36:
 244              		.loc 1 156 0
 245 0082 2E2A     		cmp	r2, #46
 246 0084 4FF00001 		mov	r1, #0
 247              	.LVL37:
 248 0088 32D0     		beq	.L24
 249              	.LVL38:
 250              		.loc 1 170 0
 251 008a 02F0DF03 		and	r3, r2, #223
 252 008e 4C2B     		cmp	r3, #76
 253 0090 3DD0     		beq	.L100
 254              	.L86:
 255              		.loc 1 176 0
 256 0092 A2F14100 		sub	r0, r2, #65
 257 0096 C0B2     		uxtb	r0, r0
 258 0098 1928     		cmp	r0, #25
 259              		.loc 1 179 0
 260 009a A2F14403 		sub	r3, r2, #68
 261              		.loc 1 176 0
 262 009e 8CBF     		ite	hi
 263 00a0 4FF0000E 		movhi	lr, #0
 264 00a4 4FF0010E 		movls	lr, #1
 265              	.LVL39:
 266              		.loc 1 179 0
 267 00a8 342B     		cmp	r3, #52
 268 00aa 00F2D880 		bhi	.L27
 269 00ae DFE803F0 		tbb	[pc, r3]
 270              	.L36:
 271 00b2 C6       		.byte	(.L44-.L36)/2
 272 00b3 D6       		.byte	(.L27-.L36)/2
 273 00b4 D6       		.byte	(.L27-.L36)/2
 274 00b5 D6       		.byte	(.L27-.L36)/2
 275 00b6 D6       		.byte	(.L27-.L36)/2
 276 00b7 C6       		.byte	(.L44-.L36)/2
 277 00b8 D6       		.byte	(.L27-.L36)/2
 278 00b9 D6       		.byte	(.L27-.L36)/2
 279 00ba D6       		.byte	(.L27-.L36)/2
 280 00bb D6       		.byte	(.L27-.L36)/2
 281 00bc D6       		.byte	(.L27-.L36)/2
 282 00bd C4       		.byte	(.L30-.L36)/2
 283 00be D6       		.byte	(.L27-.L36)/2
 284 00bf D6       		.byte	(.L27-.L36)/2
 285 00c0 D6       		.byte	(.L27-.L36)/2
ARM GAS  /tmp/ccOVOLhf.s 			page 6


 286 00c1 D6       		.byte	(.L27-.L36)/2
 287 00c2 D6       		.byte	(.L27-.L36)/2
 288 00c3 8E       		.byte	(.L31-.L36)/2
 289 00c4 D6       		.byte	(.L27-.L36)/2
 290 00c5 D6       		.byte	(.L27-.L36)/2
 291 00c6 55       		.byte	(.L67-.L36)/2
 292 00c7 D6       		.byte	(.L27-.L36)/2
 293 00c8 D6       		.byte	(.L27-.L36)/2
 294 00c9 D6       		.byte	(.L27-.L36)/2
 295 00ca D6       		.byte	(.L27-.L36)/2
 296 00cb D6       		.byte	(.L27-.L36)/2
 297 00cc D6       		.byte	(.L27-.L36)/2
 298 00cd D6       		.byte	(.L27-.L36)/2
 299 00ce D6       		.byte	(.L27-.L36)/2
 300 00cf D6       		.byte	(.L27-.L36)/2
 301 00d0 D6       		.byte	(.L27-.L36)/2
 302 00d1 B8       		.byte	(.L33-.L36)/2
 303 00d2 C6       		.byte	(.L44-.L36)/2
 304 00d3 D6       		.byte	(.L27-.L36)/2
 305 00d4 D6       		.byte	(.L27-.L36)/2
 306 00d5 D6       		.byte	(.L27-.L36)/2
 307 00d6 D6       		.byte	(.L27-.L36)/2
 308 00d7 C6       		.byte	(.L44-.L36)/2
 309 00d8 D6       		.byte	(.L27-.L36)/2
 310 00d9 D6       		.byte	(.L27-.L36)/2
 311 00da D6       		.byte	(.L27-.L36)/2
 312 00db D6       		.byte	(.L27-.L36)/2
 313 00dc D6       		.byte	(.L27-.L36)/2
 314 00dd C4       		.byte	(.L30-.L36)/2
 315 00de D6       		.byte	(.L27-.L36)/2
 316 00df D6       		.byte	(.L27-.L36)/2
 317 00e0 D6       		.byte	(.L27-.L36)/2
 318 00e1 90       		.byte	(.L34-.L36)/2
 319 00e2 D6       		.byte	(.L27-.L36)/2
 320 00e3 8E       		.byte	(.L31-.L36)/2
 321 00e4 D6       		.byte	(.L27-.L36)/2
 322 00e5 D6       		.byte	(.L27-.L36)/2
 323 00e6 55       		.byte	(.L67-.L36)/2
 324              	.LVL40:
 325 00e7 00       		.p2align 1
 326              	.L101:
 327              		.loc 1 162 0
 328 00e8 3B78     		ldrb	r3, [r7]	@ zero_extendqisi2
 329              	.LVL41:
 330 00ea 0437     		adds	r7, r7, #4
 331              	.LVL42:
 332              	.L23:
 333              		.loc 1 166 0
 334 00ec 03EB4001 		add	r1, r3, r0, lsl #1
 335              	.LVL43:
 336              	.L24:
 337              		.loc 1 158 0
 338 00f0 15F8012B 		ldrb	r2, [r5], #1	@ zero_extendqisi2
 339              	.LVL44:
 340              		.loc 1 159 0
 341 00f4 A2F13003 		sub	r3, r2, #48
 342 00f8 DBB2     		uxtb	r3, r3
ARM GAS  /tmp/ccOVOLhf.s 			page 7


 343 00fa 092B     		cmp	r3, #9
 344              		.loc 1 165 0
 345 00fc 01EB8100 		add	r0, r1, r1, lsl #2
 346              		.loc 1 159 0
 347 0100 F4D9     		bls	.L23
 348              		.loc 1 161 0
 349 0102 2A2A     		cmp	r2, #42
 350 0104 F0D0     		beq	.L101
 351              	.LVL45:
 352              		.loc 1 170 0
 353 0106 02F0DF03 		and	r3, r2, #223
 354 010a 4C2B     		cmp	r3, #76
 355 010c C1D1     		bne	.L86
 356              	.L100:
 357              	.LVL46:
 358              		.loc 1 172 0
 359 010e 2878     		ldrb	r0, [r5]	@ zero_extendqisi2
 360 0110 0028     		cmp	r0, #0
 361 0112 00F0A480 		beq	.L27
 362              		.loc 1 179 0
 363 0116 A0F14403 		sub	r3, r0, #68
 364              		.loc 1 173 0
 365 011a 0135     		adds	r5, r5, #1
 366              	.LVL47:
 367              		.loc 1 179 0
 368 011c 342B     		cmp	r3, #52
 369 011e 00F29D80 		bhi	.L64
 370 0122 DFE803F0 		tbb	[pc, r3]
 371              	.L29:
 372 0126 8C       		.byte	(.L44-.L29)/2
 373 0127 9B       		.byte	(.L64-.L29)/2
 374 0128 9B       		.byte	(.L64-.L29)/2
 375 0129 9B       		.byte	(.L64-.L29)/2
 376 012a 9B       		.byte	(.L64-.L29)/2
 377 012b 8C       		.byte	(.L44-.L29)/2
 378 012c 9B       		.byte	(.L64-.L29)/2
 379 012d 9B       		.byte	(.L64-.L29)/2
 380 012e 9B       		.byte	(.L64-.L29)/2
 381 012f 9B       		.byte	(.L64-.L29)/2
 382 0130 9B       		.byte	(.L64-.L29)/2
 383 0131 8A       		.byte	(.L30-.L29)/2
 384 0132 9B       		.byte	(.L64-.L29)/2
 385 0133 9B       		.byte	(.L64-.L29)/2
 386 0134 9B       		.byte	(.L64-.L29)/2
 387 0135 9B       		.byte	(.L64-.L29)/2
 388 0136 9B       		.byte	(.L64-.L29)/2
 389 0137 54       		.byte	(.L31-.L29)/2
 390 0138 9B       		.byte	(.L64-.L29)/2
 391 0139 9B       		.byte	(.L64-.L29)/2
 392 013a 1B       		.byte	(.L67-.L29)/2
 393 013b 9B       		.byte	(.L64-.L29)/2
 394 013c 9B       		.byte	(.L64-.L29)/2
 395 013d 9B       		.byte	(.L64-.L29)/2
 396 013e 9B       		.byte	(.L64-.L29)/2
 397 013f 9B       		.byte	(.L64-.L29)/2
 398 0140 9B       		.byte	(.L64-.L29)/2
 399 0141 9B       		.byte	(.L64-.L29)/2
ARM GAS  /tmp/ccOVOLhf.s 			page 8


 400 0142 9B       		.byte	(.L64-.L29)/2
 401 0143 9B       		.byte	(.L64-.L29)/2
 402 0144 9B       		.byte	(.L64-.L29)/2
 403 0145 7E       		.byte	(.L33-.L29)/2
 404 0146 8C       		.byte	(.L44-.L29)/2
 405 0147 9B       		.byte	(.L64-.L29)/2
 406 0148 9B       		.byte	(.L64-.L29)/2
 407 0149 9B       		.byte	(.L64-.L29)/2
 408 014a 9B       		.byte	(.L64-.L29)/2
 409 014b 8C       		.byte	(.L44-.L29)/2
 410 014c 9B       		.byte	(.L64-.L29)/2
 411 014d 9B       		.byte	(.L64-.L29)/2
 412 014e 9B       		.byte	(.L64-.L29)/2
 413 014f 9B       		.byte	(.L64-.L29)/2
 414 0150 9B       		.byte	(.L64-.L29)/2
 415 0151 8A       		.byte	(.L30-.L29)/2
 416 0152 9B       		.byte	(.L64-.L29)/2
 417 0153 9B       		.byte	(.L64-.L29)/2
 418 0154 9B       		.byte	(.L64-.L29)/2
 419 0155 56       		.byte	(.L34-.L29)/2
 420 0156 9B       		.byte	(.L64-.L29)/2
 421 0157 54       		.byte	(.L31-.L29)/2
 422 0158 9B       		.byte	(.L64-.L29)/2
 423 0159 9B       		.byte	(.L64-.L29)/2
 424 015a 1B       		.byte	(.L67-.L29)/2
 425              	.L37:
 426              	.LVL48:
 427 015b 00       		.p2align 1
 428              	.L67:
 429 015c 1022     		movs	r2, #16
 430              	.L47:
 431              		.loc 1 232 0
 432 015e 3968     		ldr	r1, [r7]
 433              	.LVL49:
 434              		.loc 1 233 0
 435 0160 5046     		mov	r0, r10
 436 0162 FFF7FEFF 		bl	ltoa
 437              	.LVL50:
 438 0166 CAEB0000 		rsb	r0, r10, r0
 439              		.loc 1 232 0
 440 016a 0437     		adds	r7, r7, #4
 441              	.LVL51:
 442 016c 00F1FF39 		add	r9, r0, #-1
 443              		.loc 1 133 0
 444 0170 D346     		mov	fp, r10
 445              	.LVL52:
 446              	.L38:
 447              		.loc 1 242 0
 448 0172 009B     		ldr	r3, [sp]
 449              		.loc 1 240 0
 450 0174 241A     		subs	r4, r4, r0
 451              	.LVL53:
 452 0176 24EAE474 		bic	r4, r4, r4, asr #31
 453              	.LVL54:
 454              		.loc 1 242 0
 455 017a 002B     		cmp	r3, #0
 456 017c 4DD1     		bne	.L49
ARM GAS  /tmp/ccOVOLhf.s 			page 9


 457              	.LVL55:
 458              	.L60:
 459              		.loc 1 243 0
 460 017e 6442     		negs	r4, r4
 461              	.LVL56:
 462              		.loc 1 244 0
 463 0180 5CB1     		cbz	r4, .L50
 464              		.loc 1 245 0
 465 0182 9BF80010 		ldrb	r1, [fp]	@ zero_extendqisi2
 466 0186 2D29     		cmp	r1, #45
 467 0188 00F08380 		beq	.L102
 468              	.LVL57:
 469              	.L52:
 470              		.loc 1 250 0 discriminator 1
 471 018c 3368     		ldr	r3, [r6]
 472 018e 4146     		mov	r1, r8
 473 0190 9B68     		ldr	r3, [r3, #8]
 474 0192 3046     		mov	r0, r6
 475 0194 9847     		blx	r3
 476              	.LVL58:
 477              		.loc 1 251 0 discriminator 1
 478 0196 0134     		adds	r4, r4, #1
 479              	.LVL59:
 480 0198 F8D1     		bne	.L52
 481              	.L50:
 482              	.LVL60:
 483              		.loc 1 253 0
 484 019a B9F1000F 		cmp	r9, #0
 485 019e FFF63CAF 		blt	.L12
 486              	.LVL61:
 487              	.L55:
 488              		.loc 1 254 0
 489 01a2 3368     		ldr	r3, [r6]
 490 01a4 1BF8011B 		ldrb	r1, [fp], #1	@ zero_extendqisi2
 491              	.LVL62:
 492 01a8 9B68     		ldr	r3, [r3, #8]
 493              		.loc 1 253 0
 494 01aa 09F1FF39 		add	r9, r9, #-1
 495              	.LVL63:
 496              		.loc 1 254 0
 497 01ae 3046     		mov	r0, r6
 498 01b0 9847     		blx	r3
 499              	.LVL64:
 500              		.loc 1 253 0
 501 01b2 B9F1FF3F 		cmp	r9, #-1
 502 01b6 F4D1     		bne	.L55
 503              	.LVL65:
 504              	.L54:
 505              		.loc 1 256 0
 506 01b8 002C     		cmp	r4, #0
 507 01ba 3FF42EAF 		beq	.L12
 508              	.L56:
 509              		.loc 1 257 0
 510 01be 3368     		ldr	r3, [r6]
 511 01c0 4146     		mov	r1, r8
 512 01c2 9B68     		ldr	r3, [r3, #8]
 513 01c4 3046     		mov	r0, r6
ARM GAS  /tmp/ccOVOLhf.s 			page 10


 514 01c6 9847     		blx	r3
 515              	.LVL66:
 516              		.loc 1 256 0
 517 01c8 013C     		subs	r4, r4, #1
 518              	.LVL67:
 519 01ca F8D1     		bne	.L56
 520 01cc 25E7     		b	.L12
 521              	.LVL68:
 522              	.L31:
 523              		.loc 1 224 0
 524 01ce 0A22     		movs	r2, #10
 525 01d0 C5E7     		b	.L47
 526              	.LVL69:
 527              	.L34:
 528              		.loc 1 186 0
 529 01d2 D7F800B0 		ldr	fp, [r7]
 530              		.loc 1 187 0
 531 01d6 3A4B     		ldr	r3, .L105
 532 01d8 BBF1000F 		cmp	fp, #0
 533 01dc 08BF     		it	eq
 534 01de 9B46     		moveq	fp, r3
 535              		.loc 1 186 0
 536 01e0 0437     		adds	r7, r7, #4
 537              	.LVL70:
 538              		.loc 1 190 0
 539 01e2 9BF80030 		ldrb	r3, [fp]	@ zero_extendqisi2
 540              		.loc 1 188 0
 541 01e6 0029     		cmp	r1, #0
 542 01e8 46D0     		beq	.L40
 543              	.LVL71:
 544              		.loc 1 190 0 discriminator 1
 545 01ea 002B     		cmp	r3, #0
 546 01ec 48D0     		beq	.L41
 547              		.loc 1 190 0 is_stmt 0
 548 01ee 0139     		subs	r1, r1, #1
 549              	.LVL72:
 550              	.L58:
 551              		.loc 1 190 0 discriminator 4
 552 01f0 5846     		mov	r0, fp
 553 01f2 01E0     		b	.L43
 554              	.LVL73:
 555              	.L103:
 556              		.loc 1 190 0 discriminator 3
 557 01f4 4B1C     		adds	r3, r1, #1
 558 01f6 04D0     		beq	.L95
 559              	.LVL74:
 560              	.L43:
 561              		.loc 1 190 0 discriminator 4
 562 01f8 10F8013F 		ldrb	r3, [r0, #1]!	@ zero_extendqisi2
 563              	.LVL75:
 564 01fc 0139     		subs	r1, r1, #1
 565              	.LVL76:
 566 01fe 002B     		cmp	r3, #0
 567 0200 F8D1     		bne	.L103
 568              	.L95:
 569 0202 CBEB0000 		rsb	r0, fp, r0
 570              	.LVL77:
ARM GAS  /tmp/ccOVOLhf.s 			page 11


 571              		.loc 1 242 0 is_stmt 1
 572 0206 009B     		ldr	r3, [sp]
 573              		.loc 1 240 0
 574 0208 241A     		subs	r4, r4, r0
 575              	.LVL78:
 576 020a 00F1FF39 		add	r9, r0, #-1
 577              		.loc 1 185 0
 578 020e 4FF02008 		mov	r8, #32
 579              	.LVL79:
 580 0212 24EAE474 		bic	r4, r4, r4, asr #31
 581              	.LVL80:
 582              		.loc 1 242 0
 583 0216 002B     		cmp	r3, #0
 584 0218 B1D0     		beq	.L60
 585              	.LVL81:
 586              	.L49:
 587              		.loc 1 253 0
 588 021a B9F1000F 		cmp	r9, #0
 589 021e C0DA     		bge	.L55
 590 0220 CAE7     		b	.L54
 591              	.LVL82:
 592              	.L33:
 593              		.loc 1 182 0
 594 0222 3B68     		ldr	r3, [r7]
 595 0224 8DF80C30 		strb	r3, [sp, #12]
 596 0228 019B     		ldr	r3, [sp, #4]
 597 022a 0437     		adds	r7, r7, #4
 598 022c 1846     		mov	r0, r3
 599 022e 03F1FF39 		add	r9, r3, #-1
 600              		.loc 1 181 0
 601 0232 4FF02008 		mov	r8, #32
 602              		.loc 1 133 0
 603 0236 D346     		mov	fp, r10
 604              		.loc 1 183 0
 605 0238 9BE7     		b	.L38
 606              	.LVL83:
 607              	.L30:
 608 023a 0822     		movs	r2, #8
 609 023c 8FE7     		b	.L47
 610              	.LVL84:
 611              	.L44:
 612              		.loc 1 200 0
 613 023e 3968     		ldr	r1, [r7]
 614              	.LVL85:
 615              		.loc 1 201 0
 616 0240 0029     		cmp	r1, #0
 617              		.loc 1 200 0
 618 0242 07F10407 		add	r7, r7, #4
 619              		.loc 1 201 0
 620 0246 31DB     		blt	.L104
 621              		.loc 1 132 0
 622 0248 5046     		mov	r0, r10
 623              	.LVL86:
 624              	.L46:
 625              		.loc 1 205 0
 626 024a 0A22     		movs	r2, #10
 627 024c FFF7FEFF 		bl	ltoa
ARM GAS  /tmp/ccOVOLhf.s 			page 12


 628              	.LVL87:
 629 0250 CAEB0000 		rsb	r0, r10, r0
 630              	.LVL88:
 631 0254 00F1FF39 		add	r9, r0, #-1
 632              		.loc 1 133 0
 633 0258 D346     		mov	fp, r10
 634              		.loc 1 206 0
 635 025a 8AE7     		b	.L38
 636              	.LVL89:
 637              	.L64:
 638              		.loc 1 179 0
 639 025c 0246     		mov	r2, r0
 640              	.LVL90:
 641              	.L27:
 642 025e 019B     		ldr	r3, [sp, #4]
 643              		.loc 1 236 0
 644 0260 8DF80C20 		strb	r2, [sp, #12]
 645 0264 1846     		mov	r0, r3
 646 0266 03F1FF39 		add	r9, r3, #-1
 647              		.loc 1 133 0
 648 026a D346     		mov	fp, r10
 649              		.loc 1 237 0
 650 026c 81E7     		b	.L38
 651              	.LVL91:
 652              	.L17:
 653 026e 5A78     		ldrb	r2, [r3, #1]	@ zero_extendqisi2
 654              		.loc 1 142 0
 655 0270 4FF03008 		mov	r8, #48
 656              		.loc 1 141 0
 657 0274 0133     		adds	r3, r3, #1
 658              	.LVL92:
 659 0276 F1E6     		b	.L18
 660              	.LVL93:
 661              	.L40:
 662              		.loc 1 190 0
 663 0278 47F6FE71 		movw	r1, #32766
 664 027c 002B     		cmp	r3, #0
 665 027e B7D1     		bne	.L58
 666              	.LVL94:
 667              	.L41:
 668              		.loc 1 242 0
 669 0280 009B     		ldr	r3, [sp]
 670 0282 24EAE474 		bic	r4, r4, r4, asr #31
 671              	.LVL95:
 672 0286 C3B9     		cbnz	r3, .L72
 673 0288 4FF0FF39 		mov	r9, #-1
 674 028c 4FF02008 		mov	r8, #32
 675 0290 75E7     		b	.L60
 676              	.LVL96:
 677              	.L102:
 678              		.loc 1 245 0 discriminator 1
 679 0292 B8F1300F 		cmp	r8, #48
 680 0296 7FF479AF 		bne	.L52
 681              		.loc 1 246 0
 682 029a 3268     		ldr	r2, [r6]
 683 029c 3046     		mov	r0, r6
 684 029e 9268     		ldr	r2, [r2, #8]
ARM GAS  /tmp/ccOVOLhf.s 			page 13


 685 02a0 9047     		blx	r2
 686              	.LVL97:
 687 02a2 0BF1010B 		add	fp, fp, #1
 688              	.LVL98:
 689 02a6 09F1FF39 		add	r9, r9, #-1
 690 02aa 6FE7     		b	.L52
 691              	.LVL99:
 692              	.L104:
 693              		.loc 1 202 0
 694 02ac 2D23     		movs	r3, #45
 695              		.loc 1 203 0
 696 02ae 4942     		negs	r1, r1
 697              	.LVL100:
 698              		.loc 1 202 0
 699 02b0 8DF80C30 		strb	r3, [sp, #12]
 700 02b4 0DF10D00 		add	r0, sp, #13
 701              	.LVL101:
 702 02b8 C7E7     		b	.L46
 703              	.LVL102:
 704              	.L72:
 705              		.loc 1 242 0
 706 02ba 4FF02008 		mov	r8, #32
 707 02be 7BE7     		b	.L54
 708              	.L106:
 709              		.align	2
 710              	.L105:
 711 02c0 00000000 		.word	.LC0
 712              		.cfi_endproc
 713              	.LFE10:
 714              		.size	chvprintf, .-chvprintf
 715              		.section	.text.chsnprintf,"ax",%progbits
 716              		.align	2
 717              		.p2align 4,,15
 718              		.global	chsnprintf
 719              		.thumb
 720              		.thumb_func
 721              		.type	chsnprintf, %function
 722              	chsnprintf:
 723              	.LFB11:
 724              		.loc 1 288 0
 725              		.cfi_startproc
 726              		@ args = 4, pretend = 8, frame = 24
 727              		@ frame_needed = 0, uses_anonymous_args = 1
 728              	.LVL103:
 729 0000 0CB4     		push	{r2, r3}
 730              		.cfi_def_cfa_offset 8
 731              		.cfi_offset 2, -8
 732              		.cfi_offset 3, -4
 733 0002 70B5     		push	{r4, r5, r6, lr}
 734              		.cfi_def_cfa_offset 24
 735              		.cfi_offset 4, -24
 736              		.cfi_offset 5, -20
 737              		.cfi_offset 6, -16
 738              		.cfi_offset 14, -12
 739 0004 86B0     		sub	sp, sp, #24
 740              		.cfi_def_cfa_offset 48
 741              		.loc 1 288 0
ARM GAS  /tmp/ccOVOLhf.s 			page 14


 742 0006 0AAC     		add	r4, sp, #40
 743 0008 0546     		mov	r5, r0
 744 000a 54F8046B 		ldr	r6, [r4], #4
 745              		.loc 1 295 0
 746 000e 4A1E     		subs	r2, r1, #1
 747 0010 01A8     		add	r0, sp, #4
 748              	.LVL104:
 749 0012 2946     		mov	r1, r5
 750              	.LVL105:
 751 0014 0023     		movs	r3, #0
 752 0016 FFF7FEFF 		bl	msObjectInit
 753              	.LVL106:
 754              		.loc 1 300 0
 755 001a 01A8     		add	r0, sp, #4
 756              	.LVL107:
 757 001c 3146     		mov	r1, r6
 758 001e 2246     		mov	r2, r4
 759              		.loc 1 299 0
 760 0020 0094     		str	r4, [sp]
 761              		.loc 1 300 0
 762 0022 FFF7FEFF 		bl	chvprintf
 763              	.LVL108:
 764              		.loc 1 304 0
 765 0026 0498     		ldr	r0, [sp, #16]
 766 0028 0023     		movs	r3, #0
 767 002a 2B54     		strb	r3, [r5, r0]
 768              		.loc 1 306 0
 769 002c 06B0     		add	sp, sp, #24
 770              		.cfi_def_cfa_offset 24
 771              		@ sp needed
 772 002e BDE87040 		pop	{r4, r5, r6, lr}
 773              		.cfi_restore 14
 774              		.cfi_restore 6
 775              		.cfi_restore 5
 776              		.cfi_restore 4
 777              		.cfi_def_cfa_offset 8
 778              	.LVL109:
 779 0032 02B0     		add	sp, sp, #8
 780              		.cfi_restore 3
 781              		.cfi_restore 2
 782              		.cfi_def_cfa_offset 0
 783 0034 7047     		bx	lr
 784              		.cfi_endproc
 785              	.LFE11:
 786              		.size	chsnprintf, .-chsnprintf
 787              		.section	.rodata.str1.4,"aMS",%progbits,1
 788              		.align	2
 789              	.LC0:
 790 0000 286E756C 		.ascii	"(null)\000"
 790      6C2900
 791              		.text
 792              	.Letext0:
 793              		.file 2 "/home/lithium/Descargas/gcc-arm-none-eabi-5_3-2016q1/lib/gcc/arm-none-eabi/5.3.1/include/
 794              		.file 3 "/home/lithium/Descargas/gcc-arm-none-eabi-5_3-2016q1/arm-none-eabi/include/machine/_defau
 795              		.file 4 "/home/lithium/Descargas/gcc-arm-none-eabi-5_3-2016q1/arm-none-eabi/include/sys/_stdint.h"
 796              		.file 5 "../../os/ports/GCC/ARMCMx/chtypes.h"
 797              		.file 6 "../../os/kernel/include/chstreams.h"
ARM GAS  /tmp/ccOVOLhf.s 			page 15


 798              		.file 7 "/home/lithium/Descargas/gcc-arm-none-eabi-5_3-2016q1/lib/gcc/arm-none-eabi/5.3.1/include/
 799              		.file 8 "<built-in>"
 800              		.file 9 "../../os/various/memstreams.h"