ARM GAS  /tmp/cc3lXwTS.s 			page 1


   1              		.syntax unified
   2              		.cpu cortex-m4
   3              		.fpu softvfp
   4              		.eabi_attribute 20, 1
   5              		.eabi_attribute 21, 1
   6              		.eabi_attribute 23, 3
   7              		.eabi_attribute 24, 1
   8              		.eabi_attribute 25, 1
   9              		.eabi_attribute 26, 1
  10              		.eabi_attribute 30, 2
  11              		.eabi_attribute 34, 1
  12              		.eabi_attribute 18, 4
  13              		.thumb
  14              		.syntax unified
  15              		.file	"chqueues.c"
  16              		.text
  17              	.Ltext0:
  18              		.cfi_sections	.debug_frame
  19              		.section	.text.qwait,"ax",%progbits
  20              		.align	2
  21              		.p2align 4,,15
  22              		.thumb
  23              		.thumb_func
  24              		.type	qwait, %function
  25              	qwait:
  26              	.LFB7:
  27              		.file 1 "../../os/kernel/src/chqueues.c"
  28              		.loc 1 70 0
  29              		.cfi_startproc
  30              		@ args = 0, pretend = 0, frame = 0
  31              		@ frame_needed = 0, uses_anonymous_args = 0
  32              		@ link register save eliminated.
  33              	.LVL0:
  34              		.loc 1 72 0
  35 0000 69B1     		cbz	r1, .L2
  36              		.loc 1 74 0
  37 0002 084B     		ldr	r3, .L5
  38 0004 9B69     		ldr	r3, [r3, #24]
  39              		.loc 1 70 0
  40 0006 10B4     		push	{r4}
  41              		.cfi_def_cfa_offset 4
  42              		.cfi_offset 4, -4
  43              		.loc 1 74 0
  44 0008 5862     		str	r0, [r3, #36]
  45              	.LVL1:
  46              	.LBB12:
  47              	.LBB13:
  48              		.file 2 "../../os/kernel/include/chinline.h"
  49              		.loc 2 55 0
  50 000a 4468     		ldr	r4, [r0, #4]
  51 000c 0246     		mov	r2, r0
  52 000e 83E81400 		stmia	r3, {r2, r4}
  53              	.LBE13:
  54              	.LBE12:
  55              		.loc 1 76 0
  56 0012 0D20     		movs	r0, #13
  57              	.LVL2:
ARM GAS  /tmp/cc3lXwTS.s 			page 2


  58              	.LBB15:
  59              	.LBB14:
  60              		.loc 2 56 0
  61 0014 5360     		str	r3, [r2, #4]
  62 0016 2360     		str	r3, [r4]
  63              	.LVL3:
  64              	.LBE14:
  65              	.LBE15:
  66              		.loc 1 77 0
  67 0018 10BC     		pop	{r4}
  68              		.cfi_restore 4
  69              		.cfi_def_cfa_offset 0
  70              		.loc 1 76 0
  71 001a FFF7FEBF 		b	chSchGoSleepTimeoutS
  72              	.LVL4:
  73              	.L2:
  74              		.loc 1 77 0
  75 001e 4FF0FF30 		mov	r0, #-1
  76              	.LVL5:
  77 0022 7047     		bx	lr
  78              	.L6:
  79              		.align	2
  80              	.L5:
  81 0024 00000000 		.word	rlist
  82              		.cfi_endproc
  83              	.LFE7:
  84              		.size	qwait, .-qwait
  85              		.section	.text.chIQInit,"ax",%progbits
  86              		.align	2
  87              		.p2align 4,,15
  88              		.global	chIQInit
  89              		.thumb
  90              		.thumb_func
  91              		.type	chIQInit, %function
  92              	chIQInit:
  93              	.LFB8:
  94              		.loc 1 96 0
  95              		.cfi_startproc
  96              		@ args = 4, pretend = 0, frame = 0
  97              		@ frame_needed = 0, uses_anonymous_args = 0
  98              		@ link register save eliminated.
  99              	.LVL6:
 100 0000 30B4     		push	{r4, r5}
 101              		.cfi_def_cfa_offset 8
 102              		.cfi_offset 4, -8
 103              		.cfi_offset 5, -4
 104              		.loc 1 96 0
 105 0002 029C     		ldr	r4, [sp, #8]
 106              		.loc 1 103 0
 107 0004 0462     		str	r4, [r0, #32]
 108              		.loc 1 99 0
 109 0006 0025     		movs	r5, #0
 110              		.loc 1 101 0
 111 0008 0A44     		add	r2, r2, r1
 112              	.LVL7:
 113              		.loc 1 99 0
 114 000a 8560     		str	r5, [r0, #8]
ARM GAS  /tmp/cc3lXwTS.s 			page 3


 115              		.loc 1 101 0
 116 000c 0261     		str	r2, [r0, #16]
 117              		.loc 1 98 0
 118 000e 4060     		str	r0, [r0, #4]
 119 0010 0060     		str	r0, [r0]
 120              		.loc 1 100 0
 121 0012 4161     		str	r1, [r0, #20]
 122 0014 8161     		str	r1, [r0, #24]
 123 0016 C160     		str	r1, [r0, #12]
 124              		.loc 1 102 0
 125 0018 C361     		str	r3, [r0, #28]
 126              		.loc 1 104 0
 127 001a 30BC     		pop	{r4, r5}
 128              		.cfi_restore 5
 129              		.cfi_restore 4
 130              		.cfi_def_cfa_offset 0
 131              	.LVL8:
 132 001c 7047     		bx	lr
 133              		.cfi_endproc
 134              	.LFE8:
 135              		.size	chIQInit, .-chIQInit
 136 001e 00BF     		.section	.text.chIQResetI,"ax",%progbits
 137              		.align	2
 138              		.p2align 4,,15
 139              		.global	chIQResetI
 140              		.thumb
 141              		.thumb_func
 142              		.type	chIQResetI, %function
 143              	chIQResetI:
 144              	.LFB9:
 145              		.loc 1 117 0
 146              		.cfi_startproc
 147              		@ args = 0, pretend = 0, frame = 0
 148              		@ frame_needed = 0, uses_anonymous_args = 0
 149              	.LVL9:
 150 0000 38B5     		push	{r3, r4, r5, lr}
 151              		.cfi_def_cfa_offset 16
 152              		.cfi_offset 3, -16
 153              		.cfi_offset 4, -12
 154              		.cfi_offset 5, -8
 155              		.cfi_offset 14, -4
 156              		.loc 1 117 0
 157 0002 0446     		mov	r4, r0
 158              		.loc 1 123 0
 159 0004 0068     		ldr	r0, [r0]
 160              	.LVL10:
 161              		.loc 1 121 0
 162 0006 E368     		ldr	r3, [r4, #12]
 163 0008 6361     		str	r3, [r4, #20]
 164              		.loc 1 122 0
 165 000a 0022     		movs	r2, #0
 166              		.loc 1 123 0
 167 000c 8442     		cmp	r4, r0
 168              		.loc 1 122 0
 169 000e A260     		str	r2, [r4, #8]
 170              		.loc 1 121 0
 171 0010 A361     		str	r3, [r4, #24]
ARM GAS  /tmp/cc3lXwTS.s 			page 4


 172              		.loc 1 123 0
 173 0012 0AD0     		beq	.L9
 174              		.loc 1 124 0
 175 0014 6FF00105 		mvn	r5, #1
 176              	.L11:
 177              	.LVL11:
 178              	.LBB16:
 179              	.LBB17:
 180              		.loc 2 62 0
 181 0018 0368     		ldr	r3, [r0]
 182 001a 2360     		str	r3, [r4]
 183 001c 5C60     		str	r4, [r3, #4]
 184              	.LVL12:
 185              	.LBE17:
 186              	.LBE16:
 187              		.loc 1 124 0
 188 001e FFF7FEFF 		bl	chSchReadyI
 189              	.LVL13:
 190 0022 4562     		str	r5, [r0, #36]
 191              		.loc 1 123 0
 192 0024 2068     		ldr	r0, [r4]
 193 0026 A042     		cmp	r0, r4
 194 0028 F6D1     		bne	.L11
 195              	.L9:
 196 002a 38BD     		pop	{r3, r4, r5, pc}
 197              		.cfi_endproc
 198              	.LFE9:
 199              		.size	chIQResetI, .-chIQResetI
 200              		.section	.text.chIQPutI,"ax",%progbits
 201              		.align	2
 202              		.p2align 4,,15
 203              		.global	chIQPutI
 204              		.thumb
 205              		.thumb_func
 206              		.type	chIQPutI, %function
 207              	chIQPutI:
 208              	.LFB10:
 209              		.loc 1 140 0
 210              		.cfi_startproc
 211              		@ args = 0, pretend = 0, frame = 0
 212              		@ frame_needed = 0, uses_anonymous_args = 0
 213              	.LVL14:
 214              		.loc 1 144 0
 215 0000 8369     		ldr	r3, [r0, #24]
 216 0002 4269     		ldr	r2, [r0, #20]
 217 0004 9A42     		cmp	r2, r3
 218              		.loc 1 140 0
 219 0006 10B5     		push	{r4, lr}
 220              		.cfi_def_cfa_offset 8
 221              		.cfi_offset 4, -8
 222              		.cfi_offset 14, -4
 223              		.loc 1 144 0
 224 0008 8368     		ldr	r3, [r0, #8]
 225 000a 1DD0     		beq	.L25
 226              	.L18:
 227              		.loc 1 147 0
 228 000c 0133     		adds	r3, r3, #1
ARM GAS  /tmp/cc3lXwTS.s 			page 5


 229              		.loc 1 148 0
 230 000e 541C     		adds	r4, r2, #1
 231              		.loc 1 147 0
 232 0010 8360     		str	r3, [r0, #8]
 233              		.loc 1 148 0
 234 0012 4461     		str	r4, [r0, #20]
 235 0014 1170     		strb	r1, [r2]
 236              		.loc 1 149 0
 237 0016 4269     		ldr	r2, [r0, #20]
 238 0018 0369     		ldr	r3, [r0, #16]
 239 001a 9A42     		cmp	r2, r3
 240 001c 0DD2     		bcs	.L19
 241              		.loc 1 152 0
 242 001e 0268     		ldr	r2, [r0]
 243 0020 8242     		cmp	r2, r0
 244 0022 0FD0     		beq	.L22
 245              	.L26:
 246              	.LBB18:
 247              	.LBB19:
 248              		.loc 2 62 0
 249 0024 1168     		ldr	r1, [r2]
 250              	.LVL15:
 251 0026 0160     		str	r1, [r0]
 252 0028 0346     		mov	r3, r0
 253              	.LVL16:
 254 002a 4B60     		str	r3, [r1, #4]
 255              	.LVL17:
 256              	.LBE19:
 257              	.LBE18:
 258              		.loc 1 153 0
 259 002c 1046     		mov	r0, r2
 260              	.LVL18:
 261 002e FFF7FEFF 		bl	chSchReadyI
 262              	.LVL19:
 263 0032 0023     		movs	r3, #0
 264 0034 4362     		str	r3, [r0, #36]
 265              		.loc 1 155 0
 266 0036 1846     		mov	r0, r3
 267 0038 10BD     		pop	{r4, pc}
 268              	.LVL20:
 269              	.L19:
 270              		.loc 1 152 0
 271 003a 0268     		ldr	r2, [r0]
 272              		.loc 1 150 0
 273 003c C368     		ldr	r3, [r0, #12]
 274 003e 4361     		str	r3, [r0, #20]
 275              		.loc 1 152 0
 276 0040 8242     		cmp	r2, r0
 277 0042 EFD1     		bne	.L26
 278              	.L22:
 279              		.loc 1 155 0
 280 0044 0020     		movs	r0, #0
 281              	.LVL21:
 282 0046 10BD     		pop	{r4, pc}
 283              	.LVL22:
 284              	.L25:
 285              		.loc 1 144 0 discriminator 1
ARM GAS  /tmp/cc3lXwTS.s 			page 6


 286 0048 002B     		cmp	r3, #0
 287 004a DFD0     		beq	.L18
 288              		.loc 1 145 0
 289 004c 6FF00300 		mvn	r0, #3
 290              	.LVL23:
 291 0050 10BD     		pop	{r4, pc}
 292              		.cfi_endproc
 293              	.LFE10:
 294              		.size	chIQPutI, .-chIQPutI
 295 0052 00BF     		.section	.text.chIQGetTimeout,"ax",%progbits
 296              		.align	2
 297              		.p2align 4,,15
 298              		.global	chIQGetTimeout
 299              		.thumb
 300              		.thumb_func
 301              		.type	chIQGetTimeout, %function
 302              	chIQGetTimeout:
 303              	.LFB11:
 304              		.loc 1 178 0
 305              		.cfi_startproc
 306              		@ args = 0, pretend = 0, frame = 0
 307              		@ frame_needed = 0, uses_anonymous_args = 0
 308              	.LVL24:
 309 0000 70B5     		push	{r4, r5, r6, lr}
 310              		.cfi_def_cfa_offset 16
 311              		.cfi_offset 4, -16
 312              		.cfi_offset 5, -12
 313              		.cfi_offset 6, -8
 314              		.cfi_offset 14, -4
 315              	.LBB20:
 316              		.loc 1 181 0
 317 0002 2023     		movs	r3, #32
 318              	.LBE20:
 319              		.loc 1 178 0
 320 0004 0E46     		mov	r6, r1
 321 0006 0446     		mov	r4, r0
 322              	.LBB21:
 323              		.loc 1 181 0
 324              		.syntax unified
 325              	@ 181 "../../os/kernel/src/chqueues.c" 1
 326 0008 83F31188 		msr     BASEPRI, r3
 327              	@ 0 "" 2
 328              		.thumb
 329              		.syntax unified
 330              	.LBE21:
 331              		.loc 1 182 0
 332 000c C369     		ldr	r3, [r0, #28]
 333 000e 2BB1     		cbz	r3, .L29
 334              		.loc 1 183 0
 335 0010 9847     		blx	r3
 336              	.LVL25:
 337 0012 03E0     		b	.L29
 338              	.LVL26:
 339              	.L31:
 340              	.LBB22:
 341              		.loc 1 187 0
 342 0014 FFF7FEFF 		bl	qwait
ARM GAS  /tmp/cc3lXwTS.s 			page 7


 343              	.LVL27:
 344 0018 0028     		cmp	r0, #0
 345 001a 15DB     		blt	.L38
 346              	.LVL28:
 347              	.L29:
 348              	.LBE22:
 349              		.loc 1 185 0
 350 001c A568     		ldr	r5, [r4, #8]
 351              	.LBB24:
 352              		.loc 1 187 0
 353 001e 3146     		mov	r1, r6
 354 0020 2046     		mov	r0, r4
 355              	.LBE24:
 356              		.loc 1 185 0
 357 0022 002D     		cmp	r5, #0
 358 0024 F6D0     		beq	.L31
 359              	.LVL29:
 360              		.loc 1 194 0
 361 0026 A269     		ldr	r2, [r4, #24]
 362              		.loc 1 195 0
 363 0028 2169     		ldr	r1, [r4, #16]
 364              	.LVL30:
 365              		.loc 1 194 0
 366 002a 531C     		adds	r3, r2, #1
 367              		.loc 1 195 0
 368 002c 8B42     		cmp	r3, r1
 369              		.loc 1 193 0
 370 002e 05F1FF35 		add	r5, r5, #-1
 371              		.loc 1 194 0
 372 0032 A361     		str	r3, [r4, #24]
 373              		.loc 1 193 0
 374 0034 A560     		str	r5, [r4, #8]
 375              		.loc 1 196 0
 376 0036 28BF     		it	cs
 377 0038 E368     		ldrcs	r3, [r4, #12]
 378              		.loc 1 194 0
 379 003a 1078     		ldrb	r0, [r2]	@ zero_extendqisi2
 380              	.LVL31:
 381              		.loc 1 196 0
 382 003c 28BF     		it	cs
 383 003e A361     		strcs	r3, [r4, #24]
 384              	.LBB25:
 385              		.loc 1 198 0
 386 0040 0023     		movs	r3, #0
 387              		.syntax unified
 388              	@ 198 "../../os/kernel/src/chqueues.c" 1
 389 0042 83F31188 		msr     BASEPRI, r3
 390              	@ 0 "" 2
 391              		.thumb
 392              		.syntax unified
 393              	.LBE25:
 394              		.loc 1 200 0
 395 0046 70BD     		pop	{r4, r5, r6, pc}
 396              	.LVL32:
 397              	.L38:
 398              	.LBB26:
 399              	.LBB23:
ARM GAS  /tmp/cc3lXwTS.s 			page 8


 400              		.loc 1 188 0
 401 0048 2B46     		mov	r3, r5
 402              		.syntax unified
 403              	@ 188 "../../os/kernel/src/chqueues.c" 1
 404 004a 83F31188 		msr     BASEPRI, r3
 405              	@ 0 "" 2
 406              		.thumb
 407              		.syntax unified
 408              	.LBE23:
 409              		.loc 1 189 0
 410 004e 70BD     		pop	{r4, r5, r6, pc}
 411              	.LBE26:
 412              		.cfi_endproc
 413              	.LFE11:
 414              		.size	chIQGetTimeout, .-chIQGetTimeout
 415              		.section	.text.chIQReadTimeout,"ax",%progbits
 416              		.align	2
 417              		.p2align 4,,15
 418              		.global	chIQReadTimeout
 419              		.thumb
 420              		.thumb_func
 421              		.type	chIQReadTimeout, %function
 422              	chIQReadTimeout:
 423              	.LFB12:
 424              		.loc 1 227 0
 425              		.cfi_startproc
 426              		@ args = 0, pretend = 0, frame = 0
 427              		@ frame_needed = 0, uses_anonymous_args = 0
 428              	.LVL33:
 429 0000 2DE9F047 		push	{r4, r5, r6, r7, r8, r9, r10, lr}
 430              		.cfi_def_cfa_offset 32
 431              		.cfi_offset 4, -32
 432              		.cfi_offset 5, -28
 433              		.cfi_offset 6, -24
 434              		.cfi_offset 7, -20
 435              		.cfi_offset 8, -16
 436              		.cfi_offset 9, -12
 437              		.cfi_offset 10, -8
 438              		.cfi_offset 14, -4
 439              		.loc 1 227 0
 440 0004 1E46     		mov	r6, r3
 441 0006 0446     		mov	r4, r0
 442 0008 8946     		mov	r9, r1
 443 000a 9246     		mov	r10, r2
 444              		.loc 1 228 0
 445 000c D0F81C80 		ldr	r8, [r0, #28]
 446              	.LVL34:
 447              	.LBB27:
 448              		.loc 1 233 0
 449 0010 2023     		movs	r3, #32
 450              	.LVL35:
 451              		.syntax unified
 452              	@ 233 "../../os/kernel/src/chqueues.c" 1
 453 0012 83F31188 		msr     BASEPRI, r3
 454              	@ 0 "" 2
 455              		.thumb
 456              		.syntax unified
ARM GAS  /tmp/cc3lXwTS.s 			page 9


 457              	.LBE27:
 458              		.loc 1 229 0
 459 0016 0027     		movs	r7, #0
 460              	.LVL36:
 461              	.L45:
 462              		.loc 1 235 0
 463 0018 B8F1000F 		cmp	r8, #0
 464 001c 05D0     		beq	.L41
 465              		.loc 1 236 0
 466 001e 2046     		mov	r0, r4
 467              	.LVL37:
 468 0020 C047     		blx	r8
 469              	.LVL38:
 470 0022 02E0     		b	.L41
 471              	.LVL39:
 472              	.L43:
 473              		.loc 1 239 0
 474 0024 FFF7FEFF 		bl	qwait
 475              	.LVL40:
 476 0028 E0B9     		cbnz	r0, .L52
 477              	.L41:
 478              		.loc 1 238 0
 479 002a A568     		ldr	r5, [r4, #8]
 480              		.loc 1 239 0
 481 002c 3146     		mov	r1, r6
 482 002e 2046     		mov	r0, r4
 483              		.loc 1 238 0
 484 0030 002D     		cmp	r5, #0
 485 0032 F7D0     		beq	.L43
 486              	.LVL41:
 487              		.loc 1 246 0
 488 0034 A369     		ldr	r3, [r4, #24]
 489              		.loc 1 245 0
 490 0036 013D     		subs	r5, r5, #1
 491              		.loc 1 246 0
 492 0038 5A1C     		adds	r2, r3, #1
 493 003a A261     		str	r2, [r4, #24]
 494              		.loc 1 245 0
 495 003c A560     		str	r5, [r4, #8]
 496              		.loc 1 246 0
 497 003e 1B78     		ldrb	r3, [r3]	@ zero_extendqisi2
 498 0040 09F8013B 		strb	r3, [r9], #1
 499              	.LVL42:
 500              		.loc 1 247 0
 501 0044 2369     		ldr	r3, [r4, #16]
 502 0046 A269     		ldr	r2, [r4, #24]
 503 0048 9A42     		cmp	r2, r3
 504              		.loc 1 248 0
 505 004a 24BF     		itt	cs
 506 004c E368     		ldrcs	r3, [r4, #12]
 507 004e A361     		strcs	r3, [r4, #24]
 508              	.LBB28:
 509              		.loc 1 250 0
 510 0050 0023     		movs	r3, #0
 511              		.syntax unified
 512              	@ 250 "../../os/kernel/src/chqueues.c" 1
 513 0052 83F31188 		msr     BASEPRI, r3
ARM GAS  /tmp/cc3lXwTS.s 			page 10


 514              	@ 0 "" 2
 515              		.thumb
 516              		.syntax unified
 517              	.LBE28:
 518              		.loc 1 251 0
 519 0056 0137     		adds	r7, r7, #1
 520              	.LVL43:
 521              		.loc 1 252 0
 522 0058 BA45     		cmp	r10, r7
 523 005a 06D0     		beq	.L42
 524              	.LBB29:
 525              		.loc 1 255 0
 526 005c 2023     		movs	r3, #32
 527              		.syntax unified
 528              	@ 255 "../../os/kernel/src/chqueues.c" 1
 529 005e 83F31188 		msr     BASEPRI, r3
 530              	@ 0 "" 2
 531              		.thumb
 532              		.syntax unified
 533              	.LBE29:
 534              		.loc 1 256 0
 535 0062 D9E7     		b	.L45
 536              	.LVL44:
 537              	.L52:
 538              	.LBB30:
 539              		.loc 1 240 0
 540 0064 2B46     		mov	r3, r5
 541              		.syntax unified
 542              	@ 240 "../../os/kernel/src/chqueues.c" 1
 543 0066 83F31188 		msr     BASEPRI, r3
 544              	@ 0 "" 2
 545              	.LVL45:
 546              		.thumb
 547              		.syntax unified
 548              	.L42:
 549              	.LBE30:
 550              		.loc 1 257 0
 551 006a 3846     		mov	r0, r7
 552 006c BDE8F087 		pop	{r4, r5, r6, r7, r8, r9, r10, pc}
 553              		.cfi_endproc
 554              	.LFE12:
 555              		.size	chIQReadTimeout, .-chIQReadTimeout
 556              		.section	.text.chOQInit,"ax",%progbits
 557              		.align	2
 558              		.p2align 4,,15
 559              		.global	chOQInit
 560              		.thumb
 561              		.thumb_func
 562              		.type	chOQInit, %function
 563              	chOQInit:
 564              	.LFB13:
 565              		.loc 1 276 0
 566              		.cfi_startproc
 567              		@ args = 4, pretend = 0, frame = 0
 568              		@ frame_needed = 0, uses_anonymous_args = 0
 569              		@ link register save eliminated.
 570              	.LVL46:
ARM GAS  /tmp/cc3lXwTS.s 			page 11


 571 0000 30B4     		push	{r4, r5}
 572              		.cfi_def_cfa_offset 8
 573              		.cfi_offset 4, -8
 574              		.cfi_offset 5, -4
 575              		.loc 1 276 0
 576 0002 029C     		ldr	r4, [sp, #8]
 577              		.loc 1 283 0
 578 0004 0462     		str	r4, [r0, #32]
 579              		.loc 1 281 0
 580 0006 8D18     		adds	r5, r1, r2
 581 0008 0561     		str	r5, [r0, #16]
 582              		.loc 1 278 0
 583 000a 4060     		str	r0, [r0, #4]
 584 000c 0060     		str	r0, [r0]
 585              		.loc 1 279 0
 586 000e 8260     		str	r2, [r0, #8]
 587              		.loc 1 280 0
 588 0010 4161     		str	r1, [r0, #20]
 589 0012 8161     		str	r1, [r0, #24]
 590 0014 C160     		str	r1, [r0, #12]
 591              		.loc 1 282 0
 592 0016 C361     		str	r3, [r0, #28]
 593              		.loc 1 284 0
 594 0018 30BC     		pop	{r4, r5}
 595              		.cfi_restore 5
 596              		.cfi_restore 4
 597              		.cfi_def_cfa_offset 0
 598              	.LVL47:
 599 001a 7047     		bx	lr
 600              		.cfi_endproc
 601              	.LFE13:
 602              		.size	chOQInit, .-chOQInit
 603              		.section	.text.chOQResetI,"ax",%progbits
 604              		.align	2
 605              		.p2align 4,,15
 606              		.global	chOQResetI
 607              		.thumb
 608              		.thumb_func
 609              		.type	chOQResetI, %function
 610              	chOQResetI:
 611              	.LFB14:
 612              		.loc 1 297 0
 613              		.cfi_startproc
 614              		@ args = 0, pretend = 0, frame = 0
 615              		@ frame_needed = 0, uses_anonymous_args = 0
 616              	.LVL48:
 617 0000 38B5     		push	{r3, r4, r5, lr}
 618              		.cfi_def_cfa_offset 16
 619              		.cfi_offset 3, -16
 620              		.cfi_offset 4, -12
 621              		.cfi_offset 5, -8
 622              		.cfi_offset 14, -4
 623              		.loc 1 301 0
 624 0002 C268     		ldr	r2, [r0, #12]
 625              		.loc 1 302 0
 626 0004 0369     		ldr	r3, [r0, #16]
 627              		.loc 1 297 0
ARM GAS  /tmp/cc3lXwTS.s 			page 12


 628 0006 0446     		mov	r4, r0
 629              		.loc 1 303 0
 630 0008 0068     		ldr	r0, [r0]
 631              	.LVL49:
 632              		.loc 1 301 0
 633 000a 6261     		str	r2, [r4, #20]
 634              		.loc 1 302 0
 635 000c 9B1A     		subs	r3, r3, r2
 636              		.loc 1 303 0
 637 000e 8442     		cmp	r4, r0
 638              		.loc 1 301 0
 639 0010 A261     		str	r2, [r4, #24]
 640              		.loc 1 302 0
 641 0012 A360     		str	r3, [r4, #8]
 642              		.loc 1 303 0
 643 0014 0AD0     		beq	.L55
 644              		.loc 1 304 0
 645 0016 6FF00105 		mvn	r5, #1
 646              	.L57:
 647              	.LVL50:
 648              	.LBB31:
 649              	.LBB32:
 650              		.loc 2 62 0
 651 001a 0368     		ldr	r3, [r0]
 652 001c 2360     		str	r3, [r4]
 653 001e 5C60     		str	r4, [r3, #4]
 654              	.LVL51:
 655              	.LBE32:
 656              	.LBE31:
 657              		.loc 1 304 0
 658 0020 FFF7FEFF 		bl	chSchReadyI
 659              	.LVL52:
 660 0024 4562     		str	r5, [r0, #36]
 661              		.loc 1 303 0
 662 0026 2068     		ldr	r0, [r4]
 663 0028 A042     		cmp	r0, r4
 664 002a F6D1     		bne	.L57
 665              	.L55:
 666 002c 38BD     		pop	{r3, r4, r5, pc}
 667              		.cfi_endproc
 668              	.LFE14:
 669              		.size	chOQResetI, .-chOQResetI
 670 002e 00BF     		.section	.text.chOQPutTimeout,"ax",%progbits
 671              		.align	2
 672              		.p2align 4,,15
 673              		.global	chOQPutTimeout
 674              		.thumb
 675              		.thumb_func
 676              		.type	chOQPutTimeout, %function
 677              	chOQPutTimeout:
 678              	.LFB15:
 679              		.loc 1 329 0
 680              		.cfi_startproc
 681              		@ args = 0, pretend = 0, frame = 0
 682              		@ frame_needed = 0, uses_anonymous_args = 0
 683              	.LVL53:
 684 0000 F8B5     		push	{r3, r4, r5, r6, r7, lr}
ARM GAS  /tmp/cc3lXwTS.s 			page 13


 685              		.cfi_def_cfa_offset 24
 686              		.cfi_offset 3, -24
 687              		.cfi_offset 4, -20
 688              		.cfi_offset 5, -16
 689              		.cfi_offset 6, -12
 690              		.cfi_offset 7, -8
 691              		.cfi_offset 14, -4
 692              		.loc 1 329 0
 693 0002 0446     		mov	r4, r0
 694 0004 0F46     		mov	r7, r1
 695 0006 1646     		mov	r6, r2
 696              	.LBB33:
 697              		.loc 1 331 0
 698 0008 2023     		movs	r3, #32
 699              		.syntax unified
 700              	@ 331 "../../os/kernel/src/chqueues.c" 1
 701 000a 83F31188 		msr     BASEPRI, r3
 702              	@ 0 "" 2
 703              		.thumb
 704              		.syntax unified
 705              	.LBE33:
 706              		.loc 1 332 0
 707 000e 03E0     		b	.L62
 708              	.LVL54:
 709              	.L64:
 710              	.LBB34:
 711              		.loc 1 335 0
 712 0010 FFF7FEFF 		bl	qwait
 713              	.LVL55:
 714 0014 0028     		cmp	r0, #0
 715 0016 19DB     		blt	.L72
 716              	.LVL56:
 717              	.L62:
 718              	.LBE34:
 719              		.loc 1 332 0
 720 0018 A568     		ldr	r5, [r4, #8]
 721              	.LBB36:
 722              		.loc 1 335 0
 723 001a 3146     		mov	r1, r6
 724 001c 2046     		mov	r0, r4
 725              	.LBE36:
 726              		.loc 1 332 0
 727 001e 002D     		cmp	r5, #0
 728 0020 F6D0     		beq	.L64
 729              	.LVL57:
 730              		.loc 1 342 0
 731 0022 6369     		ldr	r3, [r4, #20]
 732              		.loc 1 341 0
 733 0024 013D     		subs	r5, r5, #1
 734              		.loc 1 342 0
 735 0026 5A1C     		adds	r2, r3, #1
 736 0028 6261     		str	r2, [r4, #20]
 737              		.loc 1 341 0
 738 002a A560     		str	r5, [r4, #8]
 739              		.loc 1 342 0
 740 002c 1F70     		strb	r7, [r3]
 741              		.loc 1 343 0
ARM GAS  /tmp/cc3lXwTS.s 			page 14


 742 002e 2369     		ldr	r3, [r4, #16]
 743 0030 6269     		ldr	r2, [r4, #20]
 744 0032 9A42     		cmp	r2, r3
 745              		.loc 1 344 0
 746 0034 24BF     		itt	cs
 747 0036 E368     		ldrcs	r3, [r4, #12]
 748 0038 6361     		strcs	r3, [r4, #20]
 749              		.loc 1 346 0
 750 003a E369     		ldr	r3, [r4, #28]
 751 003c 0BB1     		cbz	r3, .L66
 752              		.loc 1 347 0
 753 003e 2046     		mov	r0, r4
 754              	.LVL58:
 755 0040 9847     		blx	r3
 756              	.LVL59:
 757              	.L66:
 758              	.LBB37:
 759              		.loc 1 349 0
 760 0042 0023     		movs	r3, #0
 761              		.syntax unified
 762              	@ 349 "../../os/kernel/src/chqueues.c" 1
 763 0044 83F31188 		msr     BASEPRI, r3
 764              	@ 0 "" 2
 765              		.thumb
 766              		.syntax unified
 767              	.LBE37:
 768              		.loc 1 350 0
 769 0048 1846     		mov	r0, r3
 770              		.loc 1 351 0
 771 004a F8BD     		pop	{r3, r4, r5, r6, r7, pc}
 772              	.LVL60:
 773              	.L72:
 774              	.LBB38:
 775              	.LBB35:
 776              		.loc 1 336 0
 777 004c 2B46     		mov	r3, r5
 778              		.syntax unified
 779              	@ 336 "../../os/kernel/src/chqueues.c" 1
 780 004e 83F31188 		msr     BASEPRI, r3
 781              	@ 0 "" 2
 782              		.thumb
 783              		.syntax unified
 784              	.LBE35:
 785              		.loc 1 337 0
 786 0052 F8BD     		pop	{r3, r4, r5, r6, r7, pc}
 787              	.LBE38:
 788              		.cfi_endproc
 789              	.LFE15:
 790              		.size	chOQPutTimeout, .-chOQPutTimeout
 791              		.section	.text.chOQGetI,"ax",%progbits
 792              		.align	2
 793              		.p2align 4,,15
 794              		.global	chOQGetI
 795              		.thumb
 796              		.thumb_func
 797              		.type	chOQGetI, %function
 798              	chOQGetI:
ARM GAS  /tmp/cc3lXwTS.s 			page 15


 799              	.LFB16:
 800              		.loc 1 363 0
 801              		.cfi_startproc
 802              		@ args = 0, pretend = 0, frame = 0
 803              		@ frame_needed = 0, uses_anonymous_args = 0
 804              	.LVL61:
 805 0000 38B5     		push	{r3, r4, r5, lr}
 806              		.cfi_def_cfa_offset 16
 807              		.cfi_offset 3, -16
 808              		.cfi_offset 4, -12
 809              		.cfi_offset 5, -8
 810              		.cfi_offset 14, -4
 811              		.loc 1 368 0
 812 0002 8269     		ldr	r2, [r0, #24]
 813 0004 4369     		ldr	r3, [r0, #20]
 814 0006 9342     		cmp	r3, r2
 815 0008 8368     		ldr	r3, [r0, #8]
 816 000a 18D0     		beq	.L83
 817              	.L76:
 818              		.loc 1 373 0
 819 000c 0569     		ldr	r5, [r0, #16]
 820              		.loc 1 372 0
 821 000e 511C     		adds	r1, r2, #1
 822              		.loc 1 371 0
 823 0010 0133     		adds	r3, r3, #1
 824 0012 8360     		str	r3, [r0, #8]
 825              		.loc 1 372 0
 826 0014 8161     		str	r1, [r0, #24]
 827              		.loc 1 373 0
 828 0016 A942     		cmp	r1, r5
 829              		.loc 1 372 0
 830 0018 1478     		ldrb	r4, [r2]	@ zero_extendqisi2
 831              	.LVL62:
 832              		.loc 1 373 0
 833 001a 0DD2     		bcs	.L78
 834              	.L79:
 835              		.loc 1 376 0
 836 001c 0268     		ldr	r2, [r0]
 837 001e 8242     		cmp	r2, r0
 838 0020 08D0     		beq	.L77
 839              	.LBB39:
 840              	.LBB40:
 841              		.loc 2 62 0
 842 0022 1168     		ldr	r1, [r2]
 843 0024 0160     		str	r1, [r0]
 844 0026 0346     		mov	r3, r0
 845              	.LVL63:
 846 0028 4B60     		str	r3, [r1, #4]
 847              	.LVL64:
 848              	.LBE40:
 849              	.LBE39:
 850              		.loc 1 377 0
 851 002a 1046     		mov	r0, r2
 852              	.LVL65:
 853 002c FFF7FEFF 		bl	chSchReadyI
 854              	.LVL66:
 855 0030 0023     		movs	r3, #0
ARM GAS  /tmp/cc3lXwTS.s 			page 16


 856 0032 4362     		str	r3, [r0, #36]
 857              	.L77:
 858              		.loc 1 379 0
 859 0034 2046     		mov	r0, r4
 860 0036 38BD     		pop	{r3, r4, r5, pc}
 861              	.LVL67:
 862              	.L78:
 863              		.loc 1 374 0
 864 0038 C368     		ldr	r3, [r0, #12]
 865 003a 8361     		str	r3, [r0, #24]
 866 003c EEE7     		b	.L79
 867              	.LVL68:
 868              	.L83:
 869              		.loc 1 368 0 discriminator 1
 870 003e 002B     		cmp	r3, #0
 871 0040 E4D0     		beq	.L76
 872              		.loc 1 369 0
 873 0042 6FF00200 		mvn	r0, #2
 874              	.LVL69:
 875 0046 38BD     		pop	{r3, r4, r5, pc}
 876              		.cfi_endproc
 877              	.LFE16:
 878              		.size	chOQGetI, .-chOQGetI
 879              		.section	.text.chOQWriteTimeout,"ax",%progbits
 880              		.align	2
 881              		.p2align 4,,15
 882              		.global	chOQWriteTimeout
 883              		.thumb
 884              		.thumb_func
 885              		.type	chOQWriteTimeout, %function
 886              	chOQWriteTimeout:
 887              	.LFB17:
 888              		.loc 1 407 0
 889              		.cfi_startproc
 890              		@ args = 0, pretend = 0, frame = 0
 891              		@ frame_needed = 0, uses_anonymous_args = 0
 892              	.LVL70:
 893 0000 2DE9F84F 		push	{r3, r4, r5, r6, r7, r8, r9, r10, fp, lr}
 894              		.cfi_def_cfa_offset 40
 895              		.cfi_offset 3, -40
 896              		.cfi_offset 4, -36
 897              		.cfi_offset 5, -32
 898              		.cfi_offset 6, -28
 899              		.cfi_offset 7, -24
 900              		.cfi_offset 8, -20
 901              		.cfi_offset 9, -16
 902              		.cfi_offset 10, -12
 903              		.cfi_offset 11, -8
 904              		.cfi_offset 14, -4
 905              		.loc 1 407 0
 906 0004 9A46     		mov	r10, r3
 907 0006 0446     		mov	r4, r0
 908 0008 0E46     		mov	r6, r1
 909 000a 1746     		mov	r7, r2
 910              		.loc 1 408 0
 911 000c D0F81C90 		ldr	r9, [r0, #28]
 912              	.LVL71:
ARM GAS  /tmp/cc3lXwTS.s 			page 17


 913              	.LBB41:
 914              		.loc 1 413 0
 915 0010 2023     		movs	r3, #32
 916              	.LVL72:
 917              		.syntax unified
 918              	@ 413 "../../os/kernel/src/chqueues.c" 1
 919 0012 83F31188 		msr     BASEPRI, r3
 920              	@ 0 "" 2
 921              		.thumb
 922              		.syntax unified
 923              	.LBE41:
 924              		.loc 1 409 0
 925 0016 4FF00008 		mov	r8, #0
 926              	.LVL73:
 927              	.L85:
 928              		.loc 1 415 0
 929 001a A568     		ldr	r5, [r4, #8]
 930              		.loc 1 422 0
 931 001c 06F1010B 		add	fp, r6, #1
 932              	.LVL74:
 933              		.loc 1 421 0
 934 0020 6A1E     		subs	r2, r5, #1
 935              		.loc 1 427 0
 936 0022 2046     		mov	r0, r4
 937              		.loc 1 415 0
 938 0024 0DB3     		cbz	r5, .L88
 939              	.LVL75:
 940              	.L101:
 941              		.loc 1 422 0
 942 0026 6369     		ldr	r3, [r4, #20]
 943              		.loc 1 421 0
 944 0028 A260     		str	r2, [r4, #8]
 945              		.loc 1 422 0
 946 002a 5A1C     		adds	r2, r3, #1
 947 002c 6261     		str	r2, [r4, #20]
 948 002e 3278     		ldrb	r2, [r6]	@ zero_extendqisi2
 949 0030 1A70     		strb	r2, [r3]
 950              		.loc 1 423 0
 951 0032 2369     		ldr	r3, [r4, #16]
 952 0034 6269     		ldr	r2, [r4, #20]
 953 0036 9A42     		cmp	r2, r3
 954              		.loc 1 424 0
 955 0038 24BF     		itt	cs
 956 003a E368     		ldrcs	r3, [r4, #12]
 957 003c 6361     		strcs	r3, [r4, #20]
 958              		.loc 1 426 0
 959 003e B9F1000F 		cmp	r9, #0
 960 0042 00D0     		beq	.L90
 961              		.loc 1 427 0
 962 0044 C847     		blx	r9
 963              	.LVL76:
 964              	.L90:
 965              	.LBB42:
 966              		.loc 1 429 0
 967 0046 0023     		movs	r3, #0
 968              		.syntax unified
 969              	@ 429 "../../os/kernel/src/chqueues.c" 1
ARM GAS  /tmp/cc3lXwTS.s 			page 18


 970 0048 83F31188 		msr     BASEPRI, r3
 971              	@ 0 "" 2
 972              		.thumb
 973              		.syntax unified
 974              	.LBE42:
 975              		.loc 1 431 0
 976 004c 013F     		subs	r7, r7, #1
 977              	.LVL77:
 978              		.loc 1 430 0
 979 004e 08F10108 		add	r8, r8, #1
 980              	.LVL78:
 981              		.loc 1 431 0
 982 0052 13D0     		beq	.L87
 983              	.LBB43:
 984              		.loc 1 433 0
 985 0054 2023     		movs	r3, #32
 986              		.syntax unified
 987              	@ 433 "../../os/kernel/src/chqueues.c" 1
 988 0056 83F31188 		msr     BASEPRI, r3
 989              	@ 0 "" 2
 990              		.thumb
 991              		.syntax unified
 992              	.LBE43:
 993              		.loc 1 415 0
 994 005a A568     		ldr	r5, [r4, #8]
 995              		.loc 1 422 0
 996 005c 5E46     		mov	r6, fp
 997              	.LVL79:
 998              		.loc 1 421 0
 999 005e 6A1E     		subs	r2, r5, #1
 1000              		.loc 1 422 0
 1001 0060 06F1010B 		add	fp, r6, #1
 1002              	.LVL80:
 1003              		.loc 1 427 0
 1004 0064 2046     		mov	r0, r4
 1005              		.loc 1 415 0
 1006 0066 002D     		cmp	r5, #0
 1007 0068 DDD1     		bne	.L101
 1008              	.LVL81:
 1009              	.L88:
 1010              		.loc 1 416 0
 1011 006a 5146     		mov	r1, r10
 1012 006c 2046     		mov	r0, r4
 1013              	.LVL82:
 1014 006e FFF7FEFF 		bl	qwait
 1015              	.LVL83:
 1016 0072 0028     		cmp	r0, #0
 1017 0074 D1D0     		beq	.L85
 1018              	.LBB44:
 1019              		.loc 1 417 0
 1020 0076 2B46     		mov	r3, r5
 1021              		.syntax unified
 1022              	@ 417 "../../os/kernel/src/chqueues.c" 1
 1023 0078 83F31188 		msr     BASEPRI, r3
 1024              	@ 0 "" 2
 1025              	.LVL84:
 1026              		.thumb
ARM GAS  /tmp/cc3lXwTS.s 			page 19


 1027              		.syntax unified
 1028              	.L87:
 1029              	.LBE44:
 1030              		.loc 1 435 0
 1031 007c 4046     		mov	r0, r8
 1032 007e BDE8F88F 		pop	{r3, r4, r5, r6, r7, r8, r9, r10, fp, pc}
 1033              		.cfi_endproc
 1034              	.LFE17:
 1035              		.size	chOQWriteTimeout, .-chOQWriteTimeout
 1036 0082 00BF     		.text
 1037              	.Letext0:
 1038              		.file 3 "/home/lithium/Descargas/gcc-arm-none-eabi-5_3-2016q1/lib/gcc/arm-none-eabi/5.3.1/include/
 1039              		.file 4 "/home/lithium/Descargas/gcc-arm-none-eabi-5_3-2016q1/arm-none-eabi/include/machine/_defau
 1040              		.file 5 "/home/lithium/Descargas/gcc-arm-none-eabi-5_3-2016q1/arm-none-eabi/include/sys/_stdint.h"
 1041              		.file 6 "../../os/ports/GCC/ARMCMx/chtypes.h"
 1042              		.file 7 "../../os/kernel/include/chlists.h"
 1043              		.file 8 "../../os/kernel/include/chthreads.h"
 1044              		.file 9 "../../os/ports/GCC/ARMCMx/chcore_v7m.h"
 1045              		.file 10 "../../os/kernel/include/chschd.h"
 1046              		.file 11 "../../os/kernel/include/chmtx.h"
 1047              		.file 12 "../../os/kernel/include/chqueues.h"