ARM GAS  /tmp/cc3lXwTS.s 			page 1


   1              		.syntax unified
   2              		.cpu cortex-m4
   3              		.fpu softvfp
   4              		.eabi_attribute 20, 1
   5              		.eabi_attribute 21, 1
   6              		.eabi_attribute 23, 3
   7              		.eabi_attribute 24, 1
   8              		.eabi_attribute 25, 1
   9              		.eabi_attribute 26, 1
  10              		.eabi_attribute 30, 2
  11              		.eabi_attribute 34, 1
  12              		.eabi_attribute 18, 4
  13              		.thumb
  14              		.syntax unified
  15              		.file	"chqueues.c"
  16              		.text
  17              	.Ltext0:
  18              		.cfi_sections	.debug_frame
  19              		.section	.text.qwait,"ax",%progbits
  20              		.align	2
  21              		.p2align 4,,15
  22              		.thumb
  23              		.thumb_func
  24              		.type	qwait, %function
  25              	qwait:
  26              	.LFB7:
  27              		.file 1 "../../os/kernel/src/chqueues.c"
  28              		.loc 1 70 0
  29              		.cfi_startproc
  30              		@ args = 0, pretend = 0, frame = 0
  31              		@ frame_needed = 0, uses_anonymous_args = 0
  32              		@ link register save eliminated.
  33              	.LVL0:
  34              		.loc 1 72 0
  35 0000 69B1     		cbz	r1, .L2
  36              		.loc 1 74 0
  37 0002 084B     		ldr	r3, .L5
  38 0004 9B69     		ldr	r3, [r3, #24]
  39              		.loc 1 70 0
  40 0006 10B4     		push	{r4}
  41              		.cfi_def_cfa_offset 4
  42              		.cfi_offset 4, -4
  43              		.loc 1 74 0
  44 0008 5862     		str	r0, [r3, #36]
  45              	.LVL1:
  46              	.LBB12:
  47              	.LBB13:
  48              		.file 2 "../../os/kernel/include/chinline.h"
  49              		.loc 2 55 0
  50 000a 4468     		ldr	r4, [r0, #4]
  51 000c 0246     		mov	r2, r0
  52 000e 83E81400 		stmia	r3, {r2, r4}
  53              	.LBE13:
  54              	.LBE12:
  55              		.loc 1 76 0
  56 0012 0D20     		movs	r0, #13
  57              	.LVL2:
ARM GAS  /tmp/cc3lXwTS.s 			page 2


  58              	.LBB15:
  59              	.LBB14:
  60              		.loc 2 56 0
  61 0014 5360     		str	r3, [r2, #4]
  62 0016 2360     		str	r3, [r4]
  63              	.LVL3:
  64              	.LBE14:
  65              	.LBE15:
  66              		.loc 1 77 0
  67 0018 10BC     		pop	{r4}
  68              		.cfi_restore 4
  69              		.cfi_def_cfa_offset 0
  70              		.loc 1 76 0
  71 001a FFF7FEBF 		b	chSchGoSleepTimeoutS
  72              	.LVL4:
  73              	.L2:
  74              		.loc 1 77 0
  75 001e 4FF0FF30 		mov	r0, #-1
  76              	.LVL5:
  77 0022 7047     		bx	lr
  78              	.L6:
  79              		.align	2
  80              	.L5:
  81 0024 00000000 		.word	rlist
  82              		.cfi_endproc
  83              	.LFE7:
  84              		.size	qwait, .-qwait
  85              		.section	.text.chIQInit,"ax",%progbits
  86              		.align	2
  87              		.p2align 4,,15
  88              		.global	chIQInit
  89              		.thumb
  90              		.thumb_func
  91              		.type	chIQInit, %function
  92              	chIQInit:
  93              	.LFB8:
  94              		.loc 1 96 0
  95              		.cfi_startproc
  96              		@ args = 4, pretend = 0, frame = 0
  97              		@ frame_needed = 0, uses_anonymous_args = 0
  98              		@ link register save eliminated.
  99              	.LVL6:
 100 0000 30B4     		push	{r4, r5}
 101              		.cfi_def_cfa_offset 8
 102              		.cfi_offset 4, -8
 103              		.cfi_offset 5, -4
 104              		.loc 1 96 0
 105 0002 029C     		ldr	r4, [sp, #8]
 106              		.loc 1 103 0
 107 0004 0462     		str	r4, [r0, #32]
 108              		.loc 1 99 0
 109 0006 0025     		movs	r5, #0
 110              		.loc 1 101 0
 111 0008 0A44     		add	r2, r2, r1
 112              	.LVL7:
 113              		.loc 1 99 0
 114 000a 8560     		str	r5, [r0, #8]
ARM GAS  /tmp/cc3lXwTS.s 			page 3


 115              		.loc 1 101 0
 116 000c 0261     		str	r2, [r0, #16]
 117              		.loc 1 98 0
 118 000e 4060     		str	r0, [r0, #4]
 119 0010 0060     		str	r0, [r0]
 120              		.loc 1 100 0
 121 0012 4161     		str	r1, [r0, #20]
 122 0014 8161     		str	r1, [r0, #24]
 123 0016 C160     		str	r1, [r0, #12]
 124              		.loc 1 102 0
 125 0018 C361     		str	r3, [r0, #28]
 126              		.loc 1 104 0
 127 001a 30BC     		pop	{r4, r5}
 128              		.cfi_restore 5
 129              		.cfi_restore 4
 130              		.cfi_def_cfa_offset 0
 131              	.LVL8:
 132 001c 7047     		bx	lr
 133              		.cfi_endproc
 134              	.LFE8:
 135              		.size	chIQInit, .-chIQInit
 136 001e 00BF     		.section	.text.chIQResetI,"ax",%progbits
 137              		.align	2
 138              		.p2align 4,,15
 139              		.global	chIQResetI
 140              		.thumb
 141              		.thumb_func
 142              		.type	chIQResetI, %function
 143              	chIQResetI:
 144              	.LFB9:
 145              		.loc 1 117 0
 146              		.cfi_startproc
 147              		@ args = 0, pretend = 0, frame = 0
 148              		@ frame_needed = 0, uses_anonymous_args = 0
 149              	.LVL9:
 150 0000 38B5     		push	{r3, r4, r5, lr}
 151              		.cfi_def_cfa_offset 16
 152              		.cfi_offset 3, -16
 153              		.cfi_offset 4, -12
 154              		.cfi_offset 5, -8
 155              		.cfi_offset 14, -4
 156              		.loc 1 117 0
 157 0002 0446     		mov	r4, r0
 158              		.loc 1 123 0
 159 0004 0068     		ldr	r0, [r0]
 160              	.LVL10:
 161              		.loc 1 121 0
 162 0006 E368     		ldr	r3, [r4, #12]
 163 0008 6361     		str	r3, [r4, #20]
 164              		.loc 1 122 0
 165 000a 0022     		movs	r2, #0
 166              		.loc 1 123 0
 167 000c 8442     		cmp	r4, r0
 168              		.loc 1 122 0
 169 000e A260     		str	r2, [r4, #8]
 170              		.loc 1 121 0
 171 0010 A361     		str	r3, [r4, #24]
ARM GAS  /tmp/cc3lXwTS.s 			page 4


 172              		.loc 1 123 0
 173 0012 0AD0     		beq	.L9
 174              		.loc 1 124 0
 175 0014 6FF00105 		mvn	r5, #1
 176              	.L11:
 177              	.LVL11:
 178              	.LBB16:
 179              	.LBB17:
 180              		.loc 2 62 0
 181 0018 0368     		ldr	r3, [r0]
 182 001a 2360     		str	r3, [r4]
 183 001c 5C60     		str	r4, [r3, #4]
 184              	.LVL12:
 185              	.LBE17:
 186              	.LBE16:
 187              		.loc 1 124 0
 188 001e FFF7FEFF 		bl	chSchReadyI
 189              	.LVL13:
 190 0022 4562     		str	r5, [r0, #36]
 191              		.loc 1 123 0
 192 0024 2068     		ldr	r0, [r4]
 193 0026 A042     		cmp	r0, r4
 194 0028 F6D1     		bne	.L11
 195              	.L9:
 196 002a 38BD     		pop	{r3, r4, r5, pc}
 197              		.cfi_endproc
 198              	.LFE9:
 199              		.size	chIQResetI, .-chIQResetI
 200              		.section	.text.chIQPutI,"ax",%progbits
 201              		.align	2
 202              		.p2align 4,,15
 203              		.global	chIQPutI
 204              		.thumb
 205              		.thumb_func
 206              		.type	chIQPutI, %function
 207              	chIQPutI:
 208              	.LFB10:
 209              		.loc 1 140 0
 210              		.cfi_startproc
 211              		@ args = 0, pretend = 0, frame = 0
 212              		@ frame_needed = 0, uses_anonymous_args = 0
 213              	.LVL14:
 214              		.loc 1 144 0
 215 0000 8369     		ldr	r3, [r0, #24]
 216 0002 4269     		ldr	r2, [r0, #20]
 217 0004 9A42     		cmp	r2, r3
 218              		.loc 1 140 0
 219 0006 10B5     		push	{r4, lr}
 220              		.cfi_def_cfa_offset 8
 221              		.cfi_offset 4, -8
 222              		.cfi_offset 14, -4
 223              		.loc 1 144 0
 224 0008 8368     		ldr	r3, [r0, #8]
 225 000a 1DD0     		beq	.L25
 226              	.L18:
 227              		.loc 1 147 0
 228 000c 0133     		adds	r3, r3, #1
ARM GAS  /tmp/cc3lXwTS.s 			page 5


 229              		.loc 1 148 0
 230 000e 541C     		adds	r4, r2, #1
 231              		.loc 1 147 0
 232 0010 8360     		str	r3, [r0, #8]
 233              		.loc 1 148 0
 234 0012 4461     		str	r4, [r0, #20]
 235 0014 1170     		strb	r1, [r2]
 236              		.loc 1 149 0
 237 0016 4269     		ldr	r2, [r0, #20]
 238 0018 0369     		ldr	r3, [r0, #16]
 239 001a 9A42     		cmp	r2, r3
 240 001c 0DD2     		bcs	.L19
 241              		.loc 1 152 0
 242 001e 0268     		ldr	r2, [r0]
 243 0020 8242     		cmp	r2, r0
 244 0022 0FD0     		beq	.L22
 245              	.L26:
 246              	.LBB18:
 247              	.LBB19:
 248              		.loc 2 62 0
 249 0024 1168     		ldr	r1, [r2]
 250              	.LVL15:
 251 0026 0160     		str	r1, [r0]
 252 0028 0346     		mov	r3, r0
 253              	.LVL16:
 254 002a 4B60     		str	r3, [r1, #4]
 255              	.LVL17:
 256              	.LBE19:
 257              	.LBE18:
 258              		.loc 1 153 0
 259 002c 1046     		mov	r0, r2
 260              	.LVL18:
 261 002e FFF7FEFF 		bl	chSchReadyI
 262              	.LVL19:
 263 0032 0023     		movs	r3, #0
 264 0034 4362     		str	r3, [r0, #36]
 265              		.loc 1 155 0
 266 0036 1846     		mov	r0, r3
 267 0038 10BD     		pop	{r4, pc}
 268              	.LVL20:
 269              	.L19:
 270              		.loc 1 152 0
 271 003a 0268     		ldr	r2, [r0]
 272              		.loc 1 150 0
 273 003c C368     		ldr	r3, [r0, #12]
 274 003e 4361     		str	r3, [r0, #20]
 275              		.loc 1 152 0
 276 0040 8242     		cmp	r2, r0
 277 0042 EFD1     		bne	.L26
 278              	.L22:
 279              		.loc 1 155 0
 280 0044 0020     		movs	r0, #0
 281              	.LVL21:
 282 0046 10BD     		pop	{r4, pc}
 283              	.LVL22:
 284              	.L25:
 285              		.loc 1 144 0 discriminator 1
ARM GAS  /tmp/cc3lXwTS.s 			page 6


 286 0048 002B     		cmp	r3, #0
 287 004a DFD0     		beq	.L18
 288              		.loc 1 145 0
 289 004c 6FF00300 		mvn	r0, #3
 290              	.LVL23:
 291 0050 10BD     		pop	{r4, pc}
 292              		.cfi_endproc
 293              	.LFE10:
 294              		.size	chIQPutI, .-chIQPutI
 295 0052 00BF     		.section	.text.chIQGetTimeout,"ax",%progbits
 296              		.align	2
 297              		.p2align 4,,15
 298              		.global	chIQGetTimeout
 299              		.thumb
 300              		.thumb_func
 301              		.type	chIQGetTimeout, %function
 302              	chIQGetTimeout:
 303              	.LFB11:
 304              		.loc 1 178 0
 305              		.cfi_startproc
 306              		@ args = 0, pretend = 0, frame = 0
 307              		@ frame_needed = 0, uses_anonymous_args = 0
 308              	.LVL24:
 309 0000 70B5     		push	{r4, r5, r6, lr}
 310              		.cfi_def_cfa_offset 16
 311              		.cfi_offset 4, -16
 312              		.cfi_offset 5, -12
 313              		.cfi_offset 6, -8
 314              		.cfi_offset 14, -4
 315              	.LBB20:
 316              		.loc 1 181 0
 317 0002 2023     		movs	r3, #32
 318              	.LBE20:
 319              		.loc 1 178 0
 320 0004 0E46     		mov	r6, r1
 321 0006 0446     		mov	r4, r0
 322              	.LBB21:
 323              		.loc 1 181 0
 324              		.syntax unified
 325              	@ 181 "../../os/kernel/src/chqueues.c" 1
 326 0008 83F31188 		msr     BASEPRI, r3
 327              	@ 0 "" 2
 328              		.thumb
 329              		.syntax unified
 330              	.LBE21:
 331              		.loc 1 182 0
 332 000c C369     		ldr	r3, [r0, #28]
 333 000e 2BB1     		cbz	r3, .L29
 334              		.loc 1 183 0
 335 0010 9847     		blx	r3
 336              	.LVL25:
 337 0012 03E0     		b	.L29
 338              	.LVL26:
 339              	.L31:
 340              	.LBB22:
 341              		.loc 1 187 0
 342 0014 FFF7FEFF 		bl	qwait
ARM GAS  /tmp/cc3lXwTS.s 			page 7


 343              	.LVL27:
 344 0018 0028     		cmp	r0, #0
 345 001a 15DB     		blt	.L38
 346              	.LVL28:
 347              	.L29:
 348              	.LBE22:
 349              		.loc 1 185 0
 350 001c A568     		ldr	r5, [r4, #8]
 351              	.LBB24:
 352              		.loc 1 187 0
 353 001e 3146     		mov	r1, r6
 354 0020 2046     		mov	r0, r4
 355              	.LBE24:
 356              		.loc 1 185 0
 357 0022 002D     		cmp	r5, #0
 358 0024 F6D0     		beq	.L31
 359              	.LVL29:
 360              		.loc 1 194 0
 361 0026 A269     		ldr	r2, [r4, #24]
 362              		.loc 1 195 0
 363 0028 2169     		ldr	r1, [r4, #16]
 364              	.LVL30:
 365              		.loc 1 194 0
 366 002a 531C     		adds	r3, r2, #1
 367              		.loc 1 195 0
 368 002c 8B42     		cmp	r3, r1
 369              		.loc 1 193 0
 370 002e 05F1FF35 		add	r5, r5, #-1
 371              		.loc 1 194 0
 372 0032 A361     		str	r3, [r4, #24]
 373              		.loc 1 193 0
 374 0034 A560     		str	r5, [r4, #8]
 375              		.loc 1 196 0
 376 0036 28BF     		it	cs
 377 0038 E368     		ldrcs	r3, [r4, #12]
 378              		.loc 1 194 0
 379 003a 1078     		ldrb	r0, [r2]	@ zero_extendqisi2
 380              	.LVL31:
 381              		.loc 1 196 0
 382 003c 28BF     		it	cs
 383 003e A361     		strcs	r3, [r4, #24]
 384              	.LBB25:
 385              		.loc 1 198 0
 386 0040 0023     		movs	r3, #0
 387              		.syntax unified
 388              	@ 198 "../../os/kernel/src/chqueues.c" 1
 389 0042 83F31188 		msr     BASEPRI, r3
 390              	@ 0 "" 2
 391              		.thumb
 392              		.syntax unified
 393              	.LBE25:
 394              		.loc 1 200 0
 395 0046 70BD     		pop	{r4, r5, r6, pc}
 396              	.LVL32:
 397              	.L38:
 398              	.LBB26:
 399              	.LBB23:
ARM GAS  /tmp/cc3lXwTS.s 			page 8


 400              		.loc 1 188 0
 401 0048 2B46     		mov	r3, r5
 402              		.syntax unified
 403              	@ 188 "../../os/kernel/src/chqueues.c" 1
 404 004a 83F31188 		msr     BASEPRI, r3
 405              	@ 0 "" 2
 406              		.thumb
 407              		.syntax unified
 408              	.LBE23:
 409              		.loc 1 189 0
 410 004e 70BD     		pop	{r4, r5, r6, pc}
 411              	.LBE26:
 412              		.cfi_endproc
 413              	.LFE11:
 414              		.size	chIQGetTimeout, .-chIQGetTimeout
 415              		.section	.text.chIQReadTimeout,"ax",%progbits
 416              		.align	2
 417              		.p2align 4,,15
 418              		.global	chIQReadTimeout
 419              		.thumb
 420              		.thumb_func
 421              		.type	chIQReadTimeout, %function
 422              	chIQReadTimeout:
 423              	.LFB12:
 424              		.loc 1 227 0
 425              		.cfi_startproc
 426              		@ args = 0, pretend = 0, frame = 0
 427              		@ frame_needed = 0, uses_anonymous_args = 0
 428              	.LVL33:
 429 0000 2DE9F047 		push	{r4, r5, r6, r7, r8, r9, r10, lr}
 430              		.cfi_def_cfa_offset 32
 431              		.cfi_offset 4, -32
 432              		.cfi_offset 5, -28
 433              		.cfi_offset 6, -24
 434              		.cfi_offset 7, -20
 435              		.cfi_offset 8, -16
 436              		.cfi_offset 9, -12
 437              		.cfi_offset 10, -8
 438              		.cfi_offset 14, -4
 439              		.loc 1 227 0
 440 0004 1E46     		mov	r6, r3
 441 0006 0446     		mov	r4, r0
 442 0008 8946     		mov	r9, r1
 443 000a 9246     		mov	r10, r2
 444              		.loc 1 228 0
 445 000c D0F81C80 		ldr	r8, [r0, #28]
 446              	.LVL34:
 447              	.LBB27:
 448              		.loc 1 233 0
 449 0010 2023     		movs	r3, #32
 450              	.LVL35:
 451              		.syntax unified
 452              	@ 233 "../../os/kernel/src/chqueues.c" 1
 453 0012 83F31188 		msr     BASEPRI, r3
 454              	@ 0 "" 2
 455              		.thumb
 456              		.syntax unified
ARM GAS  /tmp/cc3lXwTS.s 			page 9


 457              	.LBE27:
 458              		.loc 1 229 0
 459 0016 0027     		movs	r7, #0
 460              	.LVL36:
 461              	.L45:
 462              		.loc 1 235 0
 463 0018 B8F1000F 		cmp	r8, #0
 464 001c 05D0     		beq	.L41
 465              		.loc 1 236 0
 466 001e 2046     		mov	r0, r4
 467              	.LVL37:
 468 0020 C047     		blx	r8
 469              	.LVL38:
 470 0022 02E0     		b	.L41
 471              	.LVL39:
 472              	.L43:
 473              		.loc 1 239 0
 474 0024 FFF7FEFF 		bl	qwait
 475              	.LVL40:
 476 0028 E0B9     		cbnz	r0, .L52
 477              	.L41:
 478              		.loc 1 238 0
 479 002a A568     		ldr	r5, [r4, #8]
 480              		.loc 1 239 0
 481 002c 3146     		mov	r1, r6
 482 002e 2046     		mov	r0, r4
 483              		.loc 1 238 0
 484 0030 002D     		cmp	r5, #0
 485 0032 F7D0     		beq	.L43
 486              	.LVL41:
 487              		.loc 1 246 0
 488 0034 A369     		ldr	r3, [r4, #24]
 489              		.loc 1 245 0
 490 0036 013D     		subs	r5, r5, #1
 491              		.loc 1 246 0
 492 0038 5A1C     		adds	r2, r3, #1
 493 003a A261     		str	r2, [r4, #24]
 494              		.loc 1 245 0
 495 003c A560     		str	r5, [r4, #8]
 496              		.loc 1 246 0
 497 003e 1B78     		ldrb	r3, [r3]	@ zero_extendqisi2
 498 0040 09F8013B 		strb	r3, [r9], #1
 499              	.LVL42:
 500              		.loc 1 247 0
 501 0044 2369     		ldr	r3, [r4, #16]
 502 0046 A269     		ldr	r2, [r4, #24]
 503 0048 9A42     		cmp	r2, r3
 504              		.loc 1 248 0
 505 004a 24BF     		itt	cs
 506 004c E368     		ldrcs	r3, [r4, #12]
 507 004e A361     		strcs	r3, [r4, #24]
 508              	.LBB28:
 509              		.loc 1 250 0
 510 0050 0023     		movs	r3, #0
 511              		.syntax unified
 512              	@ 250 "../../os/kernel/src/chqueues.c" 1
 513 0052 83F31188 		msr     BASEPRI, r3
ARM GAS  /tmp/cc3lXwTS.s 			page 10


 514              	@ 0 "" 2
 515              		.thumb
 516              		.syntax unified
 517              	.LBE28:
 518              		.loc 1 251 0
 519 0056 0137     		adds	r7, r7, #1
 520              	.LVL43:
 521              		.loc 1 252 0
 522 0058 BA45     		cmp	r10, r7
 523 005a 06D0     		beq	.L42
 524              	.LBB29:
 525              		.loc 1 255 0
 526 005c 2023     		movs	r3, #32
 527              		.syntax unified
 528              	@ 255 "../../os/kernel/src/chqueues.c" 1
 529 005e 83F31188 		msr     BASEPRI, r3
 530              	@ 0 "" 2
 531              		.thumb
 532              		.syntax unified
 533              	.LBE29:
 534              		.loc 1 256 0
 535 0062 D9E7     		b	.L45
 536              	.LVL44:
 537              	.L52:
 538              	.LBB30:
 539              		.loc 1 240 0
 540 0064 2B46     		mov	r3, r5
 541              		.syntax unified
 542              	@ 240 "../../os/kernel/src/chqueues.c" 1
 543 0066 83F31188 		msr     BASEPRI, r3
 544              	@ 0 "" 2
 545              	.LVL45:
 546              		.thumb
 547              		.syntax unified
 548              	.L42:
 549              	.LBE30:
 550              		.loc 1 257 0
 551 006a 3846     		mov	r0, r7
 552 006c BDE8F087 		pop	{r4, r5, r6, r7, r8, r9, r10, pc}
 553              		.cfi_endproc
 554              	.LFE12:
 555              		.size	chIQReadTimeout, .-chIQReadTimeout
 556              		.section	.text.chOQInit,"ax",%progbits
 557              		.align	2
 558              		.p2align 4,,15
 559              		.global	chOQInit
 560              		.thumb
 561              		.thumb_func
 562              		.type	chOQInit, %function
 563              	chOQInit:
 564              	.LFB13:
 565              		.loc 1 276 0
 566              		.cfi_startproc
 567              		@ args = 4, pretend = 0, frame = 0
 568              		@ frame_needed = 0, uses_anonymous_args = 0
 569              		@ link register save eliminated.
 570              	.LVL46:
ARM GAS  /tmp/cc3lXwTS.s 			page 11


 571 0000 30B4     		push	{r4, r5}
 572              		.cfi_def_cfa_offset 8
 573              		.cfi_offset 4, -8
 574              		.cfi_offset 5, -4
 575              		.loc 1 276 0
 576 0002 029C     		ldr	r4, [sp, #8]
 577              		.loc 1 283 0
 578 0004 0462     		str	r4, [r0, #32]
 579              		.loc 1 281 0
 580 0006 8D18     		adds	r5, r1, r2
 581 0008 0561     		str	r5, [r0, #16]
 582              		.loc 1 278 0
 583 000a 4060     		str	r0, [r0, #4]
 584 000c 0060     		str	r0, [r0]
 585              		.loc 1 279 0
 586 000e 8260     		str	r2, [r0, #8]
 587              		.loc 1 280 0
 588 0010 4161     		str	r1, [r0, #20]
 589 0012 8161     		str	r1, [r0, #24]
 590 0014 C160     		str	r1, [r0, #12]
 591              		.loc 1 282 0
 592 0016 C361     		str	r3, [r0, #28]
 593              		.loc 1 284 0
 594 0018 30BC     		pop	{r4, r5}
 595              		.cfi_restore 5
 596              		.cfi_restore 4
 597              		.cfi_def_cfa_offset 0
 598              	.LVL47:
 599 001a 7047     		bx	lr
 600              		.cfi_endproc
 601              	.LFE13:
 602              		.size	chOQInit, .-chOQInit
 603              		.section	.text.chOQResetI,"ax",%progbits
 604              		.align	2
 605              		.p2align 4,,15
 606              		.global	chOQResetI
 607              		.thumb
 608              		.thumb_func
 609              		.type	chOQResetI, %function
 610              	chOQResetI:
 611              	.LFB14:
 612              		.loc 1 297 0
 613              		.cfi_startproc
 614              		@ args = 0, pretend = 0, frame = 0
 615              		@ frame_needed = 0, uses_anonymous_args = 0
 616              	.LVL48:
 617 0000 38B5     		push	{r3, r4, r5, lr}
 618              		.cfi_def_cfa_offset 16
 619              		.cfi_offset 3, -16
 620              		.cfi_offset 4, -12
 621              		.cfi_offset 5, -8
 622              		.cfi_offset 14, -4
 623              		.loc 1 301 0
 624 0002 C268     		ldr	r2, [r0, #12]
 625              		.loc 1 302 0
 626 0004 0369     		ldr	r3, [r0, #16]
 627              		.loc 1 297 0
ARM GAS  /tmp/cc3lXwTS.s 			page 12


 628 0006 0446     		mov	r4, r0
 629              		.loc 1 303 0
 630 0008 0068     		ldr	r0, [r0]
 631              	.LVL49:
 632              		.loc 1 301 0
 633 000a 6261     		str	r2, [r4, #20]
 634              		.loc 1 302 0
 635 000c 9B1A     		subs	r3, r3, r2
 636              		.loc 1 303 0
 637 000e 8442     		cmp	r4, r0
 638              		.loc 1 301 0
 639 0010 A261     		str	r2, [r4, #24]
 640              		.loc 1 302 0
 641 0012 A360     		str	r3, [r4, #8]
 642              		.loc 1 303 0
 643 0014 0AD0     		beq	.L55
 644              		.loc 1 304 0
 645 0016 6FF00105 		mvn	r5, #1
 646              	.L57:
 647              	.LVL50:
 648              	.LBB31:
 649              	.LBB32:
 650              		.loc 2 62 0
 651 001a 0368     		ldr	r3, [r0]
 652 001c 2360     		str	r3, [r4]
 653 001e 5C60     		str	r4, [r3, #4]
 654              	.LVL51:
 655              	.LBE32:
 656              	.LBE31:
 657              		.loc 1 304 0
 658 0020 FFF7FEFF 		bl	chSchReadyI
 659              	.LVL52:
 660 0024 4562     		str	r5, [r0, #36]
 661              		.loc 1 303 0
 662 0026 2068     		ldr	r0, [r4]
 663 0028 A042     		cmp	r0, r4
 664 002a F6D1     		bne	.L57
 665              	.L55:
 666 002c 38BD     		pop	{r3, r4, r5, pc}
 667              		.cfi_endproc
 668              	.LFE14:
 669              		.size	chOQResetI, .-chOQResetI
 670 002e 00BF     		.section	.text.chOQPutTimeout,"ax",%progbits
 671              		.align	2
 672              		.p2align 4,,15
 673              		.global	chOQPutTimeout
 674              		.thumb
 675              		.thumb_func
 676              		.type	chOQPutTimeout, %function
 677              	chOQPutTimeout:
 678              	.LFB15:
 679              		.loc 1 329 0
 680              		.cfi_startproc
 681              		@ args = 0, pretend = 0, frame = 0
 682              		@ frame_needed = 0, uses_anonymous_args = 0
 683              	.LVL53:
 684 0000 F8B5     		push	{r3, r4, r5, r6, r7, lr}
ARM GAS  /tmp/cc3lXwTS.s 			page 13


 685              		.cfi_def_cfa_offset 24
 686              		.cfi_offset 3, -24
 687              		.cfi_offset 4, -20
 688              		.cfi_offset 5, -16
 689              		.cfi_offset 6, -12
 690              		.cfi_offset 7, -8
 691              		.cfi_offset 14, -4
 692              		.loc 1 329 0
 693 0002 0446     		mov	r4, r0
 694 0004 0F46     		mov	r7, r1
 695 0006 1646     		mov	r6, r2
 696              	.LBB33:
 697              		.loc 1 331 0
 698 0008 2023     		movs	r3, #32
 699              		.syntax unified
 700              	@ 331 "../../os/kernel/src/chqueues.c" 1
 701 000a 83F31188 		msr     BASEPRI, r3
 702              	@ 0 "" 2
 703              		.thumb
 704              		.syntax unified
 705              	.LBE33:
 706              		.loc 1 332 0
 707 000e 03E0     		b	.L62
 708              	.LVL54:
 709              	.L64:
 710              	.LBB34:
 711              		.loc 1 335 0
 712 0010 FFF7FEFF 		bl	qwait
 713              	.LVL55:
 714 0014 0028     		cmp	r0, #0
 715 0016 19DB     		blt	.L72
 716              	.LVL56:
 717              	.L62:
 718              	.LBE34:
 719              		.loc 1 332 0
 720 0018 A568     		ldr	r5, [r4, #8]
 721              	.LBB36:
 722              		.loc 1 335 0
 723 001a 3146     		mov	r1, r6
 724 001c 2046     		mov	r0, r4
 725              	.LBE36:
 726              		.loc 1 332 0
 727 001e 002D     		cmp	r5, #0
 728 0020 F6D0     		beq	.L64
 729              	.LVL57:
 730              		.loc 1 342 0
 731 0022 6369     		ldr	r3, [r4, #20]
 732              		.loc 1 341 0
 733 0024 013D     		subs	r5, r5, #1
 734              		.loc 1 342 0
 735 0026 5A1C     		adds	r2, r3, #1
 736 0028 6261     		str	r2, [r4, #20]
 737              		.loc 1 341 0
 738 002a A560     		str	r5, [r4, #8]
 739              		.loc 1 342 0
 740 002c 1F70     		strb	r7, [r3]
 741              		.loc 1 343 0
ARM GAS  /tmp/cc3lXwTS.s 			page 14


 742 002e 2369     		ldr	r3, [r4, #16]
 743 0030 6269     		ldr	r2, [r4, #20]
 744 0032 9A42     		cmp	r2, r3
 745              		.loc 1 344 0
 746 0034 24BF     		itt	cs
 747 0036 E368     		ldrcs	r3, [r4, #12]
 748 0038 6361     		strcs	r3, [r4, #20]
 749              		.loc 1 346 0
 750 003a E369     		ldr	r3, [r4, #28]
 751 003c 0BB1     		cbz	r3, .L66
 752              		.loc 1 347 0
 753 003e 2046     		mov	r0, r4
 754              	.LVL58:
 755 0040 9847     		blx	r3
 756              	.LVL59:
 757              	.L66:
 758              	.LBB37:
 759              		.loc 1 349 0
 760 0042 0023     		movs	r3, #0
 761              		.syntax unified
 762              	@ 349 "../../os/kernel/src/chqueues.c" 1
 763 0044 83F31188 		msr     BASEPRI, r3
 764              	@ 0 "" 2
 765              		.thumb
 766              		.syntax unified
 767              	.LBE37:
 768              		.loc 1 350 0
 769 0048 1846     		mov	r0, r3
 770              		.loc 1 351 0
 771 004a F8BD     		pop	{r3, r4, r5, r6, r7, pc}
 772              	.LVL60:
 773              	.L72:
 774              	.LBB38:
 775              	.LBB35:
 776              		.loc 1 336 0
 777 004c 2B46     		mov	r3, r5
 778              		.syntax unified
 779              	@ 336 "../../os/kernel/src/chqueues.c" 1
 780 004e 83F31188 		msr     BASEPRI, r3
 781              	@ 0 "" 2
 782              		.thumb
 783              		.syntax unified
 784              	.LBE35:
 785              		.loc 1 337 0
 786 0052 F8BD     		pop	{r3, r4, r5, r6, r7, pc}
 787              	.LBE38:
 788              		.cfi_endproc
 789              	.LFE15:
 790              		.size	chOQPutTimeout, .-chOQPutTimeout
 791              		.section	.text.chOQGetI,"ax",%progbits
 792              		.align	2
 793              		.p2align 4,,15
 794              		.global	chOQGetI
 795              		.thumb
 796              		.thumb_func
 797              		.type	chOQGetI, %function
 798              	chOQGetI:
ARM GAS  /tmp/cc3lXwTS.s 			page 15


 799              	.LFB16:
 800              		.loc 1 363 0
 801              		.cfi_startproc
 802              		@ args = 0, pretend = 0, frame = 0
 803              		@ frame_needed = 0, uses_anonymous_args = 0
 804              	.LVL61:
 805 0000 38B5     		push	{r3, r4, r5, lr}
 806              		.cfi_def_cfa_offset 16
 807              		.cfi_offset 3, -16
 808              		.cfi_offset 4, -12
 809              		.cfi_offset 5, -8
 810              		.cfi_offset 14, -4
 811              		.loc 1 368 0
 812 0002 8269     		ldr	r2, [r0, #24]
 813 0004 4369     		ldr	r3, [r0, #20]
 814 0006 9342     		cmp	r3, r2
 815 0008 8368     		ldr	r3, [r0, #8]
 816 000a 18D0     		beq	.L83
 817              	.L76:
 818              		.loc 1 373 0
 819 000c 0569     		ldr	r5, [r0, #16]
 820              		.loc 1 372 0
 821 000e 511C     		adds	r1, r2, #1
 822              		.loc 1 371 0
 823 0010 0133     		adds	r3, r3, #1
 824 0012 8360     		str	r3, [r0, #8]
 825              		.loc 1 372 0
 826 0014 8161     		str	r1, [r0, #24]
 827              		.loc 1 373 0
 828 0016 A942     		cmp	r1, r5
 829              		.loc 1 372 0
 830 0018 1478     		ldrb	r4, [r2]	@ zero_extendqisi2
 831              	.LVL62:
 832              		.loc 1 373 0
 833 001a 0DD2     		bcs	.L78
 834              	.L79:
 835              		.loc 1 376 0
 836 001c 0268     		ldr	r2, [r0]
 837 001e 8242     		cmp	r2, r0
 838 0020 08D0     		beq	.L77
 839              	.LBB39:
 840              	.LBB40:
 841              		.loc 2 62 0
 842 0022 1168     		ldr	r1, [r2]
 843 0024 0160     		str	r1, [r0]
 844 0026 0346     		mov	r3, r0
 845              	.LVL63:
 846 0028 4B60     		str	r3, [r1, #4]
 847              	.LVL64:
 848              	.LBE40:
 849              	.LBE39:
 850              		.loc 1 377 0
 851 002a 1046     		mov	r0, r2
 852              	.LVL65:
 853 002c FFF7FEFF 		bl	chSchReadyI
 854              	.LVL66:
 855 0030 0023     		movs	r3, #0
ARM GAS  /tmp/cc3lXwTS.s 			page 16


 856 0032 4362     		str	r3, [r0, #36]
 857              	.L77:
 858              		.loc 1 379 0
 859 0034 2046     		mov	r0, r4
 860 0036 38BD     		pop	{r3, r4, r5, pc}
 861              	.LVL67:
 862              	.L78:
 863              		.loc 1 374 0
 864 0038 C368     		ldr	r3, [r0, #12]
 865 003a 8361     		str	r3, [r0, #24]
 866 003c EEE7     		b	.L79
 867              	.LVL68:
 868              	.L83:
 869              		.loc 1 368 0 discriminator 1
 870 003e 002B     		cmp	r3, #0
 871 0040 E4D0     		beq	.L76
 872              		.loc 1 369 0
 873 0042 6FF00200 		mvn	r0, #2
 874              	.LVL69:
 875 0046 38BD     		pop	{r3, r4, r5, pc}
 876              		.cfi_endproc
 877              	.LFE16:
 878              		.size	chOQGetI, .-chOQGetI
 879              		.section	.text.chOQWriteTimeout,"ax",%progbits
 880              		.align	2
 881              		.p2align 4,,15
 882              		.global	chOQWriteTimeout
 883              		.thumb
 884              		.thumb_func
 885              		.type	chOQWriteTimeout, %function
 886              	chOQWriteTimeout:
 887              	.LFB17:
 888              		.loc 1 407 0
 889              		.cfi_startproc
 890              		@ args = 0, pretend = 0, frame = 0
 891              		@ frame_needed = 0, uses_anonymous_args = 0
 892              	.LVL70:
 893 0000 2DE9F84F 		push	{r3, r4, r5, r6, r7, r8, r9, r10, fp, lr}
 894              		.cfi_def_cfa_offset 40
 895              		.cfi_offset 3, -40
 896              		.cfi_offset 4, -36
 897              		.cfi_offset 5, -32
 898              		.cfi_offset 6, -28
 899              		.cfi_offset 7, -24
 900              		.cfi_offset 8, -20
 901              		.cfi_offset 9, -16
 902              		.cfi_offset 10, -12
 903              		.cfi_offset 11, -8
 904              		.cfi_offset 14, -4
 905              		.loc 1 407 0
 906 0004 9A46     		mov	r10, r3
 907 0006 0446     		mov	r4, r0
 908 0008 0E46     		mov	r6, r1
 909 000a 1746     		mov	r7, r2
 910              		.loc 1 408 0
 911 000c D0F81C90 		ldr	r9, [r0, #28]
 912              	.LVL71:
ARM GAS  /tmp/cc3lXwTS.s 			page 17


 913              	.LBB41:
 914              		.loc 1 413 0
 915 0010 2023     		movs	r3, #32
 916              	.LVL72:
 917              		.syntax unified
 918              	@ 413 "../../os/kernel/src/chqueues.c" 1
 919 0012 83F31188 		msr     BASEPRI, r3
 920              	@ 0 "" 2
 921              		.thumb
 922              		.syntax unified
 923              	.LBE41:
 924              		.loc 1 409 0
 925 0016 4FF00008 		mov	r8, #0
 926              	.LVL73:
 927              	.L85:
 928              		.loc 1 415 0
 929 001a A568     		ldr	r5, [r4, #8]
 930              		.loc 1 422 0
 931 001c 06F1010B 		add	fp, r6, #1
 932              	.LVL74:
 933              		.loc 1 421 0
 934 0020 6A1E     		subs	r2, r5, #1
 935              		.loc 1 427 0
 936 0022 2046     		mov	r0, r4
 937              		.loc 1 415 0
 938 0024 0DB3     		cbz	r5, .L88
 939              	.LVL75:
 940              	.L101:
 941              		.loc 1 422 0
 942 0026 6369     		ldr	r3, [r4, #20]
 943              		.loc 1 421 0
 944 0028 A260     		str	r2, [r4, #8]
 945              		.loc 1 422 0
 946 002a 5A1C     		adds	r2, r3, #1
 947 002c 6261     		str	r2, [r4, #20]
 948 002e 3278     		ldrb	r2, [r6]	@ zero_extendqisi2
 949 0030 1A70     		strb	r2, [r3]
 950              		.loc 1 423 0
 951 0032 2369     		ldr	r3, [r4, #16]
 952 0034 6269     		ldr	r2, [r4, #20]
 953 0036 9A42     		cmp	r2, r3
 954              		.loc 1 424 0
 955 0038 24BF     		itt	cs
 956 003a E368     		ldrcs	r3, [r4, #12]
 957 003c 6361     		strcs	r3, [r4, #20]
 958              		.loc 1 426 0
 959 003e B9F1000F 		cmp	r9, #0
 960 0042 00D0     		beq	.L90
 961              		.loc 1 427 0
 962 0044 C847     		blx	r9
 963              	.LVL76:
 964              	.L90:
 965              	.LBB42:
 966              		.loc 1 429 0
 967 0046 0023     		movs	r3, #0
 968              		.syntax unified
 969              	@ 429 "../../os/kernel/src/chqueues.c" 1
ARM GAS  /tmp/cc3lXwTS.s 			page 18


 970 0048 83F31188 		msr     BASEPRI, r3
 971              	@ 0 "" 2
 972              		.thumb
 973              		.syntax unified
 974              	.LBE42:
 975              		.loc 1 431 0
 976 004c 013F     		subs	r7, r7, #1
 977              	.LVL77:
 978              		.loc 1 430 0
 979 004e 08F10108 		add	r8, r8, #1
 980              	.LVL78:
 981              		.loc 1 431 0
 982 0052 13D0     		beq	.L87
 983              	.LBB43:
 984              		.loc 1 433 0
 985 0054 2023     		movs	r3, #32
 986              		.syntax unified
 987              	@ 433 "../../os/kernel/src/chqueues.c" 1
 988 0056 83F31188 		msr     BASEPRI, r3
 989              	@ 0 "" 2
 990              		.thumb
 991              		.syntax unified
 992              	.LBE43:
 993              		.loc 1 415 0
 994 005a A568     		ldr	r5, [r4, #8]
 995              		.loc 1 422 0
 996 005c 5E46     		mov	r6, fp
 997              	.LVL79:
 998              		.loc 1 421 0
 999 005e 6A1E     		subs	r2, r5, #1
 1000              		.loc 1 422 0
 1001 0060 06F1010B 		add	fp, r6, #1
 1002              	.LVL80:
 1003              		.loc 1 427 0
 1004 0064 2046     		mov	r0, r4
 1005              		.loc 1 415 0
 1006 0066 002D     		cmp	r5, #0
 1007 0068 DDD1     		bne	.L101
 1008              	.LVL81:
 1009              	.L88:
 1010              		.loc 1 416 0
 1011 006a 5146     		mov	r1, r10
 1012 006c 2046     		mov	r0, r4
 1013              	.LVL82:
 1014 006e FFF7FEFF 		bl	qwait
 1015              	.LVL83:
 1016 0072 0028     		cmp	r0, #0
 1017 0074 D1D0     		beq	.L85
 1018              	.LBB44:
 1019              		.loc 1 417 0
 1020 0076 2B46     		mov	r3, r5
 1021              		.syntax unified
 1022              	@ 417 "../../os/kernel/src/chqueues.c" 1
 1023 0078 83F31188 		msr     BASEPRI, r3
 1024              	@ 0 "" 2
 1025              	.LVL84:
 1026              		.thumb
ARM GAS  /tmp/cc3lXwTS.s 			page 19


 1027              		.syntax unified
 1028              	.L87:
 1029              	.LBE44:
 1030              		.loc 1 435 0
 1031 007c 4046     		mov	r0, r8
 1032 007e BDE8F88F 		pop	{r3, r4, r5, r6, r7, r8, r9, r10, fp, pc}
 1033              		.cfi_endproc
 1034              	.LFE17:
 1035              		.size	chOQWriteTimeout, .-chOQWriteTimeout
 1036 0082 00BF     		.text
 1037              	.Letext0:
 1038              		.file 3 "/home/lithium/Descargas/gcc-arm-none-eabi-5_3-2016q1/lib/gcc/arm-none-eabi/5.3.1/include/
 1039              		.file 4 "/home/lithium/Descargas/gcc-arm-none-eabi-5_3-2016q1/arm-none-eabi/include/machine/_defau
 1040              		.file 5 "/home/lithium/Descargas/gcc-arm-none-eabi-5_3-2016q1/arm-none-eabi/include/sys/_stdint.h"
 1041              		.file 6 "../../os/ports/GCC/ARMCMx/chtypes.h"
 1042              		.file 7 "../../os/kernel/include/chlists.h"
 1043              		.file 8 "../../os/kernel/include/chthreads.h"
 1044              		.file 9 "../../os/ports/GCC/ARMCMx/chcore_v7m.h"
 1045              		.file 10 "../../os/kernel/include/chschd.h"
 1046              		.file 11 "../../os/kernel/include/chmtx.h"
 1047              		.file 12 "../../os/kernel/include/chqueues.h"
 1048              		.section	.debug_info,"",%progbits
 1049              	.Ldebug_info0:
 1050 0000 A10B0000 		.4byte	0xba1
 1051 0004 0400     		.2byte	0x4
 1052 0006 00000000 		.4byte	.Ldebug_abbrev0
 1053 000a 04       		.byte	0x4
 1054 000b 01       		.uleb128 0x1
 1055 000c E9020000 		.4byte	.LASF98
 1056 0010 0C       		.byte	0xc
 1057 0011 8D010000 		.4byte	.LASF99
 1058 0015 89020000 		.4byte	.LASF100
 1059 0019 70000000 		.4byte	.Ldebug_ranges0+0x70
 1060 001d 00000000 		.4byte	0
 1061 0021 00000000 		.4byte	.Ldebug_line0
 1062 0025 02       		.uleb128 0x2
 1063 0026 04       		.byte	0x4
 1064 0027 05       		.byte	0x5
 1065 0028 696E7400 		.ascii	"int\000"
 1066 002c 03       		.uleb128 0x3
 1067 002d 21000000 		.4byte	.LASF4
 1068 0031 03       		.byte	0x3
 1069 0032 D8       		.byte	0xd8
 1070 0033 37000000 		.4byte	0x37
 1071 0037 04       		.uleb128 0x4
 1072 0038 04       		.byte	0x4
 1073 0039 07       		.byte	0x7
 1074 003a 35010000 		.4byte	.LASF0
 1075 003e 04       		.uleb128 0x4
 1076 003f 08       		.byte	0x8
 1077 0040 05       		.byte	0x5
 1078 0041 8F000000 		.4byte	.LASF1
 1079 0045 04       		.uleb128 0x4
 1080 0046 08       		.byte	0x8
 1081 0047 04       		.byte	0x4
 1082 0048 06020000 		.4byte	.LASF2
 1083 004c 04       		.uleb128 0x4
ARM GAS  /tmp/cc3lXwTS.s 			page 20


 1084 004d 01       		.byte	0x1
 1085 004e 06       		.byte	0x6
 1086 004f 9D000000 		.4byte	.LASF3
 1087 0053 03       		.uleb128 0x3
 1088 0054 44000000 		.4byte	.LASF5
 1089 0058 04       		.byte	0x4
 1090 0059 1D       		.byte	0x1d
 1091 005a 5E000000 		.4byte	0x5e
 1092 005e 04       		.uleb128 0x4
 1093 005f 01       		.byte	0x1
 1094 0060 08       		.byte	0x8
 1095 0061 7B020000 		.4byte	.LASF6
 1096 0065 04       		.uleb128 0x4
 1097 0066 02       		.byte	0x2
 1098 0067 05       		.byte	0x5
 1099 0068 C6020000 		.4byte	.LASF7
 1100 006c 04       		.uleb128 0x4
 1101 006d 02       		.byte	0x2
 1102 006e 07       		.byte	0x7
 1103 006f 6C010000 		.4byte	.LASF8
 1104 0073 03       		.uleb128 0x3
 1105 0074 3D040000 		.4byte	.LASF9
 1106 0078 04       		.byte	0x4
 1107 0079 3F       		.byte	0x3f
 1108 007a 7E000000 		.4byte	0x7e
 1109 007e 04       		.uleb128 0x4
 1110 007f 04       		.byte	0x4
 1111 0080 05       		.byte	0x5
 1112 0081 D0000000 		.4byte	.LASF10
 1113 0085 03       		.uleb128 0x3
 1114 0086 04010000 		.4byte	.LASF11
 1115 008a 04       		.byte	0x4
 1116 008b 41       		.byte	0x41
 1117 008c 90000000 		.4byte	0x90
 1118 0090 04       		.uleb128 0x4
 1119 0091 04       		.byte	0x4
 1120 0092 07       		.byte	0x7
 1121 0093 4D010000 		.4byte	.LASF12
 1122 0097 04       		.uleb128 0x4
 1123 0098 08       		.byte	0x8
 1124 0099 07       		.byte	0x7
 1125 009a 5E000000 		.4byte	.LASF13
 1126 009e 03       		.uleb128 0x3
 1127 009f 96040000 		.4byte	.LASF14
 1128 00a3 05       		.byte	0x5
 1129 00a4 14       		.byte	0x14
 1130 00a5 53000000 		.4byte	0x53
 1131 00a9 03       		.uleb128 0x3
 1132 00aa 73020000 		.4byte	.LASF15
 1133 00ae 05       		.byte	0x5
 1134 00af 1F       		.byte	0x1f
 1135 00b0 73000000 		.4byte	0x73
 1136 00b4 03       		.uleb128 0x3
 1137 00b5 F3030000 		.4byte	.LASF16
 1138 00b9 05       		.byte	0x5
 1139 00ba 20       		.byte	0x20
 1140 00bb 85000000 		.4byte	0x85
ARM GAS  /tmp/cc3lXwTS.s 			page 21


 1141 00bf 03       		.uleb128 0x3
 1142 00c0 B1000000 		.4byte	.LASF17
 1143 00c4 06       		.byte	0x6
 1144 00c5 2B       		.byte	0x2b
 1145 00c6 CA000000 		.4byte	0xca
 1146 00ca 04       		.uleb128 0x4
 1147 00cb 01       		.byte	0x1
 1148 00cc 02       		.byte	0x2
 1149 00cd 6D020000 		.4byte	.LASF18
 1150 00d1 03       		.uleb128 0x3
 1151 00d2 D1030000 		.4byte	.LASF19
 1152 00d6 06       		.byte	0x6
 1153 00d7 2C       		.byte	0x2c
 1154 00d8 9E000000 		.4byte	0x9e
 1155 00dc 03       		.uleb128 0x3
 1156 00dd D9000000 		.4byte	.LASF20
 1157 00e1 06       		.byte	0x6
 1158 00e2 2D       		.byte	0x2d
 1159 00e3 9E000000 		.4byte	0x9e
 1160 00e7 03       		.uleb128 0x3
 1161 00e8 44020000 		.4byte	.LASF21
 1162 00ec 06       		.byte	0x6
 1163 00ed 2E       		.byte	0x2e
 1164 00ee 9E000000 		.4byte	0x9e
 1165 00f2 03       		.uleb128 0x3
 1166 00f3 C0000000 		.4byte	.LASF22
 1167 00f7 06       		.byte	0x6
 1168 00f8 2F       		.byte	0x2f
 1169 00f9 9E000000 		.4byte	0x9e
 1170 00fd 03       		.uleb128 0x3
 1171 00fe 5D020000 		.4byte	.LASF23
 1172 0102 06       		.byte	0x6
 1173 0103 30       		.byte	0x30
 1174 0104 B4000000 		.4byte	0xb4
 1175 0108 03       		.uleb128 0x3
 1176 0109 7F010000 		.4byte	.LASF24
 1177 010d 06       		.byte	0x6
 1178 010e 31       		.byte	0x31
 1179 010f A9000000 		.4byte	0xa9
 1180 0113 03       		.uleb128 0x3
 1181 0114 B8010000 		.4byte	.LASF25
 1182 0118 06       		.byte	0x6
 1183 0119 33       		.byte	0x33
 1184 011a B4000000 		.4byte	0xb4
 1185 011e 03       		.uleb128 0x3
 1186 011f 28040000 		.4byte	.LASF26
 1187 0123 06       		.byte	0x6
 1188 0124 35       		.byte	0x35
 1189 0125 B4000000 		.4byte	0xb4
 1190 0129 03       		.uleb128 0x3
 1191 012a E1030000 		.4byte	.LASF27
 1192 012e 07       		.byte	0x7
 1193 012f 2A       		.byte	0x2a
 1194 0130 34010000 		.4byte	0x134
 1195 0134 05       		.uleb128 0x5
 1196 0135 E1030000 		.4byte	.LASF27
 1197 0139 48       		.byte	0x48
ARM GAS  /tmp/cc3lXwTS.s 			page 22


 1198 013a 08       		.byte	0x8
 1199 013b 5E       		.byte	0x5e
 1200 013c 31020000 		.4byte	0x231
 1201 0140 06       		.uleb128 0x6
 1202 0141 CA030000 		.4byte	.LASF28
 1203 0145 08       		.byte	0x8
 1204 0146 5F       		.byte	0x5f
 1205 0147 52020000 		.4byte	0x252
 1206 014b 00       		.byte	0
 1207 014c 06       		.uleb128 0x6
 1208 014d 56020000 		.4byte	.LASF29
 1209 0151 08       		.byte	0x8
 1210 0152 61       		.byte	0x61
 1211 0153 52020000 		.4byte	0x252
 1212 0157 04       		.byte	0x4
 1213 0158 06       		.uleb128 0x6
 1214 0159 7E000000 		.4byte	.LASF30
 1215 015d 08       		.byte	0x8
 1216 015e 63       		.byte	0x63
 1217 015f FD000000 		.4byte	0xfd
 1218 0163 08       		.byte	0x8
 1219 0164 06       		.uleb128 0x6
 1220 0165 D0040000 		.4byte	.LASF31
 1221 0169 08       		.byte	0x8
 1222 016a 64       		.byte	0x64
 1223 016b 0C030000 		.4byte	0x30c
 1224 016f 0C       		.byte	0xc
 1225 0170 06       		.uleb128 0x6
 1226 0171 FC000000 		.4byte	.LASF32
 1227 0175 08       		.byte	0x8
 1228 0176 66       		.byte	0x66
 1229 0177 52020000 		.4byte	0x252
 1230 017b 10       		.byte	0x10
 1231 017c 06       		.uleb128 0x6
 1232 017d 12020000 		.4byte	.LASF33
 1233 0181 08       		.byte	0x8
 1234 0182 67       		.byte	0x67
 1235 0183 52020000 		.4byte	0x252
 1236 0187 14       		.byte	0x14
 1237 0188 06       		.uleb128 0x6
 1238 0189 A5040000 		.4byte	.LASF34
 1239 018d 08       		.byte	0x8
 1240 018e 6E       		.byte	0x6e
 1241 018f 0C040000 		.4byte	0x40c
 1242 0193 18       		.byte	0x18
 1243 0194 06       		.uleb128 0x6
 1244 0195 D0020000 		.4byte	.LASF35
 1245 0199 08       		.byte	0x8
 1246 019a 79       		.byte	0x79
 1247 019b DC000000 		.4byte	0xdc
 1248 019f 1C       		.byte	0x1c
 1249 01a0 06       		.uleb128 0x6
 1250 01a1 D9030000 		.4byte	.LASF36
 1251 01a5 08       		.byte	0x8
 1252 01a6 7D       		.byte	0x7d
 1253 01a7 D1000000 		.4byte	0xd1
 1254 01ab 1D       		.byte	0x1d
ARM GAS  /tmp/cc3lXwTS.s 			page 23


 1255 01ac 06       		.uleb128 0x6
 1256 01ad 76040000 		.4byte	.LASF37
 1257 01b1 08       		.byte	0x8
 1258 01b2 82       		.byte	0x82
 1259 01b3 E7000000 		.4byte	0xe7
 1260 01b7 1E       		.byte	0x1e
 1261 01b8 06       		.uleb128 0x6
 1262 01b9 D8020000 		.4byte	.LASF38
 1263 01bd 08       		.byte	0x8
 1264 01be 88       		.byte	0x88
 1265 01bf F2000000 		.4byte	0xf2
 1266 01c3 1F       		.byte	0x1f
 1267 01c4 06       		.uleb128 0x6
 1268 01c5 57040000 		.4byte	.LASF39
 1269 01c9 08       		.byte	0x8
 1270 01ca 8F       		.byte	0x8f
 1271 01cb 34030000 		.4byte	0x334
 1272 01cf 20       		.byte	0x20
 1273 01d0 07       		.uleb128 0x7
 1274 01d1 705F7500 		.ascii	"p_u\000"
 1275 01d5 08       		.byte	0x8
 1276 01d6 B4       		.byte	0xb4
 1277 01d7 D7030000 		.4byte	0x3d7
 1278 01db 24       		.byte	0x24
 1279 01dc 06       		.uleb128 0x6
 1280 01dd D6040000 		.4byte	.LASF40
 1281 01e1 08       		.byte	0x8
 1282 01e2 B9       		.byte	0xb9
 1283 01e3 78020000 		.4byte	0x278
 1284 01e7 28       		.byte	0x28
 1285 01e8 06       		.uleb128 0x6
 1286 01e9 65040000 		.4byte	.LASF41
 1287 01ed 08       		.byte	0x8
 1288 01ee BF       		.byte	0xbf
 1289 01ef 58020000 		.4byte	0x258
 1290 01f3 2C       		.byte	0x2c
 1291 01f4 06       		.uleb128 0x6
 1292 01f5 09000000 		.4byte	.LASF42
 1293 01f9 08       		.byte	0x8
 1294 01fa C3       		.byte	0xc3
 1295 01fb 08010000 		.4byte	0x108
 1296 01ff 34       		.byte	0x34
 1297 0200 06       		.uleb128 0x6
 1298 0201 E8030000 		.4byte	.LASF43
 1299 0205 08       		.byte	0x8
 1300 0206 C9       		.byte	0xc9
 1301 0207 13010000 		.4byte	0x113
 1302 020b 38       		.byte	0x38
 1303 020c 06       		.uleb128 0x6
 1304 020d BC020000 		.4byte	.LASF44
 1305 0211 08       		.byte	0x8
 1306 0212 D0       		.byte	0xd0
 1307 0213 1E040000 		.4byte	0x41e
 1308 0217 3C       		.byte	0x3c
 1309 0218 06       		.uleb128 0x6
 1310 0219 32040000 		.4byte	.LASF45
 1311 021d 08       		.byte	0x8
ARM GAS  /tmp/cc3lXwTS.s 			page 24


 1312 021e D4       		.byte	0xd4
 1313 021f FD000000 		.4byte	0xfd
 1314 0223 40       		.byte	0x40
 1315 0224 06       		.uleb128 0x6
 1316 0225 A9000000 		.4byte	.LASF46
 1317 0229 08       		.byte	0x8
 1318 022a DA       		.byte	0xda
 1319 022b 8E020000 		.4byte	0x28e
 1320 022f 44       		.byte	0x44
 1321 0230 00       		.byte	0
 1322 0231 08       		.uleb128 0x8
 1323 0232 08       		.byte	0x8
 1324 0233 07       		.byte	0x7
 1325 0234 61       		.byte	0x61
 1326 0235 52020000 		.4byte	0x252
 1327 0239 06       		.uleb128 0x6
 1328 023a CA030000 		.4byte	.LASF28
 1329 023e 07       		.byte	0x7
 1330 023f 62       		.byte	0x62
 1331 0240 52020000 		.4byte	0x252
 1332 0244 00       		.byte	0
 1333 0245 06       		.uleb128 0x6
 1334 0246 56020000 		.4byte	.LASF29
 1335 024a 07       		.byte	0x7
 1336 024b 64       		.byte	0x64
 1337 024c 52020000 		.4byte	0x252
 1338 0250 04       		.byte	0x4
 1339 0251 00       		.byte	0
 1340 0252 09       		.uleb128 0x9
 1341 0253 04       		.byte	0x4
 1342 0254 29010000 		.4byte	0x129
 1343 0258 03       		.uleb128 0x3
 1344 0259 20020000 		.4byte	.LASF47
 1345 025d 07       		.byte	0x7
 1346 025e 66       		.byte	0x66
 1347 025f 31020000 		.4byte	0x231
 1348 0263 08       		.uleb128 0x8
 1349 0264 04       		.byte	0x4
 1350 0265 07       		.byte	0x7
 1351 0266 6B       		.byte	0x6b
 1352 0267 78020000 		.4byte	0x278
 1353 026b 06       		.uleb128 0x6
 1354 026c CA030000 		.4byte	.LASF28
 1355 0270 07       		.byte	0x7
 1356 0271 6D       		.byte	0x6d
 1357 0272 52020000 		.4byte	0x252
 1358 0276 00       		.byte	0
 1359 0277 00       		.byte	0
 1360 0278 03       		.uleb128 0x3
 1361 0279 AC010000 		.4byte	.LASF48
 1362 027d 07       		.byte	0x7
 1363 027e 70       		.byte	0x70
 1364 027f 63020000 		.4byte	0x263
 1365 0283 03       		.uleb128 0x3
 1366 0284 0F010000 		.4byte	.LASF49
 1367 0288 09       		.byte	0x9
 1368 0289 E5       		.byte	0xe5
ARM GAS  /tmp/cc3lXwTS.s 			page 25


 1369 028a 8E020000 		.4byte	0x28e
 1370 028e 0A       		.uleb128 0xa
 1371 028f 04       		.byte	0x4
 1372 0290 0B       		.uleb128 0xb
 1373 0291 5E040000 		.4byte	.LASF50
 1374 0295 24       		.byte	0x24
 1375 0296 09       		.byte	0x9
 1376 0297 0C01     		.2byte	0x10c
 1377 0299 0C030000 		.4byte	0x30c
 1378 029d 0C       		.uleb128 0xc
 1379 029e 723400   		.ascii	"r4\000"
 1380 02a1 09       		.byte	0x9
 1381 02a2 1F01     		.2byte	0x11f
 1382 02a4 83020000 		.4byte	0x283
 1383 02a8 00       		.byte	0
 1384 02a9 0C       		.uleb128 0xc
 1385 02aa 723500   		.ascii	"r5\000"
 1386 02ad 09       		.byte	0x9
 1387 02ae 2001     		.2byte	0x120
 1388 02b0 83020000 		.4byte	0x283
 1389 02b4 04       		.byte	0x4
 1390 02b5 0C       		.uleb128 0xc
 1391 02b6 723600   		.ascii	"r6\000"
 1392 02b9 09       		.byte	0x9
 1393 02ba 2101     		.2byte	0x121
 1394 02bc 83020000 		.4byte	0x283
 1395 02c0 08       		.byte	0x8
 1396 02c1 0C       		.uleb128 0xc
 1397 02c2 723700   		.ascii	"r7\000"
 1398 02c5 09       		.byte	0x9
 1399 02c6 2201     		.2byte	0x122
 1400 02c8 83020000 		.4byte	0x283
 1401 02cc 0C       		.byte	0xc
 1402 02cd 0C       		.uleb128 0xc
 1403 02ce 723800   		.ascii	"r8\000"
 1404 02d1 09       		.byte	0x9
 1405 02d2 2301     		.2byte	0x123
 1406 02d4 83020000 		.4byte	0x283
 1407 02d8 10       		.byte	0x10
 1408 02d9 0C       		.uleb128 0xc
 1409 02da 723900   		.ascii	"r9\000"
 1410 02dd 09       		.byte	0x9
 1411 02de 2401     		.2byte	0x124
 1412 02e0 83020000 		.4byte	0x283
 1413 02e4 14       		.byte	0x14
 1414 02e5 0C       		.uleb128 0xc
 1415 02e6 72313000 		.ascii	"r10\000"
 1416 02ea 09       		.byte	0x9
 1417 02eb 2501     		.2byte	0x125
 1418 02ed 83020000 		.4byte	0x283
 1419 02f1 18       		.byte	0x18
 1420 02f2 0C       		.uleb128 0xc
 1421 02f3 72313100 		.ascii	"r11\000"
 1422 02f7 09       		.byte	0x9
 1423 02f8 2601     		.2byte	0x126
 1424 02fa 83020000 		.4byte	0x283
 1425 02fe 1C       		.byte	0x1c
ARM GAS  /tmp/cc3lXwTS.s 			page 26


 1426 02ff 0C       		.uleb128 0xc
 1427 0300 6C7200   		.ascii	"lr\000"
 1428 0303 09       		.byte	0x9
 1429 0304 2701     		.2byte	0x127
 1430 0306 83020000 		.4byte	0x283
 1431 030a 20       		.byte	0x20
 1432 030b 00       		.byte	0
 1433 030c 0B       		.uleb128 0xb
 1434 030d 5F010000 		.4byte	.LASF51
 1435 0311 04       		.byte	0x4
 1436 0312 09       		.byte	0x9
 1437 0313 3101     		.2byte	0x131
 1438 0315 27030000 		.4byte	0x327
 1439 0319 0C       		.uleb128 0xc
 1440 031a 72313300 		.ascii	"r13\000"
 1441 031e 09       		.byte	0x9
 1442 031f 3201     		.2byte	0x132
 1443 0321 27030000 		.4byte	0x327
 1444 0325 00       		.byte	0
 1445 0326 00       		.byte	0
 1446 0327 09       		.uleb128 0x9
 1447 0328 04       		.byte	0x4
 1448 0329 90020000 		.4byte	0x290
 1449 032d 04       		.uleb128 0x4
 1450 032e 04       		.byte	0x4
 1451 032f 07       		.byte	0x7
 1452 0330 F3010000 		.4byte	.LASF52
 1453 0334 0D       		.uleb128 0xd
 1454 0335 1E010000 		.4byte	0x11e
 1455 0339 08       		.uleb128 0x8
 1456 033a 1C       		.byte	0x1c
 1457 033b 0A       		.byte	0xa
 1458 033c 5E       		.byte	0x5e
 1459 033d 8A030000 		.4byte	0x38a
 1460 0341 06       		.uleb128 0x6
 1461 0342 FC030000 		.4byte	.LASF53
 1462 0346 0A       		.byte	0xa
 1463 0347 5F       		.byte	0x5f
 1464 0348 58020000 		.4byte	0x258
 1465 034c 00       		.byte	0
 1466 034d 06       		.uleb128 0x6
 1467 034e E2020000 		.4byte	.LASF54
 1468 0352 0A       		.byte	0xa
 1469 0353 60       		.byte	0x60
 1470 0354 FD000000 		.4byte	0xfd
 1471 0358 08       		.byte	0x8
 1472 0359 06       		.uleb128 0x6
 1473 035a 1A020000 		.4byte	.LASF55
 1474 035e 0A       		.byte	0xa
 1475 035f 62       		.byte	0x62
 1476 0360 0C030000 		.4byte	0x30c
 1477 0364 0C       		.byte	0xc
 1478 0365 06       		.uleb128 0x6
 1479 0366 85010000 		.4byte	.LASF56
 1480 036a 0A       		.byte	0xa
 1481 036b 65       		.byte	0x65
 1482 036c 52020000 		.4byte	0x252
ARM GAS  /tmp/cc3lXwTS.s 			page 27


 1483 0370 10       		.byte	0x10
 1484 0371 06       		.uleb128 0x6
 1485 0372 3C020000 		.4byte	.LASF57
 1486 0376 0A       		.byte	0xa
 1487 0377 66       		.byte	0x66
 1488 0378 52020000 		.4byte	0x252
 1489 037c 14       		.byte	0x14
 1490 037d 06       		.uleb128 0x6
 1491 037e 32020000 		.4byte	.LASF58
 1492 0382 0A       		.byte	0xa
 1493 0383 69       		.byte	0x69
 1494 0384 52020000 		.4byte	0x252
 1495 0388 18       		.byte	0x18
 1496 0389 00       		.byte	0
 1497 038a 03       		.uleb128 0x3
 1498 038b 7D040000 		.4byte	.LASF59
 1499 038f 0A       		.byte	0xa
 1500 0390 6B       		.byte	0x6b
 1501 0391 39030000 		.4byte	0x339
 1502 0395 05       		.uleb128 0x5
 1503 0396 CF010000 		.4byte	.LASF60
 1504 039a 10       		.byte	0x10
 1505 039b 0B       		.byte	0xb
 1506 039c 2C       		.byte	0x2c
 1507 039d C6030000 		.4byte	0x3c6
 1508 03a1 06       		.uleb128 0x6
 1509 03a2 B8000000 		.4byte	.LASF61
 1510 03a6 0B       		.byte	0xb
 1511 03a7 2D       		.byte	0x2d
 1512 03a8 58020000 		.4byte	0x258
 1513 03ac 00       		.byte	0
 1514 03ad 06       		.uleb128 0x6
 1515 03ae C8040000 		.4byte	.LASF62
 1516 03b2 0B       		.byte	0xb
 1517 03b3 2F       		.byte	0x2f
 1518 03b4 52020000 		.4byte	0x252
 1519 03b8 08       		.byte	0x8
 1520 03b9 06       		.uleb128 0x6
 1521 03ba 21040000 		.4byte	.LASF63
 1522 03be 0B       		.byte	0xb
 1523 03bf 31       		.byte	0x31
 1524 03c0 C6030000 		.4byte	0x3c6
 1525 03c4 0C       		.byte	0xc
 1526 03c5 00       		.byte	0
 1527 03c6 09       		.uleb128 0x9
 1528 03c7 04       		.byte	0x4
 1529 03c8 95030000 		.4byte	0x395
 1530 03cc 03       		.uleb128 0x3
 1531 03cd CF010000 		.4byte	.LASF60
 1532 03d1 0B       		.byte	0xb
 1533 03d2 33       		.byte	0x33
 1534 03d3 95030000 		.4byte	0x395
 1535 03d7 0E       		.uleb128 0xe
 1536 03d8 04       		.byte	0x4
 1537 03d9 08       		.byte	0x8
 1538 03da 96       		.byte	0x96
 1539 03db 0C040000 		.4byte	0x40c
ARM GAS  /tmp/cc3lXwTS.s 			page 28


 1540 03df 0F       		.uleb128 0xf
 1541 03e0 28000000 		.4byte	.LASF64
 1542 03e4 08       		.byte	0x8
 1543 03e5 9D       		.byte	0x9d
 1544 03e6 08010000 		.4byte	0x108
 1545 03ea 0F       		.uleb128 0xf
 1546 03eb 75000000 		.4byte	.LASF65
 1547 03ef 08       		.byte	0x8
 1548 03f0 A4       		.byte	0xa4
 1549 03f1 08010000 		.4byte	0x108
 1550 03f5 0F       		.uleb128 0xf
 1551 03f6 9E040000 		.4byte	.LASF66
 1552 03fa 08       		.byte	0x8
 1553 03fb AB       		.byte	0xab
 1554 03fc 8E020000 		.4byte	0x28e
 1555 0400 0F       		.uleb128 0xf
 1556 0401 C3030000 		.4byte	.LASF67
 1557 0405 08       		.byte	0x8
 1558 0406 B2       		.byte	0xb2
 1559 0407 13010000 		.4byte	0x113
 1560 040b 00       		.byte	0
 1561 040c 09       		.uleb128 0x9
 1562 040d 04       		.byte	0x4
 1563 040e 19040000 		.4byte	0x419
 1564 0412 04       		.uleb128 0x4
 1565 0413 01       		.byte	0x1
 1566 0414 08       		.byte	0x8
 1567 0415 10040000 		.4byte	.LASF68
 1568 0419 10       		.uleb128 0x10
 1569 041a 12040000 		.4byte	0x412
 1570 041e 09       		.uleb128 0x9
 1571 041f 04       		.byte	0x4
 1572 0420 CC030000 		.4byte	0x3cc
 1573 0424 03       		.uleb128 0x3
 1574 0425 D5010000 		.4byte	.LASF69
 1575 0429 0C       		.byte	0xc
 1576 042a 37       		.byte	0x37
 1577 042b 2F040000 		.4byte	0x42f
 1578 042f 05       		.uleb128 0x5
 1579 0430 D5010000 		.4byte	.LASF69
 1580 0434 24       		.byte	0x24
 1581 0435 0C       		.byte	0xc
 1582 0436 45       		.byte	0x45
 1583 0437 9C040000 		.4byte	0x49c
 1584 043b 06       		.uleb128 0x6
 1585 043c 85000000 		.4byte	.LASF70
 1586 0440 0C       		.byte	0xc
 1587 0441 46       		.byte	0x46
 1588 0442 58020000 		.4byte	0x258
 1589 0446 00       		.byte	0
 1590 0447 06       		.uleb128 0x6
 1591 0448 FC010000 		.4byte	.LASF71
 1592 044c 0C       		.byte	0xc
 1593 044d 47       		.byte	0x47
 1594 044e 2C000000 		.4byte	0x2c
 1595 0452 08       		.byte	0x8
 1596 0453 06       		.uleb128 0x6
ARM GAS  /tmp/cc3lXwTS.s 			page 29


 1597 0454 EB000000 		.4byte	.LASF72
 1598 0458 0C       		.byte	0xc
 1599 0459 48       		.byte	0x48
 1600 045a BE040000 		.4byte	0x4be
 1601 045e 0C       		.byte	0xc
 1602 045f 06       		.uleb128 0x6
 1603 0460 70040000 		.4byte	.LASF73
 1604 0464 0C       		.byte	0xc
 1605 0465 49       		.byte	0x49
 1606 0466 BE040000 		.4byte	0x4be
 1607 046a 10       		.byte	0x10
 1608 046b 06       		.uleb128 0x6
 1609 046c F4000000 		.4byte	.LASF74
 1610 0470 0C       		.byte	0xc
 1611 0471 4B       		.byte	0x4b
 1612 0472 BE040000 		.4byte	0x4be
 1613 0476 14       		.byte	0x14
 1614 0477 06       		.uleb128 0x6
 1615 0478 65020000 		.4byte	.LASF75
 1616 047c 0C       		.byte	0xc
 1617 047d 4C       		.byte	0x4c
 1618 047e BE040000 		.4byte	0x4be
 1619 0482 18       		.byte	0x18
 1620 0483 06       		.uleb128 0x6
 1621 0484 87040000 		.4byte	.LASF76
 1622 0488 0C       		.byte	0xc
 1623 0489 4D       		.byte	0x4d
 1624 048a 9C040000 		.4byte	0x49c
 1625 048e 1C       		.byte	0x1c
 1626 048f 06       		.uleb128 0x6
 1627 0490 C1040000 		.4byte	.LASF77
 1628 0494 0C       		.byte	0xc
 1629 0495 4E       		.byte	0x4e
 1630 0496 8E020000 		.4byte	0x28e
 1631 049a 20       		.byte	0x20
 1632 049b 00       		.byte	0
 1633 049c 03       		.uleb128 0x3
 1634 049d 4C020000 		.4byte	.LASF78
 1635 04a1 0C       		.byte	0xc
 1636 04a2 3A       		.byte	0x3a
 1637 04a3 A7040000 		.4byte	0x4a7
 1638 04a7 09       		.uleb128 0x9
 1639 04a8 04       		.byte	0x4
 1640 04a9 AD040000 		.4byte	0x4ad
 1641 04ad 11       		.uleb128 0x11
 1642 04ae B8040000 		.4byte	0x4b8
 1643 04b2 12       		.uleb128 0x12
 1644 04b3 B8040000 		.4byte	0x4b8
 1645 04b7 00       		.byte	0
 1646 04b8 09       		.uleb128 0x9
 1647 04b9 04       		.byte	0x4
 1648 04ba 24040000 		.4byte	0x424
 1649 04be 09       		.uleb128 0x9
 1650 04bf 04       		.byte	0x4
 1651 04c0 9E000000 		.4byte	0x9e
 1652 04c4 03       		.uleb128 0x3
 1653 04c5 C4010000 		.4byte	.LASF79
ARM GAS  /tmp/cc3lXwTS.s 			page 30


 1654 04c9 0C       		.byte	0xc
 1655 04ca 82       		.byte	0x82
 1656 04cb 24040000 		.4byte	0x424
 1657 04cf 03       		.uleb128 0x3
 1658 04d0 38000000 		.4byte	.LASF80
 1659 04d4 0C       		.byte	0xc
 1660 04d5 F5       		.byte	0xf5
 1661 04d6 24040000 		.4byte	0x424
 1662 04da 09       		.uleb128 0x9
 1663 04db 04       		.byte	0x4
 1664 04dc E0040000 		.4byte	0x4e0
 1665 04e0 10       		.uleb128 0x10
 1666 04e1 9E000000 		.4byte	0x9e
 1667 04e5 13       		.uleb128 0x13
 1668 04e6 0F000000 		.4byte	.LASF101
 1669 04ea 02       		.byte	0x2
 1670 04eb 34       		.byte	0x34
 1671 04ec 03       		.byte	0x3
 1672 04ed 07050000 		.4byte	0x507
 1673 04f1 14       		.uleb128 0x14
 1674 04f2 747000   		.ascii	"tp\000"
 1675 04f5 02       		.byte	0x2
 1676 04f6 34       		.byte	0x34
 1677 04f7 52020000 		.4byte	0x252
 1678 04fb 14       		.uleb128 0x14
 1679 04fc 74717000 		.ascii	"tqp\000"
 1680 0500 02       		.byte	0x2
 1681 0501 34       		.byte	0x34
 1682 0502 07050000 		.4byte	0x507
 1683 0506 00       		.byte	0
 1684 0507 09       		.uleb128 0x9
 1685 0508 04       		.byte	0x4
 1686 0509 58020000 		.4byte	0x258
 1687 050d 15       		.uleb128 0x15
 1688 050e 15040000 		.4byte	.LASF102
 1689 0512 02       		.byte	0x2
 1690 0513 3B       		.byte	0x3b
 1691 0514 52020000 		.4byte	0x252
 1692 0518 03       		.byte	0x3
 1693 0519 33050000 		.4byte	0x533
 1694 051d 14       		.uleb128 0x14
 1695 051e 74717000 		.ascii	"tqp\000"
 1696 0522 02       		.byte	0x2
 1697 0523 3B       		.byte	0x3b
 1698 0524 07050000 		.4byte	0x507
 1699 0528 16       		.uleb128 0x16
 1700 0529 747000   		.ascii	"tp\000"
 1701 052c 02       		.byte	0x2
 1702 052d 3C       		.byte	0x3c
 1703 052e 52020000 		.4byte	0x252
 1704 0532 00       		.byte	0
 1705 0533 17       		.uleb128 0x17
 1706 0534 CA000000 		.4byte	.LASF103
 1707 0538 01       		.byte	0x1
 1708 0539 46       		.byte	0x46
 1709 053a 08010000 		.4byte	0x108
 1710 053e 00000000 		.4byte	.LFB7
ARM GAS  /tmp/cc3lXwTS.s 			page 31


 1711 0542 28000000 		.4byte	.LFE7-.LFB7
 1712 0546 01       		.uleb128 0x1
 1713 0547 9C       		.byte	0x9c
 1714 0548 A6050000 		.4byte	0x5a6
 1715 054c 18       		.uleb128 0x18
 1716 054d 717000   		.ascii	"qp\000"
 1717 0550 01       		.byte	0x1
 1718 0551 46       		.byte	0x46
 1719 0552 B8040000 		.4byte	0x4b8
 1720 0556 00000000 		.4byte	.LLST0
 1721 055a 19       		.uleb128 0x19
 1722 055b 2D020000 		.4byte	.LASF81
 1723 055f 01       		.byte	0x1
 1724 0560 46       		.byte	0x46
 1725 0561 1E010000 		.4byte	0x11e
 1726 0565 45000000 		.4byte	.LLST1
 1727 0569 1A       		.uleb128 0x1a
 1728 056a E5040000 		.4byte	0x4e5
 1729 056e 0A000000 		.4byte	.LBB12
 1730 0572 00000000 		.4byte	.Ldebug_ranges0+0
 1731 0576 01       		.byte	0x1
 1732 0577 4B       		.byte	0x4b
 1733 0578 8F050000 		.4byte	0x58f
 1734 057c 1B       		.uleb128 0x1b
 1735 057d FB040000 		.4byte	0x4fb
 1736 0581 71000000 		.4byte	.LLST2
 1737 0585 1B       		.uleb128 0x1b
 1738 0586 F1040000 		.4byte	0x4f1
 1739 058a 8F000000 		.4byte	.LLST3
 1740 058e 00       		.byte	0
 1741 058f 1C       		.uleb128 0x1c
 1742 0590 1E000000 		.4byte	.LVL4
 1743 0594 8E0B0000 		.4byte	0xb8e
 1744 0598 1D       		.uleb128 0x1d
 1745 0599 01       		.uleb128 0x1
 1746 059a 50       		.byte	0x50
 1747 059b 01       		.uleb128 0x1
 1748 059c 3D       		.byte	0x3d
 1749 059d 1D       		.uleb128 0x1d
 1750 059e 01       		.uleb128 0x1
 1751 059f 51       		.byte	0x51
 1752 05a0 03       		.uleb128 0x3
 1753 05a1 F3       		.byte	0xf3
 1754 05a2 01       		.uleb128 0x1
 1755 05a3 51       		.byte	0x51
 1756 05a4 00       		.byte	0
 1757 05a5 00       		.byte	0
 1758 05a6 1E       		.uleb128 0x1e
 1759 05a7 2F000000 		.4byte	.LASF85
 1760 05ab 01       		.byte	0x1
 1761 05ac 5F       		.byte	0x5f
 1762 05ad 00000000 		.4byte	.LFB8
 1763 05b1 1E000000 		.4byte	.LFE8-.LFB8
 1764 05b5 01       		.uleb128 0x1
 1765 05b6 9C       		.byte	0x9c
 1766 05b7 00060000 		.4byte	0x600
 1767 05bb 1F       		.uleb128 0x1f
ARM GAS  /tmp/cc3lXwTS.s 			page 32


 1768 05bc 69717000 		.ascii	"iqp\000"
 1769 05c0 01       		.byte	0x1
 1770 05c1 5F       		.byte	0x5f
 1771 05c2 00060000 		.4byte	0x600
 1772 05c6 01       		.uleb128 0x1
 1773 05c7 50       		.byte	0x50
 1774 05c8 1F       		.uleb128 0x1f
 1775 05c9 627000   		.ascii	"bp\000"
 1776 05cc 01       		.byte	0x1
 1777 05cd 5F       		.byte	0x5f
 1778 05ce BE040000 		.4byte	0x4be
 1779 05d2 01       		.uleb128 0x1
 1780 05d3 51       		.byte	0x51
 1781 05d4 19       		.uleb128 0x19
 1782 05d5 67010000 		.4byte	.LASF82
 1783 05d9 01       		.byte	0x1
 1784 05da 5F       		.byte	0x5f
 1785 05db 2C000000 		.4byte	0x2c
 1786 05df A2000000 		.4byte	.LLST4
 1787 05e3 20       		.uleb128 0x20
 1788 05e4 47040000 		.4byte	.LASF83
 1789 05e8 01       		.byte	0x1
 1790 05e9 5F       		.byte	0x5f
 1791 05ea 9C040000 		.4byte	0x49c
 1792 05ee 01       		.uleb128 0x1
 1793 05ef 53       		.byte	0x53
 1794 05f0 19       		.uleb128 0x19
 1795 05f1 18010000 		.4byte	.LASF84
 1796 05f5 01       		.byte	0x1
 1797 05f6 60       		.byte	0x60
 1798 05f7 8E020000 		.4byte	0x28e
 1799 05fb C3000000 		.4byte	.LLST5
 1800 05ff 00       		.byte	0
 1801 0600 09       		.uleb128 0x9
 1802 0601 04       		.byte	0x4
 1803 0602 C4040000 		.4byte	0x4c4
 1804 0606 1E       		.uleb128 0x1e
 1805 0607 42010000 		.4byte	.LASF86
 1806 060b 01       		.byte	0x1
 1807 060c 75       		.byte	0x75
 1808 060d 00000000 		.4byte	.LFB9
 1809 0611 2C000000 		.4byte	.LFE9-.LFB9
 1810 0615 01       		.uleb128 0x1
 1811 0616 9C       		.byte	0x9c
 1812 0617 64060000 		.4byte	0x664
 1813 061b 18       		.uleb128 0x18
 1814 061c 69717000 		.ascii	"iqp\000"
 1815 0620 01       		.byte	0x1
 1816 0621 75       		.byte	0x75
 1817 0622 00060000 		.4byte	0x600
 1818 0626 E3000000 		.4byte	.LLST6
 1819 062a 21       		.uleb128 0x21
 1820 062b 0D050000 		.4byte	0x50d
 1821 062f 18000000 		.4byte	.LBB16
 1822 0633 06000000 		.4byte	.LBE16-.LBB16
 1823 0637 01       		.byte	0x1
 1824 0638 7C       		.byte	0x7c
ARM GAS  /tmp/cc3lXwTS.s 			page 33


 1825 0639 5A060000 		.4byte	0x65a
 1826 063d 1B       		.uleb128 0x1b
 1827 063e 1D050000 		.4byte	0x51d
 1828 0642 01010000 		.4byte	.LLST7
 1829 0646 22       		.uleb128 0x22
 1830 0647 18000000 		.4byte	.LBB17
 1831 064b 06000000 		.4byte	.LBE17-.LBB17
 1832 064f 23       		.uleb128 0x23
 1833 0650 28050000 		.4byte	0x528
 1834 0654 14010000 		.4byte	.LLST8
 1835 0658 00       		.byte	0
 1836 0659 00       		.byte	0
 1837 065a 24       		.uleb128 0x24
 1838 065b 22000000 		.4byte	.LVL13
 1839 065f 990B0000 		.4byte	0xb99
 1840 0663 00       		.byte	0
 1841 0664 25       		.uleb128 0x25
 1842 0665 2C010000 		.4byte	.LASF87
 1843 0669 01       		.byte	0x1
 1844 066a 8C       		.byte	0x8c
 1845 066b 08010000 		.4byte	0x108
 1846 066f 00000000 		.4byte	.LFB10
 1847 0673 52000000 		.4byte	.LFE10-.LFB10
 1848 0677 01       		.uleb128 0x1
 1849 0678 9C       		.byte	0x9c
 1850 0679 D3060000 		.4byte	0x6d3
 1851 067d 18       		.uleb128 0x18
 1852 067e 69717000 		.ascii	"iqp\000"
 1853 0682 01       		.byte	0x1
 1854 0683 8C       		.byte	0x8c
 1855 0684 00060000 		.4byte	0x600
 1856 0688 27010000 		.4byte	.LLST9
 1857 068c 18       		.uleb128 0x18
 1858 068d 6200     		.ascii	"b\000"
 1859 068f 01       		.byte	0x1
 1860 0690 8C       		.byte	0x8c
 1861 0691 9E000000 		.4byte	0x9e
 1862 0695 85010000 		.4byte	.LLST10
 1863 0699 21       		.uleb128 0x21
 1864 069a 0D050000 		.4byte	0x50d
 1865 069e 24000000 		.4byte	.LBB18
 1866 06a2 08000000 		.4byte	.LBE18-.LBB18
 1867 06a6 01       		.byte	0x1
 1868 06a7 99       		.byte	0x99
 1869 06a8 C9060000 		.4byte	0x6c9
 1870 06ac 1B       		.uleb128 0x1b
 1871 06ad 1D050000 		.4byte	0x51d
 1872 06b1 B1010000 		.4byte	.LLST11
 1873 06b5 22       		.uleb128 0x22
 1874 06b6 24000000 		.4byte	.LBB19
 1875 06ba 08000000 		.4byte	.LBE19-.LBB19
 1876 06be 23       		.uleb128 0x23
 1877 06bf 28050000 		.4byte	0x528
 1878 06c3 C4010000 		.4byte	.LLST12
 1879 06c7 00       		.byte	0
 1880 06c8 00       		.byte	0
 1881 06c9 24       		.uleb128 0x24
ARM GAS  /tmp/cc3lXwTS.s 			page 34


 1882 06ca 32000000 		.4byte	.LVL19
 1883 06ce 990B0000 		.4byte	0xb99
 1884 06d2 00       		.byte	0
 1885 06d3 25       		.uleb128 0x25
 1886 06d4 E0040000 		.4byte	.LASF88
 1887 06d8 01       		.byte	0x1
 1888 06d9 B2       		.byte	0xb2
 1889 06da 08010000 		.4byte	0x108
 1890 06de 00000000 		.4byte	.LFB11
 1891 06e2 50000000 		.4byte	.LFE11-.LFB11
 1892 06e6 01       		.uleb128 0x1
 1893 06e7 9C       		.byte	0x9c
 1894 06e8 93070000 		.4byte	0x793
 1895 06ec 18       		.uleb128 0x18
 1896 06ed 69717000 		.ascii	"iqp\000"
 1897 06f1 01       		.byte	0x1
 1898 06f2 B2       		.byte	0xb2
 1899 06f3 00060000 		.4byte	0x600
 1900 06f7 D7010000 		.4byte	.LLST13
 1901 06fb 19       		.uleb128 0x19
 1902 06fc 2D020000 		.4byte	.LASF81
 1903 0700 01       		.byte	0x1
 1904 0701 B2       		.byte	0xb2
 1905 0702 1E010000 		.4byte	0x11e
 1906 0706 21020000 		.4byte	.LLST14
 1907 070a 26       		.uleb128 0x26
 1908 070b 6200     		.ascii	"b\000"
 1909 070d 01       		.byte	0x1
 1910 070e B3       		.byte	0xb3
 1911 070f 9E000000 		.4byte	0x9e
 1912 0713 6B020000 		.4byte	.LLST15
 1913 0717 27       		.uleb128 0x27
 1914 0718 18000000 		.4byte	.Ldebug_ranges0+0x18
 1915 071c 2E070000 		.4byte	0x72e
 1916 0720 28       		.uleb128 0x28
 1917 0721 746D7000 		.ascii	"tmp\000"
 1918 0725 01       		.byte	0x1
 1919 0726 B5       		.byte	0xb5
 1920 0727 B4000000 		.4byte	0xb4
 1921 072b 01       		.uleb128 0x1
 1922 072c 53       		.byte	0x53
 1923 072d 00       		.byte	0
 1924 072e 27       		.uleb128 0x27
 1925 072f 30000000 		.4byte	.Ldebug_ranges0+0x30
 1926 0733 6B070000 		.4byte	0x76b
 1927 0737 26       		.uleb128 0x26
 1928 0738 6D736700 		.ascii	"msg\000"
 1929 073c 01       		.byte	0x1
 1930 073d BA       		.byte	0xba
 1931 073e 08010000 		.4byte	0x108
 1932 0742 7E020000 		.4byte	.LLST16
 1933 0746 29       		.uleb128 0x29
 1934 0747 48000000 		.4byte	.LBB23
 1935 074b 06000000 		.4byte	.LBE23-.LBB23
 1936 074f 61070000 		.4byte	0x761
 1937 0753 28       		.uleb128 0x28
 1938 0754 746D7000 		.ascii	"tmp\000"
ARM GAS  /tmp/cc3lXwTS.s 			page 35


 1939 0758 01       		.byte	0x1
 1940 0759 BC       		.byte	0xbc
 1941 075a B4000000 		.4byte	0xb4
 1942 075e 01       		.uleb128 0x1
 1943 075f 53       		.byte	0x53
 1944 0760 00       		.byte	0
 1945 0761 24       		.uleb128 0x24
 1946 0762 18000000 		.4byte	.LVL27
 1947 0766 33050000 		.4byte	0x533
 1948 076a 00       		.byte	0
 1949 076b 29       		.uleb128 0x29
 1950 076c 40000000 		.4byte	.LBB25
 1951 0770 06000000 		.4byte	.LBE25-.LBB25
 1952 0774 86070000 		.4byte	0x786
 1953 0778 28       		.uleb128 0x28
 1954 0779 746D7000 		.ascii	"tmp\000"
 1955 077d 01       		.byte	0x1
 1956 077e C6       		.byte	0xc6
 1957 077f B4000000 		.4byte	0xb4
 1958 0783 01       		.uleb128 0x1
 1959 0784 53       		.byte	0x53
 1960 0785 00       		.byte	0
 1961 0786 2A       		.uleb128 0x2a
 1962 0787 12000000 		.4byte	.LVL25
 1963 078b 1D       		.uleb128 0x1d
 1964 078c 01       		.uleb128 0x1
 1965 078d 50       		.byte	0x50
 1966 078e 02       		.uleb128 0x2
 1967 078f 74       		.byte	0x74
 1968 0790 00       		.sleb128 0
 1969 0791 00       		.byte	0
 1970 0792 00       		.byte	0
 1971 0793 25       		.uleb128 0x25
 1972 0794 4E000000 		.4byte	.LASF89
 1973 0798 01       		.byte	0x1
 1974 0799 E2       		.byte	0xe2
 1975 079a 2C000000 		.4byte	0x2c
 1976 079e 00000000 		.4byte	.LFB12
 1977 07a2 70000000 		.4byte	.LFE12-.LFB12
 1978 07a6 01       		.uleb128 0x1
 1979 07a7 9C       		.byte	0x9c
 1980 07a8 85080000 		.4byte	0x885
 1981 07ac 18       		.uleb128 0x18
 1982 07ad 69717000 		.ascii	"iqp\000"
 1983 07b1 01       		.byte	0x1
 1984 07b2 E2       		.byte	0xe2
 1985 07b3 00060000 		.4byte	0x600
 1986 07b7 9C020000 		.4byte	.LLST17
 1987 07bb 18       		.uleb128 0x18
 1988 07bc 627000   		.ascii	"bp\000"
 1989 07bf 01       		.byte	0x1
 1990 07c0 E2       		.byte	0xe2
 1991 07c1 BE040000 		.4byte	0x4be
 1992 07c5 E6020000 		.4byte	.LLST18
 1993 07c9 18       		.uleb128 0x18
 1994 07ca 6E00     		.ascii	"n\000"
 1995 07cc 01       		.byte	0x1
ARM GAS  /tmp/cc3lXwTS.s 			page 36


 1996 07cd E3       		.byte	0xe3
 1997 07ce 2C000000 		.4byte	0x2c
 1998 07d2 1C030000 		.4byte	.LLST19
 1999 07d6 19       		.uleb128 0x19
 2000 07d7 2D020000 		.4byte	.LASF81
 2001 07db 01       		.byte	0x1
 2002 07dc E3       		.byte	0xe3
 2003 07dd 1E010000 		.4byte	0x11e
 2004 07e1 3F030000 		.4byte	.LLST20
 2005 07e5 28       		.uleb128 0x28
 2006 07e6 6E667900 		.ascii	"nfy\000"
 2007 07ea 01       		.byte	0x1
 2008 07eb E4       		.byte	0xe4
 2009 07ec 9C040000 		.4byte	0x49c
 2010 07f0 01       		.uleb128 0x1
 2011 07f1 58       		.byte	0x58
 2012 07f2 26       		.uleb128 0x26
 2013 07f3 7200     		.ascii	"r\000"
 2014 07f5 01       		.byte	0x1
 2015 07f6 E5       		.byte	0xe5
 2016 07f7 2C000000 		.4byte	0x2c
 2017 07fb 89030000 		.4byte	.LLST21
 2018 07ff 29       		.uleb128 0x29
 2019 0800 10000000 		.4byte	.LBB27
 2020 0804 06000000 		.4byte	.LBE27-.LBB27
 2021 0808 1A080000 		.4byte	0x81a
 2022 080c 28       		.uleb128 0x28
 2023 080d 746D7000 		.ascii	"tmp\000"
 2024 0811 01       		.byte	0x1
 2025 0812 E9       		.byte	0xe9
 2026 0813 B4000000 		.4byte	0xb4
 2027 0817 01       		.uleb128 0x1
 2028 0818 53       		.byte	0x53
 2029 0819 00       		.byte	0
 2030 081a 29       		.uleb128 0x29
 2031 081b 50000000 		.4byte	.LBB28
 2032 081f 06000000 		.4byte	.LBE28-.LBB28
 2033 0823 35080000 		.4byte	0x835
 2034 0827 28       		.uleb128 0x28
 2035 0828 746D7000 		.ascii	"tmp\000"
 2036 082c 01       		.byte	0x1
 2037 082d FA       		.byte	0xfa
 2038 082e B4000000 		.4byte	0xb4
 2039 0832 01       		.uleb128 0x1
 2040 0833 53       		.byte	0x53
 2041 0834 00       		.byte	0
 2042 0835 29       		.uleb128 0x29
 2043 0836 5C000000 		.4byte	.LBB29
 2044 083a 06000000 		.4byte	.LBE29-.LBB29
 2045 083e 50080000 		.4byte	0x850
 2046 0842 28       		.uleb128 0x28
 2047 0843 746D7000 		.ascii	"tmp\000"
 2048 0847 01       		.byte	0x1
 2049 0848 FF       		.byte	0xff
 2050 0849 B4000000 		.4byte	0xb4
 2051 084d 01       		.uleb128 0x1
 2052 084e 53       		.byte	0x53
ARM GAS  /tmp/cc3lXwTS.s 			page 37


 2053 084f 00       		.byte	0
 2054 0850 29       		.uleb128 0x29
 2055 0851 64000000 		.4byte	.LBB30
 2056 0855 06000000 		.4byte	.LBE30-.LBB30
 2057 0859 6B080000 		.4byte	0x86b
 2058 085d 28       		.uleb128 0x28
 2059 085e 746D7000 		.ascii	"tmp\000"
 2060 0862 01       		.byte	0x1
 2061 0863 F0       		.byte	0xf0
 2062 0864 B4000000 		.4byte	0xb4
 2063 0868 01       		.uleb128 0x1
 2064 0869 53       		.byte	0x53
 2065 086a 00       		.byte	0
 2066 086b 2B       		.uleb128 0x2b
 2067 086c 22000000 		.4byte	.LVL38
 2068 0870 7B080000 		.4byte	0x87b
 2069 0874 1D       		.uleb128 0x1d
 2070 0875 01       		.uleb128 0x1
 2071 0876 50       		.byte	0x50
 2072 0877 02       		.uleb128 0x2
 2073 0878 74       		.byte	0x74
 2074 0879 00       		.sleb128 0
 2075 087a 00       		.byte	0
 2076 087b 24       		.uleb128 0x24
 2077 087c 28000000 		.4byte	.LVL40
 2078 0880 33050000 		.4byte	0x533
 2079 0884 00       		.byte	0
 2080 0885 2C       		.uleb128 0x2c
 2081 0886 00000000 		.4byte	.LASF90
 2082 088a 01       		.byte	0x1
 2083 088b 1301     		.2byte	0x113
 2084 088d 00000000 		.4byte	.LFB13
 2085 0891 1C000000 		.4byte	.LFE13-.LFB13
 2086 0895 01       		.uleb128 0x1
 2087 0896 9C       		.byte	0x9c
 2088 0897 E3080000 		.4byte	0x8e3
 2089 089b 2D       		.uleb128 0x2d
 2090 089c 6F717000 		.ascii	"oqp\000"
 2091 08a0 01       		.byte	0x1
 2092 08a1 1301     		.2byte	0x113
 2093 08a3 E3080000 		.4byte	0x8e3
 2094 08a7 01       		.uleb128 0x1
 2095 08a8 50       		.byte	0x50
 2096 08a9 2D       		.uleb128 0x2d
 2097 08aa 627000   		.ascii	"bp\000"
 2098 08ad 01       		.byte	0x1
 2099 08ae 1301     		.2byte	0x113
 2100 08b0 BE040000 		.4byte	0x4be
 2101 08b4 01       		.uleb128 0x1
 2102 08b5 51       		.byte	0x51
 2103 08b6 2E       		.uleb128 0x2e
 2104 08b7 67010000 		.4byte	.LASF82
 2105 08bb 01       		.byte	0x1
 2106 08bc 1301     		.2byte	0x113
 2107 08be 2C000000 		.4byte	0x2c
 2108 08c2 01       		.uleb128 0x1
 2109 08c3 52       		.byte	0x52
ARM GAS  /tmp/cc3lXwTS.s 			page 38


 2110 08c4 2E       		.uleb128 0x2e
 2111 08c5 1C000000 		.4byte	.LASF91
 2112 08c9 01       		.byte	0x1
 2113 08ca 1301     		.2byte	0x113
 2114 08cc 9C040000 		.4byte	0x49c
 2115 08d0 01       		.uleb128 0x1
 2116 08d1 53       		.byte	0x53
 2117 08d2 2F       		.uleb128 0x2f
 2118 08d3 18010000 		.4byte	.LASF84
 2119 08d7 01       		.byte	0x1
 2120 08d8 1401     		.2byte	0x114
 2121 08da 8E020000 		.4byte	0x28e
 2122 08de A8030000 		.4byte	.LLST22
 2123 08e2 00       		.byte	0
 2124 08e3 09       		.uleb128 0x9
 2125 08e4 04       		.byte	0x4
 2126 08e5 CF040000 		.4byte	0x4cf
 2127 08e9 2C       		.uleb128 0x2c
 2128 08ea 4C040000 		.4byte	.LASF92
 2129 08ee 01       		.byte	0x1
 2130 08ef 2901     		.2byte	0x129
 2131 08f1 00000000 		.4byte	.LFB14
 2132 08f5 2E000000 		.4byte	.LFE14-.LFB14
 2133 08f9 01       		.uleb128 0x1
 2134 08fa 9C       		.byte	0x9c
 2135 08fb 4A090000 		.4byte	0x94a
 2136 08ff 30       		.uleb128 0x30
 2137 0900 6F717000 		.ascii	"oqp\000"
 2138 0904 01       		.byte	0x1
 2139 0905 2901     		.2byte	0x129
 2140 0907 E3080000 		.4byte	0x8e3
 2141 090b C8030000 		.4byte	.LLST23
 2142 090f 31       		.uleb128 0x31
 2143 0910 0D050000 		.4byte	0x50d
 2144 0914 1A000000 		.4byte	.LBB31
 2145 0918 06000000 		.4byte	.LBE31-.LBB31
 2146 091c 01       		.byte	0x1
 2147 091d 3001     		.2byte	0x130
 2148 091f 40090000 		.4byte	0x940
 2149 0923 1B       		.uleb128 0x1b
 2150 0924 1D050000 		.4byte	0x51d
 2151 0928 E6030000 		.4byte	.LLST24
 2152 092c 22       		.uleb128 0x22
 2153 092d 1A000000 		.4byte	.LBB32
 2154 0931 06000000 		.4byte	.LBE32-.LBB32
 2155 0935 23       		.uleb128 0x23
 2156 0936 28050000 		.4byte	0x528
 2157 093a F9030000 		.4byte	.LLST25
 2158 093e 00       		.byte	0
 2159 093f 00       		.byte	0
 2160 0940 24       		.uleb128 0x24
 2161 0941 24000000 		.4byte	.LVL52
 2162 0945 990B0000 		.4byte	0xb99
 2163 0949 00       		.byte	0
 2164 094a 32       		.uleb128 0x32
 2165 094b 1D010000 		.4byte	.LASF93
 2166 094f 01       		.byte	0x1
ARM GAS  /tmp/cc3lXwTS.s 			page 39


 2167 0950 4901     		.2byte	0x149
 2168 0952 08010000 		.4byte	0x108
 2169 0956 00000000 		.4byte	.LFB15
 2170 095a 54000000 		.4byte	.LFE15-.LFB15
 2171 095e 01       		.uleb128 0x1
 2172 095f 9C       		.byte	0x9c
 2173 0960 160A0000 		.4byte	0xa16
 2174 0964 30       		.uleb128 0x30
 2175 0965 6F717000 		.ascii	"oqp\000"
 2176 0969 01       		.byte	0x1
 2177 096a 4901     		.2byte	0x149
 2178 096c E3080000 		.4byte	0x8e3
 2179 0970 0C040000 		.4byte	.LLST26
 2180 0974 30       		.uleb128 0x30
 2181 0975 6200     		.ascii	"b\000"
 2182 0977 01       		.byte	0x1
 2183 0978 4901     		.2byte	0x149
 2184 097a 9E000000 		.4byte	0x9e
 2185 097e 40040000 		.4byte	.LLST27
 2186 0982 2F       		.uleb128 0x2f
 2187 0983 2D020000 		.4byte	.LASF81
 2188 0987 01       		.byte	0x1
 2189 0988 4901     		.2byte	0x149
 2190 098a 1E010000 		.4byte	0x11e
 2191 098e 61040000 		.4byte	.LLST28
 2192 0992 29       		.uleb128 0x29
 2193 0993 08000000 		.4byte	.LBB33
 2194 0997 06000000 		.4byte	.LBE33-.LBB33
 2195 099b AE090000 		.4byte	0x9ae
 2196 099f 33       		.uleb128 0x33
 2197 09a0 746D7000 		.ascii	"tmp\000"
 2198 09a4 01       		.byte	0x1
 2199 09a5 4B01     		.2byte	0x14b
 2200 09a7 B4000000 		.4byte	0xb4
 2201 09ab 01       		.uleb128 0x1
 2202 09ac 53       		.byte	0x53
 2203 09ad 00       		.byte	0
 2204 09ae 27       		.uleb128 0x27
 2205 09af 50000000 		.4byte	.Ldebug_ranges0+0x50
 2206 09b3 ED090000 		.4byte	0x9ed
 2207 09b7 34       		.uleb128 0x34
 2208 09b8 6D736700 		.ascii	"msg\000"
 2209 09bc 01       		.byte	0x1
 2210 09bd 4D01     		.2byte	0x14d
 2211 09bf 08010000 		.4byte	0x108
 2212 09c3 A0040000 		.4byte	.LLST29
 2213 09c7 29       		.uleb128 0x29
 2214 09c8 4C000000 		.4byte	.LBB35
 2215 09cc 06000000 		.4byte	.LBE35-.LBB35
 2216 09d0 E3090000 		.4byte	0x9e3
 2217 09d4 33       		.uleb128 0x33
 2218 09d5 746D7000 		.ascii	"tmp\000"
 2219 09d9 01       		.byte	0x1
 2220 09da 5001     		.2byte	0x150
 2221 09dc B4000000 		.4byte	0xb4
 2222 09e0 01       		.uleb128 0x1
 2223 09e1 53       		.byte	0x53
ARM GAS  /tmp/cc3lXwTS.s 			page 40


 2224 09e2 00       		.byte	0
 2225 09e3 24       		.uleb128 0x24
 2226 09e4 14000000 		.4byte	.LVL55
 2227 09e8 33050000 		.4byte	0x533
 2228 09ec 00       		.byte	0
 2229 09ed 29       		.uleb128 0x29
 2230 09ee 42000000 		.4byte	.LBB37
 2231 09f2 06000000 		.4byte	.LBE37-.LBB37
 2232 09f6 090A0000 		.4byte	0xa09
 2233 09fa 33       		.uleb128 0x33
 2234 09fb 746D7000 		.ascii	"tmp\000"
 2235 09ff 01       		.byte	0x1
 2236 0a00 5D01     		.2byte	0x15d
 2237 0a02 B4000000 		.4byte	0xb4
 2238 0a06 01       		.uleb128 0x1
 2239 0a07 53       		.byte	0x53
 2240 0a08 00       		.byte	0
 2241 0a09 2A       		.uleb128 0x2a
 2242 0a0a 42000000 		.4byte	.LVL59
 2243 0a0e 1D       		.uleb128 0x1d
 2244 0a0f 01       		.uleb128 0x1
 2245 0a10 50       		.byte	0x50
 2246 0a11 02       		.uleb128 0x2
 2247 0a12 74       		.byte	0x74
 2248 0a13 00       		.sleb128 0
 2249 0a14 00       		.byte	0
 2250 0a15 00       		.byte	0
 2251 0a16 32       		.uleb128 0x32
 2252 0a17 E2000000 		.4byte	.LASF94
 2253 0a1b 01       		.byte	0x1
 2254 0a1c 6B01     		.2byte	0x16b
 2255 0a1e 08010000 		.4byte	0x108
 2256 0a22 00000000 		.4byte	.LFB16
 2257 0a26 48000000 		.4byte	.LFE16-.LFB16
 2258 0a2a 01       		.uleb128 0x1
 2259 0a2b 9C       		.byte	0x9c
 2260 0a2c 890A0000 		.4byte	0xa89
 2261 0a30 30       		.uleb128 0x30
 2262 0a31 6F717000 		.ascii	"oqp\000"
 2263 0a35 01       		.byte	0x1
 2264 0a36 6B01     		.2byte	0x16b
 2265 0a38 E3080000 		.4byte	0x8e3
 2266 0a3c BE040000 		.4byte	.LLST30
 2267 0a40 34       		.uleb128 0x34
 2268 0a41 6200     		.ascii	"b\000"
 2269 0a43 01       		.byte	0x1
 2270 0a44 6C01     		.2byte	0x16c
 2271 0a46 9E000000 		.4byte	0x9e
 2272 0a4a 03050000 		.4byte	.LLST31
 2273 0a4e 31       		.uleb128 0x31
 2274 0a4f 0D050000 		.4byte	0x50d
 2275 0a53 22000000 		.4byte	.LBB39
 2276 0a57 08000000 		.4byte	.LBE39-.LBB39
 2277 0a5b 01       		.byte	0x1
 2278 0a5c 7901     		.2byte	0x179
 2279 0a5e 7F0A0000 		.4byte	0xa7f
 2280 0a62 1B       		.uleb128 0x1b
ARM GAS  /tmp/cc3lXwTS.s 			page 41


 2281 0a63 1D050000 		.4byte	0x51d
 2282 0a67 16050000 		.4byte	.LLST32
 2283 0a6b 22       		.uleb128 0x22
 2284 0a6c 22000000 		.4byte	.LBB40
 2285 0a70 08000000 		.4byte	.LBE40-.LBB40
 2286 0a74 23       		.uleb128 0x23
 2287 0a75 28050000 		.4byte	0x528
 2288 0a79 29050000 		.4byte	.LLST33
 2289 0a7d 00       		.byte	0
 2290 0a7e 00       		.byte	0
 2291 0a7f 24       		.uleb128 0x24
 2292 0a80 30000000 		.4byte	.LVL66
 2293 0a84 990B0000 		.4byte	0xb99
 2294 0a88 00       		.byte	0
 2295 0a89 35       		.uleb128 0x35
 2296 0a8a E2010000 		.4byte	.LASF95
 2297 0a8e 01       		.byte	0x1
 2298 0a8f 9601     		.2byte	0x196
 2299 0a91 2C000000 		.4byte	0x2c
 2300 0a95 00000000 		.4byte	.LFB17
 2301 0a99 82000000 		.4byte	.LFE17-.LFB17
 2302 0a9d 01       		.uleb128 0x1
 2303 0a9e 9C       		.byte	0x9c
 2304 0a9f 830B0000 		.4byte	0xb83
 2305 0aa3 30       		.uleb128 0x30
 2306 0aa4 6F717000 		.ascii	"oqp\000"
 2307 0aa8 01       		.byte	0x1
 2308 0aa9 9601     		.2byte	0x196
 2309 0aab E3080000 		.4byte	0x8e3
 2310 0aaf 3C050000 		.4byte	.LLST34
 2311 0ab3 30       		.uleb128 0x30
 2312 0ab4 627000   		.ascii	"bp\000"
 2313 0ab7 01       		.byte	0x1
 2314 0ab8 9601     		.2byte	0x196
 2315 0aba DA040000 		.4byte	0x4da
 2316 0abe 86050000 		.4byte	.LLST35
 2317 0ac2 30       		.uleb128 0x30
 2318 0ac3 6E00     		.ascii	"n\000"
 2319 0ac5 01       		.byte	0x1
 2320 0ac6 9701     		.2byte	0x197
 2321 0ac8 2C000000 		.4byte	0x2c
 2322 0acc C5050000 		.4byte	.LLST36
 2323 0ad0 2F       		.uleb128 0x2f
 2324 0ad1 2D020000 		.4byte	.LASF81
 2325 0ad5 01       		.byte	0x1
 2326 0ad6 9701     		.2byte	0x197
 2327 0ad8 1E010000 		.4byte	0x11e
 2328 0adc FB050000 		.4byte	.LLST37
 2329 0ae0 33       		.uleb128 0x33
 2330 0ae1 6E667900 		.ascii	"nfy\000"
 2331 0ae5 01       		.byte	0x1
 2332 0ae6 9801     		.2byte	0x198
 2333 0ae8 9C040000 		.4byte	0x49c
 2334 0aec 01       		.uleb128 0x1
 2335 0aed 59       		.byte	0x59
 2336 0aee 34       		.uleb128 0x34
 2337 0aef 7700     		.ascii	"w\000"
ARM GAS  /tmp/cc3lXwTS.s 			page 42


 2338 0af1 01       		.byte	0x1
 2339 0af2 9901     		.2byte	0x199
 2340 0af4 2C000000 		.4byte	0x2c
 2341 0af8 19060000 		.4byte	.LLST38
 2342 0afc 29       		.uleb128 0x29
 2343 0afd 10000000 		.4byte	.LBB41
 2344 0b01 06000000 		.4byte	.LBE41-.LBB41
 2345 0b05 180B0000 		.4byte	0xb18
 2346 0b09 33       		.uleb128 0x33
 2347 0b0a 746D7000 		.ascii	"tmp\000"
 2348 0b0e 01       		.byte	0x1
 2349 0b0f 9D01     		.2byte	0x19d
 2350 0b11 B4000000 		.4byte	0xb4
 2351 0b15 01       		.uleb128 0x1
 2352 0b16 53       		.byte	0x53
 2353 0b17 00       		.byte	0
 2354 0b18 29       		.uleb128 0x29
 2355 0b19 46000000 		.4byte	.LBB42
 2356 0b1d 06000000 		.4byte	.LBE42-.LBB42
 2357 0b21 340B0000 		.4byte	0xb34
 2358 0b25 33       		.uleb128 0x33
 2359 0b26 746D7000 		.ascii	"tmp\000"
 2360 0b2a 01       		.byte	0x1
 2361 0b2b AD01     		.2byte	0x1ad
 2362 0b2d B4000000 		.4byte	0xb4
 2363 0b31 01       		.uleb128 0x1
 2364 0b32 53       		.byte	0x53
 2365 0b33 00       		.byte	0
 2366 0b34 29       		.uleb128 0x29
 2367 0b35 54000000 		.4byte	.LBB43
 2368 0b39 06000000 		.4byte	.LBE43-.LBB43
 2369 0b3d 500B0000 		.4byte	0xb50
 2370 0b41 33       		.uleb128 0x33
 2371 0b42 746D7000 		.ascii	"tmp\000"
 2372 0b46 01       		.byte	0x1
 2373 0b47 B101     		.2byte	0x1b1
 2374 0b49 B4000000 		.4byte	0xb4
 2375 0b4d 01       		.uleb128 0x1
 2376 0b4e 53       		.byte	0x53
 2377 0b4f 00       		.byte	0
 2378 0b50 29       		.uleb128 0x29
 2379 0b51 76000000 		.4byte	.LBB44
 2380 0b55 06000000 		.4byte	.LBE44-.LBB44
 2381 0b59 6C0B0000 		.4byte	0xb6c
 2382 0b5d 33       		.uleb128 0x33
 2383 0b5e 746D7000 		.ascii	"tmp\000"
 2384 0b62 01       		.byte	0x1
 2385 0b63 A101     		.2byte	0x1a1
 2386 0b65 B4000000 		.4byte	0xb4
 2387 0b69 01       		.uleb128 0x1
 2388 0b6a 53       		.byte	0x53
 2389 0b6b 00       		.byte	0
 2390 0b6c 36       		.uleb128 0x36
 2391 0b6d 72000000 		.4byte	.LVL83
 2392 0b71 33050000 		.4byte	0x533
 2393 0b75 1D       		.uleb128 0x1d
 2394 0b76 01       		.uleb128 0x1
ARM GAS  /tmp/cc3lXwTS.s 			page 43


 2395 0b77 50       		.byte	0x50
 2396 0b78 02       		.uleb128 0x2
 2397 0b79 74       		.byte	0x74
 2398 0b7a 00       		.sleb128 0
 2399 0b7b 1D       		.uleb128 0x1d
 2400 0b7c 01       		.uleb128 0x1
 2401 0b7d 51       		.byte	0x51
 2402 0b7e 02       		.uleb128 0x2
 2403 0b7f 7A       		.byte	0x7a
 2404 0b80 00       		.sleb128 0
 2405 0b81 00       		.byte	0
 2406 0b82 00       		.byte	0
 2407 0b83 37       		.uleb128 0x37
 2408 0b84 90040000 		.4byte	.LASF104
 2409 0b88 0A       		.byte	0xa
 2410 0b89 6F       		.byte	0x6f
 2411 0b8a 8A030000 		.4byte	0x38a
 2412 0b8e 38       		.uleb128 0x38
 2413 0b8f AC040000 		.4byte	.LASF96
 2414 0b93 AC040000 		.4byte	.LASF96
 2415 0b97 0A       		.byte	0xa
 2416 0b98 96       		.byte	0x96
 2417 0b99 38       		.uleb128 0x38
 2418 0b9a 04040000 		.4byte	.LASF97
 2419 0b9e 04040000 		.4byte	.LASF97
 2420 0ba2 0A       		.byte	0xa
 2421 0ba3 90       		.byte	0x90
 2422 0ba4 00       		.byte	0
 2423              		.section	.debug_abbrev,"",%progbits
 2424              	.Ldebug_abbrev0:
 2425 0000 01       		.uleb128 0x1
 2426 0001 11       		.uleb128 0x11
 2427 0002 01       		.byte	0x1
 2428 0003 25       		.uleb128 0x25
 2429 0004 0E       		.uleb128 0xe
 2430 0005 13       		.uleb128 0x13
 2431 0006 0B       		.uleb128 0xb
 2432 0007 03       		.uleb128 0x3
 2433 0008 0E       		.uleb128 0xe
 2434 0009 1B       		.uleb128 0x1b
 2435 000a 0E       		.uleb128 0xe
 2436 000b 55       		.uleb128 0x55
 2437 000c 17       		.uleb128 0x17
 2438 000d 11       		.uleb128 0x11
 2439 000e 01       		.uleb128 0x1
 2440 000f 10       		.uleb128 0x10
 2441 0010 17       		.uleb128 0x17
 2442 0011 00       		.byte	0
 2443 0012 00       		.byte	0
 2444 0013 02       		.uleb128 0x2
 2445 0014 24       		.uleb128 0x24
 2446 0015 00       		.byte	0
 2447 0016 0B       		.uleb128 0xb
 2448 0017 0B       		.uleb128 0xb
 2449 0018 3E       		.uleb128 0x3e
 2450 0019 0B       		.uleb128 0xb
 2451 001a 03       		.uleb128 0x3
ARM GAS  /tmp/cc3lXwTS.s 			page 44


 2452 001b 08       		.uleb128 0x8
 2453 001c 00       		.byte	0
 2454 001d 00       		.byte	0
 2455 001e 03       		.uleb128 0x3
 2456 001f 16       		.uleb128 0x16
 2457 0020 00       		.byte	0
 2458 0021 03       		.uleb128 0x3
 2459 0022 0E       		.uleb128 0xe
 2460 0023 3A       		.uleb128 0x3a
 2461 0024 0B       		.uleb128 0xb
 2462 0025 3B       		.uleb128 0x3b
 2463 0026 0B       		.uleb128 0xb
 2464 0027 49       		.uleb128 0x49
 2465 0028 13       		.uleb128 0x13
 2466 0029 00       		.byte	0
 2467 002a 00       		.byte	0
 2468 002b 04       		.uleb128 0x4
 2469 002c 24       		.uleb128 0x24
 2470 002d 00       		.byte	0
 2471 002e 0B       		.uleb128 0xb
 2472 002f 0B       		.uleb128 0xb
 2473 0030 3E       		.uleb128 0x3e
 2474 0031 0B       		.uleb128 0xb
 2475 0032 03       		.uleb128 0x3
 2476 0033 0E       		.uleb128 0xe
 2477 0034 00       		.byte	0
 2478 0035 00       		.byte	0
 2479 0036 05       		.uleb128 0x5
 2480 0037 13       		.uleb128 0x13
 2481 0038 01       		.byte	0x1
 2482 0039 03       		.uleb128 0x3
 2483 003a 0E       		.uleb128 0xe
 2484 003b 0B       		.uleb128 0xb
 2485 003c 0B       		.uleb128 0xb
 2486 003d 3A       		.uleb128 0x3a
 2487 003e 0B       		.uleb128 0xb
 2488 003f 3B       		.uleb128 0x3b
 2489 0040 0B       		.uleb128 0xb
 2490 0041 01       		.uleb128 0x1
 2491 0042 13       		.uleb128 0x13
 2492 0043 00       		.byte	0
 2493 0044 00       		.byte	0
 2494 0045 06       		.uleb128 0x6
 2495 0046 0D       		.uleb128 0xd
 2496 0047 00       		.byte	0
 2497 0048 03       		.uleb128 0x3
 2498 0049 0E       		.uleb128 0xe
 2499 004a 3A       		.uleb128 0x3a
 2500 004b 0B       		.uleb128 0xb
 2501 004c 3B       		.uleb128 0x3b
 2502 004d 0B       		.uleb128 0xb
 2503 004e 49       		.uleb128 0x49
 2504 004f 13       		.uleb128 0x13
 2505 0050 38       		.uleb128 0x38
 2506 0051 0B       		.uleb128 0xb
 2507 0052 00       		.byte	0
 2508 0053 00       		.byte	0
ARM GAS  /tmp/cc3lXwTS.s 			page 45


 2509 0054 07       		.uleb128 0x7
 2510 0055 0D       		.uleb128 0xd
 2511 0056 00       		.byte	0
 2512 0057 03       		.uleb128 0x3
 2513 0058 08       		.uleb128 0x8
 2514 0059 3A       		.uleb128 0x3a
 2515 005a 0B       		.uleb128 0xb
 2516 005b 3B       		.uleb128 0x3b
 2517 005c 0B       		.uleb128 0xb
 2518 005d 49       		.uleb128 0x49
 2519 005e 13       		.uleb128 0x13
 2520 005f 38       		.uleb128 0x38
 2521 0060 0B       		.uleb128 0xb
 2522 0061 00       		.byte	0
 2523 0062 00       		.byte	0
 2524 0063 08       		.uleb128 0x8
 2525 0064 13       		.uleb128 0x13
 2526 0065 01       		.byte	0x1
 2527 0066 0B       		.uleb128 0xb
 2528 0067 0B       		.uleb128 0xb
 2529 0068 3A       		.uleb128 0x3a
 2530 0069 0B       		.uleb128 0xb
 2531 006a 3B       		.uleb128 0x3b
 2532 006b 0B       		.uleb128 0xb
 2533 006c 01       		.uleb128 0x1
 2534 006d 13       		.uleb128 0x13
 2535 006e 00       		.byte	0
 2536 006f 00       		.byte	0
 2537 0070 09       		.uleb128 0x9
 2538 0071 0F       		.uleb128 0xf
 2539 0072 00       		.byte	0
 2540 0073 0B       		.uleb128 0xb
 2541 0074 0B       		.uleb128 0xb
 2542 0075 49       		.uleb128 0x49
 2543 0076 13       		.uleb128 0x13
 2544 0077 00       		.byte	0
 2545 0078 00       		.byte	0
 2546 0079 0A       		.uleb128 0xa
 2547 007a 0F       		.uleb128 0xf
 2548 007b 00       		.byte	0
 2549 007c 0B       		.uleb128 0xb
 2550 007d 0B       		.uleb128 0xb
 2551 007e 00       		.byte	0
 2552 007f 00       		.byte	0
 2553 0080 0B       		.uleb128 0xb
 2554 0081 13       		.uleb128 0x13
 2555 0082 01       		.byte	0x1
 2556 0083 03       		.uleb128 0x3
 2557 0084 0E       		.uleb128 0xe
 2558 0085 0B       		.uleb128 0xb
 2559 0086 0B       		.uleb128 0xb
 2560 0087 3A       		.uleb128 0x3a
 2561 0088 0B       		.uleb128 0xb
 2562 0089 3B       		.uleb128 0x3b
 2563 008a 05       		.uleb128 0x5
 2564 008b 01       		.uleb128 0x1
 2565 008c 13       		.uleb128 0x13
ARM GAS  /tmp/cc3lXwTS.s 			page 46


 2566 008d 00       		.byte	0
 2567 008e 00       		.byte	0
 2568 008f 0C       		.uleb128 0xc
 2569 0090 0D       		.uleb128 0xd
 2570 0091 00       		.byte	0
 2571 0092 03       		.uleb128 0x3
 2572 0093 08       		.uleb128 0x8
 2573 0094 3A       		.uleb128 0x3a
 2574 0095 0B       		.uleb128 0xb
 2575 0096 3B       		.uleb128 0x3b
 2576 0097 05       		.uleb128 0x5
 2577 0098 49       		.uleb128 0x49
 2578 0099 13       		.uleb128 0x13
 2579 009a 38       		.uleb128 0x38
 2580 009b 0B       		.uleb128 0xb
 2581 009c 00       		.byte	0
 2582 009d 00       		.byte	0
 2583 009e 0D       		.uleb128 0xd
 2584 009f 35       		.uleb128 0x35
 2585 00a0 00       		.byte	0
 2586 00a1 49       		.uleb128 0x49
 2587 00a2 13       		.uleb128 0x13
 2588 00a3 00       		.byte	0
 2589 00a4 00       		.byte	0
 2590 00a5 0E       		.uleb128 0xe
 2591 00a6 17       		.uleb128 0x17
 2592 00a7 01       		.byte	0x1
 2593 00a8 0B       		.uleb128 0xb
 2594 00a9 0B       		.uleb128 0xb
 2595 00aa 3A       		.uleb128 0x3a
 2596 00ab 0B       		.uleb128 0xb
 2597 00ac 3B       		.uleb128 0x3b
 2598 00ad 0B       		.uleb128 0xb
 2599 00ae 01       		.uleb128 0x1
 2600 00af 13       		.uleb128 0x13
 2601 00b0 00       		.byte	0
 2602 00b1 00       		.byte	0
 2603 00b2 0F       		.uleb128 0xf
 2604 00b3 0D       		.uleb128 0xd
 2605 00b4 00       		.byte	0
 2606 00b5 03       		.uleb128 0x3
 2607 00b6 0E       		.uleb128 0xe
 2608 00b7 3A       		.uleb128 0x3a
 2609 00b8 0B       		.uleb128 0xb
 2610 00b9 3B       		.uleb128 0x3b
 2611 00ba 0B       		.uleb128 0xb
 2612 00bb 49       		.uleb128 0x49
 2613 00bc 13       		.uleb128 0x13
 2614 00bd 00       		.byte	0
 2615 00be 00       		.byte	0
 2616 00bf 10       		.uleb128 0x10
 2617 00c0 26       		.uleb128 0x26
 2618 00c1 00       		.byte	0
 2619 00c2 49       		.uleb128 0x49
 2620 00c3 13       		.uleb128 0x13
 2621 00c4 00       		.byte	0
 2622 00c5 00       		.byte	0
ARM GAS  /tmp/cc3lXwTS.s 			page 47


 2623 00c6 11       		.uleb128 0x11
 2624 00c7 15       		.uleb128 0x15
 2625 00c8 01       		.byte	0x1
 2626 00c9 27       		.uleb128 0x27
 2627 00ca 19       		.uleb128 0x19
 2628 00cb 01       		.uleb128 0x1
 2629 00cc 13       		.uleb128 0x13
 2630 00cd 00       		.byte	0
 2631 00ce 00       		.byte	0
 2632 00cf 12       		.uleb128 0x12
 2633 00d0 05       		.uleb128 0x5
 2634 00d1 00       		.byte	0
 2635 00d2 49       		.uleb128 0x49
 2636 00d3 13       		.uleb128 0x13
 2637 00d4 00       		.byte	0
 2638 00d5 00       		.byte	0
 2639 00d6 13       		.uleb128 0x13
 2640 00d7 2E       		.uleb128 0x2e
 2641 00d8 01       		.byte	0x1
 2642 00d9 03       		.uleb128 0x3
 2643 00da 0E       		.uleb128 0xe
 2644 00db 3A       		.uleb128 0x3a
 2645 00dc 0B       		.uleb128 0xb
 2646 00dd 3B       		.uleb128 0x3b
 2647 00de 0B       		.uleb128 0xb
 2648 00df 27       		.uleb128 0x27
 2649 00e0 19       		.uleb128 0x19
 2650 00e1 20       		.uleb128 0x20
 2651 00e2 0B       		.uleb128 0xb
 2652 00e3 01       		.uleb128 0x1
 2653 00e4 13       		.uleb128 0x13
 2654 00e5 00       		.byte	0
 2655 00e6 00       		.byte	0
 2656 00e7 14       		.uleb128 0x14
 2657 00e8 05       		.uleb128 0x5
 2658 00e9 00       		.byte	0
 2659 00ea 03       		.uleb128 0x3
 2660 00eb 08       		.uleb128 0x8
 2661 00ec 3A       		.uleb128 0x3a
 2662 00ed 0B       		.uleb128 0xb
 2663 00ee 3B       		.uleb128 0x3b
 2664 00ef 0B       		.uleb128 0xb
 2665 00f0 49       		.uleb128 0x49
 2666 00f1 13       		.uleb128 0x13
 2667 00f2 00       		.byte	0
 2668 00f3 00       		.byte	0
 2669 00f4 15       		.uleb128 0x15
 2670 00f5 2E       		.uleb128 0x2e
 2671 00f6 01       		.byte	0x1
 2672 00f7 03       		.uleb128 0x3
 2673 00f8 0E       		.uleb128 0xe
 2674 00f9 3A       		.uleb128 0x3a
 2675 00fa 0B       		.uleb128 0xb
 2676 00fb 3B       		.uleb128 0x3b
 2677 00fc 0B       		.uleb128 0xb
 2678 00fd 27       		.uleb128 0x27
 2679 00fe 19       		.uleb128 0x19
ARM GAS  /tmp/cc3lXwTS.s 			page 48


 2680 00ff 49       		.uleb128 0x49
 2681 0100 13       		.uleb128 0x13
 2682 0101 20       		.uleb128 0x20
 2683 0102 0B       		.uleb128 0xb
 2684 0103 01       		.uleb128 0x1
 2685 0104 13       		.uleb128 0x13
 2686 0105 00       		.byte	0
 2687 0106 00       		.byte	0
 2688 0107 16       		.uleb128 0x16
 2689 0108 34       		.uleb128 0x34
 2690 0109 00       		.byte	0
 2691 010a 03       		.uleb128 0x3
 2692 010b 08       		.uleb128 0x8
 2693 010c 3A       		.uleb128 0x3a
 2694 010d 0B       		.uleb128 0xb
 2695 010e 3B       		.uleb128 0x3b
 2696 010f 0B       		.uleb128 0xb
 2697 0110 49       		.uleb128 0x49
 2698 0111 13       		.uleb128 0x13
 2699 0112 00       		.byte	0
 2700 0113 00       		.byte	0
 2701 0114 17       		.uleb128 0x17
 2702 0115 2E       		.uleb128 0x2e
 2703 0116 01       		.byte	0x1
 2704 0117 03       		.uleb128 0x3
 2705 0118 0E       		.uleb128 0xe
 2706 0119 3A       		.uleb128 0x3a
 2707 011a 0B       		.uleb128 0xb
 2708 011b 3B       		.uleb128 0x3b
 2709 011c 0B       		.uleb128 0xb
 2710 011d 27       		.uleb128 0x27
 2711 011e 19       		.uleb128 0x19
 2712 011f 49       		.uleb128 0x49
 2713 0120 13       		.uleb128 0x13
 2714 0121 11       		.uleb128 0x11
 2715 0122 01       		.uleb128 0x1
 2716 0123 12       		.uleb128 0x12
 2717 0124 06       		.uleb128 0x6
 2718 0125 40       		.uleb128 0x40
 2719 0126 18       		.uleb128 0x18
 2720 0127 9742     		.uleb128 0x2117
 2721 0129 19       		.uleb128 0x19
 2722 012a 01       		.uleb128 0x1
 2723 012b 13       		.uleb128 0x13
 2724 012c 00       		.byte	0
 2725 012d 00       		.byte	0
 2726 012e 18       		.uleb128 0x18
 2727 012f 05       		.uleb128 0x5
 2728 0130 00       		.byte	0
 2729 0131 03       		.uleb128 0x3
 2730 0132 08       		.uleb128 0x8
 2731 0133 3A       		.uleb128 0x3a
 2732 0134 0B       		.uleb128 0xb
 2733 0135 3B       		.uleb128 0x3b
 2734 0136 0B       		.uleb128 0xb
 2735 0137 49       		.uleb128 0x49
 2736 0138 13       		.uleb128 0x13
ARM GAS  /tmp/cc3lXwTS.s 			page 49


 2737 0139 02       		.uleb128 0x2
 2738 013a 17       		.uleb128 0x17
 2739 013b 00       		.byte	0
 2740 013c 00       		.byte	0
 2741 013d 19       		.uleb128 0x19
 2742 013e 05       		.uleb128 0x5
 2743 013f 00       		.byte	0
 2744 0140 03       		.uleb128 0x3
 2745 0141 0E       		.uleb128 0xe
 2746 0142 3A       		.uleb128 0x3a
 2747 0143 0B       		.uleb128 0xb
 2748 0144 3B       		.uleb128 0x3b
 2749 0145 0B       		.uleb128 0xb
 2750 0146 49       		.uleb128 0x49
 2751 0147 13       		.uleb128 0x13
 2752 0148 02       		.uleb128 0x2
 2753 0149 17       		.uleb128 0x17
 2754 014a 00       		.byte	0
 2755 014b 00       		.byte	0
 2756 014c 1A       		.uleb128 0x1a
 2757 014d 1D       		.uleb128 0x1d
 2758 014e 01       		.byte	0x1
 2759 014f 31       		.uleb128 0x31
 2760 0150 13       		.uleb128 0x13
 2761 0151 52       		.uleb128 0x52
 2762 0152 01       		.uleb128 0x1
 2763 0153 55       		.uleb128 0x55
 2764 0154 17       		.uleb128 0x17
 2765 0155 58       		.uleb128 0x58
 2766 0156 0B       		.uleb128 0xb
 2767 0157 59       		.uleb128 0x59
 2768 0158 0B       		.uleb128 0xb
 2769 0159 01       		.uleb128 0x1
 2770 015a 13       		.uleb128 0x13
 2771 015b 00       		.byte	0
 2772 015c 00       		.byte	0
 2773 015d 1B       		.uleb128 0x1b
 2774 015e 05       		.uleb128 0x5
 2775 015f 00       		.byte	0
 2776 0160 31       		.uleb128 0x31
 2777 0161 13       		.uleb128 0x13
 2778 0162 02       		.uleb128 0x2
 2779 0163 17       		.uleb128 0x17
 2780 0164 00       		.byte	0
 2781 0165 00       		.byte	0
 2782 0166 1C       		.uleb128 0x1c
 2783 0167 898201   		.uleb128 0x4109
 2784 016a 01       		.byte	0x1
 2785 016b 11       		.uleb128 0x11
 2786 016c 01       		.uleb128 0x1
 2787 016d 9542     		.uleb128 0x2115
 2788 016f 19       		.uleb128 0x19
 2789 0170 31       		.uleb128 0x31
 2790 0171 13       		.uleb128 0x13
 2791 0172 00       		.byte	0
 2792 0173 00       		.byte	0
 2793 0174 1D       		.uleb128 0x1d
ARM GAS  /tmp/cc3lXwTS.s 			page 50


 2794 0175 8A8201   		.uleb128 0x410a
 2795 0178 00       		.byte	0
 2796 0179 02       		.uleb128 0x2
 2797 017a 18       		.uleb128 0x18
 2798 017b 9142     		.uleb128 0x2111
 2799 017d 18       		.uleb128 0x18
 2800 017e 00       		.byte	0
 2801 017f 00       		.byte	0
 2802 0180 1E       		.uleb128 0x1e
 2803 0181 2E       		.uleb128 0x2e
 2804 0182 01       		.byte	0x1
 2805 0183 3F       		.uleb128 0x3f
 2806 0184 19       		.uleb128 0x19
 2807 0185 03       		.uleb128 0x3
 2808 0186 0E       		.uleb128 0xe
 2809 0187 3A       		.uleb128 0x3a
 2810 0188 0B       		.uleb128 0xb
 2811 0189 3B       		.uleb128 0x3b
 2812 018a 0B       		.uleb128 0xb
 2813 018b 27       		.uleb128 0x27
 2814 018c 19       		.uleb128 0x19
 2815 018d 11       		.uleb128 0x11
 2816 018e 01       		.uleb128 0x1
 2817 018f 12       		.uleb128 0x12
 2818 0190 06       		.uleb128 0x6
 2819 0191 40       		.uleb128 0x40
 2820 0192 18       		.uleb128 0x18
 2821 0193 9742     		.uleb128 0x2117
 2822 0195 19       		.uleb128 0x19
 2823 0196 01       		.uleb128 0x1
 2824 0197 13       		.uleb128 0x13
 2825 0198 00       		.byte	0
 2826 0199 00       		.byte	0
 2827 019a 1F       		.uleb128 0x1f
 2828 019b 05       		.uleb128 0x5
 2829 019c 00       		.byte	0
 2830 019d 03       		.uleb128 0x3
 2831 019e 08       		.uleb128 0x8
 2832 019f 3A       		.uleb128 0x3a
 2833 01a0 0B       		.uleb128 0xb
 2834 01a1 3B       		.uleb128 0x3b
 2835 01a2 0B       		.uleb128 0xb
 2836 01a3 49       		.uleb128 0x49
 2837 01a4 13       		.uleb128 0x13
 2838 01a5 02       		.uleb128 0x2
 2839 01a6 18       		.uleb128 0x18
 2840 01a7 00       		.byte	0
 2841 01a8 00       		.byte	0
 2842 01a9 20       		.uleb128 0x20
 2843 01aa 05       		.uleb128 0x5
 2844 01ab 00       		.byte	0
 2845 01ac 03       		.uleb128 0x3
 2846 01ad 0E       		.uleb128 0xe
 2847 01ae 3A       		.uleb128 0x3a
 2848 01af 0B       		.uleb128 0xb
 2849 01b0 3B       		.uleb128 0x3b
 2850 01b1 0B       		.uleb128 0xb
ARM GAS  /tmp/cc3lXwTS.s 			page 51


 2851 01b2 49       		.uleb128 0x49
 2852 01b3 13       		.uleb128 0x13
 2853 01b4 02       		.uleb128 0x2
 2854 01b5 18       		.uleb128 0x18
 2855 01b6 00       		.byte	0
 2856 01b7 00       		.byte	0
 2857 01b8 21       		.uleb128 0x21
 2858 01b9 1D       		.uleb128 0x1d
 2859 01ba 01       		.byte	0x1
 2860 01bb 31       		.uleb128 0x31
 2861 01bc 13       		.uleb128 0x13
 2862 01bd 11       		.uleb128 0x11
 2863 01be 01       		.uleb128 0x1
 2864 01bf 12       		.uleb128 0x12
 2865 01c0 06       		.uleb128 0x6
 2866 01c1 58       		.uleb128 0x58
 2867 01c2 0B       		.uleb128 0xb
 2868 01c3 59       		.uleb128 0x59
 2869 01c4 0B       		.uleb128 0xb
 2870 01c5 01       		.uleb128 0x1
 2871 01c6 13       		.uleb128 0x13
 2872 01c7 00       		.byte	0
 2873 01c8 00       		.byte	0
 2874 01c9 22       		.uleb128 0x22
 2875 01ca 0B       		.uleb128 0xb
 2876 01cb 01       		.byte	0x1
 2877 01cc 11       		.uleb128 0x11
 2878 01cd 01       		.uleb128 0x1
 2879 01ce 12       		.uleb128 0x12
 2880 01cf 06       		.uleb128 0x6
 2881 01d0 00       		.byte	0
 2882 01d1 00       		.byte	0
 2883 01d2 23       		.uleb128 0x23
 2884 01d3 34       		.uleb128 0x34
 2885 01d4 00       		.byte	0
 2886 01d5 31       		.uleb128 0x31
 2887 01d6 13       		.uleb128 0x13
 2888 01d7 02       		.uleb128 0x2
 2889 01d8 17       		.uleb128 0x17
 2890 01d9 00       		.byte	0
 2891 01da 00       		.byte	0
 2892 01db 24       		.uleb128 0x24
 2893 01dc 898201   		.uleb128 0x4109
 2894 01df 00       		.byte	0
 2895 01e0 11       		.uleb128 0x11
 2896 01e1 01       		.uleb128 0x1
 2897 01e2 31       		.uleb128 0x31
 2898 01e3 13       		.uleb128 0x13
 2899 01e4 00       		.byte	0
 2900 01e5 00       		.byte	0
 2901 01e6 25       		.uleb128 0x25
 2902 01e7 2E       		.uleb128 0x2e
 2903 01e8 01       		.byte	0x1
 2904 01e9 3F       		.uleb128 0x3f
 2905 01ea 19       		.uleb128 0x19
 2906 01eb 03       		.uleb128 0x3
 2907 01ec 0E       		.uleb128 0xe
ARM GAS  /tmp/cc3lXwTS.s 			page 52


 2908 01ed 3A       		.uleb128 0x3a
 2909 01ee 0B       		.uleb128 0xb
 2910 01ef 3B       		.uleb128 0x3b
 2911 01f0 0B       		.uleb128 0xb
 2912 01f1 27       		.uleb128 0x27
 2913 01f2 19       		.uleb128 0x19
 2914 01f3 49       		.uleb128 0x49
 2915 01f4 13       		.uleb128 0x13
 2916 01f5 11       		.uleb128 0x11
 2917 01f6 01       		.uleb128 0x1
 2918 01f7 12       		.uleb128 0x12
 2919 01f8 06       		.uleb128 0x6
 2920 01f9 40       		.uleb128 0x40
 2921 01fa 18       		.uleb128 0x18
 2922 01fb 9742     		.uleb128 0x2117
 2923 01fd 19       		.uleb128 0x19
 2924 01fe 01       		.uleb128 0x1
 2925 01ff 13       		.uleb128 0x13
 2926 0200 00       		.byte	0
 2927 0201 00       		.byte	0
 2928 0202 26       		.uleb128 0x26
 2929 0203 34       		.uleb128 0x34
 2930 0204 00       		.byte	0
 2931 0205 03       		.uleb128 0x3
 2932 0206 08       		.uleb128 0x8
 2933 0207 3A       		.uleb128 0x3a
 2934 0208 0B       		.uleb128 0xb
 2935 0209 3B       		.uleb128 0x3b
 2936 020a 0B       		.uleb128 0xb
 2937 020b 49       		.uleb128 0x49
 2938 020c 13       		.uleb128 0x13
 2939 020d 02       		.uleb128 0x2
 2940 020e 17       		.uleb128 0x17
 2941 020f 00       		.byte	0
 2942 0210 00       		.byte	0
 2943 0211 27       		.uleb128 0x27
 2944 0212 0B       		.uleb128 0xb
 2945 0213 01       		.byte	0x1
 2946 0214 55       		.uleb128 0x55
 2947 0215 17       		.uleb128 0x17
 2948 0216 01       		.uleb128 0x1
 2949 0217 13       		.uleb128 0x13
 2950 0218 00       		.byte	0
 2951 0219 00       		.byte	0
 2952 021a 28       		.uleb128 0x28
 2953 021b 34       		.uleb128 0x34
 2954 021c 00       		.byte	0
 2955 021d 03       		.uleb128 0x3
 2956 021e 08       		.uleb128 0x8
 2957 021f 3A       		.uleb128 0x3a
 2958 0220 0B       		.uleb128 0xb
 2959 0221 3B       		.uleb128 0x3b
 2960 0222 0B       		.uleb128 0xb
 2961 0223 49       		.uleb128 0x49
 2962 0224 13       		.uleb128 0x13
 2963 0225 02       		.uleb128 0x2
 2964 0226 18       		.uleb128 0x18
ARM GAS  /tmp/cc3lXwTS.s 			page 53


 2965 0227 00       		.byte	0
 2966 0228 00       		.byte	0
 2967 0229 29       		.uleb128 0x29
 2968 022a 0B       		.uleb128 0xb
 2969 022b 01       		.byte	0x1
 2970 022c 11       		.uleb128 0x11
 2971 022d 01       		.uleb128 0x1
 2972 022e 12       		.uleb128 0x12
 2973 022f 06       		.uleb128 0x6
 2974 0230 01       		.uleb128 0x1
 2975 0231 13       		.uleb128 0x13
 2976 0232 00       		.byte	0
 2977 0233 00       		.byte	0
 2978 0234 2A       		.uleb128 0x2a
 2979 0235 898201   		.uleb128 0x4109
 2980 0238 01       		.byte	0x1
 2981 0239 11       		.uleb128 0x11
 2982 023a 01       		.uleb128 0x1
 2983 023b 00       		.byte	0
 2984 023c 00       		.byte	0
 2985 023d 2B       		.uleb128 0x2b
 2986 023e 898201   		.uleb128 0x4109
 2987 0241 01       		.byte	0x1
 2988 0242 11       		.uleb128 0x11
 2989 0243 01       		.uleb128 0x1
 2990 0244 01       		.uleb128 0x1
 2991 0245 13       		.uleb128 0x13
 2992 0246 00       		.byte	0
 2993 0247 00       		.byte	0
 2994 0248 2C       		.uleb128 0x2c
 2995 0249 2E       		.uleb128 0x2e
 2996 024a 01       		.byte	0x1
 2997 024b 3F       		.uleb128 0x3f
 2998 024c 19       		.uleb128 0x19
 2999 024d 03       		.uleb128 0x3
 3000 024e 0E       		.uleb128 0xe
 3001 024f 3A       		.uleb128 0x3a
 3002 0250 0B       		.uleb128 0xb
 3003 0251 3B       		.uleb128 0x3b
 3004 0252 05       		.uleb128 0x5
 3005 0253 27       		.uleb128 0x27
 3006 0254 19       		.uleb128 0x19
 3007 0255 11       		.uleb128 0x11
 3008 0256 01       		.uleb128 0x1
 3009 0257 12       		.uleb128 0x12
 3010 0258 06       		.uleb128 0x6
 3011 0259 40       		.uleb128 0x40
 3012 025a 18       		.uleb128 0x18
 3013 025b 9742     		.uleb128 0x2117
 3014 025d 19       		.uleb128 0x19
 3015 025e 01       		.uleb128 0x1
 3016 025f 13       		.uleb128 0x13
 3017 0260 00       		.byte	0
 3018 0261 00       		.byte	0
 3019 0262 2D       		.uleb128 0x2d
 3020 0263 05       		.uleb128 0x5
 3021 0264 00       		.byte	0
ARM GAS  /tmp/cc3lXwTS.s 			page 54


 3022 0265 03       		.uleb128 0x3
 3023 0266 08       		.uleb128 0x8
 3024 0267 3A       		.uleb128 0x3a
 3025 0268 0B       		.uleb128 0xb
 3026 0269 3B       		.uleb128 0x3b
 3027 026a 05       		.uleb128 0x5
 3028 026b 49       		.uleb128 0x49
 3029 026c 13       		.uleb128 0x13
 3030 026d 02       		.uleb128 0x2
 3031 026e 18       		.uleb128 0x18
 3032 026f 00       		.byte	0
 3033 0270 00       		.byte	0
 3034 0271 2E       		.uleb128 0x2e
 3035 0272 05       		.uleb128 0x5
 3036 0273 00       		.byte	0
 3037 0274 03       		.uleb128 0x3
 3038 0275 0E       		.uleb128 0xe
 3039 0276 3A       		.uleb128 0x3a
 3040 0277 0B       		.uleb128 0xb
 3041 0278 3B       		.uleb128 0x3b
 3042 0279 05       		.uleb128 0x5
 3043 027a 49       		.uleb128 0x49
 3044 027b 13       		.uleb128 0x13
 3045 027c 02       		.uleb128 0x2
 3046 027d 18       		.uleb128 0x18
 3047 027e 00       		.byte	0
 3048 027f 00       		.byte	0
 3049 0280 2F       		.uleb128 0x2f
 3050 0281 05       		.uleb128 0x5
 3051 0282 00       		.byte	0
 3052 0283 03       		.uleb128 0x3
 3053 0284 0E       		.uleb128 0xe
 3054 0285 3A       		.uleb128 0x3a
 3055 0286 0B       		.uleb128 0xb
 3056 0287 3B       		.uleb128 0x3b
 3057 0288 05       		.uleb128 0x5
 3058 0289 49       		.uleb128 0x49
 3059 028a 13       		.uleb128 0x13
 3060 028b 02       		.uleb128 0x2
 3061 028c 17       		.uleb128 0x17
 3062 028d 00       		.byte	0
 3063 028e 00       		.byte	0
 3064 028f 30       		.uleb128 0x30
 3065 0290 05       		.uleb128 0x5
 3066 0291 00       		.byte	0
 3067 0292 03       		.uleb128 0x3
 3068 0293 08       		.uleb128 0x8
 3069 0294 3A       		.uleb128 0x3a
 3070 0295 0B       		.uleb128 0xb
 3071 0296 3B       		.uleb128 0x3b
 3072 0297 05       		.uleb128 0x5
 3073 0298 49       		.uleb128 0x49
 3074 0299 13       		.uleb128 0x13
 3075 029a 02       		.uleb128 0x2
 3076 029b 17       		.uleb128 0x17
 3077 029c 00       		.byte	0
 3078 029d 00       		.byte	0
ARM GAS  /tmp/cc3lXwTS.s 			page 55


 3079 029e 31       		.uleb128 0x31
 3080 029f 1D       		.uleb128 0x1d
 3081 02a0 01       		.byte	0x1
 3082 02a1 31       		.uleb128 0x31
 3083 02a2 13       		.uleb128 0x13
 3084 02a3 11       		.uleb128 0x11
 3085 02a4 01       		.uleb128 0x1
 3086 02a5 12       		.uleb128 0x12
 3087 02a6 06       		.uleb128 0x6
 3088 02a7 58       		.uleb128 0x58
 3089 02a8 0B       		.uleb128 0xb
 3090 02a9 59       		.uleb128 0x59
 3091 02aa 05       		.uleb128 0x5
 3092 02ab 01       		.uleb128 0x1
 3093 02ac 13       		.uleb128 0x13
 3094 02ad 00       		.byte	0
 3095 02ae 00       		.byte	0
 3096 02af 32       		.uleb128 0x32
 3097 02b0 2E       		.uleb128 0x2e
 3098 02b1 01       		.byte	0x1
 3099 02b2 3F       		.uleb128 0x3f
 3100 02b3 19       		.uleb128 0x19
 3101 02b4 03       		.uleb128 0x3
 3102 02b5 0E       		.uleb128 0xe
 3103 02b6 3A       		.uleb128 0x3a
 3104 02b7 0B       		.uleb128 0xb
 3105 02b8 3B       		.uleb128 0x3b
 3106 02b9 05       		.uleb128 0x5
 3107 02ba 27       		.uleb128 0x27
 3108 02bb 19       		.uleb128 0x19
 3109 02bc 49       		.uleb128 0x49
 3110 02bd 13       		.uleb128 0x13
 3111 02be 11       		.uleb128 0x11
 3112 02bf 01       		.uleb128 0x1
 3113 02c0 12       		.uleb128 0x12
 3114 02c1 06       		.uleb128 0x6
 3115 02c2 40       		.uleb128 0x40
 3116 02c3 18       		.uleb128 0x18
 3117 02c4 9742     		.uleb128 0x2117
 3118 02c6 19       		.uleb128 0x19
 3119 02c7 01       		.uleb128 0x1
 3120 02c8 13       		.uleb128 0x13
 3121 02c9 00       		.byte	0
 3122 02ca 00       		.byte	0
 3123 02cb 33       		.uleb128 0x33
 3124 02cc 34       		.uleb128 0x34
 3125 02cd 00       		.byte	0
 3126 02ce 03       		.uleb128 0x3
 3127 02cf 08       		.uleb128 0x8
 3128 02d0 3A       		.uleb128 0x3a
 3129 02d1 0B       		.uleb128 0xb
 3130 02d2 3B       		.uleb128 0x3b
 3131 02d3 05       		.uleb128 0x5
 3132 02d4 49       		.uleb128 0x49
 3133 02d5 13       		.uleb128 0x13
 3134 02d6 02       		.uleb128 0x2
 3135 02d7 18       		.uleb128 0x18
ARM GAS  /tmp/cc3lXwTS.s 			page 56


 3136 02d8 00       		.byte	0
 3137 02d9 00       		.byte	0
 3138 02da 34       		.uleb128 0x34
 3139 02db 34       		.uleb128 0x34
 3140 02dc 00       		.byte	0
 3141 02dd 03       		.uleb128 0x3
 3142 02de 08       		.uleb128 0x8
 3143 02df 3A       		.uleb128 0x3a
 3144 02e0 0B       		.uleb128 0xb
 3145 02e1 3B       		.uleb128 0x3b
 3146 02e2 05       		.uleb128 0x5
 3147 02e3 49       		.uleb128 0x49
 3148 02e4 13       		.uleb128 0x13
 3149 02e5 02       		.uleb128 0x2
 3150 02e6 17       		.uleb128 0x17
 3151 02e7 00       		.byte	0
 3152 02e8 00       		.byte	0
 3153 02e9 35       		.uleb128 0x35
 3154 02ea 2E       		.uleb128 0x2e
 3155 02eb 01       		.byte	0x1
 3156 02ec 3F       		.uleb128 0x3f
 3157 02ed 19       		.uleb128 0x19
 3158 02ee 03       		.uleb128 0x3
 3159 02ef 0E       		.uleb128 0xe
 3160 02f0 3A       		.uleb128 0x3a
 3161 02f1 0B       		.uleb128 0xb
 3162 02f2 3B       		.uleb128 0x3b
 3163 02f3 05       		.uleb128 0x5
 3164 02f4 27       		.uleb128 0x27
 3165 02f5 19       		.uleb128 0x19
 3166 02f6 49       		.uleb128 0x49
 3167 02f7 13       		.uleb128 0x13
 3168 02f8 11       		.uleb128 0x11
 3169 02f9 01       		.uleb128 0x1
 3170 02fa 12       		.uleb128 0x12
 3171 02fb 06       		.uleb128 0x6
 3172 02fc 40       		.uleb128 0x40
 3173 02fd 18       		.uleb128 0x18
 3174 02fe 9642     		.uleb128 0x2116
 3175 0300 19       		.uleb128 0x19
 3176 0301 01       		.uleb128 0x1
 3177 0302 13       		.uleb128 0x13
 3178 0303 00       		.byte	0
 3179 0304 00       		.byte	0
 3180 0305 36       		.uleb128 0x36
 3181 0306 898201   		.uleb128 0x4109
 3182 0309 01       		.byte	0x1
 3183 030a 11       		.uleb128 0x11
 3184 030b 01       		.uleb128 0x1
 3185 030c 31       		.uleb128 0x31
 3186 030d 13       		.uleb128 0x13
 3187 030e 00       		.byte	0
 3188 030f 00       		.byte	0
 3189 0310 37       		.uleb128 0x37
 3190 0311 34       		.uleb128 0x34
 3191 0312 00       		.byte	0
 3192 0313 03       		.uleb128 0x3
ARM GAS  /tmp/cc3lXwTS.s 			page 57


 3193 0314 0E       		.uleb128 0xe
 3194 0315 3A       		.uleb128 0x3a
 3195 0316 0B       		.uleb128 0xb
 3196 0317 3B       		.uleb128 0x3b
 3197 0318 0B       		.uleb128 0xb
 3198 0319 49       		.uleb128 0x49
 3199 031a 13       		.uleb128 0x13
 3200 031b 3F       		.uleb128 0x3f
 3201 031c 19       		.uleb128 0x19
 3202 031d 3C       		.uleb128 0x3c
 3203 031e 19       		.uleb128 0x19
 3204 031f 00       		.byte	0
 3205 0320 00       		.byte	0
 3206 0321 38       		.uleb128 0x38
 3207 0322 2E       		.uleb128 0x2e
 3208 0323 00       		.byte	0
 3209 0324 3F       		.uleb128 0x3f
 3210 0325 19       		.uleb128 0x19
 3211 0326 3C       		.uleb128 0x3c
 3212 0327 19       		.uleb128 0x19
 3213 0328 6E       		.uleb128 0x6e
 3214 0329 0E       		.uleb128 0xe
 3215 032a 03       		.uleb128 0x3
 3216 032b 0E       		.uleb128 0xe
 3217 032c 3A       		.uleb128 0x3a
 3218 032d 0B       		.uleb128 0xb
 3219 032e 3B       		.uleb128 0x3b
 3220 032f 0B       		.uleb128 0xb
 3221 0330 00       		.byte	0
 3222 0331 00       		.byte	0
 3223 0332 00       		.byte	0
 3224              		.section	.debug_loc,"",%progbits
 3225              	.Ldebug_loc0:
 3226              	.LLST0:
 3227 0000 00000000 		.4byte	.LVL0
 3228 0004 14000000 		.4byte	.LVL2
 3229 0008 0100     		.2byte	0x1
 3230 000a 50       		.byte	0x50
 3231 000b 14000000 		.4byte	.LVL2
 3232 000f 1D000000 		.4byte	.LVL4-1
 3233 0013 0100     		.2byte	0x1
 3234 0015 52       		.byte	0x52
 3235 0016 1D000000 		.4byte	.LVL4-1
 3236 001a 1E000000 		.4byte	.LVL4
 3237 001e 0400     		.2byte	0x4
 3238 0020 F3       		.byte	0xf3
 3239 0021 01       		.uleb128 0x1
 3240 0022 50       		.byte	0x50
 3241 0023 9F       		.byte	0x9f
 3242 0024 1E000000 		.4byte	.LVL4
 3243 0028 22000000 		.4byte	.LVL5
 3244 002c 0100     		.2byte	0x1
 3245 002e 50       		.byte	0x50
 3246 002f 22000000 		.4byte	.LVL5
 3247 0033 28000000 		.4byte	.LFE7
 3248 0037 0400     		.2byte	0x4
 3249 0039 F3       		.byte	0xf3
ARM GAS  /tmp/cc3lXwTS.s 			page 58


 3250 003a 01       		.uleb128 0x1
 3251 003b 50       		.byte	0x50
 3252 003c 9F       		.byte	0x9f
 3253 003d 00000000 		.4byte	0
 3254 0041 00000000 		.4byte	0
 3255              	.LLST1:
 3256 0045 00000000 		.4byte	.LVL0
 3257 0049 1D000000 		.4byte	.LVL4-1
 3258 004d 0100     		.2byte	0x1
 3259 004f 51       		.byte	0x51
 3260 0050 1D000000 		.4byte	.LVL4-1
 3261 0054 1E000000 		.4byte	.LVL4
 3262 0058 0400     		.2byte	0x4
 3263 005a F3       		.byte	0xf3
 3264 005b 01       		.uleb128 0x1
 3265 005c 51       		.byte	0x51
 3266 005d 9F       		.byte	0x9f
 3267 005e 1E000000 		.4byte	.LVL4
 3268 0062 28000000 		.4byte	.LFE7
 3269 0066 0100     		.2byte	0x1
 3270 0068 51       		.byte	0x51
 3271 0069 00000000 		.4byte	0
 3272 006d 00000000 		.4byte	0
 3273              	.LLST2:
 3274 0071 0A000000 		.4byte	.LVL1
 3275 0075 14000000 		.4byte	.LVL2
 3276 0079 0100     		.2byte	0x1
 3277 007b 50       		.byte	0x50
 3278 007c 14000000 		.4byte	.LVL2
 3279 0080 18000000 		.4byte	.LVL3
 3280 0084 0100     		.2byte	0x1
 3281 0086 52       		.byte	0x52
 3282 0087 00000000 		.4byte	0
 3283 008b 00000000 		.4byte	0
 3284              	.LLST3:
 3285 008f 0A000000 		.4byte	.LVL1
 3286 0093 18000000 		.4byte	.LVL3
 3287 0097 0100     		.2byte	0x1
 3288 0099 53       		.byte	0x53
 3289 009a 00000000 		.4byte	0
 3290 009e 00000000 		.4byte	0
 3291              	.LLST4:
 3292 00a2 00000000 		.4byte	.LVL6
 3293 00a6 0A000000 		.4byte	.LVL7
 3294 00aa 0100     		.2byte	0x1
 3295 00ac 52       		.byte	0x52
 3296 00ad 0A000000 		.4byte	.LVL7
 3297 00b1 1E000000 		.4byte	.LFE8
 3298 00b5 0400     		.2byte	0x4
 3299 00b7 F3       		.byte	0xf3
 3300 00b8 01       		.uleb128 0x1
 3301 00b9 52       		.byte	0x52
 3302 00ba 9F       		.byte	0x9f
 3303 00bb 00000000 		.4byte	0
 3304 00bf 00000000 		.4byte	0
 3305              	.LLST5:
 3306 00c3 00000000 		.4byte	.LVL6
ARM GAS  /tmp/cc3lXwTS.s 			page 59


 3307 00c7 1C000000 		.4byte	.LVL8
 3308 00cb 0200     		.2byte	0x2
 3309 00cd 91       		.byte	0x91
 3310 00ce 00       		.sleb128 0
 3311 00cf 1C000000 		.4byte	.LVL8
 3312 00d3 1E000000 		.4byte	.LFE8
 3313 00d7 0200     		.2byte	0x2
 3314 00d9 7D       		.byte	0x7d
 3315 00da 00       		.sleb128 0
 3316 00db 00000000 		.4byte	0
 3317 00df 00000000 		.4byte	0
 3318              	.LLST6:
 3319 00e3 00000000 		.4byte	.LVL9
 3320 00e7 06000000 		.4byte	.LVL10
 3321 00eb 0100     		.2byte	0x1
 3322 00ed 50       		.byte	0x50
 3323 00ee 06000000 		.4byte	.LVL10
 3324 00f2 2C000000 		.4byte	.LFE9
 3325 00f6 0100     		.2byte	0x1
 3326 00f8 54       		.byte	0x54
 3327 00f9 00000000 		.4byte	0
 3328 00fd 00000000 		.4byte	0
 3329              	.LLST7:
 3330 0101 18000000 		.4byte	.LVL11
 3331 0105 1E000000 		.4byte	.LVL12
 3332 0109 0100     		.2byte	0x1
 3333 010b 54       		.byte	0x54
 3334 010c 00000000 		.4byte	0
 3335 0110 00000000 		.4byte	0
 3336              	.LLST8:
 3337 0114 18000000 		.4byte	.LVL11
 3338 0118 1E000000 		.4byte	.LVL12
 3339 011c 0100     		.2byte	0x1
 3340 011e 50       		.byte	0x50
 3341 011f 00000000 		.4byte	0
 3342 0123 00000000 		.4byte	0
 3343              	.LLST9:
 3344 0127 00000000 		.4byte	.LVL14
 3345 012b 2E000000 		.4byte	.LVL18
 3346 012f 0100     		.2byte	0x1
 3347 0131 50       		.byte	0x50
 3348 0132 2E000000 		.4byte	.LVL18
 3349 0136 31000000 		.4byte	.LVL19-1
 3350 013a 0100     		.2byte	0x1
 3351 013c 53       		.byte	0x53
 3352 013d 31000000 		.4byte	.LVL19-1
 3353 0141 3A000000 		.4byte	.LVL20
 3354 0145 0400     		.2byte	0x4
 3355 0147 F3       		.byte	0xf3
 3356 0148 01       		.uleb128 0x1
 3357 0149 50       		.byte	0x50
 3358 014a 9F       		.byte	0x9f
 3359 014b 3A000000 		.4byte	.LVL20
 3360 014f 46000000 		.4byte	.LVL21
 3361 0153 0100     		.2byte	0x1
 3362 0155 50       		.byte	0x50
 3363 0156 46000000 		.4byte	.LVL21
ARM GAS  /tmp/cc3lXwTS.s 			page 60


 3364 015a 48000000 		.4byte	.LVL22
 3365 015e 0400     		.2byte	0x4
 3366 0160 F3       		.byte	0xf3
 3367 0161 01       		.uleb128 0x1
 3368 0162 50       		.byte	0x50
 3369 0163 9F       		.byte	0x9f
 3370 0164 48000000 		.4byte	.LVL22
 3371 0168 50000000 		.4byte	.LVL23
 3372 016c 0100     		.2byte	0x1
 3373 016e 50       		.byte	0x50
 3374 016f 50000000 		.4byte	.LVL23
 3375 0173 52000000 		.4byte	.LFE10
 3376 0177 0400     		.2byte	0x4
 3377 0179 F3       		.byte	0xf3
 3378 017a 01       		.uleb128 0x1
 3379 017b 50       		.byte	0x50
 3380 017c 9F       		.byte	0x9f
 3381 017d 00000000 		.4byte	0
 3382 0181 00000000 		.4byte	0
 3383              	.LLST10:
 3384 0185 00000000 		.4byte	.LVL14
 3385 0189 26000000 		.4byte	.LVL15
 3386 018d 0100     		.2byte	0x1
 3387 018f 51       		.byte	0x51
 3388 0190 26000000 		.4byte	.LVL15
 3389 0194 3A000000 		.4byte	.LVL20
 3390 0198 0400     		.2byte	0x4
 3391 019a F3       		.byte	0xf3
 3392 019b 01       		.uleb128 0x1
 3393 019c 51       		.byte	0x51
 3394 019d 9F       		.byte	0x9f
 3395 019e 3A000000 		.4byte	.LVL20
 3396 01a2 52000000 		.4byte	.LFE10
 3397 01a6 0100     		.2byte	0x1
 3398 01a8 51       		.byte	0x51
 3399 01a9 00000000 		.4byte	0
 3400 01ad 00000000 		.4byte	0
 3401              	.LLST11:
 3402 01b1 2A000000 		.4byte	.LVL16
 3403 01b5 2C000000 		.4byte	.LVL17
 3404 01b9 0100     		.2byte	0x1
 3405 01bb 53       		.byte	0x53
 3406 01bc 00000000 		.4byte	0
 3407 01c0 00000000 		.4byte	0
 3408              	.LLST12:
 3409 01c4 2A000000 		.4byte	.LVL16
 3410 01c8 2C000000 		.4byte	.LVL17
 3411 01cc 0100     		.2byte	0x1
 3412 01ce 52       		.byte	0x52
 3413 01cf 00000000 		.4byte	0
 3414 01d3 00000000 		.4byte	0
 3415              	.LLST13:
 3416 01d7 00000000 		.4byte	.LVL24
 3417 01db 11000000 		.4byte	.LVL25-1
 3418 01df 0100     		.2byte	0x1
 3419 01e1 50       		.byte	0x50
 3420 01e2 11000000 		.4byte	.LVL25-1
ARM GAS  /tmp/cc3lXwTS.s 			page 61


 3421 01e6 14000000 		.4byte	.LVL26
 3422 01ea 0100     		.2byte	0x1
 3423 01ec 54       		.byte	0x54
 3424 01ed 14000000 		.4byte	.LVL26
 3425 01f1 17000000 		.4byte	.LVL27-1
 3426 01f5 0100     		.2byte	0x1
 3427 01f7 50       		.byte	0x50
 3428 01f8 17000000 		.4byte	.LVL27-1
 3429 01fc 26000000 		.4byte	.LVL29
 3430 0200 0100     		.2byte	0x1
 3431 0202 54       		.byte	0x54
 3432 0203 26000000 		.4byte	.LVL29
 3433 0207 3C000000 		.4byte	.LVL31
 3434 020b 0100     		.2byte	0x1
 3435 020d 50       		.byte	0x50
 3436 020e 3C000000 		.4byte	.LVL31
 3437 0212 50000000 		.4byte	.LFE11
 3438 0216 0100     		.2byte	0x1
 3439 0218 54       		.byte	0x54
 3440 0219 00000000 		.4byte	0
 3441 021d 00000000 		.4byte	0
 3442              	.LLST14:
 3443 0221 00000000 		.4byte	.LVL24
 3444 0225 11000000 		.4byte	.LVL25-1
 3445 0229 0100     		.2byte	0x1
 3446 022b 51       		.byte	0x51
 3447 022c 11000000 		.4byte	.LVL25-1
 3448 0230 14000000 		.4byte	.LVL26
 3449 0234 0100     		.2byte	0x1
 3450 0236 56       		.byte	0x56
 3451 0237 14000000 		.4byte	.LVL26
 3452 023b 17000000 		.4byte	.LVL27-1
 3453 023f 0100     		.2byte	0x1
 3454 0241 51       		.byte	0x51
 3455 0242 17000000 		.4byte	.LVL27-1
 3456 0246 26000000 		.4byte	.LVL29
 3457 024a 0100     		.2byte	0x1
 3458 024c 56       		.byte	0x56
 3459 024d 26000000 		.4byte	.LVL29
 3460 0251 2A000000 		.4byte	.LVL30
 3461 0255 0100     		.2byte	0x1
 3462 0257 51       		.byte	0x51
 3463 0258 2A000000 		.4byte	.LVL30
 3464 025c 50000000 		.4byte	.LFE11
 3465 0260 0100     		.2byte	0x1
 3466 0262 56       		.byte	0x56
 3467 0263 00000000 		.4byte	0
 3468 0267 00000000 		.4byte	0
 3469              	.LLST15:
 3470 026b 3C000000 		.4byte	.LVL31
 3471 026f 48000000 		.4byte	.LVL32
 3472 0273 0100     		.2byte	0x1
 3473 0275 50       		.byte	0x50
 3474 0276 00000000 		.4byte	0
 3475 027a 00000000 		.4byte	0
 3476              	.LLST16:
 3477 027e 18000000 		.4byte	.LVL27
ARM GAS  /tmp/cc3lXwTS.s 			page 62


 3478 0282 1C000000 		.4byte	.LVL28
 3479 0286 0100     		.2byte	0x1
 3480 0288 50       		.byte	0x50
 3481 0289 48000000 		.4byte	.LVL32
 3482 028d 50000000 		.4byte	.LFE11
 3483 0291 0100     		.2byte	0x1
 3484 0293 50       		.byte	0x50
 3485 0294 00000000 		.4byte	0
 3486 0298 00000000 		.4byte	0
 3487              	.LLST17:
 3488 029c 00000000 		.4byte	.LVL33
 3489 02a0 20000000 		.4byte	.LVL37
 3490 02a4 0100     		.2byte	0x1
 3491 02a6 50       		.byte	0x50
 3492 02a7 20000000 		.4byte	.LVL37
 3493 02ab 24000000 		.4byte	.LVL39
 3494 02af 0100     		.2byte	0x1
 3495 02b1 54       		.byte	0x54
 3496 02b2 24000000 		.4byte	.LVL39
 3497 02b6 27000000 		.4byte	.LVL40-1
 3498 02ba 0100     		.2byte	0x1
 3499 02bc 50       		.byte	0x50
 3500 02bd 27000000 		.4byte	.LVL40-1
 3501 02c1 34000000 		.4byte	.LVL41
 3502 02c5 0100     		.2byte	0x1
 3503 02c7 54       		.byte	0x54
 3504 02c8 34000000 		.4byte	.LVL41
 3505 02cc 64000000 		.4byte	.LVL44
 3506 02d0 0100     		.2byte	0x1
 3507 02d2 50       		.byte	0x50
 3508 02d3 64000000 		.4byte	.LVL44
 3509 02d7 70000000 		.4byte	.LFE12
 3510 02db 0100     		.2byte	0x1
 3511 02dd 54       		.byte	0x54
 3512 02de 00000000 		.4byte	0
 3513 02e2 00000000 		.4byte	0
 3514              	.LLST18:
 3515 02e6 00000000 		.4byte	.LVL33
 3516 02ea 18000000 		.4byte	.LVL36
 3517 02ee 0100     		.2byte	0x1
 3518 02f0 51       		.byte	0x51
 3519 02f1 18000000 		.4byte	.LVL36
 3520 02f5 44000000 		.4byte	.LVL42
 3521 02f9 0100     		.2byte	0x1
 3522 02fb 59       		.byte	0x59
 3523 02fc 44000000 		.4byte	.LVL42
 3524 0300 64000000 		.4byte	.LVL44
 3525 0304 0300     		.2byte	0x3
 3526 0306 79       		.byte	0x79
 3527 0307 7F       		.sleb128 -1
 3528 0308 9F       		.byte	0x9f
 3529 0309 64000000 		.4byte	.LVL44
 3530 030d 6A000000 		.4byte	.LVL45
 3531 0311 0100     		.2byte	0x1
 3532 0313 59       		.byte	0x59
 3533 0314 00000000 		.4byte	0
 3534 0318 00000000 		.4byte	0
ARM GAS  /tmp/cc3lXwTS.s 			page 63


 3535              	.LLST19:
 3536 031c 00000000 		.4byte	.LVL33
 3537 0320 18000000 		.4byte	.LVL36
 3538 0324 0100     		.2byte	0x1
 3539 0326 52       		.byte	0x52
 3540 0327 58000000 		.4byte	.LVL43
 3541 032b 64000000 		.4byte	.LVL44
 3542 032f 0600     		.2byte	0x6
 3543 0331 7A       		.byte	0x7a
 3544 0332 00       		.sleb128 0
 3545 0333 77       		.byte	0x77
 3546 0334 00       		.sleb128 0
 3547 0335 1C       		.byte	0x1c
 3548 0336 9F       		.byte	0x9f
 3549 0337 00000000 		.4byte	0
 3550 033b 00000000 		.4byte	0
 3551              	.LLST20:
 3552 033f 00000000 		.4byte	.LVL33
 3553 0343 12000000 		.4byte	.LVL35
 3554 0347 0100     		.2byte	0x1
 3555 0349 53       		.byte	0x53
 3556 034a 12000000 		.4byte	.LVL35
 3557 034e 24000000 		.4byte	.LVL39
 3558 0352 0100     		.2byte	0x1
 3559 0354 56       		.byte	0x56
 3560 0355 24000000 		.4byte	.LVL39
 3561 0359 27000000 		.4byte	.LVL40-1
 3562 035d 0100     		.2byte	0x1
 3563 035f 51       		.byte	0x51
 3564 0360 27000000 		.4byte	.LVL40-1
 3565 0364 34000000 		.4byte	.LVL41
 3566 0368 0100     		.2byte	0x1
 3567 036a 56       		.byte	0x56
 3568 036b 34000000 		.4byte	.LVL41
 3569 036f 64000000 		.4byte	.LVL44
 3570 0373 0100     		.2byte	0x1
 3571 0375 51       		.byte	0x51
 3572 0376 64000000 		.4byte	.LVL44
 3573 037a 70000000 		.4byte	.LFE12
 3574 037e 0100     		.2byte	0x1
 3575 0380 56       		.byte	0x56
 3576 0381 00000000 		.4byte	0
 3577 0385 00000000 		.4byte	0
 3578              	.LLST21:
 3579 0389 10000000 		.4byte	.LVL34
 3580 038d 18000000 		.4byte	.LVL36
 3581 0391 0200     		.2byte	0x2
 3582 0393 30       		.byte	0x30
 3583 0394 9F       		.byte	0x9f
 3584 0395 18000000 		.4byte	.LVL36
 3585 0399 70000000 		.4byte	.LFE12
 3586 039d 0100     		.2byte	0x1
 3587 039f 57       		.byte	0x57
 3588 03a0 00000000 		.4byte	0
 3589 03a4 00000000 		.4byte	0
 3590              	.LLST22:
 3591 03a8 00000000 		.4byte	.LVL46
ARM GAS  /tmp/cc3lXwTS.s 			page 64


 3592 03ac 1A000000 		.4byte	.LVL47
 3593 03b0 0200     		.2byte	0x2
 3594 03b2 91       		.byte	0x91
 3595 03b3 00       		.sleb128 0
 3596 03b4 1A000000 		.4byte	.LVL47
 3597 03b8 1C000000 		.4byte	.LFE13
 3598 03bc 0200     		.2byte	0x2
 3599 03be 7D       		.byte	0x7d
 3600 03bf 00       		.sleb128 0
 3601 03c0 00000000 		.4byte	0
 3602 03c4 00000000 		.4byte	0
 3603              	.LLST23:
 3604 03c8 00000000 		.4byte	.LVL48
 3605 03cc 0A000000 		.4byte	.LVL49
 3606 03d0 0100     		.2byte	0x1
 3607 03d2 50       		.byte	0x50
 3608 03d3 0A000000 		.4byte	.LVL49
 3609 03d7 2E000000 		.4byte	.LFE14
 3610 03db 0100     		.2byte	0x1
 3611 03dd 54       		.byte	0x54
 3612 03de 00000000 		.4byte	0
 3613 03e2 00000000 		.4byte	0
 3614              	.LLST24:
 3615 03e6 1A000000 		.4byte	.LVL50
 3616 03ea 20000000 		.4byte	.LVL51
 3617 03ee 0100     		.2byte	0x1
 3618 03f0 54       		.byte	0x54
 3619 03f1 00000000 		.4byte	0
 3620 03f5 00000000 		.4byte	0
 3621              	.LLST25:
 3622 03f9 1A000000 		.4byte	.LVL50
 3623 03fd 20000000 		.4byte	.LVL51
 3624 0401 0100     		.2byte	0x1
 3625 0403 50       		.byte	0x50
 3626 0404 00000000 		.4byte	0
 3627 0408 00000000 		.4byte	0
 3628              	.LLST26:
 3629 040c 00000000 		.4byte	.LVL53
 3630 0410 13000000 		.4byte	.LVL55-1
 3631 0414 0100     		.2byte	0x1
 3632 0416 50       		.byte	0x50
 3633 0417 13000000 		.4byte	.LVL55-1
 3634 041b 22000000 		.4byte	.LVL57
 3635 041f 0100     		.2byte	0x1
 3636 0421 54       		.byte	0x54
 3637 0422 22000000 		.4byte	.LVL57
 3638 0426 40000000 		.4byte	.LVL58
 3639 042a 0100     		.2byte	0x1
 3640 042c 50       		.byte	0x50
 3641 042d 40000000 		.4byte	.LVL58
 3642 0431 54000000 		.4byte	.LFE15
 3643 0435 0100     		.2byte	0x1
 3644 0437 54       		.byte	0x54
 3645 0438 00000000 		.4byte	0
 3646 043c 00000000 		.4byte	0
 3647              	.LLST27:
 3648 0440 00000000 		.4byte	.LVL53
ARM GAS  /tmp/cc3lXwTS.s 			page 65


 3649 0444 10000000 		.4byte	.LVL54
 3650 0448 0100     		.2byte	0x1
 3651 044a 51       		.byte	0x51
 3652 044b 10000000 		.4byte	.LVL54
 3653 044f 54000000 		.4byte	.LFE15
 3654 0453 0400     		.2byte	0x4
 3655 0455 F3       		.byte	0xf3
 3656 0456 01       		.uleb128 0x1
 3657 0457 51       		.byte	0x51
 3658 0458 9F       		.byte	0x9f
 3659 0459 00000000 		.4byte	0
 3660 045d 00000000 		.4byte	0
 3661              	.LLST28:
 3662 0461 00000000 		.4byte	.LVL53
 3663 0465 10000000 		.4byte	.LVL54
 3664 0469 0100     		.2byte	0x1
 3665 046b 52       		.byte	0x52
 3666 046c 10000000 		.4byte	.LVL54
 3667 0470 13000000 		.4byte	.LVL55-1
 3668 0474 0100     		.2byte	0x1
 3669 0476 51       		.byte	0x51
 3670 0477 13000000 		.4byte	.LVL55-1
 3671 047b 22000000 		.4byte	.LVL57
 3672 047f 0100     		.2byte	0x1
 3673 0481 56       		.byte	0x56
 3674 0482 22000000 		.4byte	.LVL57
 3675 0486 41000000 		.4byte	.LVL59-1
 3676 048a 0100     		.2byte	0x1
 3677 048c 51       		.byte	0x51
 3678 048d 41000000 		.4byte	.LVL59-1
 3679 0491 54000000 		.4byte	.LFE15
 3680 0495 0100     		.2byte	0x1
 3681 0497 56       		.byte	0x56
 3682 0498 00000000 		.4byte	0
 3683 049c 00000000 		.4byte	0
 3684              	.LLST29:
 3685 04a0 14000000 		.4byte	.LVL55
 3686 04a4 18000000 		.4byte	.LVL56
 3687 04a8 0100     		.2byte	0x1
 3688 04aa 50       		.byte	0x50
 3689 04ab 4C000000 		.4byte	.LVL60
 3690 04af 54000000 		.4byte	.LFE15
 3691 04b3 0100     		.2byte	0x1
 3692 04b5 50       		.byte	0x50
 3693 04b6 00000000 		.4byte	0
 3694 04ba 00000000 		.4byte	0
 3695              	.LLST30:
 3696 04be 00000000 		.4byte	.LVL61
 3697 04c2 2C000000 		.4byte	.LVL65
 3698 04c6 0100     		.2byte	0x1
 3699 04c8 50       		.byte	0x50
 3700 04c9 2C000000 		.4byte	.LVL65
 3701 04cd 2F000000 		.4byte	.LVL66-1
 3702 04d1 0100     		.2byte	0x1
 3703 04d3 53       		.byte	0x53
 3704 04d4 2F000000 		.4byte	.LVL66-1
 3705 04d8 38000000 		.4byte	.LVL67
ARM GAS  /tmp/cc3lXwTS.s 			page 66


 3706 04dc 0400     		.2byte	0x4
 3707 04de F3       		.byte	0xf3
 3708 04df 01       		.uleb128 0x1
 3709 04e0 50       		.byte	0x50
 3710 04e1 9F       		.byte	0x9f
 3711 04e2 38000000 		.4byte	.LVL67
 3712 04e6 46000000 		.4byte	.LVL69
 3713 04ea 0100     		.2byte	0x1
 3714 04ec 50       		.byte	0x50
 3715 04ed 46000000 		.4byte	.LVL69
 3716 04f1 48000000 		.4byte	.LFE16
 3717 04f5 0400     		.2byte	0x4
 3718 04f7 F3       		.byte	0xf3
 3719 04f8 01       		.uleb128 0x1
 3720 04f9 50       		.byte	0x50
 3721 04fa 9F       		.byte	0x9f
 3722 04fb 00000000 		.4byte	0
 3723 04ff 00000000 		.4byte	0
 3724              	.LLST31:
 3725 0503 1A000000 		.4byte	.LVL62
 3726 0507 3E000000 		.4byte	.LVL68
 3727 050b 0100     		.2byte	0x1
 3728 050d 54       		.byte	0x54
 3729 050e 00000000 		.4byte	0
 3730 0512 00000000 		.4byte	0
 3731              	.LLST32:
 3732 0516 28000000 		.4byte	.LVL63
 3733 051a 2A000000 		.4byte	.LVL64
 3734 051e 0100     		.2byte	0x1
 3735 0520 53       		.byte	0x53
 3736 0521 00000000 		.4byte	0
 3737 0525 00000000 		.4byte	0
 3738              	.LLST33:
 3739 0529 28000000 		.4byte	.LVL63
 3740 052d 2A000000 		.4byte	.LVL64
 3741 0531 0100     		.2byte	0x1
 3742 0533 52       		.byte	0x52
 3743 0534 00000000 		.4byte	0
 3744 0538 00000000 		.4byte	0
 3745              	.LLST34:
 3746 053c 00000000 		.4byte	.LVL70
 3747 0540 1A000000 		.4byte	.LVL73
 3748 0544 0100     		.2byte	0x1
 3749 0546 50       		.byte	0x50
 3750 0547 1A000000 		.4byte	.LVL73
 3751 054b 26000000 		.4byte	.LVL75
 3752 054f 0100     		.2byte	0x1
 3753 0551 54       		.byte	0x54
 3754 0552 26000000 		.4byte	.LVL75
 3755 0556 45000000 		.4byte	.LVL76-1
 3756 055a 0100     		.2byte	0x1
 3757 055c 50       		.byte	0x50
 3758 055d 45000000 		.4byte	.LVL76-1
 3759 0561 6A000000 		.4byte	.LVL81
 3760 0565 0100     		.2byte	0x1
 3761 0567 54       		.byte	0x54
 3762 0568 6A000000 		.4byte	.LVL81
ARM GAS  /tmp/cc3lXwTS.s 			page 67


 3763 056c 6E000000 		.4byte	.LVL82
 3764 0570 0100     		.2byte	0x1
 3765 0572 50       		.byte	0x50
 3766 0573 6E000000 		.4byte	.LVL82
 3767 0577 82000000 		.4byte	.LFE17
 3768 057b 0100     		.2byte	0x1
 3769 057d 54       		.byte	0x54
 3770 057e 00000000 		.4byte	0
 3771 0582 00000000 		.4byte	0
 3772              	.LLST35:
 3773 0586 00000000 		.4byte	.LVL70
 3774 058a 1A000000 		.4byte	.LVL73
 3775 058e 0100     		.2byte	0x1
 3776 0590 51       		.byte	0x51
 3777 0591 1A000000 		.4byte	.LVL73
 3778 0595 20000000 		.4byte	.LVL74
 3779 0599 0100     		.2byte	0x1
 3780 059b 56       		.byte	0x56
 3781 059c 20000000 		.4byte	.LVL74
 3782 05a0 5E000000 		.4byte	.LVL79
 3783 05a4 0100     		.2byte	0x1
 3784 05a6 5B       		.byte	0x5b
 3785 05a7 5E000000 		.4byte	.LVL79
 3786 05ab 64000000 		.4byte	.LVL80
 3787 05af 0100     		.2byte	0x1
 3788 05b1 56       		.byte	0x56
 3789 05b2 64000000 		.4byte	.LVL80
 3790 05b6 82000000 		.4byte	.LFE17
 3791 05ba 0100     		.2byte	0x1
 3792 05bc 5B       		.byte	0x5b
 3793 05bd 00000000 		.4byte	0
 3794 05c1 00000000 		.4byte	0
 3795              	.LLST36:
 3796 05c5 00000000 		.4byte	.LVL70
 3797 05c9 1A000000 		.4byte	.LVL73
 3798 05cd 0100     		.2byte	0x1
 3799 05cf 52       		.byte	0x52
 3800 05d0 1A000000 		.4byte	.LVL73
 3801 05d4 4E000000 		.4byte	.LVL77
 3802 05d8 0100     		.2byte	0x1
 3803 05da 57       		.byte	0x57
 3804 05db 4E000000 		.4byte	.LVL77
 3805 05df 52000000 		.4byte	.LVL78
 3806 05e3 0300     		.2byte	0x3
 3807 05e5 77       		.byte	0x77
 3808 05e6 01       		.sleb128 1
 3809 05e7 9F       		.byte	0x9f
 3810 05e8 5E000000 		.4byte	.LVL79
 3811 05ec 7C000000 		.4byte	.LVL84
 3812 05f0 0100     		.2byte	0x1
 3813 05f2 57       		.byte	0x57
 3814 05f3 00000000 		.4byte	0
 3815 05f7 00000000 		.4byte	0
 3816              	.LLST37:
 3817 05fb 00000000 		.4byte	.LVL70
 3818 05ff 12000000 		.4byte	.LVL72
 3819 0603 0100     		.2byte	0x1
ARM GAS  /tmp/cc3lXwTS.s 			page 68


 3820 0605 53       		.byte	0x53
 3821 0606 12000000 		.4byte	.LVL72
 3822 060a 82000000 		.4byte	.LFE17
 3823 060e 0100     		.2byte	0x1
 3824 0610 5A       		.byte	0x5a
 3825 0611 00000000 		.4byte	0
 3826 0615 00000000 		.4byte	0
 3827              	.LLST38:
 3828 0619 10000000 		.4byte	.LVL71
 3829 061d 1A000000 		.4byte	.LVL73
 3830 0621 0200     		.2byte	0x2
 3831 0623 30       		.byte	0x30
 3832 0624 9F       		.byte	0x9f
 3833 0625 1A000000 		.4byte	.LVL73
 3834 0629 82000000 		.4byte	.LFE17
 3835 062d 0100     		.2byte	0x1
 3836 062f 58       		.byte	0x58
 3837 0630 00000000 		.4byte	0
 3838 0634 00000000 		.4byte	0
 3839              		.section	.debug_aranges,"",%progbits
 3840 0000 6C000000 		.4byte	0x6c
 3841 0004 0200     		.2byte	0x2
 3842 0006 00000000 		.4byte	.Ldebug_info0
 3843 000a 04       		.byte	0x4
 3844 000b 00       		.byte	0
 3845 000c 0000     		.2byte	0
 3846 000e 0000     		.2byte	0
 3847 0010 00000000 		.4byte	.LFB7
 3848 0014 28000000 		.4byte	.LFE7-.LFB7
 3849 0018 00000000 		.4byte	.LFB8
 3850 001c 1E000000 		.4byte	.LFE8-.LFB8
 3851 0020 00000000 		.4byte	.LFB9
 3852 0024 2C000000 		.4byte	.LFE9-.LFB9
 3853 0028 00000000 		.4byte	.LFB10
 3854 002c 52000000 		.4byte	.LFE10-.LFB10
 3855 0030 00000000 		.4byte	.LFB11
 3856 0034 50000000 		.4byte	.LFE11-.LFB11
 3857 0038 00000000 		.4byte	.LFB12
 3858 003c 70000000 		.4byte	.LFE12-.LFB12
 3859 0040 00000000 		.4byte	.LFB13
 3860 0044 1C000000 		.4byte	.LFE13-.LFB13
 3861 0048 00000000 		.4byte	.LFB14
 3862 004c 2E000000 		.4byte	.LFE14-.LFB14
 3863 0050 00000000 		.4byte	.LFB15
 3864 0054 54000000 		.4byte	.LFE15-.LFB15
 3865 0058 00000000 		.4byte	.LFB16
 3866 005c 48000000 		.4byte	.LFE16-.LFB16
 3867 0060 00000000 		.4byte	.LFB17
 3868 0064 82000000 		.4byte	.LFE17-.LFB17
 3869 0068 00000000 		.4byte	0
 3870 006c 00000000 		.4byte	0
 3871              		.section	.debug_ranges,"",%progbits
 3872              	.Ldebug_ranges0:
 3873 0000 0A000000 		.4byte	.LBB12
 3874 0004 12000000 		.4byte	.LBE12
 3875 0008 14000000 		.4byte	.LBB15
 3876 000c 18000000 		.4byte	.LBE15
ARM GAS  /tmp/cc3lXwTS.s 			page 69


 3877 0010 00000000 		.4byte	0
 3878 0014 00000000 		.4byte	0
 3879 0018 02000000 		.4byte	.LBB20
 3880 001c 04000000 		.4byte	.LBE20
 3881 0020 08000000 		.4byte	.LBB21
 3882 0024 0C000000 		.4byte	.LBE21
 3883 0028 00000000 		.4byte	0
 3884 002c 00000000 		.4byte	0
 3885 0030 14000000 		.4byte	.LBB22
 3886 0034 1C000000 		.4byte	.LBE22
 3887 0038 1E000000 		.4byte	.LBB24
 3888 003c 22000000 		.4byte	.LBE24
 3889 0040 48000000 		.4byte	.LBB26
 3890 0044 50000000 		.4byte	.LBE26
 3891 0048 00000000 		.4byte	0
 3892 004c 00000000 		.4byte	0
 3893 0050 10000000 		.4byte	.LBB34
 3894 0054 18000000 		.4byte	.LBE34
 3895 0058 1A000000 		.4byte	.LBB36
 3896 005c 1E000000 		.4byte	.LBE36
 3897 0060 4C000000 		.4byte	.LBB38
 3898 0064 54000000 		.4byte	.LBE38
 3899 0068 00000000 		.4byte	0
 3900 006c 00000000 		.4byte	0
 3901 0070 00000000 		.4byte	.LFB7
 3902 0074 28000000 		.4byte	.LFE7
 3903 0078 00000000 		.4byte	.LFB8
 3904 007c 1E000000 		.4byte	.LFE8
 3905 0080 00000000 		.4byte	.LFB9
 3906 0084 2C000000 		.4byte	.LFE9
 3907 0088 00000000 		.4byte	.LFB10
 3908 008c 52000000 		.4byte	.LFE10
 3909 0090 00000000 		.4byte	.LFB11
 3910 0094 50000000 		.4byte	.LFE11
 3911 0098 00000000 		.4byte	.LFB12
 3912 009c 70000000 		.4byte	.LFE12
 3913 00a0 00000000 		.4byte	.LFB13
 3914 00a4 1C000000 		.4byte	.LFE13
 3915 00a8 00000000 		.4byte	.LFB14
 3916 00ac 2E000000 		.4byte	.LFE14
 3917 00b0 00000000 		.4byte	.LFB15
 3918 00b4 54000000 		.4byte	.LFE15
 3919 00b8 00000000 		.4byte	.LFB16
 3920 00bc 48000000 		.4byte	.LFE16
 3921 00c0 00000000 		.4byte	.LFB17
 3922 00c4 82000000 		.4byte	.LFE17
 3923 00c8 00000000 		.4byte	0
 3924 00cc 00000000 		.4byte	0
 3925              		.section	.debug_line,"",%progbits
 3926              	.Ldebug_line0:
 3927 0000 C0030000 		.section	.debug_str,"MS",%progbits,1
 3927      0200FB01 
 3927      00000201 
 3927      FB0E0D00 
 3927      01010101 
 3928              	.LASF90:
 3929 0000 63684F51 		.ascii	"chOQInit\000"
ARM GAS  /tmp/cc3lXwTS.s 			page 70


 3929      496E6974 
 3929      00
 3930              	.LASF42:
 3931 0009 705F6D73 		.ascii	"p_msg\000"
 3931      6700
 3932              	.LASF101:
 3933 000f 71756575 		.ascii	"queue_insert\000"
 3933      655F696E 
 3933      73657274 
 3933      00
 3934              	.LASF91:
 3935 001c 6F6E6679 		.ascii	"onfy\000"
 3935      00
 3936              	.LASF4:
 3937 0021 73697A65 		.ascii	"size_t\000"
 3937      5F7400
 3938              	.LASF64:
 3939 0028 7264796D 		.ascii	"rdymsg\000"
 3939      736700
 3940              	.LASF85:
 3941 002f 63684951 		.ascii	"chIQInit\000"
 3941      496E6974 
 3941      00
 3942              	.LASF80:
 3943 0038 4F757470 		.ascii	"OutputQueue\000"
 3943      75745175 
 3943      65756500 
 3944              	.LASF5:
 3945 0044 5F5F7569 		.ascii	"__uint8_t\000"
 3945      6E74385F 
 3945      7400
 3946              	.LASF89:
 3947 004e 63684951 		.ascii	"chIQReadTimeout\000"
 3947      52656164 
 3947      54696D65 
 3947      6F757400 
 3948              	.LASF13:
 3949 005e 6C6F6E67 		.ascii	"long long unsigned int\000"
 3949      206C6F6E 
 3949      6720756E 
 3949      7369676E 
 3949      65642069 
 3950              	.LASF65:
 3951 0075 65786974 		.ascii	"exitcode\000"
 3951      636F6465 
 3951      00
 3952              	.LASF30:
 3953 007e 705F7072 		.ascii	"p_prio\000"
 3953      696F00
 3954              	.LASF70:
 3955 0085 715F7761 		.ascii	"q_waiting\000"
 3955      6974696E 
 3955      6700
 3956              	.LASF1:
 3957 008f 6C6F6E67 		.ascii	"long long int\000"
 3957      206C6F6E 
 3957      6720696E 
ARM GAS  /tmp/cc3lXwTS.s 			page 71


 3957      7400
 3958              	.LASF3:
 3959 009d 7369676E 		.ascii	"signed char\000"
 3959      65642063 
 3959      68617200 
 3960              	.LASF46:
 3961 00a9 705F6D70 		.ascii	"p_mpool\000"
 3961      6F6F6C00 
 3962              	.LASF17:
 3963 00b1 626F6F6C 		.ascii	"bool_t\000"
 3963      5F7400
 3964              	.LASF61:
 3965 00b8 6D5F7175 		.ascii	"m_queue\000"
 3965      65756500 
 3966              	.LASF22:
 3967 00c0 74736C69 		.ascii	"tslices_t\000"
 3967      6365735F 
 3967      7400
 3968              	.LASF103:
 3969 00ca 71776169 		.ascii	"qwait\000"
 3969      7400
 3970              	.LASF10:
 3971 00d0 6C6F6E67 		.ascii	"long int\000"
 3971      20696E74 
 3971      00
 3972              	.LASF20:
 3973 00d9 74737461 		.ascii	"tstate_t\000"
 3973      74655F74 
 3973      00
 3974              	.LASF94:
 3975 00e2 63684F51 		.ascii	"chOQGetI\000"
 3975      47657449 
 3975      00
 3976              	.LASF72:
 3977 00eb 715F6275 		.ascii	"q_buffer\000"
 3977      66666572 
 3977      00
 3978              	.LASF74:
 3979 00f4 715F7772 		.ascii	"q_wrptr\000"
 3979      70747200 
 3980              	.LASF32:
 3981 00fc 705F6E65 		.ascii	"p_newer\000"
 3981      77657200 
 3982              	.LASF11:
 3983 0104 5F5F7569 		.ascii	"__uint32_t\000"
 3983      6E743332 
 3983      5F7400
 3984              	.LASF49:
 3985 010f 72656761 		.ascii	"regarm_t\000"
 3985      726D5F74 
 3985      00
 3986              	.LASF84:
 3987 0118 6C696E6B 		.ascii	"link\000"
 3987      00
 3988              	.LASF93:
 3989 011d 63684F51 		.ascii	"chOQPutTimeout\000"
 3989      50757454 
ARM GAS  /tmp/cc3lXwTS.s 			page 72


 3989      696D656F 
 3989      757400
 3990              	.LASF87:
 3991 012c 63684951 		.ascii	"chIQPutI\000"
 3991      50757449 
 3991      00
 3992              	.LASF0:
 3993 0135 756E7369 		.ascii	"unsigned int\000"
 3993      676E6564 
 3993      20696E74 
 3993      00
 3994              	.LASF86:
 3995 0142 63684951 		.ascii	"chIQResetI\000"
 3995      52657365 
 3995      744900
 3996              	.LASF12:
 3997 014d 6C6F6E67 		.ascii	"long unsigned int\000"
 3997      20756E73 
 3997      69676E65 
 3997      6420696E 
 3997      7400
 3998              	.LASF51:
 3999 015f 636F6E74 		.ascii	"context\000"
 3999      65787400 
 4000              	.LASF82:
 4001 0167 73697A65 		.ascii	"size\000"
 4001      00
 4002              	.LASF8:
 4003 016c 73686F72 		.ascii	"short unsigned int\000"
 4003      7420756E 
 4003      7369676E 
 4003      65642069 
 4003      6E7400
 4004              	.LASF24:
 4005 017f 6D73675F 		.ascii	"msg_t\000"
 4005      7400
 4006              	.LASF56:
 4007 0185 725F6E65 		.ascii	"r_newer\000"
 4007      77657200 
 4008              	.LASF99:
 4009 018d 2E2E2F2E 		.ascii	"../../os/kernel/src/chqueues.c\000"
 4009      2E2F6F73 
 4009      2F6B6572 
 4009      6E656C2F 
 4009      7372632F 
 4010              	.LASF48:
 4011 01ac 54687265 		.ascii	"ThreadsList\000"
 4011      6164734C 
 4011      69737400 
 4012              	.LASF25:
 4013 01b8 6576656E 		.ascii	"eventmask_t\000"
 4013      746D6173 
 4013      6B5F7400 
 4014              	.LASF79:
 4015 01c4 496E7075 		.ascii	"InputQueue\000"
 4015      74517565 
 4015      756500
ARM GAS  /tmp/cc3lXwTS.s 			page 73


 4016              	.LASF60:
 4017 01cf 4D757465 		.ascii	"Mutex\000"
 4017      7800
 4018              	.LASF69:
 4019 01d5 47656E65 		.ascii	"GenericQueue\000"
 4019      72696351 
 4019      75657565 
 4019      00
 4020              	.LASF95:
 4021 01e2 63684F51 		.ascii	"chOQWriteTimeout\000"
 4021      57726974 
 4021      6554696D 
 4021      656F7574 
 4021      00
 4022              	.LASF52:
 4023 01f3 73697A65 		.ascii	"sizetype\000"
 4023      74797065 
 4023      00
 4024              	.LASF71:
 4025 01fc 715F636F 		.ascii	"q_counter\000"
 4025      756E7465 
 4025      7200
 4026              	.LASF2:
 4027 0206 6C6F6E67 		.ascii	"long double\000"
 4027      20646F75 
 4027      626C6500 
 4028              	.LASF33:
 4029 0212 705F6F6C 		.ascii	"p_older\000"
 4029      64657200 
 4030              	.LASF55:
 4031 021a 725F6374 		.ascii	"r_ctx\000"
 4031      7800
 4032              	.LASF47:
 4033 0220 54687265 		.ascii	"ThreadsQueue\000"
 4033      61647351 
 4033      75657565 
 4033      00
 4034              	.LASF81:
 4035 022d 74696D65 		.ascii	"time\000"
 4035      00
 4036              	.LASF58:
 4037 0232 725F6375 		.ascii	"r_current\000"
 4037      7272656E 
 4037      7400
 4038              	.LASF57:
 4039 023c 725F6F6C 		.ascii	"r_older\000"
 4039      64657200 
 4040              	.LASF21:
 4041 0244 74726566 		.ascii	"trefs_t\000"
 4041      735F7400 
 4042              	.LASF78:
 4043 024c 716E6F74 		.ascii	"qnotify_t\000"
 4043      6966795F 
 4043      7400
 4044              	.LASF29:
 4045 0256 705F7072 		.ascii	"p_prev\000"
 4045      657600
ARM GAS  /tmp/cc3lXwTS.s 			page 74


 4046              	.LASF23:
 4047 025d 74707269 		.ascii	"tprio_t\000"
 4047      6F5F7400 
 4048              	.LASF75:
 4049 0265 715F7264 		.ascii	"q_rdptr\000"
 4049      70747200 
 4050              	.LASF18:
 4051 026d 5F426F6F 		.ascii	"_Bool\000"
 4051      6C00
 4052              	.LASF15:
 4053 0273 696E7433 		.ascii	"int32_t\000"
 4053      325F7400 
 4054              	.LASF6:
 4055 027b 756E7369 		.ascii	"unsigned char\000"
 4055      676E6564 
 4055      20636861 
 4055      7200
 4056              	.LASF100:
 4057 0289 2F686F6D 		.ascii	"/home/lithium/Documentos/ChibiOS_2.6.8/demos/ESPv1\000"
 4057      652F6C69 
 4057      74686975 
 4057      6D2F446F 
 4057      63756D65 
 4058              	.LASF44:
 4059 02bc 705F6D74 		.ascii	"p_mtxlist\000"
 4059      786C6973 
 4059      7400
 4060              	.LASF7:
 4061 02c6 73686F72 		.ascii	"short int\000"
 4061      7420696E 
 4061      7400
 4062              	.LASF35:
 4063 02d0 705F7374 		.ascii	"p_state\000"
 4063      61746500 
 4064              	.LASF38:
 4065 02d8 705F7072 		.ascii	"p_preempt\000"
 4065      65656D70 
 4065      7400
 4066              	.LASF54:
 4067 02e2 725F7072 		.ascii	"r_prio\000"
 4067      696F00
 4068              	.LASF98:
 4069 02e9 474E5520 		.ascii	"GNU C11 5.3.1 20160307 (release) [ARM/embedded-5-br"
 4069      43313120 
 4069      352E332E 
 4069      31203230 
 4069      31363033 
 4070 031c 616E6368 		.ascii	"anch revision 234589] -mcpu=cortex-m4 -mno-thumb-in"
 4070      20726576 
 4070      6973696F 
 4070      6E203233 
 4070      34353839 
 4071 034f 74657277 		.ascii	"terwork -mthumb -ggdb -O2 -fomit-frame-pointer -fal"
 4071      6F726B20 
 4071      2D6D7468 
 4071      756D6220 
 4071      2D676764 
ARM GAS  /tmp/cc3lXwTS.s 			page 75


 4072 0382 69676E2D 		.ascii	"ign-functions=16 -ffunction-sections -fdata-section"
 4072      66756E63 
 4072      74696F6E 
 4072      733D3136 
 4072      202D6666 
 4073 03b5 73202D66 		.ascii	"s -fno-common\000"
 4073      6E6F2D63 
 4073      6F6D6D6F 
 4073      6E00
 4074              	.LASF67:
 4075 03c3 65776D61 		.ascii	"ewmask\000"
 4075      736B00
 4076              	.LASF28:
 4077 03ca 705F6E65 		.ascii	"p_next\000"
 4077      787400
 4078              	.LASF19:
 4079 03d1 746D6F64 		.ascii	"tmode_t\000"
 4079      655F7400 
 4080              	.LASF36:
 4081 03d9 705F666C 		.ascii	"p_flags\000"
 4081      61677300 
 4082              	.LASF27:
 4083 03e1 54687265 		.ascii	"Thread\000"
 4083      616400
 4084              	.LASF43:
 4085 03e8 705F6570 		.ascii	"p_epending\000"
 4085      656E6469 
 4085      6E6700
 4086              	.LASF16:
 4087 03f3 75696E74 		.ascii	"uint32_t\000"
 4087      33325F74 
 4087      00
 4088              	.LASF53:
 4089 03fc 725F7175 		.ascii	"r_queue\000"
 4089      65756500 
 4090              	.LASF97:
 4091 0404 63685363 		.ascii	"chSchReadyI\000"
 4091      68526561 
 4091      64794900 
 4092              	.LASF68:
 4093 0410 63686172 		.ascii	"char\000"
 4093      00
 4094              	.LASF102:
 4095 0415 6669666F 		.ascii	"fifo_remove\000"
 4095      5F72656D 
 4095      6F766500 
 4096              	.LASF63:
 4097 0421 6D5F6E65 		.ascii	"m_next\000"
 4097      787400
 4098              	.LASF26:
 4099 0428 73797374 		.ascii	"systime_t\000"
 4099      696D655F 
 4099      7400
 4100              	.LASF45:
 4101 0432 705F7265 		.ascii	"p_realprio\000"
 4101      616C7072 
 4101      696F00
ARM GAS  /tmp/cc3lXwTS.s 			page 76


 4102              	.LASF9:
 4103 043d 5F5F696E 		.ascii	"__int32_t\000"
 4103      7433325F 
 4103      7400
 4104              	.LASF83:
 4105 0447 696E6679 		.ascii	"infy\000"
 4105      00
 4106              	.LASF92:
 4107 044c 63684F51 		.ascii	"chOQResetI\000"
 4107      52657365 
 4107      744900
 4108              	.LASF39:
 4109 0457 705F7469 		.ascii	"p_time\000"
 4109      6D6500
 4110              	.LASF50:
 4111 045e 696E7463 		.ascii	"intctx\000"
 4111      747800
 4112              	.LASF41:
 4113 0465 705F6D73 		.ascii	"p_msgqueue\000"
 4113      67717565 
 4113      756500
 4114              	.LASF73:
 4115 0470 715F746F 		.ascii	"q_top\000"
 4115      7000
 4116              	.LASF37:
 4117 0476 705F7265 		.ascii	"p_refs\000"
 4117      667300
 4118              	.LASF59:
 4119 047d 52656164 		.ascii	"ReadyList\000"
 4119      794C6973 
 4119      7400
 4120              	.LASF76:
 4121 0487 715F6E6F 		.ascii	"q_notify\000"
 4121      74696679 
 4121      00
 4122              	.LASF104:
 4123 0490 726C6973 		.ascii	"rlist\000"
 4123      7400
 4124              	.LASF14:
 4125 0496 75696E74 		.ascii	"uint8_t\000"
 4125      385F7400 
 4126              	.LASF66:
 4127 049e 77746F62 		.ascii	"wtobjp\000"
 4127      6A7000
 4128              	.LASF34:
 4129 04a5 705F6E61 		.ascii	"p_name\000"
 4129      6D6500
 4130              	.LASF96:
 4131 04ac 63685363 		.ascii	"chSchGoSleepTimeoutS\000"
 4131      68476F53 
 4131      6C656570 
 4131      54696D65 
 4131      6F757453 
 4132              	.LASF77:
 4133 04c1 715F6C69 		.ascii	"q_link\000"
 4133      6E6B00
 4134              	.LASF62:
ARM GAS  /tmp/cc3lXwTS.s 			page 77


 4135 04c8 6D5F6F77 		.ascii	"m_owner\000"
 4135      6E657200 
 4136              	.LASF31:
 4137 04d0 705F6374 		.ascii	"p_ctx\000"
 4137      7800
 4138              	.LASF40:
 4139 04d6 705F7761 		.ascii	"p_waiting\000"
 4139      6974696E 
 4139      6700
 4140              	.LASF88:
 4141 04e0 63684951 		.ascii	"chIQGetTimeout\000"
 4141      47657454 
 4141      696D656F 
 4141      757400
 4142              		.ident	"GCC: (GNU Tools for ARM Embedded Processors) 5.3.1 20160307 (release) [ARM/embedded-5-bran
ARM GAS  /tmp/cc3lXwTS.s 			page 78


DEFINED SYMBOLS
                            *ABS*:00000000 chqueues.c
     /tmp/cc3lXwTS.s:20     .text.qwait:00000000 $t
     /tmp/cc3lXwTS.s:25     .text.qwait:00000000 qwait
     /tmp/cc3lXwTS.s:81     .text.qwait:00000024 $d
     /tmp/cc3lXwTS.s:86     .text.chIQInit:00000000 $t
     /tmp/cc3lXwTS.s:92     .text.chIQInit:00000000 chIQInit
     /tmp/cc3lXwTS.s:137    .text.chIQResetI:00000000 $t
     /tmp/cc3lXwTS.s:143    .text.chIQResetI:00000000 chIQResetI
     /tmp/cc3lXwTS.s:201    .text.chIQPutI:00000000 $t
     /tmp/cc3lXwTS.s:207    .text.chIQPutI:00000000 chIQPutI
     /tmp/cc3lXwTS.s:296    .text.chIQGetTimeout:00000000 $t
     /tmp/cc3lXwTS.s:302    .text.chIQGetTimeout:00000000 chIQGetTimeout
     /tmp/cc3lXwTS.s:416    .text.chIQReadTimeout:00000000 $t
     /tmp/cc3lXwTS.s:422    .text.chIQReadTimeout:00000000 chIQReadTimeout
     /tmp/cc3lXwTS.s:557    .text.chOQInit:00000000 $t
     /tmp/cc3lXwTS.s:563    .text.chOQInit:00000000 chOQInit
     /tmp/cc3lXwTS.s:604    .text.chOQResetI:00000000 $t
     /tmp/cc3lXwTS.s:610    .text.chOQResetI:00000000 chOQResetI
     /tmp/cc3lXwTS.s:671    .text.chOQPutTimeout:00000000 $t
     /tmp/cc3lXwTS.s:677    .text.chOQPutTimeout:00000000 chOQPutTimeout
     /tmp/cc3lXwTS.s:792    .text.chOQGetI:00000000 $t
     /tmp/cc3lXwTS.s:798    .text.chOQGetI:00000000 chOQGetI
     /tmp/cc3lXwTS.s:880    .text.chOQWriteTimeout:00000000 $t
     /tmp/cc3lXwTS.s:886    .text.chOQWriteTimeout:00000000 chOQWriteTimeout
                     .debug_frame:00000010 $d

UNDEFINED SYMBOLS
chSchGoSleepTimeoutS
rlist
chSchReadyI
