ARM GAS  /tmp/cc3fAvgj.s 			page 1


   1              		.syntax unified
   2              		.cpu cortex-m4
   3              		.fpu softvfp
   4              		.eabi_attribute 20, 1
   5              		.eabi_attribute 21, 1
   6              		.eabi_attribute 23, 3
   7              		.eabi_attribute 24, 1
   8              		.eabi_attribute 25, 1
   9              		.eabi_attribute 26, 1
  10              		.eabi_attribute 30, 2
  11              		.eabi_attribute 34, 1
  12              		.eabi_attribute 18, 4
  13              		.thumb
  14              		.syntax unified
  15              		.file	"chsem.c"
  16              		.text
  17              	.Ltext0:
  18              		.cfi_sections	.debug_frame
  19              		.section	.text.chSemInit,"ax",%progbits
  20              		.align	2
  21              		.p2align 4,,15
  22              		.global	chSemInit
  23              		.thumb
  24              		.thumb_func
  25              		.type	chSemInit, %function
  26              	chSemInit:
  27              	.LFB7:
  28              		.file 1 "../../os/kernel/src/chsem.c"
  29              		.loc 1 86 0
  30              		.cfi_startproc
  31              		@ args = 0, pretend = 0, frame = 0
  32              		@ frame_needed = 0, uses_anonymous_args = 0
  33              		@ link register save eliminated.
  34              	.LVL0:
  35              		.loc 1 90 0
  36 0000 4060     		str	r0, [r0, #4]
  37 0002 0060     		str	r0, [r0]
  38              		.loc 1 91 0
  39 0004 8160     		str	r1, [r0, #8]
  40 0006 7047     		bx	lr
  41              		.cfi_endproc
  42              	.LFE7:
  43              		.size	chSemInit, .-chSemInit
  44              		.section	.text.chSemResetI,"ax",%progbits
  45              		.align	2
  46              		.p2align 4,,15
  47              		.global	chSemResetI
  48              		.thumb
  49              		.thumb_func
  50              		.type	chSemResetI, %function
  51              	chSemResetI:
  52              	.LFB9:
  53              		.loc 1 136 0
  54              		.cfi_startproc
  55              		@ args = 0, pretend = 0, frame = 0
  56              		@ frame_needed = 0, uses_anonymous_args = 0
  57              	.LVL1:
ARM GAS  /tmp/cc3fAvgj.s 			page 2


  58 0000 70B5     		push	{r4, r5, r6, lr}
  59              		.cfi_def_cfa_offset 16
  60              		.cfi_offset 4, -16
  61              		.cfi_offset 5, -12
  62              		.cfi_offset 6, -8
  63              		.cfi_offset 14, -4
  64              		.loc 1 141 0
  65 0002 8568     		ldr	r5, [r0, #8]
  66              	.LVL2:
  67              		.loc 1 147 0
  68 0004 8160     		str	r1, [r0, #8]
  69              		.loc 1 148 0
  70 0006 0135     		adds	r5, r5, #1
  71              	.LVL3:
  72 0008 002D     		cmp	r5, #0
  73 000a 0CDC     		bgt	.L2
  74 000c 0446     		mov	r4, r0
  75              		.loc 1 149 0
  76 000e 6FF00106 		mvn	r6, #1
  77              	.LVL4:
  78              	.L4:
  79              	.LBB36:
  80              	.LBB37:
  81              		.file 2 "../../os/kernel/include/chinline.h"
  82              		.loc 2 67 0
  83 0012 6068     		ldr	r0, [r4, #4]
  84              	.LVL5:
  85              		.loc 2 69 0
  86 0014 4368     		ldr	r3, [r0, #4]
  87 0016 6360     		str	r3, [r4, #4]
  88 0018 1C60     		str	r4, [r3]
  89              	.LVL6:
  90              	.LBE37:
  91              	.LBE36:
  92              		.loc 1 149 0
  93 001a FFF7FEFF 		bl	chSchReadyI
  94              	.LVL7:
  95              		.loc 1 148 0
  96 001e 0135     		adds	r5, r5, #1
  97              	.LVL8:
  98 0020 012D     		cmp	r5, #1
  99              		.loc 1 149 0
 100 0022 4662     		str	r6, [r0, #36]
 101              	.LVL9:
 102              		.loc 1 148 0
 103 0024 F5D1     		bne	.L4
 104              	.LVL10:
 105              	.L2:
 106 0026 70BD     		pop	{r4, r5, r6, pc}
 107              		.cfi_endproc
 108              	.LFE9:
 109              		.size	chSemResetI, .-chSemResetI
 110              		.section	.text.chSemReset,"ax",%progbits
 111              		.align	2
 112              		.p2align 4,,15
 113              		.global	chSemReset
 114              		.thumb
ARM GAS  /tmp/cc3fAvgj.s 			page 3


 115              		.thumb_func
 116              		.type	chSemReset, %function
 117              	chSemReset:
 118              	.LFB8:
 119              		.loc 1 109 0
 120              		.cfi_startproc
 121              		@ args = 0, pretend = 0, frame = 0
 122              		@ frame_needed = 0, uses_anonymous_args = 0
 123              	.LVL11:
 124 0000 08B5     		push	{r3, lr}
 125              		.cfi_def_cfa_offset 8
 126              		.cfi_offset 3, -8
 127              		.cfi_offset 14, -4
 128              	.LBB38:
 129              		.loc 1 111 0
 130 0002 2023     		movs	r3, #32
 131              		.syntax unified
 132              	@ 111 "../../os/kernel/src/chsem.c" 1
 133 0004 83F31188 		msr     BASEPRI, r3
 134              	@ 0 "" 2
 135              		.thumb
 136              		.syntax unified
 137              	.LBE38:
 138              		.loc 1 112 0
 139 0008 FFF7FEFF 		bl	chSemResetI
 140              	.LVL12:
 141              		.loc 1 113 0
 142 000c FFF7FEFF 		bl	chSchRescheduleS
 143              	.LVL13:
 144              	.LBB39:
 145              		.loc 1 114 0
 146 0010 0023     		movs	r3, #0
 147              		.syntax unified
 148              	@ 114 "../../os/kernel/src/chsem.c" 1
 149 0012 83F31188 		msr     BASEPRI, r3
 150              	@ 0 "" 2
 151              		.thumb
 152              		.syntax unified
 153 0016 08BD     		pop	{r3, pc}
 154              	.LBE39:
 155              		.cfi_endproc
 156              	.LFE8:
 157              		.size	chSemReset, .-chSemReset
 158              		.section	.text.chSemWait,"ax",%progbits
 159              		.align	2
 160              		.p2align 4,,15
 161              		.global	chSemWait
 162              		.thumb
 163              		.thumb_func
 164              		.type	chSemWait, %function
 165              	chSemWait:
 166              	.LFB10:
 167              		.loc 1 164 0
 168              		.cfi_startproc
 169              		@ args = 0, pretend = 0, frame = 0
 170              		@ frame_needed = 0, uses_anonymous_args = 0
 171              	.LVL14:
ARM GAS  /tmp/cc3fAvgj.s 			page 4


 172              	.LBB48:
 173              		.loc 1 167 0
 174 0000 2023     		movs	r3, #32
 175              		.syntax unified
 176              	@ 167 "../../os/kernel/src/chsem.c" 1
 177 0002 83F31188 		msr     BASEPRI, r3
 178              	@ 0 "" 2
 179              	.LVL15:
 180              		.thumb
 181              		.syntax unified
 182              	.LBE48:
 183              	.LBB49:
 184              	.LBB50:
 185              		.loc 1 194 0
 186 0006 8368     		ldr	r3, [r0, #8]
 187 0008 013B     		subs	r3, r3, #1
 188 000a 002B     		cmp	r3, #0
 189 000c 8360     		str	r3, [r0, #8]
 190 000e 04DB     		blt	.L16
 191              		.loc 1 200 0
 192 0010 0020     		movs	r0, #0
 193              	.LVL16:
 194              	.LBE50:
 195              	.LBE49:
 196              	.LBB58:
 197              		.loc 1 169 0
 198 0012 0023     		movs	r3, #0
 199              		.syntax unified
 200              	@ 169 "../../os/kernel/src/chsem.c" 1
 201 0014 83F31188 		msr     BASEPRI, r3
 202              	@ 0 "" 2
 203              		.thumb
 204              		.syntax unified
 205              	.LBE58:
 206              		.loc 1 171 0
 207 0018 7047     		bx	lr
 208              	.LVL17:
 209              	.L16:
 210              		.loc 1 164 0
 211 001a 10B5     		push	{r4, lr}
 212              		.cfi_def_cfa_offset 8
 213              		.cfi_offset 4, -8
 214              		.cfi_offset 14, -4
 215              	.LBB59:
 216              	.LBB57:
 217              	.LBB51:
 218              	.LBB52:
 219              		.loc 1 195 0
 220 001c 084C     		ldr	r4, .L17
 221 001e A269     		ldr	r2, [r4, #24]
 222 0020 5062     		str	r0, [r2, #36]
 223              	.LBB53:
 224              	.LBB54:
 225              		.loc 2 55 0
 226 0022 4168     		ldr	r1, [r0, #4]
 227 0024 5160     		str	r1, [r2, #4]
 228 0026 0346     		mov	r3, r0
ARM GAS  /tmp/cc3fAvgj.s 			page 5


 229              	.LVL18:
 230              		.loc 2 54 0
 231 0028 1060     		str	r0, [r2]
 232              		.loc 2 56 0
 233 002a 5A60     		str	r2, [r3, #4]
 234              	.LBE54:
 235              	.LBE53:
 236              		.loc 1 197 0
 237 002c 0320     		movs	r0, #3
 238              	.LVL19:
 239              	.LBB56:
 240              	.LBB55:
 241              		.loc 2 56 0
 242 002e 0A60     		str	r2, [r1]
 243              	.LVL20:
 244              	.LBE55:
 245              	.LBE56:
 246              		.loc 1 197 0
 247 0030 FFF7FEFF 		bl	chSchGoSleepS
 248              	.LVL21:
 249              		.loc 1 198 0
 250 0034 A369     		ldr	r3, [r4, #24]
 251 0036 586A     		ldr	r0, [r3, #36]
 252              	.LVL22:
 253              	.LBE52:
 254              	.LBE51:
 255              	.LBE57:
 256              	.LBE59:
 257              	.LBB60:
 258              		.loc 1 169 0
 259 0038 0023     		movs	r3, #0
 260              		.syntax unified
 261              	@ 169 "../../os/kernel/src/chsem.c" 1
 262 003a 83F31188 		msr     BASEPRI, r3
 263              	@ 0 "" 2
 264              		.thumb
 265              		.syntax unified
 266              	.LBE60:
 267              		.loc 1 171 0
 268 003e 10BD     		pop	{r4, pc}
 269              	.L18:
 270              		.align	2
 271              	.L17:
 272 0040 00000000 		.word	rlist
 273              		.cfi_endproc
 274              	.LFE10:
 275              		.size	chSemWait, .-chSemWait
 276              		.section	.text.chSemWaitS,"ax",%progbits
 277              		.align	2
 278              		.p2align 4,,15
 279              		.global	chSemWaitS
 280              		.thumb
 281              		.thumb_func
 282              		.type	chSemWaitS, %function
 283              	chSemWaitS:
 284              	.LFB11:
 285              		.loc 1 185 0
ARM GAS  /tmp/cc3fAvgj.s 			page 6


 286              		.cfi_startproc
 287              		@ args = 0, pretend = 0, frame = 0
 288              		@ frame_needed = 0, uses_anonymous_args = 0
 289              	.LVL23:
 290              		.loc 1 194 0
 291 0000 8368     		ldr	r3, [r0, #8]
 292 0002 013B     		subs	r3, r3, #1
 293 0004 002B     		cmp	r3, #0
 294 0006 8360     		str	r3, [r0, #8]
 295 0008 01DB     		blt	.L24
 296              		.loc 1 200 0
 297 000a 0020     		movs	r0, #0
 298              	.LVL24:
 299 000c 7047     		bx	lr
 300              	.LVL25:
 301              	.L24:
 302              		.loc 1 185 0
 303 000e 10B5     		push	{r4, lr}
 304              		.cfi_def_cfa_offset 8
 305              		.cfi_offset 4, -8
 306              		.cfi_offset 14, -4
 307              	.LBB65:
 308              	.LBB66:
 309              		.loc 1 195 0
 310 0010 074C     		ldr	r4, .L25
 311 0012 A269     		ldr	r2, [r4, #24]
 312 0014 5062     		str	r0, [r2, #36]
 313              	.LBB67:
 314              	.LBB68:
 315              		.loc 2 55 0
 316 0016 4168     		ldr	r1, [r0, #4]
 317 0018 5160     		str	r1, [r2, #4]
 318 001a 0346     		mov	r3, r0
 319              	.LVL26:
 320              		.loc 2 54 0
 321 001c 1060     		str	r0, [r2]
 322              		.loc 2 56 0
 323 001e 5A60     		str	r2, [r3, #4]
 324              	.LBE68:
 325              	.LBE67:
 326              		.loc 1 197 0
 327 0020 0320     		movs	r0, #3
 328              	.LVL27:
 329              	.LBB70:
 330              	.LBB69:
 331              		.loc 2 56 0
 332 0022 0A60     		str	r2, [r1]
 333              	.LVL28:
 334              	.LBE69:
 335              	.LBE70:
 336              		.loc 1 197 0
 337 0024 FFF7FEFF 		bl	chSchGoSleepS
 338              	.LVL29:
 339              		.loc 1 198 0
 340 0028 A369     		ldr	r3, [r4, #24]
 341 002a 586A     		ldr	r0, [r3, #36]
 342              	.LVL30:
ARM GAS  /tmp/cc3fAvgj.s 			page 7


 343 002c 10BD     		pop	{r4, pc}
 344              	.L26:
 345 002e 00BF     		.align	2
 346              	.L25:
 347 0030 00000000 		.word	rlist
 348              	.LBE66:
 349              	.LBE65:
 350              		.cfi_endproc
 351              	.LFE11:
 352              		.size	chSemWaitS, .-chSemWaitS
 353              		.section	.text.chSemWaitTimeout,"ax",%progbits
 354              		.align	2
 355              		.p2align 4,,15
 356              		.global	chSemWaitTimeout
 357              		.thumb
 358              		.thumb_func
 359              		.type	chSemWaitTimeout, %function
 360              	chSemWaitTimeout:
 361              	.LFB12:
 362              		.loc 1 222 0
 363              		.cfi_startproc
 364              		@ args = 0, pretend = 0, frame = 0
 365              		@ frame_needed = 0, uses_anonymous_args = 0
 366              	.LVL31:
 367              	.LBB79:
 368              		.loc 1 225 0
 369 0000 2023     		movs	r3, #32
 370              		.syntax unified
 371              	@ 225 "../../os/kernel/src/chsem.c" 1
 372 0002 83F31188 		msr     BASEPRI, r3
 373              	@ 0 "" 2
 374              	.LVL32:
 375              		.thumb
 376              		.syntax unified
 377              	.LBE79:
 378              	.LBB80:
 379              	.LBB81:
 380              		.loc 1 254 0
 381 0006 8268     		ldr	r2, [r0, #8]
 382              		.loc 1 259 0
 383 0008 531E     		subs	r3, r2, #1
 384 000a 002B     		cmp	r3, #0
 385 000c 8360     		str	r3, [r0, #8]
 386 000e 04DB     		blt	.L33
 387              		.loc 1 268 0
 388 0010 0020     		movs	r0, #0
 389              	.LVL33:
 390              	.LBE81:
 391              	.LBE80:
 392              	.LBB90:
 393              		.loc 1 227 0
 394 0012 0023     		movs	r3, #0
 395              		.syntax unified
 396              	@ 227 "../../os/kernel/src/chsem.c" 1
 397 0014 83F31188 		msr     BASEPRI, r3
 398              	@ 0 "" 2
 399              		.thumb
ARM GAS  /tmp/cc3fAvgj.s 			page 8


 400              		.syntax unified
 401              	.LBE90:
 402              		.loc 1 229 0
 403 0018 7047     		bx	lr
 404              	.LVL34:
 405              	.L33:
 406              		.loc 1 222 0
 407 001a 10B5     		push	{r4, lr}
 408              		.cfi_def_cfa_offset 8
 409              		.cfi_offset 4, -8
 410              		.cfi_offset 14, -4
 411              	.LBB91:
 412              	.LBB88:
 413              		.loc 1 260 0
 414 001c 79B1     		cbz	r1, .L34
 415              	.LBB82:
 416              	.LBB83:
 417              		.loc 1 264 0
 418 001e 0A4A     		ldr	r2, .L35
 419 0020 9269     		ldr	r2, [r2, #24]
 420 0022 5062     		str	r0, [r2, #36]
 421              	.LBB84:
 422              	.LBB85:
 423              		.loc 2 55 0
 424 0024 4468     		ldr	r4, [r0, #4]
 425 0026 0346     		mov	r3, r0
 426              	.LVL35:
 427 0028 82E81800 		stmia	r2, {r3, r4}
 428              	.LBE85:
 429              	.LBE84:
 430              		.loc 1 266 0
 431 002c 0320     		movs	r0, #3
 432              	.LVL36:
 433              	.LBB87:
 434              	.LBB86:
 435              		.loc 2 56 0
 436 002e 5A60     		str	r2, [r3, #4]
 437 0030 2260     		str	r2, [r4]
 438              	.LVL37:
 439              	.LBE86:
 440              	.LBE87:
 441              		.loc 1 266 0
 442 0032 FFF7FEFF 		bl	chSchGoSleepTimeoutS
 443              	.LVL38:
 444              	.L28:
 445              	.LBE83:
 446              	.LBE82:
 447              	.LBE88:
 448              	.LBE91:
 449              	.LBB92:
 450              		.loc 1 227 0
 451 0036 0023     		movs	r3, #0
 452              		.syntax unified
 453              	@ 227 "../../os/kernel/src/chsem.c" 1
 454 0038 83F31188 		msr     BASEPRI, r3
 455              	@ 0 "" 2
 456              		.thumb
ARM GAS  /tmp/cc3fAvgj.s 			page 9


 457              		.syntax unified
 458              	.LBE92:
 459              		.loc 1 229 0
 460 003c 10BD     		pop	{r4, pc}
 461              	.LVL39:
 462              	.L34:
 463              	.LBB93:
 464              	.LBB89:
 465              		.loc 1 261 0
 466 003e 8260     		str	r2, [r0, #8]
 467              		.loc 1 262 0
 468 0040 4FF0FF30 		mov	r0, #-1
 469              	.LVL40:
 470 0044 F7E7     		b	.L28
 471              	.L36:
 472 0046 00BF     		.align	2
 473              	.L35:
 474 0048 00000000 		.word	rlist
 475              	.LBE89:
 476              	.LBE93:
 477              		.cfi_endproc
 478              	.LFE12:
 479              		.size	chSemWaitTimeout, .-chSemWaitTimeout
 480              		.section	.text.chSemWaitTimeoutS,"ax",%progbits
 481              		.align	2
 482              		.p2align 4,,15
 483              		.global	chSemWaitTimeoutS
 484              		.thumb
 485              		.thumb_func
 486              		.type	chSemWaitTimeoutS, %function
 487              	chSemWaitTimeoutS:
 488              	.LFB13:
 489              		.loc 1 250 0
 490              		.cfi_startproc
 491              		@ args = 0, pretend = 0, frame = 0
 492              		@ frame_needed = 0, uses_anonymous_args = 0
 493              		@ link register save eliminated.
 494              	.LVL41:
 495 0000 0346     		mov	r3, r0
 496              		.loc 1 254 0
 497 0002 8068     		ldr	r0, [r0, #8]
 498              	.LVL42:
 499              		.loc 1 259 0
 500 0004 421E     		subs	r2, r0, #1
 501 0006 002A     		cmp	r2, #0
 502 0008 9A60     		str	r2, [r3, #8]
 503 000a 01DB     		blt	.L43
 504              		.loc 1 268 0
 505 000c 0020     		movs	r0, #0
 506 000e 7047     		bx	lr
 507              	.L43:
 508              		.loc 1 250 0
 509 0010 10B4     		push	{r4}
 510              		.cfi_def_cfa_offset 4
 511              		.cfi_offset 4, -4
 512              		.loc 1 260 0
 513 0012 59B1     		cbz	r1, .L44
ARM GAS  /tmp/cc3fAvgj.s 			page 10


 514              	.LVL43:
 515              	.LBB98:
 516              	.LBB99:
 517              		.loc 1 264 0
 518 0014 084A     		ldr	r2, .L45
 519 0016 9269     		ldr	r2, [r2, #24]
 520 0018 5362     		str	r3, [r2, #36]
 521              	.LVL44:
 522              	.LBB100:
 523              	.LBB101:
 524              		.loc 2 55 0
 525 001a 5C68     		ldr	r4, [r3, #4]
 526              	.LBE101:
 527              	.LBE100:
 528              		.loc 1 266 0
 529 001c 0320     		movs	r0, #3
 530              	.LBB103:
 531              	.LBB102:
 532              		.loc 2 55 0
 533 001e 82E81800 		stmia	r2, {r3, r4}
 534              		.loc 2 56 0
 535 0022 5A60     		str	r2, [r3, #4]
 536 0024 2260     		str	r2, [r4]
 537              	.LVL45:
 538              	.LBE102:
 539              	.LBE103:
 540              	.LBE99:
 541              	.LBE98:
 542              		.loc 1 269 0
 543 0026 10BC     		pop	{r4}
 544              		.cfi_remember_state
 545              		.cfi_restore 4
 546              		.cfi_def_cfa_offset 0
 547              	.LBB105:
 548              	.LBB104:
 549              		.loc 1 266 0
 550 0028 FFF7FEBF 		b	chSchGoSleepTimeoutS
 551              	.LVL46:
 552              	.L44:
 553              		.cfi_restore_state
 554              	.LBE104:
 555              	.LBE105:
 556              		.loc 1 261 0
 557 002c 9860     		str	r0, [r3, #8]
 558              		.loc 1 269 0
 559 002e 10BC     		pop	{r4}
 560              		.cfi_restore 4
 561              		.cfi_def_cfa_offset 0
 562              		.loc 1 262 0
 563 0030 4FF0FF30 		mov	r0, #-1
 564              		.loc 1 269 0
 565 0034 7047     		bx	lr
 566              	.L46:
 567 0036 00BF     		.align	2
 568              	.L45:
 569 0038 00000000 		.word	rlist
 570              		.cfi_endproc
ARM GAS  /tmp/cc3fAvgj.s 			page 11


 571              	.LFE13:
 572              		.size	chSemWaitTimeoutS, .-chSemWaitTimeoutS
 573              		.section	.text.chSemSignal,"ax",%progbits
 574              		.align	2
 575              		.p2align 4,,15
 576              		.global	chSemSignal
 577              		.thumb
 578              		.thumb_func
 579              		.type	chSemSignal, %function
 580              	chSemSignal:
 581              	.LFB14:
 582              		.loc 1 278 0
 583              		.cfi_startproc
 584              		@ args = 0, pretend = 0, frame = 0
 585              		@ frame_needed = 0, uses_anonymous_args = 0
 586              	.LVL47:
 587 0000 08B5     		push	{r3, lr}
 588              		.cfi_def_cfa_offset 8
 589              		.cfi_offset 3, -8
 590              		.cfi_offset 14, -4
 591              	.LBB106:
 592              		.loc 1 286 0
 593 0002 2023     		movs	r3, #32
 594              		.syntax unified
 595              	@ 286 "../../os/kernel/src/chsem.c" 1
 596 0004 83F31188 		msr     BASEPRI, r3
 597              	@ 0 "" 2
 598              		.thumb
 599              		.syntax unified
 600              	.LBE106:
 601              		.loc 1 287 0
 602 0008 8368     		ldr	r3, [r0, #8]
 603 000a 0133     		adds	r3, r3, #1
 604 000c 002B     		cmp	r3, #0
 605 000e 8360     		str	r3, [r0, #8]
 606 0010 03DD     		ble	.L50
 607              	.LBB107:
 608              		.loc 1 289 0
 609 0012 0023     		movs	r3, #0
 610              		.syntax unified
 611              	@ 289 "../../os/kernel/src/chsem.c" 1
 612 0014 83F31188 		msr     BASEPRI, r3
 613              	@ 0 "" 2
 614              		.thumb
 615              		.syntax unified
 616 0018 08BD     		pop	{r3, pc}
 617              	.L50:
 618 001a 0346     		mov	r3, r0
 619              	.LVL48:
 620              	.LBE107:
 621              	.LBB108:
 622              	.LBB109:
 623              		.loc 2 60 0
 624 001c 0068     		ldr	r0, [r0]
 625              	.LVL49:
 626              		.loc 2 62 0
 627 001e 0268     		ldr	r2, [r0]
ARM GAS  /tmp/cc3fAvgj.s 			page 12


 628 0020 1A60     		str	r2, [r3]
 629              	.LBE109:
 630              	.LBE108:
 631              		.loc 1 288 0
 632 0022 0021     		movs	r1, #0
 633              	.LBB111:
 634              	.LBB110:
 635              		.loc 2 62 0
 636 0024 5360     		str	r3, [r2, #4]
 637              	.LVL50:
 638              	.LBE110:
 639              	.LBE111:
 640              		.loc 1 288 0
 641 0026 FFF7FEFF 		bl	chSchWakeupS
 642              	.LVL51:
 643              	.LBB112:
 644              		.loc 1 289 0
 645 002a 0023     		movs	r3, #0
 646              		.syntax unified
 647              	@ 289 "../../os/kernel/src/chsem.c" 1
 648 002c 83F31188 		msr     BASEPRI, r3
 649              	@ 0 "" 2
 650              		.thumb
 651              		.syntax unified
 652 0030 08BD     		pop	{r3, pc}
 653              	.LBE112:
 654              		.cfi_endproc
 655              	.LFE14:
 656              		.size	chSemSignal, .-chSemSignal
 657 0032 00BF     		.section	.text.chSemSignalI,"ax",%progbits
 658              		.align	2
 659              		.p2align 4,,15
 660              		.global	chSemSignalI
 661              		.thumb
 662              		.thumb_func
 663              		.type	chSemSignalI, %function
 664              	chSemSignalI:
 665              	.LFB15:
 666              		.loc 1 303 0
 667              		.cfi_startproc
 668              		@ args = 0, pretend = 0, frame = 0
 669              		@ frame_needed = 0, uses_anonymous_args = 0
 670              		@ link register save eliminated.
 671              	.LVL52:
 672              		.loc 1 312 0
 673 0000 8368     		ldr	r3, [r0, #8]
 674 0002 0133     		adds	r3, r3, #1
 675 0004 002B     		cmp	r3, #0
 676 0006 8360     		str	r3, [r0, #8]
 677 0008 00DD     		ble	.L53
 678 000a 7047     		bx	lr
 679              	.L53:
 680              	.LVL53:
 681              	.LBB113:
 682              	.LBB114:
 683              	.LBB115:
 684              		.loc 2 60 0
ARM GAS  /tmp/cc3fAvgj.s 			page 13


 685 000c 0368     		ldr	r3, [r0]
 686              	.LVL54:
 687              		.loc 2 62 0
 688 000e 1A68     		ldr	r2, [r3]
 689 0010 0260     		str	r2, [r0]
 690              	.LBE115:
 691              	.LBE114:
 692              		.loc 1 316 0
 693 0012 0021     		movs	r1, #0
 694              	.LBB117:
 695              	.LBB116:
 696              		.loc 2 62 0
 697 0014 5060     		str	r0, [r2, #4]
 698              	.LVL55:
 699              	.LBE116:
 700              	.LBE117:
 701              		.loc 1 317 0
 702 0016 1846     		mov	r0, r3
 703              	.LVL56:
 704              		.loc 1 316 0
 705 0018 5962     		str	r1, [r3, #36]
 706              	.LVL57:
 707              		.loc 1 317 0
 708 001a FFF7FEBF 		b	chSchReadyI
 709              	.LVL58:
 710              	.LBE113:
 711              		.cfi_endproc
 712              	.LFE15:
 713              		.size	chSemSignalI, .-chSemSignalI
 714 001e 00BF     		.section	.text.chSemAddCounterI,"ax",%progbits
 715              		.align	2
 716              		.p2align 4,,15
 717              		.global	chSemAddCounterI
 718              		.thumb
 719              		.thumb_func
 720              		.type	chSemAddCounterI, %function
 721              	chSemAddCounterI:
 722              	.LFB16:
 723              		.loc 1 334 0
 724              		.cfi_startproc
 725              		@ args = 0, pretend = 0, frame = 0
 726              		@ frame_needed = 0, uses_anonymous_args = 0
 727              	.LVL59:
 728 0000 70B5     		push	{r4, r5, r6, lr}
 729              		.cfi_def_cfa_offset 16
 730              		.cfi_offset 4, -16
 731              		.cfi_offset 5, -12
 732              		.cfi_offset 6, -8
 733              		.cfi_offset 14, -4
 734              		.loc 1 343 0
 735 0002 0C1E     		subs	r4, r1, #0
 736 0004 12DD     		ble	.L54
 737 0006 0546     		mov	r5, r0
 738              		.loc 1 345 0
 739 0008 0026     		movs	r6, #0
 740 000a 01E0     		b	.L57
 741              	.LVL60:
ARM GAS  /tmp/cc3fAvgj.s 			page 14


 742              	.L56:
 743              		.loc 1 343 0
 744 000c 013C     		subs	r4, r4, #1
 745              	.LVL61:
 746 000e 0DD0     		beq	.L54
 747              	.LVL62:
 748              	.L57:
 749              		.loc 1 344 0
 750 0010 AB68     		ldr	r3, [r5, #8]
 751 0012 0133     		adds	r3, r3, #1
 752 0014 002B     		cmp	r3, #0
 753 0016 AB60     		str	r3, [r5, #8]
 754 0018 F8DC     		bgt	.L56
 755              	.LVL63:
 756              	.LBB118:
 757              	.LBB119:
 758              		.loc 2 60 0
 759 001a 2868     		ldr	r0, [r5]
 760              	.LVL64:
 761              		.loc 2 62 0
 762 001c 0368     		ldr	r3, [r0]
 763 001e 2B60     		str	r3, [r5]
 764 0020 5D60     		str	r5, [r3, #4]
 765              	.LVL65:
 766              	.LBE119:
 767              	.LBE118:
 768              		.loc 1 345 0
 769 0022 FFF7FEFF 		bl	chSchReadyI
 770              	.LVL66:
 771              		.loc 1 343 0
 772 0026 013C     		subs	r4, r4, #1
 773              	.LVL67:
 774              		.loc 1 345 0
 775 0028 4662     		str	r6, [r0, #36]
 776              	.LVL68:
 777              		.loc 1 343 0
 778 002a F1D1     		bne	.L57
 779              	.LVL69:
 780              	.L54:
 781 002c 70BD     		pop	{r4, r5, r6, pc}
 782              		.cfi_endproc
 783              	.LFE16:
 784              		.size	chSemAddCounterI, .-chSemAddCounterI
 785 002e 00BF     		.section	.text.chSemSignalWait,"ax",%progbits
 786              		.align	2
 787              		.p2align 4,,15
 788              		.global	chSemSignalWait
 789              		.thumb
 790              		.thumb_func
 791              		.type	chSemSignalWait, %function
 792              	chSemSignalWait:
 793              	.LFB17:
 794              		.loc 1 366 0
 795              		.cfi_startproc
 796              		@ args = 0, pretend = 0, frame = 8
 797              		@ frame_needed = 0, uses_anonymous_args = 0
 798              	.LVL70:
ARM GAS  /tmp/cc3fAvgj.s 			page 15


 799 0000 10B5     		push	{r4, lr}
 800              		.cfi_def_cfa_offset 8
 801              		.cfi_offset 4, -8
 802              		.cfi_offset 14, -4
 803              	.LBB120:
 804              		.loc 1 379 0
 805 0002 2023     		movs	r3, #32
 806              	.LBE120:
 807              		.loc 1 366 0
 808 0004 82B0     		sub	sp, sp, #8
 809              		.cfi_def_cfa_offset 16
 810              	.LBB121:
 811              		.loc 1 379 0
 812              		.syntax unified
 813              	@ 379 "../../os/kernel/src/chsem.c" 1
 814 0006 83F31188 		msr     BASEPRI, r3
 815              	@ 0 "" 2
 816              		.thumb
 817              		.syntax unified
 818              	.LBE121:
 819              		.loc 1 380 0
 820 000a 8368     		ldr	r3, [r0, #8]
 821 000c 0133     		adds	r3, r3, #1
 822 000e 002B     		cmp	r3, #0
 823 0010 8360     		str	r3, [r0, #8]
 824 0012 1DDD     		ble	.L66
 825              	.LVL71:
 826              	.L62:
 827              		.loc 1 382 0
 828 0014 8B68     		ldr	r3, [r1, #8]
 829 0016 013B     		subs	r3, r3, #1
 830 0018 002B     		cmp	r3, #0
 831 001a 8B60     		str	r3, [r1, #8]
 832 001c 07DB     		blt	.L67
 833              		.loc 1 390 0
 834 001e FFF7FEFF 		bl	chSchRescheduleS
 835              	.LVL72:
 836              		.loc 1 391 0
 837 0022 0020     		movs	r0, #0
 838              	.LVL73:
 839              	.LBB122:
 840              		.loc 1 393 0
 841 0024 0023     		movs	r3, #0
 842              		.syntax unified
 843              	@ 393 "../../os/kernel/src/chsem.c" 1
 844 0026 83F31188 		msr     BASEPRI, r3
 845              	@ 0 "" 2
 846              		.thumb
 847              		.syntax unified
 848              	.LBE122:
 849              		.loc 1 395 0
 850 002a 02B0     		add	sp, sp, #8
 851              		.cfi_remember_state
 852              		.cfi_def_cfa_offset 8
 853              		@ sp needed
 854 002c 10BD     		pop	{r4, pc}
 855              	.LVL74:
ARM GAS  /tmp/cc3fAvgj.s 			page 16


 856              	.L67:
 857              		.cfi_restore_state
 858              	.LBB123:
 859              		.loc 1 383 0
 860 002e 0E4A     		ldr	r2, .L68
 861              	.LBB124:
 862              	.LBB125:
 863              		.loc 2 55 0
 864 0030 4B68     		ldr	r3, [r1, #4]
 865              	.LBE125:
 866              	.LBE124:
 867              		.loc 1 383 0
 868 0032 9469     		ldr	r4, [r2, #24]
 869              	.LVL75:
 870              		.loc 1 386 0
 871 0034 0320     		movs	r0, #3
 872              	.LBB127:
 873              	.LBB126:
 874              		.loc 2 55 0
 875 0036 84E80A00 		stmia	r4, {r1, r3}
 876              		.loc 2 56 0
 877 003a 4C60     		str	r4, [r1, #4]
 878 003c 1C60     		str	r4, [r3]
 879              	.LVL76:
 880              	.LBE126:
 881              	.LBE127:
 882              		.loc 1 385 0
 883 003e 6162     		str	r1, [r4, #36]
 884              		.loc 1 386 0
 885 0040 FFF7FEFF 		bl	chSchGoSleepS
 886              	.LVL77:
 887              		.loc 1 387 0
 888 0044 606A     		ldr	r0, [r4, #36]
 889              	.LVL78:
 890              	.LBE123:
 891              	.LBB128:
 892              		.loc 1 393 0
 893 0046 0023     		movs	r3, #0
 894              		.syntax unified
 895              	@ 393 "../../os/kernel/src/chsem.c" 1
 896 0048 83F31188 		msr     BASEPRI, r3
 897              	@ 0 "" 2
 898              		.thumb
 899              		.syntax unified
 900              	.LBE128:
 901              		.loc 1 395 0
 902 004c 02B0     		add	sp, sp, #8
 903              		.cfi_remember_state
 904              		.cfi_def_cfa_offset 8
 905              		@ sp needed
 906 004e 10BD     		pop	{r4, pc}
 907              	.LVL79:
 908              	.L66:
 909              		.cfi_restore_state
 910 0050 0246     		mov	r2, r0
 911              	.LBB129:
 912              	.LBB130:
ARM GAS  /tmp/cc3fAvgj.s 			page 17


 913              		.loc 2 60 0
 914 0052 0068     		ldr	r0, [r0]
 915              	.LVL80:
 916 0054 0191     		str	r1, [sp, #4]
 917              	.LVL81:
 918              		.loc 2 62 0
 919 0056 0368     		ldr	r3, [r0]
 920 0058 1360     		str	r3, [r2]
 921 005a 5A60     		str	r2, [r3, #4]
 922              	.LVL82:
 923              	.LBE130:
 924              	.LBE129:
 925              		.loc 1 381 0
 926 005c FFF7FEFF 		bl	chSchReadyI
 927              	.LVL83:
 928 0060 0023     		movs	r3, #0
 929 0062 4362     		str	r3, [r0, #36]
 930 0064 0199     		ldr	r1, [sp, #4]
 931 0066 D5E7     		b	.L62
 932              	.L69:
 933              		.align	2
 934              	.L68:
 935 0068 00000000 		.word	rlist
 936              		.cfi_endproc
 937              	.LFE17:
 938              		.size	chSemSignalWait, .-chSemSignalWait
 939              		.text
 940              	.Letext0:
 941              		.file 3 "/home/lithium/Descargas/gcc-arm-none-eabi-5_3-2016q1/arm-none-eabi/include/machine/_defau
 942              		.file 4 "/home/lithium/Descargas/gcc-arm-none-eabi-5_3-2016q1/arm-none-eabi/include/sys/_stdint.h"
 943              		.file 5 "../../os/ports/GCC/ARMCMx/chtypes.h"
 944              		.file 6 "../../os/kernel/include/chlists.h"
 945              		.file 7 "../../os/kernel/include/chthreads.h"
 946              		.file 8 "../../os/ports/GCC/ARMCMx/chcore_v7m.h"
 947              		.file 9 "../../os/kernel/include/chschd.h"
 948              		.file 10 "../../os/kernel/include/chsem.h"
 949              		.file 11 "../../os/kernel/include/chmtx.h"