ARM GAS  /tmp/cc4UM9jO.s 			page 1


   1              		.syntax unified
   2              		.cpu cortex-m4
   3              		.fpu softvfp
   4              		.eabi_attribute 20, 1
   5              		.eabi_attribute 21, 1
   6              		.eabi_attribute 23, 3
   7              		.eabi_attribute 24, 1
   8              		.eabi_attribute 25, 1
   9              		.eabi_attribute 26, 1
  10              		.eabi_attribute 30, 2
  11              		.eabi_attribute 34, 1
  12              		.eabi_attribute 18, 4
  13              		.thumb
  14              		.syntax unified
  15              		.file	"pal.c"
  16              		.text
  17              	.Ltext0:
  18              		.cfi_sections	.debug_frame
  19              		.section	.text.palReadBus,"ax",%progbits
  20              		.align	2
  21              		.p2align 4,,15
  22              		.global	palReadBus
  23              		.thumb
  24              		.thumb_func
  25              		.type	palReadBus, %function
  26              	palReadBus:
  27              	.LFB118:
  28              		.file 1 "../../os/hal/src/pal.c"
  29              		.loc 1 77 0
  30              		.cfi_startproc
  31              		@ args = 0, pretend = 0, frame = 0
  32              		@ frame_needed = 0, uses_anonymous_args = 0
  33              		@ link register save eliminated.
  34              	.LVL0:
  35              		.loc 1 82 0
  36 0000 0368     		ldr	r3, [r0]
  37 0002 8268     		ldr	r2, [r0, #8]
  38 0004 1B69     		ldr	r3, [r3, #16]
  39 0006 4068     		ldr	r0, [r0, #4]
  40              	.LVL1:
  41 0008 D340     		lsrs	r3, r3, r2
  42              		.loc 1 83 0
  43 000a 1840     		ands	r0, r0, r3
  44 000c 7047     		bx	lr
  45              		.cfi_endproc
  46              	.LFE118:
  47              		.size	palReadBus, .-palReadBus
  48 000e 00BF     		.section	.text.palWriteBus,"ax",%progbits
  49              		.align	2
  50              		.p2align 4,,15
  51              		.global	palWriteBus
  52              		.thumb
  53              		.thumb_func
  54              		.type	palWriteBus, %function
  55              	palWriteBus:
  56              	.LFB119:
  57              		.loc 1 103 0
ARM GAS  /tmp/cc4UM9jO.s 			page 2


  58              		.cfi_startproc
  59              		@ args = 0, pretend = 0, frame = 0
  60              		@ frame_needed = 0, uses_anonymous_args = 0
  61              		@ link register save eliminated.
  62              	.LVL2:
  63 0000 10B4     		push	{r4}
  64              		.cfi_def_cfa_offset 4
  65              		.cfi_offset 4, -4
  66              		.loc 1 108 0
  67 0002 19C8     		ldmia	r0, {r0, r3, r4}
  68              	.LVL3:
  69 0004 23EA0102 		bic	r2, r3, r1
  70 0008 1940     		ands	r1, r1, r3
  71              	.LVL4:
  72 000a 04F11003 		add	r3, r4, #16
  73 000e A140     		lsls	r1, r1, r4
  74 0010 02FA03F3 		lsl	r3, r2, r3
  75 0014 0B43     		orrs	r3, r3, r1
  76 0016 8361     		str	r3, [r0, #24]
  77              		.loc 1 109 0
  78 0018 10BC     		pop	{r4}
  79              		.cfi_restore 4
  80              		.cfi_def_cfa_offset 0
  81 001a 7047     		bx	lr
  82              		.cfi_endproc
  83              	.LFE119:
  84              		.size	palWriteBus, .-palWriteBus
  85              		.section	.text.palSetBusMode,"ax",%progbits
  86              		.align	2
  87              		.p2align 4,,15
  88              		.global	palSetBusMode
  89              		.thumb
  90              		.thumb_func
  91              		.type	palSetBusMode, %function
  92              	palSetBusMode:
  93              	.LFB120:
  94              		.loc 1 127 0
  95              		.cfi_startproc
  96              		@ args = 0, pretend = 0, frame = 0
  97              		@ frame_needed = 0, uses_anonymous_args = 0
  98              		@ link register save eliminated.
  99              	.LVL5:
 100              		.loc 1 132 0
 101 0000 0A46     		mov	r2, r1
 102 0002 0BC8     		ldmia	r0, {r0, r1, r3}
 103              	.LVL6:
 104 0004 9940     		lsls	r1, r1, r3
 105 0006 FFF7FEBF 		b	_pal_lld_setgroupmode
 106              	.LVL7:
 107              		.cfi_endproc
 108              	.LFE120:
 109              		.size	palSetBusMode, .-palSetBusMode
 110 000a 00BF     		.text
 111              	.Letext0:
 112              		.file 2 "/home/lithium/Descargas/gcc-arm-none-eabi-5_3-2016q1/arm-none-eabi/include/machine/_defau
 113              		.file 3 "/home/lithium/Descargas/gcc-arm-none-eabi-5_3-2016q1/arm-none-eabi/include/sys/_stdint.h"
 114              		.file 4 "/home/lithium/Descargas/gcc-arm-none-eabi-5_3-2016q1/arm-none-eabi/include/stdint.h"
ARM GAS  /tmp/cc4UM9jO.s 			page 3


 115              		.file 5 "../../os/hal/platforms/STM32/GPIOv2/pal_lld.h"
 116              		.file 6 "../../os/hal/include/pal.h"
 117              		.file 7 "../../os/ports/common/ARMCMx/CMSIS/include/core_cm4.h"