ARM GAS  /tmp/ccKaodfh.s 			page 1


   1              		.syntax unified
   2              		.cpu cortex-m4
   3              		.fpu softvfp
   4              		.eabi_attribute 20, 1
   5              		.eabi_attribute 21, 1
   6              		.eabi_attribute 23, 3
   7              		.eabi_attribute 24, 1
   8              		.eabi_attribute 25, 1
   9              		.eabi_attribute 26, 1
  10              		.eabi_attribute 30, 2
  11              		.eabi_attribute 34, 1
  12              		.eabi_attribute 18, 4
  13              		.thumb
  14              		.syntax unified
  15              		.file	"spi.c"
  16              		.text
  17              	.Ltext0:
  18              		.cfi_sections	.debug_frame
  19              		.section	.text.spiInit,"ax",%progbits
  20              		.align	2
  21              		.p2align 4,,15
  22              		.global	spiInit
  23              		.thumb
  24              		.thumb_func
  25              		.type	spiInit, %function
  26              	spiInit:
  27              	.LFB118:
  28              		.file 1 "../../os/hal/src/spi.c"
  29              		.loc 1 68 0
  30              		.cfi_startproc
  31              		@ args = 0, pretend = 0, frame = 0
  32              		@ frame_needed = 0, uses_anonymous_args = 0
  33              		@ link register save eliminated.
  34              		.loc 1 70 0
  35 0000 FFF7FEBF 		b	spi_lld_init
  36              	.LVL0:
  37              		.cfi_endproc
  38              	.LFE118:
  39              		.size	spiInit, .-spiInit
  40              		.section	.text.spiObjectInit,"ax",%progbits
  41              		.align	2
  42              		.p2align 4,,15
  43              		.global	spiObjectInit
  44              		.thumb
  45              		.thumb_func
  46              		.type	spiObjectInit, %function
  47              	spiObjectInit:
  48              	.LFB119:
  49              		.loc 1 80 0
  50              		.cfi_startproc
  51              		@ args = 0, pretend = 0, frame = 0
  52              		@ frame_needed = 0, uses_anonymous_args = 0
  53              		@ link register save eliminated.
  54              	.LVL1:
  55              		.loc 1 83 0
  56 0000 0023     		movs	r3, #0
  57              		.loc 1 82 0
ARM GAS  /tmp/ccKaodfh.s 			page 2


  58 0002 0122     		movs	r2, #1
  59 0004 0270     		strb	r2, [r0]
  60              		.loc 1 83 0
  61 0006 4360     		str	r3, [r0, #4]
  62              		.loc 1 85 0
  63 0008 8360     		str	r3, [r0, #8]
  64              		.loc 1 89 0
  65 000a 0C30     		adds	r0, r0, #12
  66              	.LVL2:
  67 000c FFF7FEBF 		b	chMtxInit
  68              	.LVL3:
  69              		.cfi_endproc
  70              	.LFE119:
  71              		.size	spiObjectInit, .-spiObjectInit
  72              		.section	.text.spiStart,"ax",%progbits
  73              		.align	2
  74              		.p2align 4,,15
  75              		.global	spiStart
  76              		.thumb
  77              		.thumb_func
  78              		.type	spiStart, %function
  79              	spiStart:
  80              	.LFB120:
  81              		.loc 1 107 0
  82              		.cfi_startproc
  83              		@ args = 0, pretend = 0, frame = 0
  84              		@ frame_needed = 0, uses_anonymous_args = 0
  85              	.LVL4:
  86 0000 10B5     		push	{r4, lr}
  87              		.cfi_def_cfa_offset 8
  88              		.cfi_offset 4, -8
  89              		.cfi_offset 14, -4
  90              	.LBB2:
  91              		.loc 1 111 0
  92 0002 2023     		movs	r3, #32
  93              	.LBE2:
  94              		.loc 1 107 0
  95 0004 0446     		mov	r4, r0
  96              	.LBB3:
  97              		.loc 1 111 0
  98              		.syntax unified
  99              	@ 111 "../../os/hal/src/spi.c" 1
 100 0006 83F31188 		msr     BASEPRI, r3
 101              	@ 0 "" 2
 102              		.thumb
 103              		.syntax unified
 104              	.LBE3:
 105              		.loc 1 114 0
 106 000a 4160     		str	r1, [r0, #4]
 107              		.loc 1 115 0
 108 000c FFF7FEFF 		bl	spi_lld_start
 109              	.LVL5:
 110              		.loc 1 116 0
 111 0010 0223     		movs	r3, #2
 112 0012 2370     		strb	r3, [r4]
 113              	.LBB4:
 114              		.loc 1 117 0
ARM GAS  /tmp/ccKaodfh.s 			page 3


 115 0014 0023     		movs	r3, #0
 116              		.syntax unified
 117              	@ 117 "../../os/hal/src/spi.c" 1
 118 0016 83F31188 		msr     BASEPRI, r3
 119              	@ 0 "" 2
 120              		.thumb
 121              		.syntax unified
 122 001a 10BD     		pop	{r4, pc}
 123              	.LBE4:
 124              		.cfi_endproc
 125              	.LFE120:
 126              		.size	spiStart, .-spiStart
 127              		.section	.text.spiStop,"ax",%progbits
 128              		.align	2
 129              		.p2align 4,,15
 130              		.global	spiStop
 131              		.thumb
 132              		.thumb_func
 133              		.type	spiStop, %function
 134              	spiStop:
 135              	.LFB121:
 136              		.loc 1 129 0
 137              		.cfi_startproc
 138              		@ args = 0, pretend = 0, frame = 0
 139              		@ frame_needed = 0, uses_anonymous_args = 0
 140              	.LVL6:
 141 0000 10B5     		push	{r4, lr}
 142              		.cfi_def_cfa_offset 8
 143              		.cfi_offset 4, -8
 144              		.cfi_offset 14, -4
 145              	.LBB5:
 146              		.loc 1 133 0
 147 0002 2023     		movs	r3, #32
 148              	.LBE5:
 149              		.loc 1 129 0
 150 0004 0446     		mov	r4, r0
 151              	.LBB6:
 152              		.loc 1 133 0
 153              		.syntax unified
 154              	@ 133 "../../os/hal/src/spi.c" 1
 155 0006 83F31188 		msr     BASEPRI, r3
 156              	@ 0 "" 2
 157              		.thumb
 158              		.syntax unified
 159              	.LBE6:
 160              		.loc 1 136 0
 161 000a FFF7FEFF 		bl	spi_lld_unselect
 162              	.LVL7:
 163              		.loc 1 137 0
 164 000e 2046     		mov	r0, r4
 165 0010 FFF7FEFF 		bl	spi_lld_stop
 166              	.LVL8:
 167              		.loc 1 138 0
 168 0014 0123     		movs	r3, #1
 169 0016 2370     		strb	r3, [r4]
 170              	.LBB7:
 171              		.loc 1 139 0
ARM GAS  /tmp/ccKaodfh.s 			page 4


 172 0018 0023     		movs	r3, #0
 173              		.syntax unified
 174              	@ 139 "../../os/hal/src/spi.c" 1
 175 001a 83F31188 		msr     BASEPRI, r3
 176              	@ 0 "" 2
 177              		.thumb
 178              		.syntax unified
 179 001e 10BD     		pop	{r4, pc}
 180              	.LBE7:
 181              		.cfi_endproc
 182              	.LFE121:
 183              		.size	spiStop, .-spiStop
 184              		.section	.text.spiSelect,"ax",%progbits
 185              		.align	2
 186              		.p2align 4,,15
 187              		.global	spiSelect
 188              		.thumb
 189              		.thumb_func
 190              		.type	spiSelect, %function
 191              	spiSelect:
 192              	.LFB122:
 193              		.loc 1 149 0
 194              		.cfi_startproc
 195              		@ args = 0, pretend = 0, frame = 0
 196              		@ frame_needed = 0, uses_anonymous_args = 0
 197              	.LVL9:
 198 0000 08B5     		push	{r3, lr}
 199              		.cfi_def_cfa_offset 8
 200              		.cfi_offset 3, -8
 201              		.cfi_offset 14, -4
 202              	.LBB8:
 203              		.loc 1 153 0
 204 0002 2023     		movs	r3, #32
 205              		.syntax unified
 206              	@ 153 "../../os/hal/src/spi.c" 1
 207 0004 83F31188 		msr     BASEPRI, r3
 208              	@ 0 "" 2
 209              		.thumb
 210              		.syntax unified
 211              	.LBE8:
 212              		.loc 1 155 0
 213 0008 FFF7FEFF 		bl	spi_lld_select
 214              	.LVL10:
 215              	.LBB9:
 216              		.loc 1 156 0
 217 000c 0023     		movs	r3, #0
 218              		.syntax unified
 219              	@ 156 "../../os/hal/src/spi.c" 1
 220 000e 83F31188 		msr     BASEPRI, r3
 221              	@ 0 "" 2
 222              		.thumb
 223              		.syntax unified
 224 0012 08BD     		pop	{r3, pc}
 225              	.LBE9:
 226              		.cfi_endproc
 227              	.LFE122:
 228              		.size	spiSelect, .-spiSelect
ARM GAS  /tmp/ccKaodfh.s 			page 5


 229              		.section	.text.spiUnselect,"ax",%progbits
 230              		.align	2
 231              		.p2align 4,,15
 232              		.global	spiUnselect
 233              		.thumb
 234              		.thumb_func
 235              		.type	spiUnselect, %function
 236              	spiUnselect:
 237              	.LFB123:
 238              		.loc 1 167 0
 239              		.cfi_startproc
 240              		@ args = 0, pretend = 0, frame = 0
 241              		@ frame_needed = 0, uses_anonymous_args = 0
 242              	.LVL11:
 243 0000 08B5     		push	{r3, lr}
 244              		.cfi_def_cfa_offset 8
 245              		.cfi_offset 3, -8
 246              		.cfi_offset 14, -4
 247              	.LBB10:
 248              		.loc 1 171 0
 249 0002 2023     		movs	r3, #32
 250              		.syntax unified
 251              	@ 171 "../../os/hal/src/spi.c" 1
 252 0004 83F31188 		msr     BASEPRI, r3
 253              	@ 0 "" 2
 254              		.thumb
 255              		.syntax unified
 256              	.LBE10:
 257              		.loc 1 173 0
 258 0008 FFF7FEFF 		bl	spi_lld_unselect
 259              	.LVL12:
 260              	.LBB11:
 261              		.loc 1 174 0
 262 000c 0023     		movs	r3, #0
 263              		.syntax unified
 264              	@ 174 "../../os/hal/src/spi.c" 1
 265 000e 83F31188 		msr     BASEPRI, r3
 266              	@ 0 "" 2
 267              		.thumb
 268              		.syntax unified
 269 0012 08BD     		pop	{r3, pc}
 270              	.LBE11:
 271              		.cfi_endproc
 272              	.LFE123:
 273              		.size	spiUnselect, .-spiUnselect
 274              		.section	.text.spiStartIgnore,"ax",%progbits
 275              		.align	2
 276              		.p2align 4,,15
 277              		.global	spiStartIgnore
 278              		.thumb
 279              		.thumb_func
 280              		.type	spiStartIgnore, %function
 281              	spiStartIgnore:
 282              	.LFB124:
 283              		.loc 1 190 0
 284              		.cfi_startproc
 285              		@ args = 0, pretend = 0, frame = 0
ARM GAS  /tmp/ccKaodfh.s 			page 6


 286              		@ frame_needed = 0, uses_anonymous_args = 0
 287              	.LVL13:
 288 0000 08B5     		push	{r3, lr}
 289              		.cfi_def_cfa_offset 8
 290              		.cfi_offset 3, -8
 291              		.cfi_offset 14, -4
 292              	.LBB12:
 293              		.loc 1 194 0
 294 0002 2023     		movs	r3, #32
 295              		.syntax unified
 296              	@ 194 "../../os/hal/src/spi.c" 1
 297 0004 83F31188 		msr     BASEPRI, r3
 298              	@ 0 "" 2
 299              		.thumb
 300              		.syntax unified
 301              	.LBE12:
 302              		.loc 1 196 0
 303 0008 0323     		movs	r3, #3
 304 000a 0370     		strb	r3, [r0]
 305 000c FFF7FEFF 		bl	spi_lld_ignore
 306              	.LVL14:
 307              	.LBB13:
 308              		.loc 1 197 0
 309 0010 0023     		movs	r3, #0
 310              		.syntax unified
 311              	@ 197 "../../os/hal/src/spi.c" 1
 312 0012 83F31188 		msr     BASEPRI, r3
 313              	@ 0 "" 2
 314              		.thumb
 315              		.syntax unified
 316 0016 08BD     		pop	{r3, pc}
 317              	.LBE13:
 318              		.cfi_endproc
 319              	.LFE124:
 320              		.size	spiStartIgnore, .-spiStartIgnore
 321              		.section	.text.spiStartExchange,"ax",%progbits
 322              		.align	2
 323              		.p2align 4,,15
 324              		.global	spiStartExchange
 325              		.thumb
 326              		.thumb_func
 327              		.type	spiStartExchange, %function
 328              	spiStartExchange:
 329              	.LFB125:
 330              		.loc 1 218 0
 331              		.cfi_startproc
 332              		@ args = 0, pretend = 0, frame = 0
 333              		@ frame_needed = 0, uses_anonymous_args = 0
 334              	.LVL15:
 335 0000 70B5     		push	{r4, r5, r6, lr}
 336              		.cfi_def_cfa_offset 16
 337              		.cfi_offset 4, -16
 338              		.cfi_offset 5, -12
 339              		.cfi_offset 6, -8
 340              		.cfi_offset 14, -4
 341              		.loc 1 218 0
 342 0002 1E46     		mov	r6, r3
ARM GAS  /tmp/ccKaodfh.s 			page 7


 343              	.LBB14:
 344              		.loc 1 223 0
 345 0004 2023     		movs	r3, #32
 346              	.LVL16:
 347              		.syntax unified
 348              	@ 223 "../../os/hal/src/spi.c" 1
 349 0006 83F31188 		msr     BASEPRI, r3
 350              	@ 0 "" 2
 351              		.thumb
 352              		.syntax unified
 353              	.LBE14:
 354              		.loc 1 225 0
 355 000a 0325     		movs	r5, #3
 356 000c 3346     		mov	r3, r6
 357 000e 0570     		strb	r5, [r0]
 358 0010 FFF7FEFF 		bl	spi_lld_exchange
 359              	.LVL17:
 360              	.LBB15:
 361              		.loc 1 226 0
 362 0014 0023     		movs	r3, #0
 363              		.syntax unified
 364              	@ 226 "../../os/hal/src/spi.c" 1
 365 0016 83F31188 		msr     BASEPRI, r3
 366              	@ 0 "" 2
 367              		.thumb
 368              		.syntax unified
 369 001a 70BD     		pop	{r4, r5, r6, pc}
 370              	.LBE15:
 371              		.cfi_endproc
 372              	.LFE125:
 373              		.size	spiStartExchange, .-spiStartExchange
 374              		.section	.text.spiStartSend,"ax",%progbits
 375              		.align	2
 376              		.p2align 4,,15
 377              		.global	spiStartSend
 378              		.thumb
 379              		.thumb_func
 380              		.type	spiStartSend, %function
 381              	spiStartSend:
 382              	.LFB126:
 383              		.loc 1 244 0
 384              		.cfi_startproc
 385              		@ args = 0, pretend = 0, frame = 0
 386              		@ frame_needed = 0, uses_anonymous_args = 0
 387              	.LVL18:
 388 0000 10B5     		push	{r4, lr}
 389              		.cfi_def_cfa_offset 8
 390              		.cfi_offset 4, -8
 391              		.cfi_offset 14, -4
 392              	.LBB16:
 393              		.loc 1 249 0
 394 0002 2023     		movs	r3, #32
 395              		.syntax unified
 396              	@ 249 "../../os/hal/src/spi.c" 1
 397 0004 83F31188 		msr     BASEPRI, r3
 398              	@ 0 "" 2
 399              		.thumb
ARM GAS  /tmp/ccKaodfh.s 			page 8


 400              		.syntax unified
 401              	.LBE16:
 402              		.loc 1 251 0
 403 0008 0323     		movs	r3, #3
 404 000a 0370     		strb	r3, [r0]
 405 000c FFF7FEFF 		bl	spi_lld_send
 406              	.LVL19:
 407              	.LBB17:
 408              		.loc 1 252 0
 409 0010 0023     		movs	r3, #0
 410              		.syntax unified
 411              	@ 252 "../../os/hal/src/spi.c" 1
 412 0012 83F31188 		msr     BASEPRI, r3
 413              	@ 0 "" 2
 414              		.thumb
 415              		.syntax unified
 416 0016 10BD     		pop	{r4, pc}
 417              	.LBE17:
 418              		.cfi_endproc
 419              	.LFE126:
 420              		.size	spiStartSend, .-spiStartSend
 421              		.section	.text.spiStartReceive,"ax",%progbits
 422              		.align	2
 423              		.p2align 4,,15
 424              		.global	spiStartReceive
 425              		.thumb
 426              		.thumb_func
 427              		.type	spiStartReceive, %function
 428              	spiStartReceive:
 429              	.LFB127:
 430              		.loc 1 270 0
 431              		.cfi_startproc
 432              		@ args = 0, pretend = 0, frame = 0
 433              		@ frame_needed = 0, uses_anonymous_args = 0
 434              	.LVL20:
 435 0000 10B5     		push	{r4, lr}
 436              		.cfi_def_cfa_offset 8
 437              		.cfi_offset 4, -8
 438              		.cfi_offset 14, -4
 439              	.LBB18:
 440              		.loc 1 275 0
 441 0002 2023     		movs	r3, #32
 442              		.syntax unified
 443              	@ 275 "../../os/hal/src/spi.c" 1
 444 0004 83F31188 		msr     BASEPRI, r3
 445              	@ 0 "" 2
 446              		.thumb
 447              		.syntax unified
 448              	.LBE18:
 449              		.loc 1 277 0
 450 0008 0323     		movs	r3, #3
 451 000a 0370     		strb	r3, [r0]
 452 000c FFF7FEFF 		bl	spi_lld_receive
 453              	.LVL21:
 454              	.LBB19:
 455              		.loc 1 278 0
 456 0010 0023     		movs	r3, #0
ARM GAS  /tmp/ccKaodfh.s 			page 9


 457              		.syntax unified
 458              	@ 278 "../../os/hal/src/spi.c" 1
 459 0012 83F31188 		msr     BASEPRI, r3
 460              	@ 0 "" 2
 461              		.thumb
 462              		.syntax unified
 463 0016 10BD     		pop	{r4, pc}
 464              	.LBE19:
 465              		.cfi_endproc
 466              	.LFE127:
 467              		.size	spiStartReceive, .-spiStartReceive
 468              		.section	.text.spiIgnore,"ax",%progbits
 469              		.align	2
 470              		.p2align 4,,15
 471              		.global	spiIgnore
 472              		.thumb
 473              		.thumb_func
 474              		.type	spiIgnore, %function
 475              	spiIgnore:
 476              	.LFB128:
 477              		.loc 1 296 0
 478              		.cfi_startproc
 479              		@ args = 0, pretend = 0, frame = 0
 480              		@ frame_needed = 0, uses_anonymous_args = 0
 481              	.LVL22:
 482 0000 10B5     		push	{r4, lr}
 483              		.cfi_def_cfa_offset 8
 484              		.cfi_offset 4, -8
 485              		.cfi_offset 14, -4
 486              	.LBB20:
 487              		.loc 1 300 0
 488 0002 2023     		movs	r3, #32
 489              	.LBE20:
 490              		.loc 1 296 0
 491 0004 0446     		mov	r4, r0
 492              	.LBB21:
 493              		.loc 1 300 0
 494              		.syntax unified
 495              	@ 300 "../../os/hal/src/spi.c" 1
 496 0006 83F31188 		msr     BASEPRI, r3
 497              	@ 0 "" 2
 498              		.thumb
 499              		.syntax unified
 500              	.LBE21:
 501              		.loc 1 303 0
 502 000a 0323     		movs	r3, #3
 503 000c 0370     		strb	r3, [r0]
 504 000e FFF7FEFF 		bl	spi_lld_ignore
 505              	.LVL23:
 506              		.loc 1 304 0
 507 0012 054B     		ldr	r3, .L21
 508 0014 9B69     		ldr	r3, [r3, #24]
 509 0016 A360     		str	r3, [r4, #8]
 510 0018 0220     		movs	r0, #2
 511 001a FFF7FEFF 		bl	chSchGoSleepS
 512              	.LVL24:
 513              	.LBB22:
ARM GAS  /tmp/ccKaodfh.s 			page 10


 514              		.loc 1 305 0
 515 001e 0023     		movs	r3, #0
 516              		.syntax unified
 517              	@ 305 "../../os/hal/src/spi.c" 1
 518 0020 83F31188 		msr     BASEPRI, r3
 519              	@ 0 "" 2
 520              		.thumb
 521              		.syntax unified
 522 0024 10BD     		pop	{r4, pc}
 523              	.LVL25:
 524              	.L22:
 525 0026 00BF     		.align	2
 526              	.L21:
 527 0028 00000000 		.word	rlist
 528              	.LBE22:
 529              		.cfi_endproc
 530              	.LFE128:
 531              		.size	spiIgnore, .-spiIgnore
 532              		.section	.text.spiExchange,"ax",%progbits
 533              		.align	2
 534              		.p2align 4,,15
 535              		.global	spiExchange
 536              		.thumb
 537              		.thumb_func
 538              		.type	spiExchange, %function
 539              	spiExchange:
 540              	.LFB129:
 541              		.loc 1 327 0
 542              		.cfi_startproc
 543              		@ args = 0, pretend = 0, frame = 0
 544              		@ frame_needed = 0, uses_anonymous_args = 0
 545              	.LVL26:
 546 0000 70B5     		push	{r4, r5, r6, lr}
 547              		.cfi_def_cfa_offset 16
 548              		.cfi_offset 4, -16
 549              		.cfi_offset 5, -12
 550              		.cfi_offset 6, -8
 551              		.cfi_offset 14, -4
 552              		.loc 1 327 0
 553 0002 1E46     		mov	r6, r3
 554 0004 0446     		mov	r4, r0
 555              	.LBB23:
 556              		.loc 1 332 0
 557 0006 2023     		movs	r3, #32
 558              	.LVL27:
 559              		.syntax unified
 560              	@ 332 "../../os/hal/src/spi.c" 1
 561 0008 83F31188 		msr     BASEPRI, r3
 562              	@ 0 "" 2
 563              		.thumb
 564              		.syntax unified
 565              	.LBE23:
 566              		.loc 1 336 0
 567 000c 0325     		movs	r5, #3
 568 000e 3346     		mov	r3, r6
 569 0010 0570     		strb	r5, [r0]
 570 0012 FFF7FEFF 		bl	spi_lld_exchange
ARM GAS  /tmp/ccKaodfh.s 			page 11


 571              	.LVL28:
 572              		.loc 1 337 0
 573 0016 054B     		ldr	r3, .L25
 574 0018 9B69     		ldr	r3, [r3, #24]
 575 001a A360     		str	r3, [r4, #8]
 576 001c 0220     		movs	r0, #2
 577 001e FFF7FEFF 		bl	chSchGoSleepS
 578              	.LVL29:
 579              	.LBB24:
 580              		.loc 1 338 0
 581 0022 0023     		movs	r3, #0
 582              		.syntax unified
 583              	@ 338 "../../os/hal/src/spi.c" 1
 584 0024 83F31188 		msr     BASEPRI, r3
 585              	@ 0 "" 2
 586              		.thumb
 587              		.syntax unified
 588 0028 70BD     		pop	{r4, r5, r6, pc}
 589              	.LVL30:
 590              	.L26:
 591 002a 00BF     		.align	2
 592              	.L25:
 593 002c 00000000 		.word	rlist
 594              	.LBE24:
 595              		.cfi_endproc
 596              	.LFE129:
 597              		.size	spiExchange, .-spiExchange
 598              		.section	.text.spiSend,"ax",%progbits
 599              		.align	2
 600              		.p2align 4,,15
 601              		.global	spiSend
 602              		.thumb
 603              		.thumb_func
 604              		.type	spiSend, %function
 605              	spiSend:
 606              	.LFB130:
 607              		.loc 1 357 0
 608              		.cfi_startproc
 609              		@ args = 0, pretend = 0, frame = 0
 610              		@ frame_needed = 0, uses_anonymous_args = 0
 611              	.LVL31:
 612 0000 10B5     		push	{r4, lr}
 613              		.cfi_def_cfa_offset 8
 614              		.cfi_offset 4, -8
 615              		.cfi_offset 14, -4
 616              	.LBB25:
 617              		.loc 1 361 0
 618 0002 2023     		movs	r3, #32
 619              	.LBE25:
 620              		.loc 1 357 0
 621 0004 0446     		mov	r4, r0
 622              	.LBB26:
 623              		.loc 1 361 0
 624              		.syntax unified
 625              	@ 361 "../../os/hal/src/spi.c" 1
 626 0006 83F31188 		msr     BASEPRI, r3
 627              	@ 0 "" 2
ARM GAS  /tmp/ccKaodfh.s 			page 12


 628              		.thumb
 629              		.syntax unified
 630              	.LBE26:
 631              		.loc 1 364 0
 632 000a 0323     		movs	r3, #3
 633 000c 0370     		strb	r3, [r0]
 634 000e FFF7FEFF 		bl	spi_lld_send
 635              	.LVL32:
 636              		.loc 1 365 0
 637 0012 054B     		ldr	r3, .L29
 638 0014 9B69     		ldr	r3, [r3, #24]
 639 0016 A360     		str	r3, [r4, #8]
 640 0018 0220     		movs	r0, #2
 641 001a FFF7FEFF 		bl	chSchGoSleepS
 642              	.LVL33:
 643              	.LBB27:
 644              		.loc 1 366 0
 645 001e 0023     		movs	r3, #0
 646              		.syntax unified
 647              	@ 366 "../../os/hal/src/spi.c" 1
 648 0020 83F31188 		msr     BASEPRI, r3
 649              	@ 0 "" 2
 650              		.thumb
 651              		.syntax unified
 652 0024 10BD     		pop	{r4, pc}
 653              	.LVL34:
 654              	.L30:
 655 0026 00BF     		.align	2
 656              	.L29:
 657 0028 00000000 		.word	rlist
 658              	.LBE27:
 659              		.cfi_endproc
 660              	.LFE130:
 661              		.size	spiSend, .-spiSend
 662              		.section	.text.spiReceive,"ax",%progbits
 663              		.align	2
 664              		.p2align 4,,15
 665              		.global	spiReceive
 666              		.thumb
 667              		.thumb_func
 668              		.type	spiReceive, %function
 669              	spiReceive:
 670              	.LFB131:
 671              		.loc 1 385 0
 672              		.cfi_startproc
 673              		@ args = 0, pretend = 0, frame = 0
 674              		@ frame_needed = 0, uses_anonymous_args = 0
 675              	.LVL35:
 676 0000 10B5     		push	{r4, lr}
 677              		.cfi_def_cfa_offset 8
 678              		.cfi_offset 4, -8
 679              		.cfi_offset 14, -4
 680              	.LBB28:
 681              		.loc 1 390 0
 682 0002 2023     		movs	r3, #32
 683              	.LBE28:
 684              		.loc 1 385 0
ARM GAS  /tmp/ccKaodfh.s 			page 13


 685 0004 0446     		mov	r4, r0
 686              	.LBB29:
 687              		.loc 1 390 0
 688              		.syntax unified
 689              	@ 390 "../../os/hal/src/spi.c" 1
 690 0006 83F31188 		msr     BASEPRI, r3
 691              	@ 0 "" 2
 692              		.thumb
 693              		.syntax unified
 694              	.LBE29:
 695              		.loc 1 394 0
 696 000a 0323     		movs	r3, #3
 697 000c 0370     		strb	r3, [r0]
 698 000e FFF7FEFF 		bl	spi_lld_receive
 699              	.LVL36:
 700              		.loc 1 395 0
 701 0012 054B     		ldr	r3, .L33
 702 0014 9B69     		ldr	r3, [r3, #24]
 703 0016 A360     		str	r3, [r4, #8]
 704 0018 0220     		movs	r0, #2
 705 001a FFF7FEFF 		bl	chSchGoSleepS
 706              	.LVL37:
 707              	.LBB30:
 708              		.loc 1 396 0
 709 001e 0023     		movs	r3, #0
 710              		.syntax unified
 711              	@ 396 "../../os/hal/src/spi.c" 1
 712 0020 83F31188 		msr     BASEPRI, r3
 713              	@ 0 "" 2
 714              		.thumb
 715              		.syntax unified
 716 0024 10BD     		pop	{r4, pc}
 717              	.LVL38:
 718              	.L34:
 719 0026 00BF     		.align	2
 720              	.L33:
 721 0028 00000000 		.word	rlist
 722              	.LBE30:
 723              		.cfi_endproc
 724              	.LFE131:
 725              		.size	spiReceive, .-spiReceive
 726              		.section	.text.spiAcquireBus,"ax",%progbits
 727              		.align	2
 728              		.p2align 4,,15
 729              		.global	spiAcquireBus
 730              		.thumb
 731              		.thumb_func
 732              		.type	spiAcquireBus, %function
 733              	spiAcquireBus:
 734              	.LFB132:
 735              		.loc 1 412 0
 736              		.cfi_startproc
 737              		@ args = 0, pretend = 0, frame = 0
 738              		@ frame_needed = 0, uses_anonymous_args = 0
 739              		@ link register save eliminated.
 740              	.LVL39:
 741              		.loc 1 417 0
ARM GAS  /tmp/ccKaodfh.s 			page 14


 742 0000 0C30     		adds	r0, r0, #12
 743              	.LVL40:
 744 0002 FFF7FEBF 		b	chMtxLock
 745              	.LVL41:
 746              		.cfi_endproc
 747              	.LFE132:
 748              		.size	spiAcquireBus, .-spiAcquireBus
 749 0006 00BF     		.section	.text.spiReleaseBus,"ax",%progbits
 750              		.align	2
 751              		.p2align 4,,15
 752              		.global	spiReleaseBus
 753              		.thumb
 754              		.thumb_func
 755              		.type	spiReleaseBus, %function
 756              	spiReleaseBus:
 757              	.LFB133:
 758              		.loc 1 432 0
 759              		.cfi_startproc
 760              		@ args = 0, pretend = 0, frame = 0
 761              		@ frame_needed = 0, uses_anonymous_args = 0
 762              		@ link register save eliminated.
 763              	.LVL42:
 764              		.loc 1 438 0
 765 0000 FFF7FEBF 		b	chMtxUnlock
 766              	.LVL43:
 767              		.cfi_endproc
 768              	.LFE133:
 769              		.size	spiReleaseBus, .-spiReleaseBus
 770              		.text
 771              	.Letext0:
 772              		.file 2 "/home/lithium/Descargas/gcc-arm-none-eabi-5_3-2016q1/lib/gcc/arm-none-eabi/5.3.1/include/
 773              		.file 3 "/home/lithium/Descargas/gcc-arm-none-eabi-5_3-2016q1/arm-none-eabi/include/machine/_defau
 774              		.file 4 "/home/lithium/Descargas/gcc-arm-none-eabi-5_3-2016q1/arm-none-eabi/include/sys/_stdint.h"
 775              		.file 5 "../../os/ports/GCC/ARMCMx/chtypes.h"
 776              		.file 6 "../../os/kernel/include/chlists.h"
 777              		.file 7 "../../os/kernel/include/chthreads.h"
 778              		.file 8 "../../os/ports/GCC/ARMCMx/chcore_v7m.h"
 779              		.file 9 "../../os/kernel/include/chschd.h"
 780              		.file 10 "../../os/kernel/include/chmtx.h"
 781              		.file 11 "../../os/hal/platforms/STM32F4xx/stm32f4xx.h"
 782              		.file 12 "../../os/hal/platforms/STM32F4xx/stm32_dma.h"
 783              		.file 13 "../../os/hal/platforms/STM32/GPIOv2/pal_lld.h"
 784              		.file 14 "../../os/hal/include/spi.h"
 785              		.file 15 "../../os/hal/platforms/STM32/SPIv1/spi_lld.h"
 786              		.file 16 "../../os/ports/common/ARMCMx/CMSIS/include/core_cm4.h"