ARM GAS  /tmp/cc4jYxOo.s 			page 1


   1              		.syntax unified
   2              		.cpu cortex-m4
   3              		.fpu softvfp
   4              		.eabi_attribute 20, 1
   5              		.eabi_attribute 21, 1
   6              		.eabi_attribute 23, 3
   7              		.eabi_attribute 24, 1
   8              		.eabi_attribute 25, 1
   9              		.eabi_attribute 26, 1
  10              		.eabi_attribute 30, 2
  11              		.eabi_attribute 34, 1
  12              		.eabi_attribute 18, 4
  13              		.thumb
  14              		.syntax unified
  15              		.file	"spi_lld.c"
  16              		.text
  17              	.Ltext0:
  18              		.cfi_sections	.debug_frame
  19              		.section	.text.spi_lld_serve_tx_interrupt,"ax",%progbits
  20              		.align	2
  21              		.p2align 4,,15
  22              		.thumb
  23              		.thumb_func
  24              		.type	spi_lld_serve_tx_interrupt, %function
  25              	spi_lld_serve_tx_interrupt:
  26              	.LFB119:
  27              		.file 1 "../../os/hal/platforms/STM32/SPIv1/spi_lld.c"
  28              		.loc 1 159 0
  29              		.cfi_startproc
  30              		@ args = 0, pretend = 0, frame = 0
  31              		@ frame_needed = 0, uses_anonymous_args = 0
  32              		@ link register save eliminated.
  33              	.LVL0:
  34              		.loc 1 164 0
  35 0000 11F00C0F 		tst	r1, #12
  36 0004 00D1     		bne	.L4
  37 0006 7047     		bx	lr
  38              	.L4:
  39              		.loc 1 165 0
  40 0008 FFF7FEBF 		b	port_halt
  41              	.LVL1:
  42              		.cfi_endproc
  43              	.LFE119:
  44              		.size	spi_lld_serve_tx_interrupt, .-spi_lld_serve_tx_interrupt
  45              		.section	.text.spi_lld_serve_rx_interrupt,"ax",%progbits
  46              		.align	2
  47              		.p2align 4,,15
  48              		.thumb
  49              		.thumb_func
  50              		.type	spi_lld_serve_rx_interrupt, %function
  51              	spi_lld_serve_rx_interrupt:
  52              	.LFB118:
  53              		.loc 1 133 0
  54              		.cfi_startproc
  55              		@ args = 0, pretend = 0, frame = 0
  56              		@ frame_needed = 0, uses_anonymous_args = 0
  57              	.LVL2:
ARM GAS  /tmp/cc4jYxOo.s 			page 2


  58              		.loc 1 137 0
  59 0000 11F00C0F 		tst	r1, #12
  60              		.loc 1 133 0
  61 0004 38B5     		push	{r3, r4, r5, lr}
  62              		.cfi_def_cfa_offset 16
  63              		.cfi_offset 3, -16
  64              		.cfi_offset 4, -12
  65              		.cfi_offset 5, -8
  66              		.cfi_offset 14, -4
  67              		.loc 1 133 0
  68 0006 0446     		mov	r4, r0
  69              		.loc 1 137 0
  70 0008 37D1     		bne	.L24
  71              	.LVL3:
  72              	.L6:
  73              		.loc 1 145 0
  74 000a 606A     		ldr	r0, [r4, #36]
  75 000c 0268     		ldr	r2, [r0]
  76 000e 1368     		ldr	r3, [r2]
  77 0010 23F01F03 		bic	r3, r3, #31
  78 0014 1360     		str	r3, [r2]
  79              	.L7:
  80              		.loc 1 145 0 is_stmt 0 discriminator 2
  81 0016 1368     		ldr	r3, [r2]
  82 0018 D907     		lsls	r1, r3, #31
  83 001a FCD4     		bmi	.L7
  84              		.loc 1 145 0 discriminator 3
  85 001c 057A     		ldrb	r5, [r0, #8]	@ zero_extendqisi2
  86              		.loc 1 146 0 is_stmt 1 discriminator 3
  87 001e 216A     		ldr	r1, [r4, #32]
  88              		.loc 1 145 0 discriminator 3
  89 0020 4068     		ldr	r0, [r0, #4]
  90              		.loc 1 146 0 discriminator 3
  91 0022 0A68     		ldr	r2, [r1]
  92              		.loc 1 145 0 discriminator 3
  93 0024 3D23     		movs	r3, #61
  94 0026 AB40     		lsls	r3, r3, r5
  95 0028 0360     		str	r3, [r0]
  96              		.loc 1 146 0 discriminator 3
  97 002a 1368     		ldr	r3, [r2]
  98 002c 23F01F03 		bic	r3, r3, #31
  99 0030 1360     		str	r3, [r2]
 100              	.L8:
 101              		.loc 1 146 0 is_stmt 0 discriminator 2
 102 0032 1368     		ldr	r3, [r2]
 103 0034 DB07     		lsls	r3, r3, #31
 104 0036 FCD4     		bmi	.L8
 105              		.loc 1 150 0 is_stmt 1 discriminator 3
 106 0038 6368     		ldr	r3, [r4, #4]
 107              		.loc 1 146 0 discriminator 3
 108 003a 087A     		ldrb	r0, [r1, #8]	@ zero_extendqisi2
 109              		.loc 1 150 0 discriminator 3
 110 003c 1A68     		ldr	r2, [r3]
 111              		.loc 1 146 0 discriminator 3
 112 003e 4968     		ldr	r1, [r1, #4]
 113 0040 3D23     		movs	r3, #61
 114 0042 8340     		lsls	r3, r3, r0
ARM GAS  /tmp/cc4jYxOo.s 			page 3


 115 0044 0B60     		str	r3, [r1]
 116              		.loc 1 150 0 discriminator 3
 117 0046 AAB1     		cbz	r2, .L9
 118              		.loc 1 150 0 is_stmt 0 discriminator 1
 119 0048 0423     		movs	r3, #4
 120 004a 2370     		strb	r3, [r4]
 121 004c 2046     		mov	r0, r4
 122 004e 9047     		blx	r2
 123              	.LVL4:
 124 0050 2378     		ldrb	r3, [r4]	@ zero_extendqisi2
 125 0052 042B     		cmp	r3, #4
 126 0054 0ED0     		beq	.L9
 127              	.L10:
 128              	.LBB2:
 129              		.loc 1 150 0 discriminator 4
 130 0056 2023     		movs	r3, #32
 131              		.syntax unified
 132              	@ 150 "../../os/hal/platforms/STM32/SPIv1/spi_lld.c" 1
 133 0058 83F31188 		msr     BASEPRI, r3
 134              	@ 0 "" 2
 135              		.thumb
 136              		.syntax unified
 137              	.LBE2:
 138 005c A368     		ldr	r3, [r4, #8]
 139 005e 2BB1     		cbz	r3, .L11
 140              	.LVL5:
 141              	.LBB3:
 142              		.loc 1 150 0 discriminator 5
 143 0060 0022     		movs	r2, #0
 144 0062 A260     		str	r2, [r4, #8]
 145 0064 1846     		mov	r0, r3
 146 0066 5A62     		str	r2, [r3, #36]
 147 0068 FFF7FEFF 		bl	chSchReadyI
 148              	.LVL6:
 149              	.L11:
 150              	.LBE3:
 151              	.LBB4:
 152              		.loc 1 150 0 discriminator 7
 153 006c 0023     		movs	r3, #0
 154              		.syntax unified
 155              	@ 150 "../../os/hal/platforms/STM32/SPIv1/spi_lld.c" 1
 156 006e 83F31188 		msr     BASEPRI, r3
 157              	@ 0 "" 2
 158              		.thumb
 159              		.syntax unified
 160 0072 38BD     		pop	{r3, r4, r5, pc}
 161              	.LVL7:
 162              	.L9:
 163              	.LBE4:
 164              		.loc 1 150 0 discriminator 3
 165 0074 0223     		movs	r3, #2
 166 0076 2370     		strb	r3, [r4]
 167 0078 EDE7     		b	.L10
 168              	.LVL8:
 169              	.L24:
 170              		.loc 1 138 0 is_stmt 1
 171 007a FFF7FEFF 		bl	port_halt
ARM GAS  /tmp/cc4jYxOo.s 			page 4


 172              	.LVL9:
 173 007e C4E7     		b	.L6
 174              		.cfi_endproc
 175              	.LFE118:
 176              		.size	spi_lld_serve_rx_interrupt, .-spi_lld_serve_rx_interrupt
 177              		.section	.text.spi_lld_init,"ax",%progbits
 178              		.align	2
 179              		.p2align 4,,15
 180              		.global	spi_lld_init
 181              		.thumb
 182              		.thumb_func
 183              		.type	spi_lld_init, %function
 184              	spi_lld_init:
 185              	.LFB120:
 186              		.loc 1 186 0
 187              		.cfi_startproc
 188              		@ args = 0, pretend = 0, frame = 0
 189              		@ frame_needed = 0, uses_anonymous_args = 0
 190 0000 10B5     		push	{r4, lr}
 191              		.cfi_def_cfa_offset 8
 192              		.cfi_offset 4, -8
 193              		.cfi_offset 14, -4
 194              		.loc 1 209 0
 195 0002 0A4C     		ldr	r4, .L27
 196              		.loc 1 188 0
 197 0004 0A4B     		ldr	r3, .L27+4
 198 0006 4FF6FF72 		movw	r2, #65535
 199              		.loc 1 209 0
 200 000a 2046     		mov	r0, r4
 201              		.loc 1 188 0
 202 000c 1A80     		strh	r2, [r3]	@ movhi
 203              		.loc 1 209 0
 204 000e FFF7FEFF 		bl	spiObjectInit
 205              	.LVL10:
 206              		.loc 1 211 0
 207 0012 084B     		ldr	r3, .L27+8
 208              		.loc 1 210 0
 209 0014 0848     		ldr	r0, .L27+12
 210              		.loc 1 213 0
 211 0016 0949     		ldr	r1, .L27+16
 212              		.loc 1 219 0
 213 0018 094A     		ldr	r2, .L27+20
 214              		.loc 1 210 0
 215 001a E061     		str	r0, [r4, #28]
 216              		.loc 1 212 0
 217 001c 03F10C00 		add	r0, r3, #12
 218              		.loc 1 211 0
 219 0020 2362     		str	r3, [r4, #32]
 220              		.loc 1 212 0
 221 0022 6062     		str	r0, [r4, #36]
 222              		.loc 1 213 0
 223 0024 A162     		str	r1, [r4, #40]
 224              		.loc 1 219 0
 225 0026 E262     		str	r2, [r4, #44]
 226 0028 10BD     		pop	{r4, pc}
 227              	.L28:
 228 002a 00BF     		.align	2
ARM GAS  /tmp/cc4jYxOo.s 			page 5


 229              	.L27:
 230 002c 00000000 		.word	.LANCHOR1
 231 0030 00000000 		.word	.LANCHOR0
 232 0034 24000000 		.word	_stm32_dma_streams+36
 233 0038 00380040 		.word	1073756160
 234 003c 16000100 		.word	65558
 235 0040 46000100 		.word	65606
 236              		.cfi_endproc
 237              	.LFE120:
 238              		.size	spi_lld_init, .-spi_lld_init
 239              		.section	.text.spi_lld_start,"ax",%progbits
 240              		.align	2
 241              		.p2align 4,,15
 242              		.global	spi_lld_start
 243              		.thumb
 244              		.thumb_func
 245              		.type	spi_lld_start, %function
 246              	spi_lld_start:
 247              	.LFB121:
 248              		.loc 1 306 0
 249              		.cfi_startproc
 250              		@ args = 0, pretend = 0, frame = 0
 251              		@ frame_needed = 0, uses_anonymous_args = 0
 252              	.LVL11:
 253              		.loc 1 309 0
 254 0000 0378     		ldrb	r3, [r0]	@ zero_extendqisi2
 255 0002 012B     		cmp	r3, #1
 256              		.loc 1 306 0
 257 0004 10B5     		push	{r4, lr}
 258              		.cfi_def_cfa_offset 8
 259              		.cfi_offset 4, -8
 260              		.cfi_offset 14, -4
 261              		.loc 1 306 0
 262 0006 0446     		mov	r4, r0
 263              		.loc 1 309 0
 264 0008 1ED0     		beq	.L35
 265 000a C369     		ldr	r3, [r0, #28]
 266              	.LVL12:
 267              	.L30:
 268              		.loc 1 413 0
 269 000c 6268     		ldr	r2, [r4, #4]
 270              		.loc 1 415 0
 271 000e A06A     		ldr	r0, [r4, #40]
 272              		.loc 1 413 0
 273 0010 5289     		ldrh	r2, [r2, #10]
 274              		.loc 1 417 0
 275 0012 E16A     		ldr	r1, [r4, #44]
 276              		.loc 1 415 0
 277 0014 20F4F040 		bic	r0, r0, #30720
 278              		.loc 1 417 0
 279 0018 21F4F041 		bic	r1, r1, #30720
 280              		.loc 1 413 0
 281 001c 12F4006F 		tst	r2, #2048
 282              		.loc 1 422 0
 283 0020 1CBF     		itt	ne
 284 0022 40F42050 		orrne	r0, r0, #10240
 285              		.loc 1 424 0
ARM GAS  /tmp/cc4jYxOo.s 			page 6


 286 0026 41F42051 		orrne	r1, r1, #10240
 287              		.loc 1 422 0
 288 002a A062     		str	r0, [r4, #40]
 289              		.loc 1 424 0
 290 002c E162     		str	r1, [r4, #44]
 291              		.loc 1 429 0
 292 002e 42F44172 		orr	r2, r2, #772
 293              		.loc 1 428 0
 294 0032 0020     		movs	r0, #0
 295              		.loc 1 431 0
 296 0034 0721     		movs	r1, #7
 297              		.loc 1 428 0
 298 0036 1880     		strh	r0, [r3]	@ movhi
 299              		.loc 1 429 0
 300 0038 1A80     		strh	r2, [r3]	@ movhi
 301              		.loc 1 431 0
 302 003a 9980     		strh	r1, [r3, #4]	@ movhi
 303              		.loc 1 432 0
 304 003c 1A88     		ldrh	r2, [r3]
 305 003e 92B2     		uxth	r2, r2
 306 0040 42F04002 		orr	r2, r2, #64
 307 0044 1A80     		strh	r2, [r3]	@ movhi
 308 0046 10BD     		pop	{r4, pc}
 309              	.LVL13:
 310              	.L35:
 311              		.loc 1 327 0
 312 0048 0F4B     		ldr	r3, .L39
 313 004a 9842     		cmp	r0, r3
 314 004c 09D0     		beq	.L38
 315              	.LVL14:
 316              	.L31:
 317              		.loc 1 408 0
 318 004e 216A     		ldr	r1, [r4, #32]
 319              		.loc 1 409 0
 320 0050 626A     		ldr	r2, [r4, #36]
 321              		.loc 1 408 0
 322 0052 E369     		ldr	r3, [r4, #28]
 323 0054 0868     		ldr	r0, [r1]
 324              		.loc 1 409 0
 325 0056 1168     		ldr	r1, [r2]
 326              		.loc 1 408 0
 327 0058 03F10C02 		add	r2, r3, #12
 328 005c 8260     		str	r2, [r0, #8]
 329              		.loc 1 409 0
 330 005e 8A60     		str	r2, [r1, #8]
 331 0060 D4E7     		b	.L30
 332              	.LVL15:
 333              	.L38:
 334              	.LBB5:
 335              		.loc 1 329 0
 336 0062 0346     		mov	r3, r0
 337 0064 094A     		ldr	r2, .L39+4
 338 0066 006A     		ldr	r0, [r0, #32]
 339              	.LVL16:
 340 0068 0A21     		movs	r1, #10
 341 006a FFF7FEFF 		bl	dmaStreamAllocate
 342              	.LVL17:
ARM GAS  /tmp/cc4jYxOo.s 			page 7


 343              		.loc 1 334 0
 344 006e 2346     		mov	r3, r4
 345 0070 074A     		ldr	r2, .L39+8
 346 0072 606A     		ldr	r0, [r4, #36]
 347 0074 0A21     		movs	r1, #10
 348 0076 FFF7FEFF 		bl	dmaStreamAllocate
 349              	.LVL18:
 350              		.loc 1 339 0
 351 007a 064A     		ldr	r2, .L39+12
 352 007c 136C     		ldr	r3, [r2, #64]
 353 007e 43F48043 		orr	r3, r3, #16384
 354 0082 1364     		str	r3, [r2, #64]
 355 0084 E3E7     		b	.L31
 356              	.L40:
 357 0086 00BF     		.align	2
 358              	.L39:
 359 0088 00000000 		.word	.LANCHOR1
 360 008c 00000000 		.word	spi_lld_serve_rx_interrupt
 361 0090 00000000 		.word	spi_lld_serve_tx_interrupt
 362 0094 00380240 		.word	1073887232
 363              	.LBE5:
 364              		.cfi_endproc
 365              	.LFE121:
 366              		.size	spi_lld_start, .-spi_lld_start
 367              		.section	.text.spi_lld_stop,"ax",%progbits
 368              		.align	2
 369              		.p2align 4,,15
 370              		.global	spi_lld_stop
 371              		.thumb
 372              		.thumb_func
 373              		.type	spi_lld_stop, %function
 374              	spi_lld_stop:
 375              	.LFB122:
 376              		.loc 1 442 0
 377              		.cfi_startproc
 378              		@ args = 0, pretend = 0, frame = 0
 379              		@ frame_needed = 0, uses_anonymous_args = 0
 380              	.LVL19:
 381              		.loc 1 445 0
 382 0000 0378     		ldrb	r3, [r0]	@ zero_extendqisi2
 383 0002 022B     		cmp	r3, #2
 384 0004 00D0     		beq	.L47
 385 0006 7047     		bx	lr
 386              	.L47:
 387              		.loc 1 448 0
 388 0008 C369     		ldr	r3, [r0, #28]
 389              		.loc 1 442 0
 390 000a 10B5     		push	{r4, lr}
 391              		.cfi_def_cfa_offset 8
 392              		.cfi_offset 4, -8
 393              		.cfi_offset 14, -4
 394              		.loc 1 448 0
 395 000c 0022     		movs	r2, #0
 396 000e 0446     		mov	r4, r0
 397              		.loc 1 450 0
 398 0010 006A     		ldr	r0, [r0, #32]
 399              	.LVL20:
ARM GAS  /tmp/cc4jYxOo.s 			page 8


 400              		.loc 1 448 0
 401 0012 1A80     		strh	r2, [r3]	@ movhi
 402              		.loc 1 449 0
 403 0014 9A80     		strh	r2, [r3, #4]	@ movhi
 404              		.loc 1 450 0
 405 0016 FFF7FEFF 		bl	dmaStreamRelease
 406              	.LVL21:
 407              		.loc 1 451 0
 408 001a 606A     		ldr	r0, [r4, #36]
 409 001c FFF7FEFF 		bl	dmaStreamRelease
 410              	.LVL22:
 411              		.loc 1 458 0
 412 0020 044B     		ldr	r3, .L49
 413 0022 9C42     		cmp	r4, r3
 414 0024 00D0     		beq	.L48
 415              	.L41:
 416 0026 10BD     		pop	{r4, pc}
 417              	.LVL23:
 418              	.L48:
 419              		.loc 1 459 0
 420 0028 034A     		ldr	r2, .L49+4
 421 002a 136C     		ldr	r3, [r2, #64]
 422 002c 23F48043 		bic	r3, r3, #16384
 423 0030 1364     		str	r3, [r2, #64]
 424              		.loc 1 478 0
 425 0032 F8E7     		b	.L41
 426              	.L50:
 427              		.align	2
 428              	.L49:
 429 0034 00000000 		.word	.LANCHOR1
 430 0038 00380240 		.word	1073887232
 431              		.cfi_endproc
 432              	.LFE122:
 433              		.size	spi_lld_stop, .-spi_lld_stop
 434              		.section	.text.spi_lld_select,"ax",%progbits
 435              		.align	2
 436              		.p2align 4,,15
 437              		.global	spi_lld_select
 438              		.thumb
 439              		.thumb_func
 440              		.type	spi_lld_select, %function
 441              	spi_lld_select:
 442              	.LFB123:
 443              		.loc 1 487 0
 444              		.cfi_startproc
 445              		@ args = 0, pretend = 0, frame = 0
 446              		@ frame_needed = 0, uses_anonymous_args = 0
 447              		@ link register save eliminated.
 448              	.LVL24:
 449              		.loc 1 489 0
 450 0000 4268     		ldr	r2, [r0, #4]
 451 0002 1189     		ldrh	r1, [r2, #8]
 452 0004 5268     		ldr	r2, [r2, #4]
 453 0006 0123     		movs	r3, #1
 454 0008 8B40     		lsls	r3, r3, r1
 455 000a 9BB2     		uxth	r3, r3
 456 000c 5383     		strh	r3, [r2, #26]	@ movhi
ARM GAS  /tmp/cc4jYxOo.s 			page 9


 457 000e 7047     		bx	lr
 458              		.cfi_endproc
 459              	.LFE123:
 460              		.size	spi_lld_select, .-spi_lld_select
 461              		.section	.text.spi_lld_unselect,"ax",%progbits
 462              		.align	2
 463              		.p2align 4,,15
 464              		.global	spi_lld_unselect
 465              		.thumb
 466              		.thumb_func
 467              		.type	spi_lld_unselect, %function
 468              	spi_lld_unselect:
 469              	.LFB124:
 470              		.loc 1 500 0
 471              		.cfi_startproc
 472              		@ args = 0, pretend = 0, frame = 0
 473              		@ frame_needed = 0, uses_anonymous_args = 0
 474              		@ link register save eliminated.
 475              	.LVL25:
 476              		.loc 1 502 0
 477 0000 4268     		ldr	r2, [r0, #4]
 478 0002 1189     		ldrh	r1, [r2, #8]
 479 0004 5268     		ldr	r2, [r2, #4]
 480 0006 0123     		movs	r3, #1
 481 0008 8B40     		lsls	r3, r3, r1
 482 000a 9BB2     		uxth	r3, r3
 483 000c 1383     		strh	r3, [r2, #24]	@ movhi
 484 000e 7047     		bx	lr
 485              		.cfi_endproc
 486              	.LFE124:
 487              		.size	spi_lld_unselect, .-spi_lld_unselect
 488              		.section	.text.spi_lld_ignore,"ax",%progbits
 489              		.align	2
 490              		.p2align 4,,15
 491              		.global	spi_lld_ignore
 492              		.thumb
 493              		.thumb_func
 494              		.type	spi_lld_ignore, %function
 495              	spi_lld_ignore:
 496              	.LFB125:
 497              		.loc 1 516 0
 498              		.cfi_startproc
 499              		@ args = 0, pretend = 0, frame = 0
 500              		@ frame_needed = 0, uses_anonymous_args = 0
 501              		@ link register save eliminated.
 502              	.LVL26:
 503              		.loc 1 518 0
 504 0000 026A     		ldr	r2, [r0, #32]
 505              		.loc 1 522 0
 506 0002 436A     		ldr	r3, [r0, #36]
 507              		.loc 1 518 0
 508 0004 1268     		ldr	r2, [r2]
 509              		.loc 1 522 0
 510 0006 1B68     		ldr	r3, [r3]
 511              		.loc 1 516 0
 512 0008 70B4     		push	{r4, r5, r6}
 513              		.cfi_def_cfa_offset 12
ARM GAS  /tmp/cc4jYxOo.s 			page 10


 514              		.cfi_offset 4, -12
 515              		.cfi_offset 5, -8
 516              		.cfi_offset 6, -4
 517              		.loc 1 520 0
 518 000a 856A     		ldr	r5, [r0, #40]
 519              		.loc 1 518 0
 520 000c 094E     		ldr	r6, .L55
 521              		.loc 1 524 0
 522 000e C06A     		ldr	r0, [r0, #44]
 523              	.LVL27:
 524              		.loc 1 522 0
 525 0010 094C     		ldr	r4, .L55+4
 526              		.loc 1 518 0
 527 0012 D660     		str	r6, [r2, #12]
 528              		.loc 1 519 0
 529 0014 5160     		str	r1, [r2, #4]
 530              		.loc 1 520 0
 531 0016 1560     		str	r5, [r2]
 532              		.loc 1 522 0
 533 0018 DC60     		str	r4, [r3, #12]
 534              		.loc 1 523 0
 535 001a 5960     		str	r1, [r3, #4]
 536              		.loc 1 524 0
 537 001c 1860     		str	r0, [r3]
 538              		.loc 1 526 0
 539 001e 1168     		ldr	r1, [r2]
 540              	.LVL28:
 541 0020 41F00101 		orr	r1, r1, #1
 542 0024 1160     		str	r1, [r2]
 543              		.loc 1 527 0
 544 0026 1A68     		ldr	r2, [r3]
 545 0028 42F00102 		orr	r2, r2, #1
 546 002c 1A60     		str	r2, [r3]
 547              		.loc 1 528 0
 548 002e 70BC     		pop	{r4, r5, r6}
 549              		.cfi_restore 6
 550              		.cfi_restore 5
 551              		.cfi_restore 4
 552              		.cfi_def_cfa_offset 0
 553 0030 7047     		bx	lr
 554              	.L56:
 555 0032 00BF     		.align	2
 556              	.L55:
 557 0034 00000000 		.word	.LANCHOR2
 558 0038 00000000 		.word	.LANCHOR0
 559              		.cfi_endproc
 560              	.LFE125:
 561              		.size	spi_lld_ignore, .-spi_lld_ignore
 562              		.section	.text.spi_lld_exchange,"ax",%progbits
 563              		.align	2
 564              		.p2align 4,,15
 565              		.global	spi_lld_exchange
 566              		.thumb
 567              		.thumb_func
 568              		.type	spi_lld_exchange, %function
 569              	spi_lld_exchange:
 570              	.LFB126:
ARM GAS  /tmp/cc4jYxOo.s 			page 11


 571              		.loc 1 546 0
 572              		.cfi_startproc
 573              		@ args = 0, pretend = 0, frame = 0
 574              		@ frame_needed = 0, uses_anonymous_args = 0
 575              		@ link register save eliminated.
 576              	.LVL29:
 577 0000 F0B4     		push	{r4, r5, r6, r7}
 578              		.cfi_def_cfa_offset 16
 579              		.cfi_offset 4, -16
 580              		.cfi_offset 5, -12
 581              		.cfi_offset 6, -8
 582              		.cfi_offset 7, -4
 583              		.loc 1 548 0
 584 0002 046A     		ldr	r4, [r0, #32]
 585              		.loc 1 552 0
 586 0004 476A     		ldr	r7, [r0, #36]
 587              		.loc 1 550 0
 588 0006 866A     		ldr	r6, [r0, #40]
 589              		.loc 1 554 0
 590 0008 C56A     		ldr	r5, [r0, #44]
 591              		.loc 1 548 0
 592 000a 2468     		ldr	r4, [r4]
 593              		.loc 1 552 0
 594 000c 3868     		ldr	r0, [r7]
 595              	.LVL30:
 596              		.loc 1 548 0
 597 000e E360     		str	r3, [r4, #12]
 598              		.loc 1 550 0
 599 0010 46F48066 		orr	r6, r6, #1024
 600              		.loc 1 554 0
 601 0014 45F48065 		orr	r5, r5, #1024
 602              		.loc 1 549 0
 603 0018 6160     		str	r1, [r4, #4]
 604              		.loc 1 550 0
 605 001a 2660     		str	r6, [r4]
 606              		.loc 1 552 0
 607 001c C260     		str	r2, [r0, #12]
 608              		.loc 1 553 0
 609 001e 4160     		str	r1, [r0, #4]
 610              		.loc 1 554 0
 611 0020 0560     		str	r5, [r0]
 612              		.loc 1 556 0
 613 0022 2368     		ldr	r3, [r4]
 614              	.LVL31:
 615 0024 43F00103 		orr	r3, r3, #1
 616 0028 2360     		str	r3, [r4]
 617              		.loc 1 557 0
 618 002a 0368     		ldr	r3, [r0]
 619 002c 43F00103 		orr	r3, r3, #1
 620 0030 0360     		str	r3, [r0]
 621              		.loc 1 558 0
 622 0032 F0BC     		pop	{r4, r5, r6, r7}
 623              		.cfi_restore 7
 624              		.cfi_restore 6
 625              		.cfi_restore 5
 626              		.cfi_restore 4
 627              		.cfi_def_cfa_offset 0
ARM GAS  /tmp/cc4jYxOo.s 			page 12


 628 0034 7047     		bx	lr
 629              		.cfi_endproc
 630              	.LFE126:
 631              		.size	spi_lld_exchange, .-spi_lld_exchange
 632 0036 00BF     		.section	.text.spi_lld_send,"ax",%progbits
 633              		.align	2
 634              		.p2align 4,,15
 635              		.global	spi_lld_send
 636              		.thumb
 637              		.thumb_func
 638              		.type	spi_lld_send, %function
 639              	spi_lld_send:
 640              	.LFB127:
 641              		.loc 1 573 0
 642              		.cfi_startproc
 643              		@ args = 0, pretend = 0, frame = 0
 644              		@ frame_needed = 0, uses_anonymous_args = 0
 645              		@ link register save eliminated.
 646              	.LVL32:
 647 0000 70B4     		push	{r4, r5, r6}
 648              		.cfi_def_cfa_offset 12
 649              		.cfi_offset 4, -12
 650              		.cfi_offset 5, -8
 651              		.cfi_offset 6, -4
 652              		.loc 1 579 0
 653 0002 436A     		ldr	r3, [r0, #36]
 654              		.loc 1 575 0
 655 0004 046A     		ldr	r4, [r0, #32]
 656              		.loc 1 581 0
 657 0006 C56A     		ldr	r5, [r0, #44]
 658              		.loc 1 575 0
 659 0008 2468     		ldr	r4, [r4]
 660              		.loc 1 579 0
 661 000a 1B68     		ldr	r3, [r3]
 662              		.loc 1 577 0
 663 000c 806A     		ldr	r0, [r0, #40]
 664              	.LVL33:
 665              		.loc 1 575 0
 666 000e 094E     		ldr	r6, .L61
 667 0010 E660     		str	r6, [r4, #12]
 668              		.loc 1 581 0
 669 0012 45F48065 		orr	r5, r5, #1024
 670              		.loc 1 576 0
 671 0016 6160     		str	r1, [r4, #4]
 672              		.loc 1 577 0
 673 0018 2060     		str	r0, [r4]
 674              		.loc 1 579 0
 675 001a DA60     		str	r2, [r3, #12]
 676              		.loc 1 580 0
 677 001c 5960     		str	r1, [r3, #4]
 678              		.loc 1 581 0
 679 001e 1D60     		str	r5, [r3]
 680              		.loc 1 583 0
 681 0020 2268     		ldr	r2, [r4]
 682              	.LVL34:
 683 0022 42F00102 		orr	r2, r2, #1
 684 0026 2260     		str	r2, [r4]
ARM GAS  /tmp/cc4jYxOo.s 			page 13


 685              		.loc 1 584 0
 686 0028 1A68     		ldr	r2, [r3]
 687 002a 42F00102 		orr	r2, r2, #1
 688 002e 1A60     		str	r2, [r3]
 689              		.loc 1 585 0
 690 0030 70BC     		pop	{r4, r5, r6}
 691              		.cfi_restore 6
 692              		.cfi_restore 5
 693              		.cfi_restore 4
 694              		.cfi_def_cfa_offset 0
 695 0032 7047     		bx	lr
 696              	.L62:
 697              		.align	2
 698              	.L61:
 699 0034 00000000 		.word	.LANCHOR2
 700              		.cfi_endproc
 701              	.LFE127:
 702              		.size	spi_lld_send, .-spi_lld_send
 703              		.section	.text.spi_lld_receive,"ax",%progbits
 704              		.align	2
 705              		.p2align 4,,15
 706              		.global	spi_lld_receive
 707              		.thumb
 708              		.thumb_func
 709              		.type	spi_lld_receive, %function
 710              	spi_lld_receive:
 711              	.LFB128:
 712              		.loc 1 600 0
 713              		.cfi_startproc
 714              		@ args = 0, pretend = 0, frame = 0
 715              		@ frame_needed = 0, uses_anonymous_args = 0
 716              		@ link register save eliminated.
 717              	.LVL35:
 718 0000 70B4     		push	{r4, r5, r6}
 719              		.cfi_def_cfa_offset 12
 720              		.cfi_offset 4, -12
 721              		.cfi_offset 5, -8
 722              		.cfi_offset 6, -4
 723              		.loc 1 606 0
 724 0002 436A     		ldr	r3, [r0, #36]
 725              		.loc 1 602 0
 726 0004 046A     		ldr	r4, [r0, #32]
 727              		.loc 1 604 0
 728 0006 856A     		ldr	r5, [r0, #40]
 729              		.loc 1 602 0
 730 0008 2468     		ldr	r4, [r4]
 731              		.loc 1 606 0
 732 000a 1B68     		ldr	r3, [r3]
 733              		.loc 1 608 0
 734 000c C06A     		ldr	r0, [r0, #44]
 735              	.LVL36:
 736              		.loc 1 606 0
 737 000e 094E     		ldr	r6, .L65
 738              		.loc 1 602 0
 739 0010 E260     		str	r2, [r4, #12]
 740              		.loc 1 604 0
 741 0012 45F48065 		orr	r5, r5, #1024
ARM GAS  /tmp/cc4jYxOo.s 			page 14


 742              		.loc 1 603 0
 743 0016 6160     		str	r1, [r4, #4]
 744              		.loc 1 604 0
 745 0018 2560     		str	r5, [r4]
 746              		.loc 1 606 0
 747 001a DE60     		str	r6, [r3, #12]
 748              		.loc 1 607 0
 749 001c 5960     		str	r1, [r3, #4]
 750              		.loc 1 608 0
 751 001e 1860     		str	r0, [r3]
 752              		.loc 1 610 0
 753 0020 2268     		ldr	r2, [r4]
 754              	.LVL37:
 755 0022 42F00102 		orr	r2, r2, #1
 756 0026 2260     		str	r2, [r4]
 757              		.loc 1 611 0
 758 0028 1A68     		ldr	r2, [r3]
 759 002a 42F00102 		orr	r2, r2, #1
 760 002e 1A60     		str	r2, [r3]
 761              		.loc 1 612 0
 762 0030 70BC     		pop	{r4, r5, r6}
 763              		.cfi_restore 6
 764              		.cfi_restore 5
 765              		.cfi_restore 4
 766              		.cfi_def_cfa_offset 0
 767 0032 7047     		bx	lr
 768              	.L66:
 769              		.align	2
 770              	.L65:
 771 0034 00000000 		.word	.LANCHOR0
 772              		.cfi_endproc
 773              	.LFE128:
 774              		.size	spi_lld_receive, .-spi_lld_receive
 775              		.section	.text.spi_lld_polled_exchange,"ax",%progbits
 776              		.align	2
 777              		.p2align 4,,15
 778              		.global	spi_lld_polled_exchange
 779              		.thumb
 780              		.thumb_func
 781              		.type	spi_lld_polled_exchange, %function
 782              	spi_lld_polled_exchange:
 783              	.LFB129:
 784              		.loc 1 626 0
 785              		.cfi_startproc
 786              		@ args = 0, pretend = 0, frame = 0
 787              		@ frame_needed = 0, uses_anonymous_args = 0
 788              		@ link register save eliminated.
 789              	.LVL38:
 790              		.loc 1 628 0
 791 0000 C269     		ldr	r2, [r0, #28]
 792 0002 9181     		strh	r1, [r2, #12]	@ movhi
 793              	.L68:
 794              		.loc 1 629 0 discriminator 1
 795 0004 1389     		ldrh	r3, [r2, #8]
 796 0006 DB07     		lsls	r3, r3, #31
 797 0008 FCD5     		bpl	.L68
 798              		.loc 1 631 0
ARM GAS  /tmp/cc4jYxOo.s 			page 15


 799 000a 9089     		ldrh	r0, [r2, #12]
 800              	.LVL39:
 801              		.loc 1 632 0
 802 000c 80B2     		uxth	r0, r0
 803 000e 7047     		bx	lr
 804              		.cfi_endproc
 805              	.LFE129:
 806              		.size	spi_lld_polled_exchange, .-spi_lld_polled_exchange
 807              		.global	SPID2
 808              		.section	.bss.dummytx,"aw",%nobits
 809              		.align	1
 810              		.set	.LANCHOR0,. + 0
 811              		.type	dummytx, %object
 812              		.size	dummytx, 2
 813              	dummytx:
 814 0000 0000     		.space	2
 815              		.section	.bss.SPID2,"aw",%nobits
 816              		.align	2
 817              		.set	.LANCHOR1,. + 0
 818              		.type	SPID2, %object
 819              		.size	SPID2, 48
 820              	SPID2:
 821 0000 00000000 		.space	48
 821      00000000 
 821      00000000 
 821      00000000 
 821      00000000 
 822              		.section	.bss.dummyrx,"aw",%nobits
 823              		.align	1
 824              		.set	.LANCHOR2,. + 0
 825              		.type	dummyrx, %object
 826              		.size	dummyrx, 2
 827              	dummyrx:
 828 0000 0000     		.space	2
 829              		.text
 830              	.Letext0:
 831              		.file 2 "/home/lithium/Descargas/gcc-arm-none-eabi-5_3-2016q1/lib/gcc/arm-none-eabi/5.3.1/include/
 832              		.file 3 "/home/lithium/Descargas/gcc-arm-none-eabi-5_3-2016q1/arm-none-eabi/include/machine/_defau
 833              		.file 4 "/home/lithium/Descargas/gcc-arm-none-eabi-5_3-2016q1/arm-none-eabi/include/sys/_stdint.h"
 834              		.file 5 "../../os/ports/GCC/ARMCMx/chtypes.h"
 835              		.file 6 "../../os/kernel/include/chlists.h"
 836              		.file 7 "../../os/kernel/include/chthreads.h"
 837              		.file 8 "../../os/ports/GCC/ARMCMx/chcore_v7m.h"
 838              		.file 9 "../../os/kernel/include/chmtx.h"
 839              		.file 10 "../../os/hal/platforms/STM32F4xx/stm32f4xx.h"
 840              		.file 11 "../../os/hal/platforms/STM32F4xx/stm32_dma.h"
 841              		.file 12 "../../os/hal/platforms/STM32/GPIOv2/pal_lld.h"
 842              		.file 13 "../../os/hal/include/spi.h"
 843              		.file 14 "../../os/hal/platforms/STM32/SPIv1/spi_lld.h"
 844              		.file 15 "../../os/ports/common/ARMCMx/CMSIS/include/core_cm4.h"
 845              		.file 16 "../../os/kernel/include/chschd.h"