ARM GAS  /tmp/ccSpQzYU.s 			page 1


   1              		.syntax unified
   2              		.cpu cortex-m4
   3              		.fpu softvfp
   4              		.eabi_attribute 20, 1
   5              		.eabi_attribute 21, 1
   6              		.eabi_attribute 23, 3
   7              		.eabi_attribute 24, 1
   8              		.eabi_attribute 25, 1
   9              		.eabi_attribute 26, 1
  10              		.eabi_attribute 30, 2
  11              		.eabi_attribute 34, 1
  12              		.eabi_attribute 18, 4
  13              		.thumb
  14              		.file	"MainUart.c"
  15              		.text
  16              	.Ltext0:
  17              		.cfi_sections	.debug_frame
  18              		.section	.text.led3off,"ax",%progbits
  19              		.align	2
  20              		.p2align 4,,15
  21              		.thumb
  22              		.thumb_func
  23              		.type	led3off, %function
  24              	led3off:
  25              	.LFB118:
  26              		.file 1 "MainUart.c"
  27              		.loc 1 25 0
  28              		.cfi_startproc
  29              		@ args = 0, pretend = 0, frame = 0
  30              		@ frame_needed = 0, uses_anonymous_args = 0
  31              		@ link register save eliminated.
  32              	.LVL0:
  33              		.loc 1 28 0
  34 0000 024B     		ldr	r3, .L2
  35 0002 4FF40052 		mov	r2, #8192
  36 0006 5A83     		strh	r2, [r3, #26]	@ movhi
  37 0008 7047     		bx	lr
  38              	.L3:
  39 000a 00BF     		.align	2
  40              	.L2:
  41 000c 000C0240 		.word	1073875968
  42              		.cfi_endproc
  43              	.LFE118:
  44              		.size	led3off, .-led3off
  45              		.section	.text.led4off,"ax",%progbits
  46              		.align	2
  47              		.p2align 4,,15
  48              		.thumb
  49              		.thumb_func
  50              		.type	led4off, %function
  51              	led4off:
  52              	.LFB119:
  53              		.loc 1 31 0
  54              		.cfi_startproc
  55              		@ args = 0, pretend = 0, frame = 0
  56              		@ frame_needed = 0, uses_anonymous_args = 0
  57              		@ link register save eliminated.
ARM GAS  /tmp/ccSpQzYU.s 			page 2


  58              	.LVL1:
  59              		.loc 1 34 0
  60 0000 024B     		ldr	r3, .L5
  61 0002 4FF48052 		mov	r2, #4096
  62 0006 5A83     		strh	r2, [r3, #26]	@ movhi
  63 0008 7047     		bx	lr
  64              	.L6:
  65 000a 00BF     		.align	2
  66              	.L5:
  67 000c 000C0240 		.word	1073875968
  68              		.cfi_endproc
  69              	.LFE119:
  70              		.size	led4off, .-led4off
  71              		.section	.text.led5off,"ax",%progbits
  72              		.align	2
  73              		.p2align 4,,15
  74              		.thumb
  75              		.thumb_func
  76              		.type	led5off, %function
  77              	led5off:
  78              	.LFB120:
  79              		.loc 1 37 0
  80              		.cfi_startproc
  81              		@ args = 0, pretend = 0, frame = 0
  82              		@ frame_needed = 0, uses_anonymous_args = 0
  83              		@ link register save eliminated.
  84              	.LVL2:
  85              		.loc 1 40 0
  86 0000 024B     		ldr	r3, .L8
  87 0002 4FF48042 		mov	r2, #16384
  88 0006 5A83     		strh	r2, [r3, #26]	@ movhi
  89 0008 7047     		bx	lr
  90              	.L9:
  91 000a 00BF     		.align	2
  92              	.L8:
  93 000c 000C0240 		.word	1073875968
  94              		.cfi_endproc
  95              	.LFE120:
  96              		.size	led5off, .-led5off
  97              		.section	.text.txend1,"ax",%progbits
  98              		.align	2
  99              		.p2align 4,,15
 100              		.thumb
 101              		.thumb_func
 102              		.type	txend1, %function
 103              	txend1:
 104              	.LFB121:
 105              		.loc 1 47 0
 106              		.cfi_startproc
 107              		@ args = 0, pretend = 0, frame = 0
 108              		@ frame_needed = 0, uses_anonymous_args = 0
 109              		@ link register save eliminated.
 110              	.LVL3:
 111 0000 7047     		bx	lr
 112              		.cfi_endproc
 113              	.LFE121:
 114              		.size	txend1, .-txend1
ARM GAS  /tmp/ccSpQzYU.s 			page 3


 115 0002 00BFAFF3 		.section	.text.rxerr,"ax",%progbits
 115      0080AFF3 
 115      0080AFF3 
 115      0080
 116              		.align	2
 117              		.p2align 4,,15
 118              		.thumb
 119              		.thumb_func
 120              		.type	rxerr, %function
 121              	rxerr:
 122              	.LFB123:
 123              		.loc 1 70 0
 124              		.cfi_startproc
 125              		@ args = 0, pretend = 0, frame = 0
 126              		@ frame_needed = 0, uses_anonymous_args = 0
 127              		@ link register save eliminated.
 128              	.LVL4:
 129 0000 7047     		bx	lr
 130              		.cfi_endproc
 131              	.LFE123:
 132              		.size	rxerr, .-rxerr
 133 0002 00BFAFF3 		.section	.text.rxchar,"ax",%progbits
 133      0080AFF3 
 133      0080AFF3 
 133      0080
 134              		.align	2
 135              		.p2align 4,,15
 136              		.thumb
 137              		.thumb_func
 138              		.type	rxchar, %function
 139              	rxchar:
 140              	.LFB124:
 141              		.loc 1 80 0
 142              		.cfi_startproc
 143              		@ args = 0, pretend = 0, frame = 0
 144              		@ frame_needed = 0, uses_anonymous_args = 0
 145              	.LVL5:
 146              		.loc 1 80 0
 147 0000 08B5     		push	{r3, lr}
 148              		.cfi_def_cfa_offset 8
 149              		.cfi_offset 3, -8
 150              		.cfi_offset 14, -4
 151              		.loc 1 85 0
 152 0002 0D4B     		ldr	r3, .L19
 153 0004 4FF48052 		mov	r2, #4096
 154 0008 1A83     		strh	r2, [r3, #24]	@ movhi
 155              	.LBB2:
 156              		.loc 1 86 0
 157 000a 2023     		movs	r3, #32
 158              	@ 86 "MainUart.c" 1
 159 000c 83F31188 		msr     BASEPRI, r3
 160              	@ 0 "" 2
 161              		.thumb
 162              	.LBE2:
 163 0010 FFF7FEFF 		bl	dbg_check_lock_from_isr
 164              	.LVL6:
 165              		.loc 1 87 0
ARM GAS  /tmp/ccSpQzYU.s 			page 4


 166 0014 0948     		ldr	r0, .L19+4
 167 0016 C368     		ldr	r3, [r0, #12]
 168 0018 0BB1     		cbz	r3, .L13
 169              		.loc 1 88 0
 170 001a FFF7FEFF 		bl	chVTResetI
 171              	.LVL7:
 172              	.L13:
 173              		.loc 1 89 0
 174 001e 0748     		ldr	r0, .L19+4
 175 0020 074A     		ldr	r2, .L19+8
 176 0022 C821     		movs	r1, #200
 177 0024 0023     		movs	r3, #0
 178 0026 FFF7FEFF 		bl	chVTSetI
 179              	.LVL8:
 180              		.loc 1 90 0
 181 002a FFF7FEFF 		bl	dbg_check_unlock_from_isr
 182              	.LVL9:
 183              	.LBB3:
 184 002e 0023     		movs	r3, #0
 185              	@ 90 "MainUart.c" 1
 186 0030 83F31188 		msr     BASEPRI, r3
 187              	@ 0 "" 2
 188              		.thumb
 189 0034 08BD     		pop	{r3, pc}
 190              	.L20:
 191 0036 00BF     		.align	2
 192              	.L19:
 193 0038 000C0240 		.word	1073875968
 194 003c 00000000 		.word	.LANCHOR0
 195 0040 00000000 		.word	led4off
 196              	.LBE3:
 197              		.cfi_endproc
 198              	.LFE124:
 199              		.size	rxchar, .-rxchar
 200 0044 AFF30080 		.section	.text.rxend,"ax",%progbits
 200      AFF30080 
 200      AFF30080 
 201              		.align	2
 202              		.p2align 4,,15
 203              		.thumb
 204              		.thumb_func
 205              		.type	rxend, %function
 206              	rxend:
 207              	.LFB125:
 208              		.loc 1 96 0
 209              		.cfi_startproc
 210              		@ args = 0, pretend = 0, frame = 0
 211              		@ frame_needed = 0, uses_anonymous_args = 0
 212              	.LVL10:
 213 0000 08B5     		push	{r3, lr}
 214              		.cfi_def_cfa_offset 8
 215              		.cfi_offset 3, -8
 216              		.cfi_offset 14, -4
 217              		.loc 1 101 0
 218 0002 0D4B     		ldr	r3, .L27
 219 0004 4FF40052 		mov	r2, #8192
 220 0008 1A83     		strh	r2, [r3, #24]	@ movhi
ARM GAS  /tmp/ccSpQzYU.s 			page 5


 221              	.LBB4:
 222              		.loc 1 102 0
 223 000a 2023     		movs	r3, #32
 224              	@ 102 "MainUart.c" 1
 225 000c 83F31188 		msr     BASEPRI, r3
 226              	@ 0 "" 2
 227              		.thumb
 228              	.LBE4:
 229 0010 FFF7FEFF 		bl	dbg_check_lock_from_isr
 230              	.LVL11:
 231              		.loc 1 103 0
 232 0014 0948     		ldr	r0, .L27+4
 233 0016 C368     		ldr	r3, [r0, #12]
 234 0018 0BB1     		cbz	r3, .L22
 235              		.loc 1 104 0
 236 001a FFF7FEFF 		bl	chVTResetI
 237              	.LVL12:
 238              	.L22:
 239              		.loc 1 105 0
 240 001e 0748     		ldr	r0, .L27+4
 241 0020 074A     		ldr	r2, .L27+8
 242 0022 C821     		movs	r1, #200
 243 0024 0023     		movs	r3, #0
 244 0026 FFF7FEFF 		bl	chVTSetI
 245              	.LVL13:
 246              		.loc 1 106 0
 247 002a FFF7FEFF 		bl	dbg_check_unlock_from_isr
 248              	.LVL14:
 249              	.LBB5:
 250 002e 0023     		movs	r3, #0
 251              	@ 106 "MainUart.c" 1
 252 0030 83F31188 		msr     BASEPRI, r3
 253              	@ 0 "" 2
 254              		.thumb
 255 0034 08BD     		pop	{r3, pc}
 256              	.L28:
 257 0036 00BF     		.align	2
 258              	.L27:
 259 0038 000C0240 		.word	1073875968
 260 003c 00000000 		.word	.LANCHOR1
 261 0040 00000000 		.word	led3off
 262              	.LBE5:
 263              		.cfi_endproc
 264              	.LFE125:
 265              		.size	rxend, .-rxend
 266 0044 AFF30080 		.section	.text.txend2,"ax",%progbits
 266      AFF30080 
 266      AFF30080 
 267              		.align	2
 268              		.p2align 4,,15
 269              		.thumb
 270              		.thumb_func
 271              		.type	txend2, %function
 272              	txend2:
 273              	.LFB122:
 274              		.loc 1 55 0
 275              		.cfi_startproc
ARM GAS  /tmp/ccSpQzYU.s 			page 6


 276              		@ args = 0, pretend = 0, frame = 0
 277              		@ frame_needed = 0, uses_anonymous_args = 0
 278              	.LVL15:
 279 0000 08B5     		push	{r3, lr}
 280              		.cfi_def_cfa_offset 8
 281              		.cfi_offset 3, -8
 282              		.cfi_offset 14, -4
 283              		.loc 1 58 0
 284 0002 0D4B     		ldr	r3, .L35
 285 0004 4FF48042 		mov	r2, #16384
 286 0008 1A83     		strh	r2, [r3, #24]	@ movhi
 287              	.LBB6:
 288              		.loc 1 59 0
 289 000a 2023     		movs	r3, #32
 290              	@ 59 "MainUart.c" 1
 291 000c 83F31188 		msr     BASEPRI, r3
 292              	@ 0 "" 2
 293              		.thumb
 294              	.LBE6:
 295 0010 FFF7FEFF 		bl	dbg_check_lock_from_isr
 296              	.LVL16:
 297              		.loc 1 60 0
 298 0014 0948     		ldr	r0, .L35+4
 299 0016 C368     		ldr	r3, [r0, #12]
 300 0018 0BB1     		cbz	r3, .L30
 301              		.loc 1 61 0
 302 001a FFF7FEFF 		bl	chVTResetI
 303              	.LVL17:
 304              	.L30:
 305              		.loc 1 62 0
 306 001e 0748     		ldr	r0, .L35+4
 307 0020 074A     		ldr	r2, .L35+8
 308 0022 C821     		movs	r1, #200
 309 0024 0023     		movs	r3, #0
 310 0026 FFF7FEFF 		bl	chVTSetI
 311              	.LVL18:
 312              		.loc 1 63 0
 313 002a FFF7FEFF 		bl	dbg_check_unlock_from_isr
 314              	.LVL19:
 315              	.LBB7:
 316 002e 0023     		movs	r3, #0
 317              	@ 63 "MainUart.c" 1
 318 0030 83F31188 		msr     BASEPRI, r3
 319              	@ 0 "" 2
 320              		.thumb
 321 0034 08BD     		pop	{r3, pc}
 322              	.L36:
 323 0036 00BF     		.align	2
 324              	.L35:
 325 0038 000C0240 		.word	1073875968
 326 003c 00000000 		.word	.LANCHOR2
 327 0040 00000000 		.word	led5off
 328              	.LBE7:
 329              		.cfi_endproc
 330              	.LFE122:
 331              		.size	txend2, .-txend2
 332 0044 AFF30080 		.section	.text.startup.main,"ax",%progbits
ARM GAS  /tmp/ccSpQzYU.s 			page 7


 332      AFF30080 
 332      AFF30080 
 333              		.align	2
 334              		.p2align 4,,15
 335              		.global	main
 336              		.thumb
 337              		.thumb_func
 338              		.type	main, %function
 339              	main:
 340              	.LFB126:
 341              		.loc 1 127 0
 342              		.cfi_startproc
 343              		@ Volatile: function does not return.
 344              		@ args = 0, pretend = 0, frame = 0
 345              		@ frame_needed = 0, uses_anonymous_args = 0
 346 0000 08B5     		push	{r3, lr}
 347              		.cfi_def_cfa_offset 8
 348              		.cfi_offset 3, -8
 349              		.cfi_offset 14, -4
 350              		.loc 1 136 0
 351 0002 FFF7FEFF 		bl	halInit
 352              	.LVL20:
 353              		.loc 1 137 0
 354 0006 FFF7FEFF 		bl	chSysInit
 355              	.LVL21:
 356              		.loc 1 142 0
 357 000a 1048     		ldr	r0, .L40
 358 000c 1049     		ldr	r1, .L40+4
 359 000e FFF7FEFF 		bl	uartStart
 360              	.LVL22:
 361              		.loc 1 143 0
 362 0012 1048     		ldr	r0, .L40+8
 363 0014 0421     		movs	r1, #4
 364 0016 40F28232 		movw	r2, #898
 365 001a FFF7FEFF 		bl	_pal_lld_setgroupmode
 366              	.LVL23:
 367              		.loc 1 144 0
 368 001e 0D48     		ldr	r0, .L40+8
 369 0020 0821     		movs	r1, #8
 370 0022 40F28232 		movw	r2, #898
 371 0026 FFF7FEFF 		bl	_pal_lld_setgroupmode
 372              	.LVL24:
 373              	.L38:
 374              		.loc 1 156 0 discriminator 1
 375 002a 0848     		ldr	r0, .L40
 376 002c FFF7FEFF 		bl	uartStopReceive
 377              	.LVL25:
 378              		.loc 1 157 0 discriminator 1
 379 0030 0648     		ldr	r0, .L40
 380 0032 FFF7FEFF 		bl	uartStopSend
 381              	.LVL26:
 382              		.loc 1 159 0 discriminator 1
 383 0036 0548     		ldr	r0, .L40
 384 0038 074A     		ldr	r2, .L40+12
 385 003a 0521     		movs	r1, #5
 386 003c FFF7FEFF 		bl	uartStartSend
 387              	.LVL27:
ARM GAS  /tmp/ccSpQzYU.s 			page 8


 388              		.loc 1 161 0 discriminator 1
 389 0040 4FF4FA70 		mov	r0, #500
 390 0044 FFF7FEFF 		bl	chThdSleep
 391              	.LVL28:
 392              		.loc 1 162 0 discriminator 1
 393 0048 EFE7     		b	.L38
 394              	.L41:
 395 004a 00BF     		.align	2
 396              	.L40:
 397 004c 00000000 		.word	UARTD2
 398 0050 00000000 		.word	.LANCHOR3
 399 0054 00000240 		.word	1073872896
 400 0058 00000000 		.word	.LC0
 401              		.cfi_endproc
 402              	.LFE126:
 403              		.size	main, .-main
 404 005c AFF30080 		.section	.bss.vt3,"aw",%nobits
 405              		.align	2
 406              		.set	.LANCHOR1,. + 0
 407              		.type	vt3, %object
 408              		.size	vt3, 20
 409              	vt3:
 410 0000 00000000 		.space	20
 410      00000000 
 410      00000000 
 410      00000000 
 410      00000000 
 411              		.section	.bss.vt4,"aw",%nobits
 412              		.align	2
 413              		.set	.LANCHOR0,. + 0
 414              		.type	vt4, %object
 415              		.size	vt4, 20
 416              	vt4:
 417 0000 00000000 		.space	20
 417      00000000 
 417      00000000 
 417      00000000 
 417      00000000 
 418              		.section	.bss.vt5,"aw",%nobits
 419              		.align	2
 420              		.set	.LANCHOR2,. + 0
 421              		.type	vt5, %object
 422              		.size	vt5, 20
 423              	vt5:
 424 0000 00000000 		.space	20
 424      00000000 
 424      00000000 
 424      00000000 
 424      00000000 
 425              		.section	.rodata.str1.4,"aMS",%progbits,1
 426              		.align	2
 427              	.LC0:
 428 0000 486F6C61 		.ascii	"Hola\012\000"
 428      0A00
 429 0006 0000     		.section	.data.uart_cfg_1,"aw",%progbits
 430              		.align	2
 431              		.set	.LANCHOR3,. + 0
ARM GAS  /tmp/ccSpQzYU.s 			page 9


 432              		.type	uart_cfg_1, %object
 433              		.size	uart_cfg_1, 32
 434              	uart_cfg_1:
 435 0000 00000000 		.word	txend1
 436 0004 00000000 		.word	txend2
 437 0008 00000000 		.word	rxend
 438 000c 00000000 		.word	rxchar
 439 0010 00000000 		.word	rxerr
 440 0014 80250000 		.word	9600
 441 0018 0000     		.short	0
 442 001a 0040     		.short	16384
 443 001c 0000     		.short	0
 444 001e 0000     		.space	2
 445              		.text
 446              	.Letext0:
 447              		.file 2 "/usr/lib/gcc/arm-none-eabi/4.9.3/include/stddef.h"
 448              		.file 3 "/usr/include/newlib/machine/_default_types.h"
 449              		.file 4 "/usr/include/newlib/stdint.h"
 450              		.file 5 "../../os/ports/GCC/ARMCMx/chtypes.h"
 451              		.file 6 "../../os/kernel/include/chvt.h"
 452              		.file 7 "../../os/hal/platforms/STM32F4xx/stm32f4xx.h"
 453              		.file 8 "../../os/hal/platforms/STM32F4xx/stm32_dma.h"
 454              		.file 9 "../../os/hal/platforms/STM32/GPIOv2/pal_lld.h"
 455              		.file 10 "../../os/hal/include/uart.h"
 456              		.file 11 "../../os/hal/platforms/STM32/USARTv1/uart_lld.h"
 457              		.file 12 "../../os/ports/common/ARMCMx/CMSIS/include/core_cm4.h"
 458              		.file 13 "../../os/kernel/include/chdebug.h"
 459              		.file 14 "../../os/hal/include/hal.h"
 460              		.file 15 "../../os/kernel/include/chsys.h"
 461              		.file 16 "../../os/kernel/include/chthreads.h"