ARM GAS  /tmp/ccSpQzYU.s 			page 1


   1              		.syntax unified
   2              		.cpu cortex-m4
   3              		.fpu softvfp
   4              		.eabi_attribute 20, 1
   5              		.eabi_attribute 21, 1
   6              		.eabi_attribute 23, 3
   7              		.eabi_attribute 24, 1
   8              		.eabi_attribute 25, 1
   9              		.eabi_attribute 26, 1
  10              		.eabi_attribute 30, 2
  11              		.eabi_attribute 34, 1
  12              		.eabi_attribute 18, 4
  13              		.thumb
  14              		.file	"MainUart.c"
  15              		.text
  16              	.Ltext0:
  17              		.cfi_sections	.debug_frame
  18              		.section	.text.led3off,"ax",%progbits
  19              		.align	2
  20              		.p2align 4,,15
  21              		.thumb
  22              		.thumb_func
  23              		.type	led3off, %function
  24              	led3off:
  25              	.LFB118:
  26              		.file 1 "MainUart.c"
  27              		.loc 1 25 0
  28              		.cfi_startproc
  29              		@ args = 0, pretend = 0, frame = 0
  30              		@ frame_needed = 0, uses_anonymous_args = 0
  31              		@ link register save eliminated.
  32              	.LVL0:
  33              		.loc 1 28 0
  34 0000 024B     		ldr	r3, .L2
  35 0002 4FF40052 		mov	r2, #8192
  36 0006 5A83     		strh	r2, [r3, #26]	@ movhi
  37 0008 7047     		bx	lr
  38              	.L3:
  39 000a 00BF     		.align	2
  40              	.L2:
  41 000c 000C0240 		.word	1073875968
  42              		.cfi_endproc
  43              	.LFE118:
  44              		.size	led3off, .-led3off
  45              		.section	.text.led4off,"ax",%progbits
  46              		.align	2
  47              		.p2align 4,,15
  48              		.thumb
  49              		.thumb_func
  50              		.type	led4off, %function
  51              	led4off:
  52              	.LFB119:
  53              		.loc 1 31 0
  54              		.cfi_startproc
  55              		@ args = 0, pretend = 0, frame = 0
  56              		@ frame_needed = 0, uses_anonymous_args = 0
  57              		@ link register save eliminated.
ARM GAS  /tmp/ccSpQzYU.s 			page 2


  58              	.LVL1:
  59              		.loc 1 34 0
  60 0000 024B     		ldr	r3, .L5
  61 0002 4FF48052 		mov	r2, #4096
  62 0006 5A83     		strh	r2, [r3, #26]	@ movhi
  63 0008 7047     		bx	lr
  64              	.L6:
  65 000a 00BF     		.align	2
  66              	.L5:
  67 000c 000C0240 		.word	1073875968
  68              		.cfi_endproc
  69              	.LFE119:
  70              		.size	led4off, .-led4off
  71              		.section	.text.led5off,"ax",%progbits
  72              		.align	2
  73              		.p2align 4,,15
  74              		.thumb
  75              		.thumb_func
  76              		.type	led5off, %function
  77              	led5off:
  78              	.LFB120:
  79              		.loc 1 37 0
  80              		.cfi_startproc
  81              		@ args = 0, pretend = 0, frame = 0
  82              		@ frame_needed = 0, uses_anonymous_args = 0
  83              		@ link register save eliminated.
  84              	.LVL2:
  85              		.loc 1 40 0
  86 0000 024B     		ldr	r3, .L8
  87 0002 4FF48042 		mov	r2, #16384
  88 0006 5A83     		strh	r2, [r3, #26]	@ movhi
  89 0008 7047     		bx	lr
  90              	.L9:
  91 000a 00BF     		.align	2
  92              	.L8:
  93 000c 000C0240 		.word	1073875968
  94              		.cfi_endproc
  95              	.LFE120:
  96              		.size	led5off, .-led5off
  97              		.section	.text.txend1,"ax",%progbits
  98              		.align	2
  99              		.p2align 4,,15
 100              		.thumb
 101              		.thumb_func
 102              		.type	txend1, %function
 103              	txend1:
 104              	.LFB121:
 105              		.loc 1 47 0
 106              		.cfi_startproc
 107              		@ args = 0, pretend = 0, frame = 0
 108              		@ frame_needed = 0, uses_anonymous_args = 0
 109              		@ link register save eliminated.
 110              	.LVL3:
 111 0000 7047     		bx	lr
 112              		.cfi_endproc
 113              	.LFE121:
 114              		.size	txend1, .-txend1
ARM GAS  /tmp/ccSpQzYU.s 			page 3


 115 0002 00BFAFF3 		.section	.text.rxerr,"ax",%progbits
 115      0080AFF3 
 115      0080AFF3 
 115      0080
 116              		.align	2
 117              		.p2align 4,,15
 118              		.thumb
 119              		.thumb_func
 120              		.type	rxerr, %function
 121              	rxerr:
 122              	.LFB123:
 123              		.loc 1 70 0
 124              		.cfi_startproc
 125              		@ args = 0, pretend = 0, frame = 0
 126              		@ frame_needed = 0, uses_anonymous_args = 0
 127              		@ link register save eliminated.
 128              	.LVL4:
 129 0000 7047     		bx	lr
 130              		.cfi_endproc
 131              	.LFE123:
 132              		.size	rxerr, .-rxerr
 133 0002 00BFAFF3 		.section	.text.rxchar,"ax",%progbits
 133      0080AFF3 
 133      0080AFF3 
 133      0080
 134              		.align	2
 135              		.p2align 4,,15
 136              		.thumb
 137              		.thumb_func
 138              		.type	rxchar, %function
 139              	rxchar:
 140              	.LFB124:
 141              		.loc 1 80 0
 142              		.cfi_startproc
 143              		@ args = 0, pretend = 0, frame = 0
 144              		@ frame_needed = 0, uses_anonymous_args = 0
 145              	.LVL5:
 146              		.loc 1 80 0
 147 0000 08B5     		push	{r3, lr}
 148              		.cfi_def_cfa_offset 8
 149              		.cfi_offset 3, -8
 150              		.cfi_offset 14, -4
 151              		.loc 1 85 0
 152 0002 0D4B     		ldr	r3, .L19
 153 0004 4FF48052 		mov	r2, #4096
 154 0008 1A83     		strh	r2, [r3, #24]	@ movhi
 155              	.LBB2:
 156              		.loc 1 86 0
 157 000a 2023     		movs	r3, #32
 158              	@ 86 "MainUart.c" 1
 159 000c 83F31188 		msr     BASEPRI, r3
 160              	@ 0 "" 2
 161              		.thumb
 162              	.LBE2:
 163 0010 FFF7FEFF 		bl	dbg_check_lock_from_isr
 164              	.LVL6:
 165              		.loc 1 87 0
ARM GAS  /tmp/ccSpQzYU.s 			page 4


 166 0014 0948     		ldr	r0, .L19+4
 167 0016 C368     		ldr	r3, [r0, #12]
 168 0018 0BB1     		cbz	r3, .L13
 169              		.loc 1 88 0
 170 001a FFF7FEFF 		bl	chVTResetI
 171              	.LVL7:
 172              	.L13:
 173              		.loc 1 89 0
 174 001e 0748     		ldr	r0, .L19+4
 175 0020 074A     		ldr	r2, .L19+8
 176 0022 C821     		movs	r1, #200
 177 0024 0023     		movs	r3, #0
 178 0026 FFF7FEFF 		bl	chVTSetI
 179              	.LVL8:
 180              		.loc 1 90 0
 181 002a FFF7FEFF 		bl	dbg_check_unlock_from_isr
 182              	.LVL9:
 183              	.LBB3:
 184 002e 0023     		movs	r3, #0
 185              	@ 90 "MainUart.c" 1
 186 0030 83F31188 		msr     BASEPRI, r3
 187              	@ 0 "" 2
 188              		.thumb
 189 0034 08BD     		pop	{r3, pc}
 190              	.L20:
 191 0036 00BF     		.align	2
 192              	.L19:
 193 0038 000C0240 		.word	1073875968
 194 003c 00000000 		.word	.LANCHOR0
 195 0040 00000000 		.word	led4off
 196              	.LBE3:
 197              		.cfi_endproc
 198              	.LFE124:
 199              		.size	rxchar, .-rxchar
 200 0044 AFF30080 		.section	.text.rxend,"ax",%progbits
 200      AFF30080 
 200      AFF30080 
 201              		.align	2
 202              		.p2align 4,,15
 203              		.thumb
 204              		.thumb_func
 205              		.type	rxend, %function
 206              	rxend:
 207              	.LFB125:
 208              		.loc 1 96 0
 209              		.cfi_startproc
 210              		@ args = 0, pretend = 0, frame = 0
 211              		@ frame_needed = 0, uses_anonymous_args = 0
 212              	.LVL10:
 213 0000 08B5     		push	{r3, lr}
 214              		.cfi_def_cfa_offset 8
 215              		.cfi_offset 3, -8
 216              		.cfi_offset 14, -4
 217              		.loc 1 101 0
 218 0002 0D4B     		ldr	r3, .L27
 219 0004 4FF40052 		mov	r2, #8192
 220 0008 1A83     		strh	r2, [r3, #24]	@ movhi
ARM GAS  /tmp/ccSpQzYU.s 			page 5


 221              	.LBB4:
 222              		.loc 1 102 0
 223 000a 2023     		movs	r3, #32
 224              	@ 102 "MainUart.c" 1
 225 000c 83F31188 		msr     BASEPRI, r3
 226              	@ 0 "" 2
 227              		.thumb
 228              	.LBE4:
 229 0010 FFF7FEFF 		bl	dbg_check_lock_from_isr
 230              	.LVL11:
 231              		.loc 1 103 0
 232 0014 0948     		ldr	r0, .L27+4
 233 0016 C368     		ldr	r3, [r0, #12]
 234 0018 0BB1     		cbz	r3, .L22
 235              		.loc 1 104 0
 236 001a FFF7FEFF 		bl	chVTResetI
 237              	.LVL12:
 238              	.L22:
 239              		.loc 1 105 0
 240 001e 0748     		ldr	r0, .L27+4
 241 0020 074A     		ldr	r2, .L27+8
 242 0022 C821     		movs	r1, #200
 243 0024 0023     		movs	r3, #0
 244 0026 FFF7FEFF 		bl	chVTSetI
 245              	.LVL13:
 246              		.loc 1 106 0
 247 002a FFF7FEFF 		bl	dbg_check_unlock_from_isr
 248              	.LVL14:
 249              	.LBB5:
 250 002e 0023     		movs	r3, #0
 251              	@ 106 "MainUart.c" 1
 252 0030 83F31188 		msr     BASEPRI, r3
 253              	@ 0 "" 2
 254              		.thumb
 255 0034 08BD     		pop	{r3, pc}
 256              	.L28:
 257 0036 00BF     		.align	2
 258              	.L27:
 259 0038 000C0240 		.word	1073875968
 260 003c 00000000 		.word	.LANCHOR1
 261 0040 00000000 		.word	led3off
 262              	.LBE5:
 263              		.cfi_endproc
 264              	.LFE125:
 265              		.size	rxend, .-rxend
 266 0044 AFF30080 		.section	.text.txend2,"ax",%progbits
 266      AFF30080 
 266      AFF30080 
 267              		.align	2
 268              		.p2align 4,,15
 269              		.thumb
 270              		.thumb_func
 271              		.type	txend2, %function
 272              	txend2:
 273              	.LFB122:
 274              		.loc 1 55 0
 275              		.cfi_startproc
ARM GAS  /tmp/ccSpQzYU.s 			page 6


 276              		@ args = 0, pretend = 0, frame = 0
 277              		@ frame_needed = 0, uses_anonymous_args = 0
 278              	.LVL15:
 279 0000 08B5     		push	{r3, lr}
 280              		.cfi_def_cfa_offset 8
 281              		.cfi_offset 3, -8
 282              		.cfi_offset 14, -4
 283              		.loc 1 58 0
 284 0002 0D4B     		ldr	r3, .L35
 285 0004 4FF48042 		mov	r2, #16384
 286 0008 1A83     		strh	r2, [r3, #24]	@ movhi
 287              	.LBB6:
 288              		.loc 1 59 0
 289 000a 2023     		movs	r3, #32
 290              	@ 59 "MainUart.c" 1
 291 000c 83F31188 		msr     BASEPRI, r3
 292              	@ 0 "" 2
 293              		.thumb
 294              	.LBE6:
 295 0010 FFF7FEFF 		bl	dbg_check_lock_from_isr
 296              	.LVL16:
 297              		.loc 1 60 0
 298 0014 0948     		ldr	r0, .L35+4
 299 0016 C368     		ldr	r3, [r0, #12]
 300 0018 0BB1     		cbz	r3, .L30
 301              		.loc 1 61 0
 302 001a FFF7FEFF 		bl	chVTResetI
 303              	.LVL17:
 304              	.L30:
 305              		.loc 1 62 0
 306 001e 0748     		ldr	r0, .L35+4
 307 0020 074A     		ldr	r2, .L35+8
 308 0022 C821     		movs	r1, #200
 309 0024 0023     		movs	r3, #0
 310 0026 FFF7FEFF 		bl	chVTSetI
 311              	.LVL18:
 312              		.loc 1 63 0
 313 002a FFF7FEFF 		bl	dbg_check_unlock_from_isr
 314              	.LVL19:
 315              	.LBB7:
 316 002e 0023     		movs	r3, #0
 317              	@ 63 "MainUart.c" 1
 318 0030 83F31188 		msr     BASEPRI, r3
 319              	@ 0 "" 2
 320              		.thumb
 321 0034 08BD     		pop	{r3, pc}
 322              	.L36:
 323 0036 00BF     		.align	2
 324              	.L35:
 325 0038 000C0240 		.word	1073875968
 326 003c 00000000 		.word	.LANCHOR2
 327 0040 00000000 		.word	led5off
 328              	.LBE7:
 329              		.cfi_endproc
 330              	.LFE122:
 331              		.size	txend2, .-txend2
 332 0044 AFF30080 		.section	.text.startup.main,"ax",%progbits
ARM GAS  /tmp/ccSpQzYU.s 			page 7


 332      AFF30080 
 332      AFF30080 
 333              		.align	2
 334              		.p2align 4,,15
 335              		.global	main
 336              		.thumb
 337              		.thumb_func
 338              		.type	main, %function
 339              	main:
 340              	.LFB126:
 341              		.loc 1 127 0
 342              		.cfi_startproc
 343              		@ Volatile: function does not return.
 344              		@ args = 0, pretend = 0, frame = 0
 345              		@ frame_needed = 0, uses_anonymous_args = 0
 346 0000 08B5     		push	{r3, lr}
 347              		.cfi_def_cfa_offset 8
 348              		.cfi_offset 3, -8
 349              		.cfi_offset 14, -4
 350              		.loc 1 136 0
 351 0002 FFF7FEFF 		bl	halInit
 352              	.LVL20:
 353              		.loc 1 137 0
 354 0006 FFF7FEFF 		bl	chSysInit
 355              	.LVL21:
 356              		.loc 1 142 0
 357 000a 1048     		ldr	r0, .L40
 358 000c 1049     		ldr	r1, .L40+4
 359 000e FFF7FEFF 		bl	uartStart
 360              	.LVL22:
 361              		.loc 1 143 0
 362 0012 1048     		ldr	r0, .L40+8
 363 0014 0421     		movs	r1, #4
 364 0016 40F28232 		movw	r2, #898
 365 001a FFF7FEFF 		bl	_pal_lld_setgroupmode
 366              	.LVL23:
 367              		.loc 1 144 0
 368 001e 0D48     		ldr	r0, .L40+8
 369 0020 0821     		movs	r1, #8
 370 0022 40F28232 		movw	r2, #898
 371 0026 FFF7FEFF 		bl	_pal_lld_setgroupmode
 372              	.LVL24:
 373              	.L38:
 374              		.loc 1 156 0 discriminator 1
 375 002a 0848     		ldr	r0, .L40
 376 002c FFF7FEFF 		bl	uartStopReceive
 377              	.LVL25:
 378              		.loc 1 157 0 discriminator 1
 379 0030 0648     		ldr	r0, .L40
 380 0032 FFF7FEFF 		bl	uartStopSend
 381              	.LVL26:
 382              		.loc 1 159 0 discriminator 1
 383 0036 0548     		ldr	r0, .L40
 384 0038 074A     		ldr	r2, .L40+12
 385 003a 0521     		movs	r1, #5
 386 003c FFF7FEFF 		bl	uartStartSend
 387              	.LVL27:
ARM GAS  /tmp/ccSpQzYU.s 			page 8


 388              		.loc 1 161 0 discriminator 1
 389 0040 4FF4FA70 		mov	r0, #500
 390 0044 FFF7FEFF 		bl	chThdSleep
 391              	.LVL28:
 392              		.loc 1 162 0 discriminator 1
 393 0048 EFE7     		b	.L38
 394              	.L41:
 395 004a 00BF     		.align	2
 396              	.L40:
 397 004c 00000000 		.word	UARTD2
 398 0050 00000000 		.word	.LANCHOR3
 399 0054 00000240 		.word	1073872896
 400 0058 00000000 		.word	.LC0
 401              		.cfi_endproc
 402              	.LFE126:
 403              		.size	main, .-main
 404 005c AFF30080 		.section	.bss.vt3,"aw",%nobits
 405              		.align	2
 406              		.set	.LANCHOR1,. + 0
 407              		.type	vt3, %object
 408              		.size	vt3, 20
 409              	vt3:
 410 0000 00000000 		.space	20
 410      00000000 
 410      00000000 
 410      00000000 
 410      00000000 
 411              		.section	.bss.vt4,"aw",%nobits
 412              		.align	2
 413              		.set	.LANCHOR0,. + 0
 414              		.type	vt4, %object
 415              		.size	vt4, 20
 416              	vt4:
 417 0000 00000000 		.space	20
 417      00000000 
 417      00000000 
 417      00000000 
 417      00000000 
 418              		.section	.bss.vt5,"aw",%nobits
 419              		.align	2
 420              		.set	.LANCHOR2,. + 0
 421              		.type	vt5, %object
 422              		.size	vt5, 20
 423              	vt5:
 424 0000 00000000 		.space	20
 424      00000000 
 424      00000000 
 424      00000000 
 424      00000000 
 425              		.section	.rodata.str1.4,"aMS",%progbits,1
 426              		.align	2
 427              	.LC0:
 428 0000 486F6C61 		.ascii	"Hola\012\000"
 428      0A00
 429 0006 0000     		.section	.data.uart_cfg_1,"aw",%progbits
 430              		.align	2
 431              		.set	.LANCHOR3,. + 0
ARM GAS  /tmp/ccSpQzYU.s 			page 9


 432              		.type	uart_cfg_1, %object
 433              		.size	uart_cfg_1, 32
 434              	uart_cfg_1:
 435 0000 00000000 		.word	txend1
 436 0004 00000000 		.word	txend2
 437 0008 00000000 		.word	rxend
 438 000c 00000000 		.word	rxchar
 439 0010 00000000 		.word	rxerr
 440 0014 80250000 		.word	9600
 441 0018 0000     		.short	0
 442 001a 0040     		.short	16384
 443 001c 0000     		.short	0
 444 001e 0000     		.space	2
 445              		.text
 446              	.Letext0:
 447              		.file 2 "/usr/lib/gcc/arm-none-eabi/4.9.3/include/stddef.h"
 448              		.file 3 "/usr/include/newlib/machine/_default_types.h"
 449              		.file 4 "/usr/include/newlib/stdint.h"
 450              		.file 5 "../../os/ports/GCC/ARMCMx/chtypes.h"
 451              		.file 6 "../../os/kernel/include/chvt.h"
 452              		.file 7 "../../os/hal/platforms/STM32F4xx/stm32f4xx.h"
 453              		.file 8 "../../os/hal/platforms/STM32F4xx/stm32_dma.h"
 454              		.file 9 "../../os/hal/platforms/STM32/GPIOv2/pal_lld.h"
 455              		.file 10 "../../os/hal/include/uart.h"
 456              		.file 11 "../../os/hal/platforms/STM32/USARTv1/uart_lld.h"
 457              		.file 12 "../../os/ports/common/ARMCMx/CMSIS/include/core_cm4.h"
 458              		.file 13 "../../os/kernel/include/chdebug.h"
 459              		.file 14 "../../os/hal/include/hal.h"
 460              		.file 15 "../../os/kernel/include/chsys.h"
 461              		.file 16 "../../os/kernel/include/chthreads.h"
 462              		.section	.debug_info,"",%progbits
 463              	.Ldebug_info0:
 464 0000 100B0000 		.4byte	0xb10
 465 0004 0400     		.2byte	0x4
 466 0006 00000000 		.4byte	.Ldebug_abbrev0
 467 000a 04       		.byte	0x4
 468 000b 01       		.uleb128 0x1
 469 000c 76000000 		.4byte	.LASF119
 470 0010 01       		.byte	0x1
 471 0011 15020000 		.4byte	.LASF120
 472 0015 29010000 		.4byte	.LASF121
 473 0019 00000000 		.4byte	.Ldebug_ranges0+0
 474 001d 00000000 		.4byte	0
 475 0021 00000000 		.4byte	.Ldebug_line0
 476 0025 02       		.uleb128 0x2
 477 0026 04       		.byte	0x4
 478 0027 05       		.byte	0x5
 479 0028 696E7400 		.ascii	"int\000"
 480 002c 03       		.uleb128 0x3
 481 002d 30000000 		.4byte	.LASF2
 482 0031 02       		.byte	0x2
 483 0032 D4       		.byte	0xd4
 484 0033 37000000 		.4byte	0x37
 485 0037 04       		.uleb128 0x4
 486 0038 04       		.byte	0x4
 487 0039 07       		.byte	0x7
 488 003a 7E020000 		.4byte	.LASF0
ARM GAS  /tmp/ccSpQzYU.s 			page 10


 489 003e 04       		.uleb128 0x4
 490 003f 01       		.byte	0x1
 491 0040 06       		.byte	0x6
 492 0041 97010000 		.4byte	.LASF1
 493 0045 03       		.uleb128 0x3
 494 0046 41000000 		.4byte	.LASF3
 495 004a 03       		.byte	0x3
 496 004b 1D       		.byte	0x1d
 497 004c 50000000 		.4byte	0x50
 498 0050 04       		.uleb128 0x4
 499 0051 01       		.byte	0x1
 500 0052 08       		.byte	0x8
 501 0053 1F040000 		.4byte	.LASF4
 502 0057 04       		.uleb128 0x4
 503 0058 02       		.byte	0x2
 504 0059 05       		.byte	0x5
 505 005a 2D040000 		.4byte	.LASF5
 506 005e 03       		.uleb128 0x3
 507 005f 97040000 		.4byte	.LASF6
 508 0063 03       		.byte	0x3
 509 0064 2B       		.byte	0x2b
 510 0065 69000000 		.4byte	0x69
 511 0069 04       		.uleb128 0x4
 512 006a 02       		.byte	0x2
 513 006b 07       		.byte	0x7
 514 006c C0020000 		.4byte	.LASF7
 515 0070 03       		.uleb128 0x3
 516 0071 F7020000 		.4byte	.LASF8
 517 0075 03       		.byte	0x3
 518 0076 3F       		.byte	0x3f
 519 0077 7B000000 		.4byte	0x7b
 520 007b 04       		.uleb128 0x4
 521 007c 04       		.byte	0x4
 522 007d 05       		.byte	0x5
 523 007e E7010000 		.4byte	.LASF9
 524 0082 03       		.uleb128 0x3
 525 0083 44020000 		.4byte	.LASF10
 526 0087 03       		.byte	0x3
 527 0088 41       		.byte	0x41
 528 0089 8D000000 		.4byte	0x8d
 529 008d 04       		.uleb128 0x4
 530 008e 04       		.byte	0x4
 531 008f 07       		.byte	0x7
 532 0090 9C020000 		.4byte	.LASF11
 533 0094 04       		.uleb128 0x4
 534 0095 08       		.byte	0x8
 535 0096 05       		.byte	0x5
 536 0097 89010000 		.4byte	.LASF12
 537 009b 04       		.uleb128 0x4
 538 009c 08       		.byte	0x8
 539 009d 07       		.byte	0x7
 540 009e 5F000000 		.4byte	.LASF13
 541 00a2 03       		.uleb128 0x3
 542 00a3 52050000 		.4byte	.LASF14
 543 00a7 04       		.byte	0x4
 544 00a8 15       		.byte	0x15
 545 00a9 45000000 		.4byte	0x45
ARM GAS  /tmp/ccSpQzYU.s 			page 11


 546 00ad 03       		.uleb128 0x3
 547 00ae 93020000 		.4byte	.LASF15
 548 00b2 04       		.byte	0x4
 549 00b3 21       		.byte	0x21
 550 00b4 5E000000 		.4byte	0x5e
 551 00b8 03       		.uleb128 0x3
 552 00b9 17040000 		.4byte	.LASF16
 553 00bd 04       		.byte	0x4
 554 00be 2C       		.byte	0x2c
 555 00bf 70000000 		.4byte	0x70
 556 00c3 03       		.uleb128 0x3
 557 00c4 6D040000 		.4byte	.LASF17
 558 00c8 04       		.byte	0x4
 559 00c9 2D       		.byte	0x2d
 560 00ca 82000000 		.4byte	0x82
 561 00ce 04       		.uleb128 0x4
 562 00cf 01       		.byte	0x1
 563 00d0 02       		.byte	0x2
 564 00d1 11040000 		.4byte	.LASF18
 565 00d5 03       		.uleb128 0x3
 566 00d6 AC040000 		.4byte	.LASF19
 567 00da 05       		.byte	0x5
 568 00db 35       		.byte	0x35
 569 00dc C3000000 		.4byte	0xc3
 570 00e0 05       		.uleb128 0x5
 571 00e1 04       		.byte	0x4
 572 00e2 06       		.uleb128 0x6
 573 00e3 C3000000 		.4byte	0xc3
 574 00e7 04       		.uleb128 0x4
 575 00e8 04       		.byte	0x4
 576 00e9 07       		.byte	0x7
 577 00ea 16030000 		.4byte	.LASF20
 578 00ee 03       		.uleb128 0x3
 579 00ef BD040000 		.4byte	.LASF21
 580 00f3 06       		.byte	0x6
 581 00f4 58       		.byte	0x58
 582 00f5 F9000000 		.4byte	0xf9
 583 00f9 07       		.uleb128 0x7
 584 00fa 04       		.byte	0x4
 585 00fb FF000000 		.4byte	0xff
 586 00ff 08       		.uleb128 0x8
 587 0100 0A010000 		.4byte	0x10a
 588 0104 09       		.uleb128 0x9
 589 0105 E0000000 		.4byte	0xe0
 590 0109 00       		.byte	0
 591 010a 03       		.uleb128 0x3
 592 010b 76040000 		.4byte	.LASF22
 593 010f 06       		.byte	0x6
 594 0110 5D       		.byte	0x5d
 595 0111 15010000 		.4byte	0x115
 596 0115 0A       		.uleb128 0xa
 597 0116 76040000 		.4byte	.LASF22
 598 011a 14       		.byte	0x14
 599 011b 06       		.byte	0x6
 600 011c 64       		.byte	0x64
 601 011d 5E010000 		.4byte	0x15e
 602 0121 0B       		.uleb128 0xb
ARM GAS  /tmp/ccSpQzYU.s 			page 12


 603 0122 8B020000 		.4byte	.LASF23
 604 0126 06       		.byte	0x6
 605 0127 65       		.byte	0x65
 606 0128 5E010000 		.4byte	0x15e
 607 012c 00       		.byte	0
 608 012d 0B       		.uleb128 0xb
 609 012e 4F020000 		.4byte	.LASF24
 610 0132 06       		.byte	0x6
 611 0133 67       		.byte	0x67
 612 0134 5E010000 		.4byte	0x15e
 613 0138 04       		.byte	0x4
 614 0139 0B       		.uleb128 0xb
 615 013a 0E030000 		.4byte	.LASF25
 616 013e 06       		.byte	0x6
 617 013f 69       		.byte	0x69
 618 0140 D5000000 		.4byte	0xd5
 619 0144 08       		.byte	0x8
 620 0145 0B       		.uleb128 0xb
 621 0146 9B050000 		.4byte	.LASF26
 622 014a 06       		.byte	0x6
 623 014b 6A       		.byte	0x6a
 624 014c EE000000 		.4byte	0xee
 625 0150 0C       		.byte	0xc
 626 0151 0B       		.uleb128 0xb
 627 0152 35050000 		.4byte	.LASF27
 628 0156 06       		.byte	0x6
 629 0157 6C       		.byte	0x6c
 630 0158 E0000000 		.4byte	0xe0
 631 015c 10       		.byte	0x10
 632 015d 00       		.byte	0
 633 015e 07       		.uleb128 0x7
 634 015f 04       		.byte	0x4
 635 0160 0A010000 		.4byte	0x10a
 636 0164 04       		.uleb128 0x4
 637 0165 01       		.byte	0x1
 638 0166 08       		.byte	0x8
 639 0167 83040000 		.4byte	.LASF28
 640 016b 06       		.uleb128 0x6
 641 016c AD000000 		.4byte	0xad
 642 0170 06       		.uleb128 0x6
 643 0171 B8000000 		.4byte	0xb8
 644 0175 0C       		.uleb128 0xc
 645 0176 18       		.byte	0x18
 646 0177 07       		.byte	0x7
 647 0178 B102     		.2byte	0x2b1
 648 017a CC010000 		.4byte	0x1cc
 649 017e 0D       		.uleb128 0xd
 650 017f 435200   		.ascii	"CR\000"
 651 0182 07       		.byte	0x7
 652 0183 B302     		.2byte	0x2b3
 653 0185 E2000000 		.4byte	0xe2
 654 0189 00       		.byte	0
 655 018a 0E       		.uleb128 0xe
 656 018b D3040000 		.4byte	.LASF29
 657 018f 07       		.byte	0x7
 658 0190 B402     		.2byte	0x2b4
 659 0192 E2000000 		.4byte	0xe2
ARM GAS  /tmp/ccSpQzYU.s 			page 13


 660 0196 04       		.byte	0x4
 661 0197 0D       		.uleb128 0xd
 662 0198 50415200 		.ascii	"PAR\000"
 663 019c 07       		.byte	0x7
 664 019d B502     		.2byte	0x2b5
 665 019f E2000000 		.4byte	0xe2
 666 01a3 08       		.byte	0x8
 667 01a4 0E       		.uleb128 0xe
 668 01a5 2B000000 		.4byte	.LASF30
 669 01a9 07       		.byte	0x7
 670 01aa B602     		.2byte	0x2b6
 671 01ac E2000000 		.4byte	0xe2
 672 01b0 0C       		.byte	0xc
 673 01b1 0E       		.uleb128 0xe
 674 01b2 26050000 		.4byte	.LASF31
 675 01b6 07       		.byte	0x7
 676 01b7 B702     		.2byte	0x2b7
 677 01b9 E2000000 		.4byte	0xe2
 678 01bd 10       		.byte	0x10
 679 01be 0D       		.uleb128 0xd
 680 01bf 46435200 		.ascii	"FCR\000"
 681 01c3 07       		.byte	0x7
 682 01c4 B802     		.2byte	0x2b8
 683 01c6 E2000000 		.4byte	0xe2
 684 01ca 14       		.byte	0x14
 685 01cb 00       		.byte	0
 686 01cc 0F       		.uleb128 0xf
 687 01cd D8040000 		.4byte	.LASF32
 688 01d1 07       		.byte	0x7
 689 01d2 B902     		.2byte	0x2b9
 690 01d4 75010000 		.4byte	0x175
 691 01d8 0C       		.uleb128 0xc
 692 01d9 1C       		.byte	0x1c
 693 01da 07       		.byte	0x7
 694 01db 2905     		.2byte	0x529
 695 01dd 96020000 		.4byte	0x296
 696 01e1 0D       		.uleb128 0xd
 697 01e2 535200   		.ascii	"SR\000"
 698 01e5 07       		.byte	0x7
 699 01e6 2B05     		.2byte	0x52b
 700 01e8 6B010000 		.4byte	0x16b
 701 01ec 00       		.byte	0
 702 01ed 0E       		.uleb128 0xe
 703 01ee AE030000 		.4byte	.LASF33
 704 01f2 07       		.byte	0x7
 705 01f3 2C05     		.2byte	0x52c
 706 01f5 AD000000 		.4byte	0xad
 707 01f9 02       		.byte	0x2
 708 01fa 0D       		.uleb128 0xd
 709 01fb 445200   		.ascii	"DR\000"
 710 01fe 07       		.byte	0x7
 711 01ff 2D05     		.2byte	0x52d
 712 0201 6B010000 		.4byte	0x16b
 713 0205 04       		.byte	0x4
 714 0206 0E       		.uleb128 0xe
 715 0207 B8030000 		.4byte	.LASF34
 716 020b 07       		.byte	0x7
ARM GAS  /tmp/ccSpQzYU.s 			page 14


 717 020c 2E05     		.2byte	0x52e
 718 020e AD000000 		.4byte	0xad
 719 0212 06       		.byte	0x6
 720 0213 0D       		.uleb128 0xd
 721 0214 42525200 		.ascii	"BRR\000"
 722 0218 07       		.byte	0x7
 723 0219 2F05     		.2byte	0x52f
 724 021b 6B010000 		.4byte	0x16b
 725 021f 08       		.byte	0x8
 726 0220 0E       		.uleb128 0xe
 727 0221 C2030000 		.4byte	.LASF35
 728 0225 07       		.byte	0x7
 729 0226 3005     		.2byte	0x530
 730 0228 AD000000 		.4byte	0xad
 731 022c 0A       		.byte	0xa
 732 022d 0D       		.uleb128 0xd
 733 022e 43523100 		.ascii	"CR1\000"
 734 0232 07       		.byte	0x7
 735 0233 3105     		.2byte	0x531
 736 0235 6B010000 		.4byte	0x16b
 737 0239 0C       		.byte	0xc
 738 023a 0E       		.uleb128 0xe
 739 023b CC030000 		.4byte	.LASF36
 740 023f 07       		.byte	0x7
 741 0240 3205     		.2byte	0x532
 742 0242 AD000000 		.4byte	0xad
 743 0246 0E       		.byte	0xe
 744 0247 0D       		.uleb128 0xd
 745 0248 43523200 		.ascii	"CR2\000"
 746 024c 07       		.byte	0x7
 747 024d 3305     		.2byte	0x533
 748 024f 6B010000 		.4byte	0x16b
 749 0253 10       		.byte	0x10
 750 0254 0E       		.uleb128 0xe
 751 0255 D6030000 		.4byte	.LASF37
 752 0259 07       		.byte	0x7
 753 025a 3405     		.2byte	0x534
 754 025c AD000000 		.4byte	0xad
 755 0260 12       		.byte	0x12
 756 0261 0D       		.uleb128 0xd
 757 0262 43523300 		.ascii	"CR3\000"
 758 0266 07       		.byte	0x7
 759 0267 3505     		.2byte	0x535
 760 0269 6B010000 		.4byte	0x16b
 761 026d 14       		.byte	0x14
 762 026e 0E       		.uleb128 0xe
 763 026f E0030000 		.4byte	.LASF38
 764 0273 07       		.byte	0x7
 765 0274 3605     		.2byte	0x536
 766 0276 AD000000 		.4byte	0xad
 767 027a 16       		.byte	0x16
 768 027b 0E       		.uleb128 0xe
 769 027c B9010000 		.4byte	.LASF39
 770 0280 07       		.byte	0x7
 771 0281 3705     		.2byte	0x537
 772 0283 6B010000 		.4byte	0x16b
 773 0287 18       		.byte	0x18
ARM GAS  /tmp/ccSpQzYU.s 			page 15


 774 0288 0E       		.uleb128 0xe
 775 0289 EA030000 		.4byte	.LASF40
 776 028d 07       		.byte	0x7
 777 028e 3805     		.2byte	0x538
 778 0290 AD000000 		.4byte	0xad
 779 0294 1A       		.byte	0x1a
 780 0295 00       		.byte	0
 781 0296 0F       		.uleb128 0xf
 782 0297 E9020000 		.4byte	.LASF41
 783 029b 07       		.byte	0x7
 784 029c 3905     		.2byte	0x539
 785 029e D8010000 		.4byte	0x1d8
 786 02a2 10       		.uleb128 0x10
 787 02a3 0C       		.byte	0xc
 788 02a4 08       		.byte	0x8
 789 02a5 DA       		.byte	0xda
 790 02a6 E7020000 		.4byte	0x2e7
 791 02aa 0B       		.uleb128 0xb
 792 02ab 52000000 		.4byte	.LASF42
 793 02af 08       		.byte	0x8
 794 02b0 DB       		.byte	0xdb
 795 02b1 E7020000 		.4byte	0x2e7
 796 02b5 00       		.byte	0
 797 02b6 0B       		.uleb128 0xb
 798 02b7 68040000 		.4byte	.LASF43
 799 02bb 08       		.byte	0x8
 800 02bc DC       		.byte	0xdc
 801 02bd ED020000 		.4byte	0x2ed
 802 02c1 04       		.byte	0x4
 803 02c2 0B       		.uleb128 0xb
 804 02c3 A3010000 		.4byte	.LASF44
 805 02c7 08       		.byte	0x8
 806 02c8 DD       		.byte	0xdd
 807 02c9 A2000000 		.4byte	0xa2
 808 02cd 08       		.byte	0x8
 809 02ce 0B       		.uleb128 0xb
 810 02cf 2B050000 		.4byte	.LASF45
 811 02d3 08       		.byte	0x8
 812 02d4 DF       		.byte	0xdf
 813 02d5 A2000000 		.4byte	0xa2
 814 02d9 09       		.byte	0x9
 815 02da 0B       		.uleb128 0xb
 816 02db 64010000 		.4byte	.LASF46
 817 02df 08       		.byte	0x8
 818 02e0 E0       		.byte	0xe0
 819 02e1 A2000000 		.4byte	0xa2
 820 02e5 0A       		.byte	0xa
 821 02e6 00       		.byte	0
 822 02e7 07       		.uleb128 0x7
 823 02e8 04       		.byte	0x4
 824 02e9 CC010000 		.4byte	0x1cc
 825 02ed 07       		.uleb128 0x7
 826 02ee 04       		.byte	0x4
 827 02ef E2000000 		.4byte	0xe2
 828 02f3 03       		.uleb128 0x3
 829 02f4 F4030000 		.4byte	.LASF47
 830 02f8 08       		.byte	0x8
ARM GAS  /tmp/ccSpQzYU.s 			page 16


 831 02f9 E1       		.byte	0xe1
 832 02fa A2020000 		.4byte	0x2a2
 833 02fe 10       		.uleb128 0x10
 834 02ff 04       		.byte	0x4
 835 0300 09       		.byte	0x9
 836 0301 96       		.byte	0x96
 837 0302 1F030000 		.4byte	0x31f
 838 0306 11       		.uleb128 0x11
 839 0307 73657400 		.ascii	"set\000"
 840 030b 09       		.byte	0x9
 841 030c 97       		.byte	0x97
 842 030d AD000000 		.4byte	0xad
 843 0311 00       		.byte	0
 844 0312 0B       		.uleb128 0xb
 845 0313 1F030000 		.4byte	.LASF48
 846 0317 09       		.byte	0x9
 847 0318 98       		.byte	0x98
 848 0319 AD000000 		.4byte	0xad
 849 031d 02       		.byte	0x2
 850 031e 00       		.byte	0
 851 031f 12       		.uleb128 0x12
 852 0320 04       		.byte	0x4
 853 0321 09       		.byte	0x9
 854 0322 94       		.byte	0x94
 855 0323 3A030000 		.4byte	0x33a
 856 0327 13       		.uleb128 0x13
 857 0328 5700     		.ascii	"W\000"
 858 032a 09       		.byte	0x9
 859 032b 95       		.byte	0x95
 860 032c C3000000 		.4byte	0xc3
 861 0330 13       		.uleb128 0x13
 862 0331 4800     		.ascii	"H\000"
 863 0333 09       		.byte	0x9
 864 0334 99       		.byte	0x99
 865 0335 FE020000 		.4byte	0x2fe
 866 0339 00       		.byte	0
 867 033a 10       		.uleb128 0x10
 868 033b 28       		.byte	0x28
 869 033c 09       		.byte	0x9
 870 033d 8C       		.byte	0x8c
 871 033e BB030000 		.4byte	0x3bb
 872 0342 0B       		.uleb128 0xb
 873 0343 59000000 		.4byte	.LASF49
 874 0347 09       		.byte	0x9
 875 0348 8E       		.byte	0x8e
 876 0349 E2000000 		.4byte	0xe2
 877 034d 00       		.byte	0
 878 034e 0B       		.uleb128 0xb
 879 034f 4B000000 		.4byte	.LASF50
 880 0353 09       		.byte	0x9
 881 0354 8F       		.byte	0x8f
 882 0355 E2000000 		.4byte	0xe2
 883 0359 04       		.byte	0x4
 884 035a 0B       		.uleb128 0xb
 885 035b 3C020000 		.4byte	.LASF51
 886 035f 09       		.byte	0x9
 887 0360 90       		.byte	0x90
ARM GAS  /tmp/ccSpQzYU.s 			page 17


 888 0361 E2000000 		.4byte	0xe2
 889 0365 08       		.byte	0x8
 890 0366 0B       		.uleb128 0xb
 891 0367 06000000 		.4byte	.LASF52
 892 036b 09       		.byte	0x9
 893 036c 91       		.byte	0x91
 894 036d E2000000 		.4byte	0xe2
 895 0371 0C       		.byte	0xc
 896 0372 11       		.uleb128 0x11
 897 0373 49445200 		.ascii	"IDR\000"
 898 0377 09       		.byte	0x9
 899 0378 92       		.byte	0x92
 900 0379 E2000000 		.4byte	0xe2
 901 037d 10       		.byte	0x10
 902 037e 11       		.uleb128 0x11
 903 037f 4F445200 		.ascii	"ODR\000"
 904 0383 09       		.byte	0x9
 905 0384 93       		.byte	0x93
 906 0385 E2000000 		.4byte	0xe2
 907 0389 14       		.byte	0x14
 908 038a 0B       		.uleb128 0xb
 909 038b AA010000 		.4byte	.LASF53
 910 038f 09       		.byte	0x9
 911 0390 9A       		.byte	0x9a
 912 0391 BB030000 		.4byte	0x3bb
 913 0395 18       		.byte	0x18
 914 0396 0B       		.uleb128 0xb
 915 0397 17000000 		.4byte	.LASF54
 916 039b 09       		.byte	0x9
 917 039c 9B       		.byte	0x9b
 918 039d E2000000 		.4byte	0xe2
 919 03a1 1C       		.byte	0x1c
 920 03a2 0B       		.uleb128 0xb
 921 03a3 A3030000 		.4byte	.LASF55
 922 03a7 09       		.byte	0x9
 923 03a8 9C       		.byte	0x9c
 924 03a9 E2000000 		.4byte	0xe2
 925 03ad 20       		.byte	0x20
 926 03ae 0B       		.uleb128 0xb
 927 03af 9E030000 		.4byte	.LASF56
 928 03b3 09       		.byte	0x9
 929 03b4 9D       		.byte	0x9d
 930 03b5 E2000000 		.4byte	0xe2
 931 03b9 24       		.byte	0x24
 932 03ba 00       		.byte	0
 933 03bb 06       		.uleb128 0x6
 934 03bc 1F030000 		.4byte	0x31f
 935 03c0 03       		.uleb128 0x3
 936 03c1 CC010000 		.4byte	.LASF57
 937 03c5 09       		.byte	0x9
 938 03c6 9E       		.byte	0x9e
 939 03c7 3A030000 		.4byte	0x33a
 940 03cb 03       		.uleb128 0x3
 941 03cc 4C030000 		.4byte	.LASF58
 942 03d0 09       		.byte	0x9
 943 03d1 F0       		.byte	0xf0
 944 03d2 C3000000 		.4byte	0xc3
ARM GAS  /tmp/ccSpQzYU.s 			page 18


 945 03d6 03       		.uleb128 0x3
 946 03d7 92050000 		.4byte	.LASF59
 947 03db 09       		.byte	0x9
 948 03dc F5       		.byte	0xf5
 949 03dd C3000000 		.4byte	0xc3
 950 03e1 03       		.uleb128 0x3
 951 03e2 EB040000 		.4byte	.LASF60
 952 03e6 09       		.byte	0x9
 953 03e7 FD       		.byte	0xfd
 954 03e8 EC030000 		.4byte	0x3ec
 955 03ec 07       		.uleb128 0x7
 956 03ed 04       		.byte	0x4
 957 03ee C0030000 		.4byte	0x3c0
 958 03f2 07       		.uleb128 0x7
 959 03f3 04       		.byte	0x4
 960 03f4 F8030000 		.4byte	0x3f8
 961 03f8 14       		.uleb128 0x14
 962 03f9 F3020000 		.4byte	0x2f3
 963 03fd 15       		.uleb128 0x15
 964 03fe 01       		.byte	0x1
 965 03ff 0A       		.byte	0xa
 966 0400 48       		.byte	0x48
 967 0401 18040000 		.4byte	0x418
 968 0405 16       		.uleb128 0x16
 969 0406 D3020000 		.4byte	.LASF61
 970 040a 00       		.sleb128 0
 971 040b 16       		.uleb128 0x16
 972 040c DF020000 		.4byte	.LASF62
 973 0410 01       		.sleb128 1
 974 0411 16       		.uleb128 0x16
 975 0412 5E020000 		.4byte	.LASF63
 976 0416 02       		.sleb128 2
 977 0417 00       		.byte	0
 978 0418 03       		.uleb128 0x3
 979 0419 40040000 		.4byte	.LASF64
 980 041d 0A       		.byte	0xa
 981 041e 4C       		.byte	0x4c
 982 041f FD030000 		.4byte	0x3fd
 983 0423 15       		.uleb128 0x15
 984 0424 01       		.byte	0x1
 985 0425 0A       		.byte	0xa
 986 0426 51       		.byte	0x51
 987 0427 3E040000 		.4byte	0x43e
 988 042b 16       		.uleb128 0x16
 989 042c C6040000 		.4byte	.LASF65
 990 0430 00       		.sleb128 0
 991 0431 16       		.uleb128 0x16
 992 0432 69020000 		.4byte	.LASF66
 993 0436 01       		.sleb128 1
 994 0437 16       		.uleb128 0x16
 995 0438 4C040000 		.4byte	.LASF67
 996 043c 02       		.sleb128 2
 997 043d 00       		.byte	0
 998 043e 03       		.uleb128 0x3
 999 043f 89030000 		.4byte	.LASF68
 1000 0443 0A       		.byte	0xa
 1001 0444 55       		.byte	0x55
ARM GAS  /tmp/ccSpQzYU.s 			page 19


 1002 0445 23040000 		.4byte	0x423
 1003 0449 15       		.uleb128 0x15
 1004 044a 01       		.byte	0x1
 1005 044b 0A       		.byte	0xa
 1006 044c 5A       		.byte	0x5a
 1007 044d 64040000 		.4byte	0x464
 1008 0451 16       		.uleb128 0x16
 1009 0452 5A050000 		.4byte	.LASF69
 1010 0456 00       		.sleb128 0
 1011 0457 16       		.uleb128 0x16
 1012 0458 1C000000 		.4byte	.LASF70
 1013 045c 01       		.sleb128 1
 1014 045d 16       		.uleb128 0x16
 1015 045e 25030000 		.4byte	.LASF71
 1016 0462 02       		.sleb128 2
 1017 0463 00       		.byte	0
 1018 0464 03       		.uleb128 0x3
 1019 0465 3C050000 		.4byte	.LASF72
 1020 0469 0A       		.byte	0xa
 1021 046a 5E       		.byte	0x5e
 1022 046b 49040000 		.4byte	0x449
 1023 046f 0F       		.uleb128 0xf
 1024 0470 62030000 		.4byte	.LASF73
 1025 0474 0B       		.byte	0xb
 1026 0475 FE01     		.2byte	0x1fe
 1027 0477 C3000000 		.4byte	0xc3
 1028 047b 0F       		.uleb128 0xf
 1029 047c 31020000 		.4byte	.LASF74
 1030 0480 0B       		.byte	0xb
 1031 0481 0302     		.2byte	0x203
 1032 0483 87040000 		.4byte	0x487
 1033 0487 17       		.uleb128 0x17
 1034 0488 31020000 		.4byte	.LASF74
 1035 048c 1C       		.byte	0x1c
 1036 048d 0B       		.byte	0xb
 1037 048e 4B02     		.2byte	0x24b
 1038 0490 0A050000 		.4byte	0x50a
 1039 0494 0E       		.uleb128 0xe
 1040 0495 D9010000 		.4byte	.LASF75
 1041 0499 0B       		.byte	0xb
 1042 049a 4F02     		.2byte	0x24f
 1043 049c 18040000 		.4byte	0x418
 1044 04a0 00       		.byte	0
 1045 04a1 0E       		.uleb128 0xe
 1046 04a2 DF010000 		.4byte	.LASF76
 1047 04a6 0B       		.byte	0xb
 1048 04a7 5302     		.2byte	0x253
 1049 04a9 3E040000 		.4byte	0x43e
 1050 04ad 01       		.byte	0x1
 1051 04ae 0E       		.uleb128 0xe
 1052 04af C4010000 		.4byte	.LASF77
 1053 04b3 0B       		.byte	0xb
 1054 04b4 5702     		.2byte	0x257
 1055 04b6 64040000 		.4byte	0x464
 1056 04ba 02       		.byte	0x2
 1057 04bb 0E       		.uleb128 0xe
 1058 04bc 88040000 		.4byte	.LASF78
ARM GAS  /tmp/ccSpQzYU.s 			page 20


 1059 04c0 0B       		.byte	0xb
 1060 04c1 5B02     		.2byte	0x25b
 1061 04c3 FC050000 		.4byte	0x5fc
 1062 04c7 04       		.byte	0x4
 1063 04c8 0E       		.uleb128 0xe
 1064 04c9 78020000 		.4byte	.LASF79
 1065 04cd 0B       		.byte	0xb
 1066 04ce 6302     		.2byte	0x263
 1067 04d0 07060000 		.4byte	0x607
 1068 04d4 08       		.byte	0x8
 1069 04d5 0E       		.uleb128 0xe
 1070 04d6 7F050000 		.4byte	.LASF80
 1071 04da 0B       		.byte	0xb
 1072 04db 6702     		.2byte	0x267
 1073 04dd C3000000 		.4byte	0xc3
 1074 04e1 0C       		.byte	0xc
 1075 04e2 0E       		.uleb128 0xe
 1076 04e3 00000000 		.4byte	.LASF81
 1077 04e7 0B       		.byte	0xb
 1078 04e8 6B02     		.2byte	0x26b
 1079 04ea F2030000 		.4byte	0x3f2
 1080 04ee 10       		.byte	0x10
 1081 04ef 0E       		.uleb128 0xe
 1082 04f0 2B020000 		.4byte	.LASF82
 1083 04f4 0B       		.byte	0xb
 1084 04f5 6F02     		.2byte	0x26f
 1085 04f7 F2030000 		.4byte	0x3f2
 1086 04fb 14       		.byte	0x14
 1087 04fc 0E       		.uleb128 0xe
 1088 04fd 83010000 		.4byte	.LASF83
 1089 0501 0B       		.byte	0xb
 1090 0502 7302     		.2byte	0x273
 1091 0504 6B010000 		.4byte	0x16b
 1092 0508 18       		.byte	0x18
 1093 0509 00       		.byte	0
 1094 050a 0F       		.uleb128 0xf
 1095 050b 37040000 		.4byte	.LASF84
 1096 050f 0B       		.byte	0xb
 1097 0510 0A02     		.2byte	0x20a
 1098 0512 16050000 		.4byte	0x516
 1099 0516 07       		.uleb128 0x7
 1100 0517 04       		.byte	0x4
 1101 0518 1C050000 		.4byte	0x51c
 1102 051c 08       		.uleb128 0x8
 1103 051d 27050000 		.4byte	0x527
 1104 0521 09       		.uleb128 0x9
 1105 0522 27050000 		.4byte	0x527
 1106 0526 00       		.byte	0
 1107 0527 07       		.uleb128 0x7
 1108 0528 04       		.byte	0x4
 1109 0529 7B040000 		.4byte	0x47b
 1110 052d 0F       		.uleb128 0xf
 1111 052e 5A010000 		.4byte	.LASF85
 1112 0532 0B       		.byte	0xb
 1113 0533 1202     		.2byte	0x212
 1114 0535 39050000 		.4byte	0x539
 1115 0539 07       		.uleb128 0x7
ARM GAS  /tmp/ccSpQzYU.s 			page 21


 1116 053a 04       		.byte	0x4
 1117 053b 3F050000 		.4byte	0x53f
 1118 053f 08       		.uleb128 0x8
 1119 0540 4F050000 		.4byte	0x54f
 1120 0544 09       		.uleb128 0x9
 1121 0545 27050000 		.4byte	0x527
 1122 0549 09       		.uleb128 0x9
 1123 054a AD000000 		.4byte	0xad
 1124 054e 00       		.byte	0
 1125 054f 0F       		.uleb128 0xf
 1126 0550 B6020000 		.4byte	.LASF86
 1127 0554 0B       		.byte	0xb
 1128 0555 1A02     		.2byte	0x21a
 1129 0557 5B050000 		.4byte	0x55b
 1130 055b 07       		.uleb128 0x7
 1131 055c 04       		.byte	0x4
 1132 055d 61050000 		.4byte	0x561
 1133 0561 08       		.uleb128 0x8
 1134 0562 71050000 		.4byte	0x571
 1135 0566 09       		.uleb128 0x9
 1136 0567 27050000 		.4byte	0x527
 1137 056b 09       		.uleb128 0x9
 1138 056c 6F040000 		.4byte	0x46f
 1139 0570 00       		.byte	0
 1140 0571 0C       		.uleb128 0xc
 1141 0572 20       		.byte	0x20
 1142 0573 0B       		.byte	0xb
 1143 0574 2002     		.2byte	0x220
 1144 0576 F0050000 		.4byte	0x5f0
 1145 057a 0E       		.uleb128 0xe
 1146 057b A2040000 		.4byte	.LASF87
 1147 057f 0B       		.byte	0xb
 1148 0580 2402     		.2byte	0x224
 1149 0582 0A050000 		.4byte	0x50a
 1150 0586 00       		.byte	0
 1151 0587 0E       		.uleb128 0xe
 1152 0588 07040000 		.4byte	.LASF88
 1153 058c 0B       		.byte	0xb
 1154 058d 2802     		.2byte	0x228
 1155 058f 0A050000 		.4byte	0x50a
 1156 0593 04       		.byte	0x4
 1157 0594 0E       		.uleb128 0xe
 1158 0595 78030000 		.4byte	.LASF89
 1159 0599 0B       		.byte	0xb
 1160 059a 2C02     		.2byte	0x22c
 1161 059c 0A050000 		.4byte	0x50a
 1162 05a0 08       		.byte	0x8
 1163 05a1 0E       		.uleb128 0xe
 1164 05a2 37000000 		.4byte	.LASF90
 1165 05a6 0B       		.byte	0xb
 1166 05a7 3002     		.2byte	0x230
 1167 05a9 2D050000 		.4byte	0x52d
 1168 05ad 0C       		.byte	0xc
 1169 05ae 0E       		.uleb128 0xe
 1170 05af 43030000 		.4byte	.LASF91
 1171 05b3 0B       		.byte	0xb
 1172 05b4 3402     		.2byte	0x234
ARM GAS  /tmp/ccSpQzYU.s 			page 22


 1173 05b6 4F050000 		.4byte	0x54f
 1174 05ba 10       		.byte	0x10
 1175 05bb 0E       		.uleb128 0xe
 1176 05bc 87050000 		.4byte	.LASF92
 1177 05c0 0B       		.byte	0xb
 1178 05c1 3902     		.2byte	0x239
 1179 05c3 C3000000 		.4byte	0xc3
 1180 05c7 14       		.byte	0x14
 1181 05c8 0D       		.uleb128 0xd
 1182 05c9 63723100 		.ascii	"cr1\000"
 1183 05cd 0B       		.byte	0xb
 1184 05ce 3D02     		.2byte	0x23d
 1185 05d0 AD000000 		.4byte	0xad
 1186 05d4 18       		.byte	0x18
 1187 05d5 0D       		.uleb128 0xd
 1188 05d6 63723200 		.ascii	"cr2\000"
 1189 05da 0B       		.byte	0xb
 1190 05db 4102     		.2byte	0x241
 1191 05dd AD000000 		.4byte	0xad
 1192 05e1 1A       		.byte	0x1a
 1193 05e2 0D       		.uleb128 0xd
 1194 05e3 63723300 		.ascii	"cr3\000"
 1195 05e7 0B       		.byte	0xb
 1196 05e8 4502     		.2byte	0x245
 1197 05ea AD000000 		.4byte	0xad
 1198 05ee 1C       		.byte	0x1c
 1199 05ef 00       		.byte	0
 1200 05f0 0F       		.uleb128 0xf
 1201 05f1 6B010000 		.4byte	.LASF93
 1202 05f5 0B       		.byte	0xb
 1203 05f6 4602     		.2byte	0x246
 1204 05f8 71050000 		.4byte	0x571
 1205 05fc 07       		.uleb128 0x7
 1206 05fd 04       		.byte	0x4
 1207 05fe 02060000 		.4byte	0x602
 1208 0602 14       		.uleb128 0x14
 1209 0603 F0050000 		.4byte	0x5f0
 1210 0607 07       		.uleb128 0x7
 1211 0608 04       		.byte	0x4
 1212 0609 96020000 		.4byte	0x296
 1213 060d 18       		.uleb128 0x18
 1214 060e A3050000 		.4byte	.LASF94
 1215 0612 01       		.byte	0x1
 1216 0613 19       		.byte	0x19
 1217 0614 00000000 		.4byte	.LFB118
 1218 0618 10000000 		.4byte	.LFE118-.LFB118
 1219 061c 01       		.uleb128 0x1
 1220 061d 9C       		.byte	0x9c
 1221 061e 2E060000 		.4byte	0x62e
 1222 0622 19       		.uleb128 0x19
 1223 0623 7000     		.ascii	"p\000"
 1224 0625 01       		.byte	0x1
 1225 0626 19       		.byte	0x19
 1226 0627 E0000000 		.4byte	0xe0
 1227 062b 01       		.uleb128 0x1
 1228 062c 50       		.byte	0x50
 1229 062d 00       		.byte	0
ARM GAS  /tmp/ccSpQzYU.s 			page 23


 1230 062e 18       		.uleb128 0x18
 1231 062f 4A050000 		.4byte	.LASF95
 1232 0633 01       		.byte	0x1
 1233 0634 1F       		.byte	0x1f
 1234 0635 00000000 		.4byte	.LFB119
 1235 0639 10000000 		.4byte	.LFE119-.LFB119
 1236 063d 01       		.uleb128 0x1
 1237 063e 9C       		.byte	0x9c
 1238 063f 4F060000 		.4byte	0x64f
 1239 0643 19       		.uleb128 0x19
 1240 0644 7000     		.ascii	"p\000"
 1241 0646 01       		.byte	0x1
 1242 0647 1F       		.byte	0x1f
 1243 0648 E0000000 		.4byte	0xe0
 1244 064c 01       		.uleb128 0x1
 1245 064d 50       		.byte	0x50
 1246 064e 00       		.byte	0
 1247 064f 18       		.uleb128 0x18
 1248 0650 8F040000 		.4byte	.LASF96
 1249 0654 01       		.byte	0x1
 1250 0655 25       		.byte	0x25
 1251 0656 00000000 		.4byte	.LFB120
 1252 065a 10000000 		.4byte	.LFE120-.LFB120
 1253 065e 01       		.uleb128 0x1
 1254 065f 9C       		.byte	0x9c
 1255 0660 70060000 		.4byte	0x670
 1256 0664 19       		.uleb128 0x19
 1257 0665 7000     		.ascii	"p\000"
 1258 0667 01       		.byte	0x1
 1259 0668 25       		.byte	0x25
 1260 0669 E0000000 		.4byte	0xe0
 1261 066d 01       		.uleb128 0x1
 1262 066e 50       		.byte	0x50
 1263 066f 00       		.byte	0
 1264 0670 18       		.uleb128 0x18
 1265 0671 57020000 		.4byte	.LASF97
 1266 0675 01       		.byte	0x1
 1267 0676 2F       		.byte	0x2f
 1268 0677 00000000 		.4byte	.LFB121
 1269 067b 02000000 		.4byte	.LFE121-.LFB121
 1270 067f 01       		.uleb128 0x1
 1271 0680 9C       		.byte	0x9c
 1272 0681 93060000 		.4byte	0x693
 1273 0685 1A       		.uleb128 0x1a
 1274 0686 08030000 		.4byte	.LASF98
 1275 068a 01       		.byte	0x1
 1276 068b 2F       		.byte	0x2f
 1277 068c 27050000 		.4byte	0x527
 1278 0690 01       		.uleb128 0x1
 1279 0691 50       		.byte	0x50
 1280 0692 00       		.byte	0
 1281 0693 18       		.uleb128 0x18
 1282 0694 BE010000 		.4byte	.LASF99
 1283 0698 01       		.byte	0x1
 1284 0699 46       		.byte	0x46
 1285 069a 00000000 		.4byte	.LFB123
 1286 069e 02000000 		.4byte	.LFE123-.LFB123
ARM GAS  /tmp/ccSpQzYU.s 			page 24


 1287 06a2 01       		.uleb128 0x1
 1288 06a3 9C       		.byte	0x9c
 1289 06a4 C1060000 		.4byte	0x6c1
 1290 06a8 1A       		.uleb128 0x1a
 1291 06a9 08030000 		.4byte	.LASF98
 1292 06ad 01       		.byte	0x1
 1293 06ae 46       		.byte	0x46
 1294 06af 27050000 		.4byte	0x527
 1295 06b3 01       		.uleb128 0x1
 1296 06b4 50       		.byte	0x50
 1297 06b5 19       		.uleb128 0x19
 1298 06b6 6500     		.ascii	"e\000"
 1299 06b8 01       		.byte	0x1
 1300 06b9 46       		.byte	0x46
 1301 06ba 6F040000 		.4byte	0x46f
 1302 06be 01       		.uleb128 0x1
 1303 06bf 51       		.byte	0x51
 1304 06c0 00       		.byte	0
 1305 06c1 18       		.uleb128 0x18
 1306 06c2 97030000 		.4byte	.LASF100
 1307 06c6 01       		.byte	0x1
 1308 06c7 50       		.byte	0x50
 1309 06c8 00000000 		.4byte	.LFB124
 1310 06cc 44000000 		.4byte	.LFE124-.LFB124
 1311 06d0 01       		.uleb128 0x1
 1312 06d1 9C       		.byte	0x9c
 1313 06d2 7D070000 		.4byte	0x77d
 1314 06d6 1B       		.uleb128 0x1b
 1315 06d7 08030000 		.4byte	.LASF98
 1316 06db 01       		.byte	0x1
 1317 06dc 50       		.byte	0x50
 1318 06dd 27050000 		.4byte	0x527
 1319 06e1 00000000 		.4byte	.LLST0
 1320 06e5 1C       		.uleb128 0x1c
 1321 06e6 6300     		.ascii	"c\000"
 1322 06e8 01       		.byte	0x1
 1323 06e9 50       		.byte	0x50
 1324 06ea AD000000 		.4byte	0xad
 1325 06ee 21000000 		.4byte	.LLST1
 1326 06f2 1D       		.uleb128 0x1d
 1327 06f3 0A000000 		.4byte	.LBB2
 1328 06f7 06000000 		.4byte	.LBE2-.LBB2
 1329 06fb 0D070000 		.4byte	0x70d
 1330 06ff 1E       		.uleb128 0x1e
 1331 0700 746D7000 		.ascii	"tmp\000"
 1332 0704 01       		.byte	0x1
 1333 0705 56       		.byte	0x56
 1334 0706 C3000000 		.4byte	0xc3
 1335 070a 01       		.uleb128 0x1
 1336 070b 53       		.byte	0x53
 1337 070c 00       		.byte	0
 1338 070d 1D       		.uleb128 0x1d
 1339 070e 2E000000 		.4byte	.LBB3
 1340 0712 16000000 		.4byte	.LBE3-.LBB3
 1341 0716 28070000 		.4byte	0x728
 1342 071a 1E       		.uleb128 0x1e
 1343 071b 746D7000 		.ascii	"tmp\000"
ARM GAS  /tmp/ccSpQzYU.s 			page 25


 1344 071f 01       		.byte	0x1
 1345 0720 5A       		.byte	0x5a
 1346 0721 C3000000 		.4byte	0xc3
 1347 0725 01       		.uleb128 0x1
 1348 0726 53       		.byte	0x53
 1349 0727 00       		.byte	0
 1350 0728 1F       		.uleb128 0x1f
 1351 0729 14000000 		.4byte	.LVL6
 1352 072d 3A0A0000 		.4byte	0xa3a
 1353 0731 20       		.uleb128 0x20
 1354 0732 1E000000 		.4byte	.LVL7
 1355 0736 410A0000 		.4byte	0xa41
 1356 073a 48070000 		.4byte	0x748
 1357 073e 21       		.uleb128 0x21
 1358 073f 01       		.uleb128 0x1
 1359 0740 50       		.byte	0x50
 1360 0741 05       		.uleb128 0x5
 1361 0742 03       		.byte	0x3
 1362 0743 00000000 		.4byte	.LANCHOR0
 1363 0747 00       		.byte	0
 1364 0748 20       		.uleb128 0x20
 1365 0749 2A000000 		.4byte	.LVL8
 1366 074d 520A0000 		.4byte	0xa52
 1367 0751 73070000 		.4byte	0x773
 1368 0755 21       		.uleb128 0x21
 1369 0756 01       		.uleb128 0x1
 1370 0757 53       		.byte	0x53
 1371 0758 01       		.uleb128 0x1
 1372 0759 30       		.byte	0x30
 1373 075a 21       		.uleb128 0x21
 1374 075b 01       		.uleb128 0x1
 1375 075c 52       		.byte	0x52
 1376 075d 05       		.uleb128 0x5
 1377 075e 03       		.byte	0x3
 1378 075f 00000000 		.4byte	led4off
 1379 0763 21       		.uleb128 0x21
 1380 0764 01       		.uleb128 0x1
 1381 0765 51       		.byte	0x51
 1382 0766 02       		.uleb128 0x2
 1383 0767 08       		.byte	0x8
 1384 0768 C8       		.byte	0xc8
 1385 0769 21       		.uleb128 0x21
 1386 076a 01       		.uleb128 0x1
 1387 076b 50       		.byte	0x50
 1388 076c 05       		.uleb128 0x5
 1389 076d 03       		.byte	0x3
 1390 076e 00000000 		.4byte	.LANCHOR0
 1391 0772 00       		.byte	0
 1392 0773 1F       		.uleb128 0x1f
 1393 0774 2E000000 		.4byte	.LVL9
 1394 0778 720A0000 		.4byte	0xa72
 1395 077c 00       		.byte	0
 1396 077d 18       		.uleb128 0x18
 1397 077e A8030000 		.4byte	.LASF101
 1398 0782 01       		.byte	0x1
 1399 0783 60       		.byte	0x60
 1400 0784 00000000 		.4byte	.LFB125
ARM GAS  /tmp/ccSpQzYU.s 			page 26


 1401 0788 44000000 		.4byte	.LFE125-.LFB125
 1402 078c 01       		.uleb128 0x1
 1403 078d 9C       		.byte	0x9c
 1404 078e 2C080000 		.4byte	0x82c
 1405 0792 1B       		.uleb128 0x1b
 1406 0793 08030000 		.4byte	.LASF98
 1407 0797 01       		.byte	0x1
 1408 0798 60       		.byte	0x60
 1409 0799 27050000 		.4byte	0x527
 1410 079d 42000000 		.4byte	.LLST2
 1411 07a1 1D       		.uleb128 0x1d
 1412 07a2 0A000000 		.4byte	.LBB4
 1413 07a6 06000000 		.4byte	.LBE4-.LBB4
 1414 07aa BC070000 		.4byte	0x7bc
 1415 07ae 1E       		.uleb128 0x1e
 1416 07af 746D7000 		.ascii	"tmp\000"
 1417 07b3 01       		.byte	0x1
 1418 07b4 66       		.byte	0x66
 1419 07b5 C3000000 		.4byte	0xc3
 1420 07b9 01       		.uleb128 0x1
 1421 07ba 53       		.byte	0x53
 1422 07bb 00       		.byte	0
 1423 07bc 1D       		.uleb128 0x1d
 1424 07bd 2E000000 		.4byte	.LBB5
 1425 07c1 16000000 		.4byte	.LBE5-.LBB5
 1426 07c5 D7070000 		.4byte	0x7d7
 1427 07c9 1E       		.uleb128 0x1e
 1428 07ca 746D7000 		.ascii	"tmp\000"
 1429 07ce 01       		.byte	0x1
 1430 07cf 6A       		.byte	0x6a
 1431 07d0 C3000000 		.4byte	0xc3
 1432 07d4 01       		.uleb128 0x1
 1433 07d5 53       		.byte	0x53
 1434 07d6 00       		.byte	0
 1435 07d7 1F       		.uleb128 0x1f
 1436 07d8 14000000 		.4byte	.LVL11
 1437 07dc 3A0A0000 		.4byte	0xa3a
 1438 07e0 20       		.uleb128 0x20
 1439 07e1 1E000000 		.4byte	.LVL12
 1440 07e5 410A0000 		.4byte	0xa41
 1441 07e9 F7070000 		.4byte	0x7f7
 1442 07ed 21       		.uleb128 0x21
 1443 07ee 01       		.uleb128 0x1
 1444 07ef 50       		.byte	0x50
 1445 07f0 05       		.uleb128 0x5
 1446 07f1 03       		.byte	0x3
 1447 07f2 00000000 		.4byte	.LANCHOR1
 1448 07f6 00       		.byte	0
 1449 07f7 20       		.uleb128 0x20
 1450 07f8 2A000000 		.4byte	.LVL13
 1451 07fc 520A0000 		.4byte	0xa52
 1452 0800 22080000 		.4byte	0x822
 1453 0804 21       		.uleb128 0x21
 1454 0805 01       		.uleb128 0x1
 1455 0806 53       		.byte	0x53
 1456 0807 01       		.uleb128 0x1
 1457 0808 30       		.byte	0x30
ARM GAS  /tmp/ccSpQzYU.s 			page 27


 1458 0809 21       		.uleb128 0x21
 1459 080a 01       		.uleb128 0x1
 1460 080b 52       		.byte	0x52
 1461 080c 05       		.uleb128 0x5
 1462 080d 03       		.byte	0x3
 1463 080e 00000000 		.4byte	led3off
 1464 0812 21       		.uleb128 0x21
 1465 0813 01       		.uleb128 0x1
 1466 0814 51       		.byte	0x51
 1467 0815 02       		.uleb128 0x2
 1468 0816 08       		.byte	0x8
 1469 0817 C8       		.byte	0xc8
 1470 0818 21       		.uleb128 0x21
 1471 0819 01       		.uleb128 0x1
 1472 081a 50       		.byte	0x50
 1473 081b 05       		.uleb128 0x5
 1474 081c 03       		.byte	0x3
 1475 081d 00000000 		.4byte	.LANCHOR1
 1476 0821 00       		.byte	0
 1477 0822 1F       		.uleb128 0x1f
 1478 0823 2E000000 		.4byte	.LVL14
 1479 0827 720A0000 		.4byte	0xa72
 1480 082b 00       		.byte	0
 1481 082c 18       		.uleb128 0x18
 1482 082d B6040000 		.4byte	.LASF102
 1483 0831 01       		.byte	0x1
 1484 0832 37       		.byte	0x37
 1485 0833 00000000 		.4byte	.LFB122
 1486 0837 44000000 		.4byte	.LFE122-.LFB122
 1487 083b 01       		.uleb128 0x1
 1488 083c 9C       		.byte	0x9c
 1489 083d DB080000 		.4byte	0x8db
 1490 0841 1B       		.uleb128 0x1b
 1491 0842 08030000 		.4byte	.LASF98
 1492 0846 01       		.byte	0x1
 1493 0847 37       		.byte	0x37
 1494 0848 27050000 		.4byte	0x527
 1495 084c 63000000 		.4byte	.LLST3
 1496 0850 1D       		.uleb128 0x1d
 1497 0851 0A000000 		.4byte	.LBB6
 1498 0855 06000000 		.4byte	.LBE6-.LBB6
 1499 0859 6B080000 		.4byte	0x86b
 1500 085d 1E       		.uleb128 0x1e
 1501 085e 746D7000 		.ascii	"tmp\000"
 1502 0862 01       		.byte	0x1
 1503 0863 3B       		.byte	0x3b
 1504 0864 C3000000 		.4byte	0xc3
 1505 0868 01       		.uleb128 0x1
 1506 0869 53       		.byte	0x53
 1507 086a 00       		.byte	0
 1508 086b 1D       		.uleb128 0x1d
 1509 086c 2E000000 		.4byte	.LBB7
 1510 0870 16000000 		.4byte	.LBE7-.LBB7
 1511 0874 86080000 		.4byte	0x886
 1512 0878 1E       		.uleb128 0x1e
 1513 0879 746D7000 		.ascii	"tmp\000"
 1514 087d 01       		.byte	0x1
ARM GAS  /tmp/ccSpQzYU.s 			page 28


 1515 087e 3F       		.byte	0x3f
 1516 087f C3000000 		.4byte	0xc3
 1517 0883 01       		.uleb128 0x1
 1518 0884 53       		.byte	0x53
 1519 0885 00       		.byte	0
 1520 0886 1F       		.uleb128 0x1f
 1521 0887 14000000 		.4byte	.LVL16
 1522 088b 3A0A0000 		.4byte	0xa3a
 1523 088f 20       		.uleb128 0x20
 1524 0890 1E000000 		.4byte	.LVL17
 1525 0894 410A0000 		.4byte	0xa41
 1526 0898 A6080000 		.4byte	0x8a6
 1527 089c 21       		.uleb128 0x21
 1528 089d 01       		.uleb128 0x1
 1529 089e 50       		.byte	0x50
 1530 089f 05       		.uleb128 0x5
 1531 08a0 03       		.byte	0x3
 1532 08a1 00000000 		.4byte	.LANCHOR2
 1533 08a5 00       		.byte	0
 1534 08a6 20       		.uleb128 0x20
 1535 08a7 2A000000 		.4byte	.LVL18
 1536 08ab 520A0000 		.4byte	0xa52
 1537 08af D1080000 		.4byte	0x8d1
 1538 08b3 21       		.uleb128 0x21
 1539 08b4 01       		.uleb128 0x1
 1540 08b5 53       		.byte	0x53
 1541 08b6 01       		.uleb128 0x1
 1542 08b7 30       		.byte	0x30
 1543 08b8 21       		.uleb128 0x21
 1544 08b9 01       		.uleb128 0x1
 1545 08ba 52       		.byte	0x52
 1546 08bb 05       		.uleb128 0x5
 1547 08bc 03       		.byte	0x3
 1548 08bd 00000000 		.4byte	led5off
 1549 08c1 21       		.uleb128 0x21
 1550 08c2 01       		.uleb128 0x1
 1551 08c3 51       		.byte	0x51
 1552 08c4 02       		.uleb128 0x2
 1553 08c5 08       		.byte	0x8
 1554 08c6 C8       		.byte	0xc8
 1555 08c7 21       		.uleb128 0x21
 1556 08c8 01       		.uleb128 0x1
 1557 08c9 50       		.byte	0x50
 1558 08ca 05       		.uleb128 0x5
 1559 08cb 03       		.byte	0x3
 1560 08cc 00000000 		.4byte	.LANCHOR2
 1561 08d0 00       		.byte	0
 1562 08d1 1F       		.uleb128 0x1f
 1563 08d2 2E000000 		.4byte	.LVL19
 1564 08d6 720A0000 		.4byte	0xa72
 1565 08da 00       		.byte	0
 1566 08db 22       		.uleb128 0x22
 1567 08dc 8D050000 		.4byte	.LASF122
 1568 08e0 01       		.byte	0x1
 1569 08e1 7F       		.byte	0x7f
 1570 08e2 25000000 		.4byte	0x25
 1571 08e6 00000000 		.4byte	.LFB126
ARM GAS  /tmp/ccSpQzYU.s 			page 29


 1572 08ea 5C000000 		.4byte	.LFE126-.LFB126
 1573 08ee 01       		.uleb128 0x1
 1574 08ef 9C       		.byte	0x9c
 1575 08f0 A3090000 		.4byte	0x9a3
 1576 08f4 1F       		.uleb128 0x1f
 1577 08f5 06000000 		.4byte	.LVL20
 1578 08f9 790A0000 		.4byte	0xa79
 1579 08fd 1F       		.uleb128 0x1f
 1580 08fe 0A000000 		.4byte	.LVL21
 1581 0902 800A0000 		.4byte	0xa80
 1582 0906 20       		.uleb128 0x20
 1583 0907 12000000 		.4byte	.LVL22
 1584 090b 870A0000 		.4byte	0xa87
 1585 090f 1D090000 		.4byte	0x91d
 1586 0913 21       		.uleb128 0x21
 1587 0914 01       		.uleb128 0x1
 1588 0915 51       		.byte	0x51
 1589 0916 05       		.uleb128 0x5
 1590 0917 03       		.byte	0x3
 1591 0918 00000000 		.4byte	.LANCHOR3
 1592 091c 00       		.byte	0
 1593 091d 20       		.uleb128 0x20
 1594 091e 1E000000 		.4byte	.LVL23
 1595 0922 9D0A0000 		.4byte	0xa9d
 1596 0926 40090000 		.4byte	0x940
 1597 092a 21       		.uleb128 0x21
 1598 092b 01       		.uleb128 0x1
 1599 092c 52       		.byte	0x52
 1600 092d 03       		.uleb128 0x3
 1601 092e 0A       		.byte	0xa
 1602 092f 8203     		.2byte	0x382
 1603 0931 21       		.uleb128 0x21
 1604 0932 01       		.uleb128 0x1
 1605 0933 51       		.byte	0x51
 1606 0934 01       		.uleb128 0x1
 1607 0935 34       		.byte	0x34
 1608 0936 21       		.uleb128 0x21
 1609 0937 01       		.uleb128 0x1
 1610 0938 50       		.byte	0x50
 1611 0939 05       		.uleb128 0x5
 1612 093a 0C       		.byte	0xc
 1613 093b 00000240 		.4byte	0x40020000
 1614 093f 00       		.byte	0
 1615 0940 20       		.uleb128 0x20
 1616 0941 2A000000 		.4byte	.LVL24
 1617 0945 9D0A0000 		.4byte	0xa9d
 1618 0949 63090000 		.4byte	0x963
 1619 094d 21       		.uleb128 0x21
 1620 094e 01       		.uleb128 0x1
 1621 094f 52       		.byte	0x52
 1622 0950 03       		.uleb128 0x3
 1623 0951 0A       		.byte	0xa
 1624 0952 8203     		.2byte	0x382
 1625 0954 21       		.uleb128 0x21
 1626 0955 01       		.uleb128 0x1
 1627 0956 51       		.byte	0x51
 1628 0957 01       		.uleb128 0x1
ARM GAS  /tmp/ccSpQzYU.s 			page 30


 1629 0958 38       		.byte	0x38
 1630 0959 21       		.uleb128 0x21
 1631 095a 01       		.uleb128 0x1
 1632 095b 50       		.byte	0x50
 1633 095c 05       		.uleb128 0x5
 1634 095d 0C       		.byte	0xc
 1635 095e 00000240 		.4byte	0x40020000
 1636 0962 00       		.byte	0
 1637 0963 1F       		.uleb128 0x1f
 1638 0964 30000000 		.4byte	.LVL25
 1639 0968 B90A0000 		.4byte	0xab9
 1640 096c 1F       		.uleb128 0x1f
 1641 096d 36000000 		.4byte	.LVL26
 1642 0971 CE0A0000 		.4byte	0xace
 1643 0975 20       		.uleb128 0x20
 1644 0976 40000000 		.4byte	.LVL27
 1645 097a E30A0000 		.4byte	0xae3
 1646 097e 91090000 		.4byte	0x991
 1647 0982 21       		.uleb128 0x21
 1648 0983 01       		.uleb128 0x1
 1649 0984 52       		.byte	0x52
 1650 0985 05       		.uleb128 0x5
 1651 0986 03       		.byte	0x3
 1652 0987 00000000 		.4byte	.LC0
 1653 098b 21       		.uleb128 0x21
 1654 098c 01       		.uleb128 0x1
 1655 098d 51       		.byte	0x51
 1656 098e 01       		.uleb128 0x1
 1657 098f 35       		.byte	0x35
 1658 0990 00       		.byte	0
 1659 0991 23       		.uleb128 0x23
 1660 0992 48000000 		.4byte	.LVL28
 1661 0996 050B0000 		.4byte	0xb05
 1662 099a 21       		.uleb128 0x21
 1663 099b 01       		.uleb128 0x1
 1664 099c 50       		.byte	0x50
 1665 099d 03       		.uleb128 0x3
 1666 099e 0A       		.byte	0xa
 1667 099f F401     		.2byte	0x1f4
 1668 09a1 00       		.byte	0
 1669 09a2 00       		.byte	0
 1670 09a3 1E       		.uleb128 0x1e
 1671 09a4 76743300 		.ascii	"vt3\000"
 1672 09a8 01       		.byte	0x1
 1673 09a9 14       		.byte	0x14
 1674 09aa 0A010000 		.4byte	0x10a
 1675 09ae 05       		.uleb128 0x5
 1676 09af 03       		.byte	0x3
 1677 09b0 00000000 		.4byte	vt3
 1678 09b4 1E       		.uleb128 0x1e
 1679 09b5 76743400 		.ascii	"vt4\000"
 1680 09b9 01       		.byte	0x1
 1681 09ba 14       		.byte	0x14
 1682 09bb 0A010000 		.4byte	0x10a
 1683 09bf 05       		.uleb128 0x5
 1684 09c0 03       		.byte	0x3
 1685 09c1 00000000 		.4byte	vt4
ARM GAS  /tmp/ccSpQzYU.s 			page 31


 1686 09c5 1E       		.uleb128 0x1e
 1687 09c6 76743500 		.ascii	"vt5\000"
 1688 09ca 01       		.byte	0x1
 1689 09cb 14       		.byte	0x14
 1690 09cc 0A010000 		.4byte	0x10a
 1691 09d0 05       		.uleb128 0x5
 1692 09d1 03       		.byte	0x3
 1693 09d2 00000000 		.4byte	vt5
 1694 09d6 24       		.uleb128 0x24
 1695 09d7 A2000000 		.4byte	0xa2
 1696 09db E6090000 		.4byte	0x9e6
 1697 09df 25       		.uleb128 0x25
 1698 09e0 E7000000 		.4byte	0xe7
 1699 09e4 10       		.byte	0x10
 1700 09e5 00       		.byte	0
 1701 09e6 26       		.uleb128 0x26
 1702 09e7 81030000 		.4byte	.LASF103
 1703 09eb 01       		.byte	0x1
 1704 09ec 16       		.byte	0x16
 1705 09ed F1090000 		.4byte	0x9f1
 1706 09f1 14       		.uleb128 0x14
 1707 09f2 D6090000 		.4byte	0x9d6
 1708 09f6 24       		.uleb128 0x24
 1709 09f7 A2000000 		.4byte	0xa2
 1710 09fb 060A0000 		.4byte	0xa06
 1711 09ff 25       		.uleb128 0x25
 1712 0a00 E7000000 		.4byte	0xe7
 1713 0a04 0F       		.byte	0xf
 1714 0a05 00       		.byte	0
 1715 0a06 26       		.uleb128 0x26
 1716 0a07 00020000 		.4byte	.LASF104
 1717 0a0b 01       		.byte	0x1
 1718 0a0c 17       		.byte	0x17
 1719 0a0d F6090000 		.4byte	0x9f6
 1720 0a11 27       		.uleb128 0x27
 1721 0a12 20020000 		.4byte	.LASF105
 1722 0a16 01       		.byte	0x1
 1723 0a17 70       		.byte	0x70
 1724 0a18 F0050000 		.4byte	0x5f0
 1725 0a1c 05       		.uleb128 0x5
 1726 0a1d 03       		.byte	0x3
 1727 0a1e 00000000 		.4byte	uart_cfg_1
 1728 0a22 28       		.uleb128 0x28
 1729 0a23 76010000 		.4byte	.LASF106
 1730 0a27 0C       		.byte	0xc
 1731 0a28 9806     		.2byte	0x698
 1732 0a2a 70010000 		.4byte	0x170
 1733 0a2e 28       		.uleb128 0x28
 1734 0a2f 01030000 		.4byte	.LASF107
 1735 0a33 0B       		.byte	0xb
 1736 0a34 8302     		.2byte	0x283
 1737 0a36 7B040000 		.4byte	0x47b
 1738 0a3a 29       		.uleb128 0x29
 1739 0a3b 67050000 		.4byte	.LASF110
 1740 0a3f 0D       		.byte	0xd
 1741 0a40 E9       		.byte	0xe9
 1742 0a41 2A       		.uleb128 0x2a
ARM GAS  /tmp/ccSpQzYU.s 			page 32


 1743 0a42 5D040000 		.4byte	.LASF108
 1744 0a46 06       		.byte	0x6
 1745 0a47 FF       		.byte	0xff
 1746 0a48 520A0000 		.4byte	0xa52
 1747 0a4c 09       		.uleb128 0x9
 1748 0a4d 5E010000 		.4byte	0x15e
 1749 0a51 00       		.byte	0
 1750 0a52 2A       		.uleb128 0x2a
 1751 0a53 59030000 		.4byte	.LASF109
 1752 0a57 06       		.byte	0x6
 1753 0a58 FE       		.byte	0xfe
 1754 0a59 720A0000 		.4byte	0xa72
 1755 0a5d 09       		.uleb128 0x9
 1756 0a5e 5E010000 		.4byte	0x15e
 1757 0a62 09       		.uleb128 0x9
 1758 0a63 D5000000 		.4byte	0xd5
 1759 0a67 09       		.uleb128 0x9
 1760 0a68 EE000000 		.4byte	0xee
 1761 0a6c 09       		.uleb128 0x9
 1762 0a6d E0000000 		.4byte	0xe0
 1763 0a71 00       		.byte	0
 1764 0a72 29       		.uleb128 0x29
 1765 0a73 0C050000 		.4byte	.LASF111
 1766 0a77 0D       		.byte	0xd
 1767 0a78 EA       		.byte	0xea
 1768 0a79 29       		.uleb128 0x29
 1769 0a7a AE020000 		.4byte	.LASF112
 1770 0a7e 0E       		.byte	0xe
 1771 0a7f D0       		.byte	0xd0
 1772 0a80 29       		.uleb128 0x29
 1773 0a81 AF010000 		.4byte	.LASF113
 1774 0a85 0F       		.byte	0xf
 1775 0a86 F6       		.byte	0xf6
 1776 0a87 2A       		.uleb128 0x2a
 1777 0a88 6E030000 		.4byte	.LASF114
 1778 0a8c 0A       		.byte	0xa
 1779 0a8d 6F       		.byte	0x6f
 1780 0a8e 9D0A0000 		.4byte	0xa9d
 1781 0a92 09       		.uleb128 0x9
 1782 0a93 27050000 		.4byte	0x527
 1783 0a97 09       		.uleb128 0x9
 1784 0a98 FC050000 		.4byte	0x5fc
 1785 0a9c 00       		.byte	0
 1786 0a9d 2B       		.uleb128 0x2b
 1787 0a9e F6040000 		.4byte	.LASF115
 1788 0aa2 09       		.byte	0x9
 1789 0aa3 C201     		.2byte	0x1c2
 1790 0aa5 B90A0000 		.4byte	0xab9
 1791 0aa9 09       		.uleb128 0x9
 1792 0aaa E1030000 		.4byte	0x3e1
 1793 0aae 09       		.uleb128 0x9
 1794 0aaf CB030000 		.4byte	0x3cb
 1795 0ab3 09       		.uleb128 0x9
 1796 0ab4 D6030000 		.4byte	0x3d6
 1797 0ab8 00       		.byte	0
 1798 0ab9 2C       		.uleb128 0x2c
 1799 0aba F0010000 		.4byte	.LASF116
ARM GAS  /tmp/ccSpQzYU.s 			page 33


 1800 0abe 0A       		.byte	0xa
 1801 0abf 77       		.byte	0x77
 1802 0ac0 2C000000 		.4byte	0x2c
 1803 0ac4 CE0A0000 		.4byte	0xace
 1804 0ac8 09       		.uleb128 0x9
 1805 0ac9 27050000 		.4byte	0x527
 1806 0acd 00       		.byte	0
 1807 0ace 2C       		.uleb128 0x2c
 1808 0acf 36030000 		.4byte	.LASF117
 1809 0ad3 0A       		.byte	0xa
 1810 0ad4 73       		.byte	0x73
 1811 0ad5 2C000000 		.4byte	0x2c
 1812 0ad9 E30A0000 		.4byte	0xae3
 1813 0add 09       		.uleb128 0x9
 1814 0ade 27050000 		.4byte	0x527
 1815 0ae2 00       		.byte	0
 1816 0ae3 2A       		.uleb128 0x2a
 1817 0ae4 07020000 		.4byte	.LASF118
 1818 0ae8 0A       		.byte	0xa
 1819 0ae9 71       		.byte	0x71
 1820 0aea FE0A0000 		.4byte	0xafe
 1821 0aee 09       		.uleb128 0x9
 1822 0aef 27050000 		.4byte	0x527
 1823 0af3 09       		.uleb128 0x9
 1824 0af4 2C000000 		.4byte	0x2c
 1825 0af8 09       		.uleb128 0x9
 1826 0af9 FE0A0000 		.4byte	0xafe
 1827 0afd 00       		.byte	0
 1828 0afe 07       		.uleb128 0x7
 1829 0aff 04       		.byte	0x4
 1830 0b00 040B0000 		.4byte	0xb04
 1831 0b04 2D       		.uleb128 0x2d
 1832 0b05 2E       		.uleb128 0x2e
 1833 0b06 0C000000 		.4byte	.LASF123
 1834 0b0a 10       		.byte	0x10
 1835 0b0b 7501     		.2byte	0x175
 1836 0b0d 09       		.uleb128 0x9
 1837 0b0e D5000000 		.4byte	0xd5
 1838 0b12 00       		.byte	0
 1839 0b13 00       		.byte	0
 1840              		.section	.debug_abbrev,"",%progbits
 1841              	.Ldebug_abbrev0:
 1842 0000 01       		.uleb128 0x1
 1843 0001 11       		.uleb128 0x11
 1844 0002 01       		.byte	0x1
 1845 0003 25       		.uleb128 0x25
 1846 0004 0E       		.uleb128 0xe
 1847 0005 13       		.uleb128 0x13
 1848 0006 0B       		.uleb128 0xb
 1849 0007 03       		.uleb128 0x3
 1850 0008 0E       		.uleb128 0xe
 1851 0009 1B       		.uleb128 0x1b
 1852 000a 0E       		.uleb128 0xe
 1853 000b 55       		.uleb128 0x55
 1854 000c 17       		.uleb128 0x17
 1855 000d 11       		.uleb128 0x11
 1856 000e 01       		.uleb128 0x1
ARM GAS  /tmp/ccSpQzYU.s 			page 34


 1857 000f 10       		.uleb128 0x10
 1858 0010 17       		.uleb128 0x17
 1859 0011 00       		.byte	0
 1860 0012 00       		.byte	0
 1861 0013 02       		.uleb128 0x2
 1862 0014 24       		.uleb128 0x24
 1863 0015 00       		.byte	0
 1864 0016 0B       		.uleb128 0xb
 1865 0017 0B       		.uleb128 0xb
 1866 0018 3E       		.uleb128 0x3e
 1867 0019 0B       		.uleb128 0xb
 1868 001a 03       		.uleb128 0x3
 1869 001b 08       		.uleb128 0x8
 1870 001c 00       		.byte	0
 1871 001d 00       		.byte	0
 1872 001e 03       		.uleb128 0x3
 1873 001f 16       		.uleb128 0x16
 1874 0020 00       		.byte	0
 1875 0021 03       		.uleb128 0x3
 1876 0022 0E       		.uleb128 0xe
 1877 0023 3A       		.uleb128 0x3a
 1878 0024 0B       		.uleb128 0xb
 1879 0025 3B       		.uleb128 0x3b
 1880 0026 0B       		.uleb128 0xb
 1881 0027 49       		.uleb128 0x49
 1882 0028 13       		.uleb128 0x13
 1883 0029 00       		.byte	0
 1884 002a 00       		.byte	0
 1885 002b 04       		.uleb128 0x4
 1886 002c 24       		.uleb128 0x24
 1887 002d 00       		.byte	0
 1888 002e 0B       		.uleb128 0xb
 1889 002f 0B       		.uleb128 0xb
 1890 0030 3E       		.uleb128 0x3e
 1891 0031 0B       		.uleb128 0xb
 1892 0032 03       		.uleb128 0x3
 1893 0033 0E       		.uleb128 0xe
 1894 0034 00       		.byte	0
 1895 0035 00       		.byte	0
 1896 0036 05       		.uleb128 0x5
 1897 0037 0F       		.uleb128 0xf
 1898 0038 00       		.byte	0
 1899 0039 0B       		.uleb128 0xb
 1900 003a 0B       		.uleb128 0xb
 1901 003b 00       		.byte	0
 1902 003c 00       		.byte	0
 1903 003d 06       		.uleb128 0x6
 1904 003e 35       		.uleb128 0x35
 1905 003f 00       		.byte	0
 1906 0040 49       		.uleb128 0x49
 1907 0041 13       		.uleb128 0x13
 1908 0042 00       		.byte	0
 1909 0043 00       		.byte	0
 1910 0044 07       		.uleb128 0x7
 1911 0045 0F       		.uleb128 0xf
 1912 0046 00       		.byte	0
 1913 0047 0B       		.uleb128 0xb
ARM GAS  /tmp/ccSpQzYU.s 			page 35


 1914 0048 0B       		.uleb128 0xb
 1915 0049 49       		.uleb128 0x49
 1916 004a 13       		.uleb128 0x13
 1917 004b 00       		.byte	0
 1918 004c 00       		.byte	0
 1919 004d 08       		.uleb128 0x8
 1920 004e 15       		.uleb128 0x15
 1921 004f 01       		.byte	0x1
 1922 0050 27       		.uleb128 0x27
 1923 0051 19       		.uleb128 0x19
 1924 0052 01       		.uleb128 0x1
 1925 0053 13       		.uleb128 0x13
 1926 0054 00       		.byte	0
 1927 0055 00       		.byte	0
 1928 0056 09       		.uleb128 0x9
 1929 0057 05       		.uleb128 0x5
 1930 0058 00       		.byte	0
 1931 0059 49       		.uleb128 0x49
 1932 005a 13       		.uleb128 0x13
 1933 005b 00       		.byte	0
 1934 005c 00       		.byte	0
 1935 005d 0A       		.uleb128 0xa
 1936 005e 13       		.uleb128 0x13
 1937 005f 01       		.byte	0x1
 1938 0060 03       		.uleb128 0x3
 1939 0061 0E       		.uleb128 0xe
 1940 0062 0B       		.uleb128 0xb
 1941 0063 0B       		.uleb128 0xb
 1942 0064 3A       		.uleb128 0x3a
 1943 0065 0B       		.uleb128 0xb
 1944 0066 3B       		.uleb128 0x3b
 1945 0067 0B       		.uleb128 0xb
 1946 0068 01       		.uleb128 0x1
 1947 0069 13       		.uleb128 0x13
 1948 006a 00       		.byte	0
 1949 006b 00       		.byte	0
 1950 006c 0B       		.uleb128 0xb
 1951 006d 0D       		.uleb128 0xd
 1952 006e 00       		.byte	0
 1953 006f 03       		.uleb128 0x3
 1954 0070 0E       		.uleb128 0xe
 1955 0071 3A       		.uleb128 0x3a
 1956 0072 0B       		.uleb128 0xb
 1957 0073 3B       		.uleb128 0x3b
 1958 0074 0B       		.uleb128 0xb
 1959 0075 49       		.uleb128 0x49
 1960 0076 13       		.uleb128 0x13
 1961 0077 38       		.uleb128 0x38
 1962 0078 0B       		.uleb128 0xb
 1963 0079 00       		.byte	0
 1964 007a 00       		.byte	0
 1965 007b 0C       		.uleb128 0xc
 1966 007c 13       		.uleb128 0x13
 1967 007d 01       		.byte	0x1
 1968 007e 0B       		.uleb128 0xb
 1969 007f 0B       		.uleb128 0xb
 1970 0080 3A       		.uleb128 0x3a
ARM GAS  /tmp/ccSpQzYU.s 			page 36


 1971 0081 0B       		.uleb128 0xb
 1972 0082 3B       		.uleb128 0x3b
 1973 0083 05       		.uleb128 0x5
 1974 0084 01       		.uleb128 0x1
 1975 0085 13       		.uleb128 0x13
 1976 0086 00       		.byte	0
 1977 0087 00       		.byte	0
 1978 0088 0D       		.uleb128 0xd
 1979 0089 0D       		.uleb128 0xd
 1980 008a 00       		.byte	0
 1981 008b 03       		.uleb128 0x3
 1982 008c 08       		.uleb128 0x8
 1983 008d 3A       		.uleb128 0x3a
 1984 008e 0B       		.uleb128 0xb
 1985 008f 3B       		.uleb128 0x3b
 1986 0090 05       		.uleb128 0x5
 1987 0091 49       		.uleb128 0x49
 1988 0092 13       		.uleb128 0x13
 1989 0093 38       		.uleb128 0x38
 1990 0094 0B       		.uleb128 0xb
 1991 0095 00       		.byte	0
 1992 0096 00       		.byte	0
 1993 0097 0E       		.uleb128 0xe
 1994 0098 0D       		.uleb128 0xd
 1995 0099 00       		.byte	0
 1996 009a 03       		.uleb128 0x3
 1997 009b 0E       		.uleb128 0xe
 1998 009c 3A       		.uleb128 0x3a
 1999 009d 0B       		.uleb128 0xb
 2000 009e 3B       		.uleb128 0x3b
 2001 009f 05       		.uleb128 0x5
 2002 00a0 49       		.uleb128 0x49
 2003 00a1 13       		.uleb128 0x13
 2004 00a2 38       		.uleb128 0x38
 2005 00a3 0B       		.uleb128 0xb
 2006 00a4 00       		.byte	0
 2007 00a5 00       		.byte	0
 2008 00a6 0F       		.uleb128 0xf
 2009 00a7 16       		.uleb128 0x16
 2010 00a8 00       		.byte	0
 2011 00a9 03       		.uleb128 0x3
 2012 00aa 0E       		.uleb128 0xe
 2013 00ab 3A       		.uleb128 0x3a
 2014 00ac 0B       		.uleb128 0xb
 2015 00ad 3B       		.uleb128 0x3b
 2016 00ae 05       		.uleb128 0x5
 2017 00af 49       		.uleb128 0x49
 2018 00b0 13       		.uleb128 0x13
 2019 00b1 00       		.byte	0
 2020 00b2 00       		.byte	0
 2021 00b3 10       		.uleb128 0x10
 2022 00b4 13       		.uleb128 0x13
 2023 00b5 01       		.byte	0x1
 2024 00b6 0B       		.uleb128 0xb
 2025 00b7 0B       		.uleb128 0xb
 2026 00b8 3A       		.uleb128 0x3a
 2027 00b9 0B       		.uleb128 0xb
ARM GAS  /tmp/ccSpQzYU.s 			page 37


 2028 00ba 3B       		.uleb128 0x3b
 2029 00bb 0B       		.uleb128 0xb
 2030 00bc 01       		.uleb128 0x1
 2031 00bd 13       		.uleb128 0x13
 2032 00be 00       		.byte	0
 2033 00bf 00       		.byte	0
 2034 00c0 11       		.uleb128 0x11
 2035 00c1 0D       		.uleb128 0xd
 2036 00c2 00       		.byte	0
 2037 00c3 03       		.uleb128 0x3
 2038 00c4 08       		.uleb128 0x8
 2039 00c5 3A       		.uleb128 0x3a
 2040 00c6 0B       		.uleb128 0xb
 2041 00c7 3B       		.uleb128 0x3b
 2042 00c8 0B       		.uleb128 0xb
 2043 00c9 49       		.uleb128 0x49
 2044 00ca 13       		.uleb128 0x13
 2045 00cb 38       		.uleb128 0x38
 2046 00cc 0B       		.uleb128 0xb
 2047 00cd 00       		.byte	0
 2048 00ce 00       		.byte	0
 2049 00cf 12       		.uleb128 0x12
 2050 00d0 17       		.uleb128 0x17
 2051 00d1 01       		.byte	0x1
 2052 00d2 0B       		.uleb128 0xb
 2053 00d3 0B       		.uleb128 0xb
 2054 00d4 3A       		.uleb128 0x3a
 2055 00d5 0B       		.uleb128 0xb
 2056 00d6 3B       		.uleb128 0x3b
 2057 00d7 0B       		.uleb128 0xb
 2058 00d8 01       		.uleb128 0x1
 2059 00d9 13       		.uleb128 0x13
 2060 00da 00       		.byte	0
 2061 00db 00       		.byte	0
 2062 00dc 13       		.uleb128 0x13
 2063 00dd 0D       		.uleb128 0xd
 2064 00de 00       		.byte	0
 2065 00df 03       		.uleb128 0x3
 2066 00e0 08       		.uleb128 0x8
 2067 00e1 3A       		.uleb128 0x3a
 2068 00e2 0B       		.uleb128 0xb
 2069 00e3 3B       		.uleb128 0x3b
 2070 00e4 0B       		.uleb128 0xb
 2071 00e5 49       		.uleb128 0x49
 2072 00e6 13       		.uleb128 0x13
 2073 00e7 00       		.byte	0
 2074 00e8 00       		.byte	0
 2075 00e9 14       		.uleb128 0x14
 2076 00ea 26       		.uleb128 0x26
 2077 00eb 00       		.byte	0
 2078 00ec 49       		.uleb128 0x49
 2079 00ed 13       		.uleb128 0x13
 2080 00ee 00       		.byte	0
 2081 00ef 00       		.byte	0
 2082 00f0 15       		.uleb128 0x15
 2083 00f1 04       		.uleb128 0x4
 2084 00f2 01       		.byte	0x1
ARM GAS  /tmp/ccSpQzYU.s 			page 38


 2085 00f3 0B       		.uleb128 0xb
 2086 00f4 0B       		.uleb128 0xb
 2087 00f5 3A       		.uleb128 0x3a
 2088 00f6 0B       		.uleb128 0xb
 2089 00f7 3B       		.uleb128 0x3b
 2090 00f8 0B       		.uleb128 0xb
 2091 00f9 01       		.uleb128 0x1
 2092 00fa 13       		.uleb128 0x13
 2093 00fb 00       		.byte	0
 2094 00fc 00       		.byte	0
 2095 00fd 16       		.uleb128 0x16
 2096 00fe 28       		.uleb128 0x28
 2097 00ff 00       		.byte	0
 2098 0100 03       		.uleb128 0x3
 2099 0101 0E       		.uleb128 0xe
 2100 0102 1C       		.uleb128 0x1c
 2101 0103 0D       		.uleb128 0xd
 2102 0104 00       		.byte	0
 2103 0105 00       		.byte	0
 2104 0106 17       		.uleb128 0x17
 2105 0107 13       		.uleb128 0x13
 2106 0108 01       		.byte	0x1
 2107 0109 03       		.uleb128 0x3
 2108 010a 0E       		.uleb128 0xe
 2109 010b 0B       		.uleb128 0xb
 2110 010c 0B       		.uleb128 0xb
 2111 010d 3A       		.uleb128 0x3a
 2112 010e 0B       		.uleb128 0xb
 2113 010f 3B       		.uleb128 0x3b
 2114 0110 05       		.uleb128 0x5
 2115 0111 01       		.uleb128 0x1
 2116 0112 13       		.uleb128 0x13
 2117 0113 00       		.byte	0
 2118 0114 00       		.byte	0
 2119 0115 18       		.uleb128 0x18
 2120 0116 2E       		.uleb128 0x2e
 2121 0117 01       		.byte	0x1
 2122 0118 03       		.uleb128 0x3
 2123 0119 0E       		.uleb128 0xe
 2124 011a 3A       		.uleb128 0x3a
 2125 011b 0B       		.uleb128 0xb
 2126 011c 3B       		.uleb128 0x3b
 2127 011d 0B       		.uleb128 0xb
 2128 011e 27       		.uleb128 0x27
 2129 011f 19       		.uleb128 0x19
 2130 0120 11       		.uleb128 0x11
 2131 0121 01       		.uleb128 0x1
 2132 0122 12       		.uleb128 0x12
 2133 0123 06       		.uleb128 0x6
 2134 0124 40       		.uleb128 0x40
 2135 0125 18       		.uleb128 0x18
 2136 0126 9742     		.uleb128 0x2117
 2137 0128 19       		.uleb128 0x19
 2138 0129 01       		.uleb128 0x1
 2139 012a 13       		.uleb128 0x13
 2140 012b 00       		.byte	0
 2141 012c 00       		.byte	0
ARM GAS  /tmp/ccSpQzYU.s 			page 39


 2142 012d 19       		.uleb128 0x19
 2143 012e 05       		.uleb128 0x5
 2144 012f 00       		.byte	0
 2145 0130 03       		.uleb128 0x3
 2146 0131 08       		.uleb128 0x8
 2147 0132 3A       		.uleb128 0x3a
 2148 0133 0B       		.uleb128 0xb
 2149 0134 3B       		.uleb128 0x3b
 2150 0135 0B       		.uleb128 0xb
 2151 0136 49       		.uleb128 0x49
 2152 0137 13       		.uleb128 0x13
 2153 0138 02       		.uleb128 0x2
 2154 0139 18       		.uleb128 0x18
 2155 013a 00       		.byte	0
 2156 013b 00       		.byte	0
 2157 013c 1A       		.uleb128 0x1a
 2158 013d 05       		.uleb128 0x5
 2159 013e 00       		.byte	0
 2160 013f 03       		.uleb128 0x3
 2161 0140 0E       		.uleb128 0xe
 2162 0141 3A       		.uleb128 0x3a
 2163 0142 0B       		.uleb128 0xb
 2164 0143 3B       		.uleb128 0x3b
 2165 0144 0B       		.uleb128 0xb
 2166 0145 49       		.uleb128 0x49
 2167 0146 13       		.uleb128 0x13
 2168 0147 02       		.uleb128 0x2
 2169 0148 18       		.uleb128 0x18
 2170 0149 00       		.byte	0
 2171 014a 00       		.byte	0
 2172 014b 1B       		.uleb128 0x1b
 2173 014c 05       		.uleb128 0x5
 2174 014d 00       		.byte	0
 2175 014e 03       		.uleb128 0x3
 2176 014f 0E       		.uleb128 0xe
 2177 0150 3A       		.uleb128 0x3a
 2178 0151 0B       		.uleb128 0xb
 2179 0152 3B       		.uleb128 0x3b
 2180 0153 0B       		.uleb128 0xb
 2181 0154 49       		.uleb128 0x49
 2182 0155 13       		.uleb128 0x13
 2183 0156 02       		.uleb128 0x2
 2184 0157 17       		.uleb128 0x17
 2185 0158 00       		.byte	0
 2186 0159 00       		.byte	0
 2187 015a 1C       		.uleb128 0x1c
 2188 015b 05       		.uleb128 0x5
 2189 015c 00       		.byte	0
 2190 015d 03       		.uleb128 0x3
 2191 015e 08       		.uleb128 0x8
 2192 015f 3A       		.uleb128 0x3a
 2193 0160 0B       		.uleb128 0xb
 2194 0161 3B       		.uleb128 0x3b
 2195 0162 0B       		.uleb128 0xb
 2196 0163 49       		.uleb128 0x49
 2197 0164 13       		.uleb128 0x13
 2198 0165 02       		.uleb128 0x2
ARM GAS  /tmp/ccSpQzYU.s 			page 40


 2199 0166 17       		.uleb128 0x17
 2200 0167 00       		.byte	0
 2201 0168 00       		.byte	0
 2202 0169 1D       		.uleb128 0x1d
 2203 016a 0B       		.uleb128 0xb
 2204 016b 01       		.byte	0x1
 2205 016c 11       		.uleb128 0x11
 2206 016d 01       		.uleb128 0x1
 2207 016e 12       		.uleb128 0x12
 2208 016f 06       		.uleb128 0x6
 2209 0170 01       		.uleb128 0x1
 2210 0171 13       		.uleb128 0x13
 2211 0172 00       		.byte	0
 2212 0173 00       		.byte	0
 2213 0174 1E       		.uleb128 0x1e
 2214 0175 34       		.uleb128 0x34
 2215 0176 00       		.byte	0
 2216 0177 03       		.uleb128 0x3
 2217 0178 08       		.uleb128 0x8
 2218 0179 3A       		.uleb128 0x3a
 2219 017a 0B       		.uleb128 0xb
 2220 017b 3B       		.uleb128 0x3b
 2221 017c 0B       		.uleb128 0xb
 2222 017d 49       		.uleb128 0x49
 2223 017e 13       		.uleb128 0x13
 2224 017f 02       		.uleb128 0x2
 2225 0180 18       		.uleb128 0x18
 2226 0181 00       		.byte	0
 2227 0182 00       		.byte	0
 2228 0183 1F       		.uleb128 0x1f
 2229 0184 898201   		.uleb128 0x4109
 2230 0187 00       		.byte	0
 2231 0188 11       		.uleb128 0x11
 2232 0189 01       		.uleb128 0x1
 2233 018a 31       		.uleb128 0x31
 2234 018b 13       		.uleb128 0x13
 2235 018c 00       		.byte	0
 2236 018d 00       		.byte	0
 2237 018e 20       		.uleb128 0x20
 2238 018f 898201   		.uleb128 0x4109
 2239 0192 01       		.byte	0x1
 2240 0193 11       		.uleb128 0x11
 2241 0194 01       		.uleb128 0x1
 2242 0195 31       		.uleb128 0x31
 2243 0196 13       		.uleb128 0x13
 2244 0197 01       		.uleb128 0x1
 2245 0198 13       		.uleb128 0x13
 2246 0199 00       		.byte	0
 2247 019a 00       		.byte	0
 2248 019b 21       		.uleb128 0x21
 2249 019c 8A8201   		.uleb128 0x410a
 2250 019f 00       		.byte	0
 2251 01a0 02       		.uleb128 0x2
 2252 01a1 18       		.uleb128 0x18
 2253 01a2 9142     		.uleb128 0x2111
 2254 01a4 18       		.uleb128 0x18
 2255 01a5 00       		.byte	0
ARM GAS  /tmp/ccSpQzYU.s 			page 41


 2256 01a6 00       		.byte	0
 2257 01a7 22       		.uleb128 0x22
 2258 01a8 2E       		.uleb128 0x2e
 2259 01a9 01       		.byte	0x1
 2260 01aa 3F       		.uleb128 0x3f
 2261 01ab 19       		.uleb128 0x19
 2262 01ac 03       		.uleb128 0x3
 2263 01ad 0E       		.uleb128 0xe
 2264 01ae 3A       		.uleb128 0x3a
 2265 01af 0B       		.uleb128 0xb
 2266 01b0 3B       		.uleb128 0x3b
 2267 01b1 0B       		.uleb128 0xb
 2268 01b2 27       		.uleb128 0x27
 2269 01b3 19       		.uleb128 0x19
 2270 01b4 49       		.uleb128 0x49
 2271 01b5 13       		.uleb128 0x13
 2272 01b6 11       		.uleb128 0x11
 2273 01b7 01       		.uleb128 0x1
 2274 01b8 12       		.uleb128 0x12
 2275 01b9 06       		.uleb128 0x6
 2276 01ba 40       		.uleb128 0x40
 2277 01bb 18       		.uleb128 0x18
 2278 01bc 9742     		.uleb128 0x2117
 2279 01be 19       		.uleb128 0x19
 2280 01bf 01       		.uleb128 0x1
 2281 01c0 13       		.uleb128 0x13
 2282 01c1 00       		.byte	0
 2283 01c2 00       		.byte	0
 2284 01c3 23       		.uleb128 0x23
 2285 01c4 898201   		.uleb128 0x4109
 2286 01c7 01       		.byte	0x1
 2287 01c8 11       		.uleb128 0x11
 2288 01c9 01       		.uleb128 0x1
 2289 01ca 31       		.uleb128 0x31
 2290 01cb 13       		.uleb128 0x13
 2291 01cc 00       		.byte	0
 2292 01cd 00       		.byte	0
 2293 01ce 24       		.uleb128 0x24
 2294 01cf 01       		.uleb128 0x1
 2295 01d0 01       		.byte	0x1
 2296 01d1 49       		.uleb128 0x49
 2297 01d2 13       		.uleb128 0x13
 2298 01d3 01       		.uleb128 0x1
 2299 01d4 13       		.uleb128 0x13
 2300 01d5 00       		.byte	0
 2301 01d6 00       		.byte	0
 2302 01d7 25       		.uleb128 0x25
 2303 01d8 21       		.uleb128 0x21
 2304 01d9 00       		.byte	0
 2305 01da 49       		.uleb128 0x49
 2306 01db 13       		.uleb128 0x13
 2307 01dc 2F       		.uleb128 0x2f
 2308 01dd 0B       		.uleb128 0xb
 2309 01de 00       		.byte	0
 2310 01df 00       		.byte	0
 2311 01e0 26       		.uleb128 0x26
 2312 01e1 34       		.uleb128 0x34
ARM GAS  /tmp/ccSpQzYU.s 			page 42


 2313 01e2 00       		.byte	0
 2314 01e3 03       		.uleb128 0x3
 2315 01e4 0E       		.uleb128 0xe
 2316 01e5 3A       		.uleb128 0x3a
 2317 01e6 0B       		.uleb128 0xb
 2318 01e7 3B       		.uleb128 0x3b
 2319 01e8 0B       		.uleb128 0xb
 2320 01e9 49       		.uleb128 0x49
 2321 01ea 13       		.uleb128 0x13
 2322 01eb 00       		.byte	0
 2323 01ec 00       		.byte	0
 2324 01ed 27       		.uleb128 0x27
 2325 01ee 34       		.uleb128 0x34
 2326 01ef 00       		.byte	0
 2327 01f0 03       		.uleb128 0x3
 2328 01f1 0E       		.uleb128 0xe
 2329 01f2 3A       		.uleb128 0x3a
 2330 01f3 0B       		.uleb128 0xb
 2331 01f4 3B       		.uleb128 0x3b
 2332 01f5 0B       		.uleb128 0xb
 2333 01f6 49       		.uleb128 0x49
 2334 01f7 13       		.uleb128 0x13
 2335 01f8 02       		.uleb128 0x2
 2336 01f9 18       		.uleb128 0x18
 2337 01fa 00       		.byte	0
 2338 01fb 00       		.byte	0
 2339 01fc 28       		.uleb128 0x28
 2340 01fd 34       		.uleb128 0x34
 2341 01fe 00       		.byte	0
 2342 01ff 03       		.uleb128 0x3
 2343 0200 0E       		.uleb128 0xe
 2344 0201 3A       		.uleb128 0x3a
 2345 0202 0B       		.uleb128 0xb
 2346 0203 3B       		.uleb128 0x3b
 2347 0204 05       		.uleb128 0x5
 2348 0205 49       		.uleb128 0x49
 2349 0206 13       		.uleb128 0x13
 2350 0207 3F       		.uleb128 0x3f
 2351 0208 19       		.uleb128 0x19
 2352 0209 3C       		.uleb128 0x3c
 2353 020a 19       		.uleb128 0x19
 2354 020b 00       		.byte	0
 2355 020c 00       		.byte	0
 2356 020d 29       		.uleb128 0x29
 2357 020e 2E       		.uleb128 0x2e
 2358 020f 00       		.byte	0
 2359 0210 3F       		.uleb128 0x3f
 2360 0211 19       		.uleb128 0x19
 2361 0212 03       		.uleb128 0x3
 2362 0213 0E       		.uleb128 0xe
 2363 0214 3A       		.uleb128 0x3a
 2364 0215 0B       		.uleb128 0xb
 2365 0216 3B       		.uleb128 0x3b
 2366 0217 0B       		.uleb128 0xb
 2367 0218 27       		.uleb128 0x27
 2368 0219 19       		.uleb128 0x19
 2369 021a 3C       		.uleb128 0x3c
ARM GAS  /tmp/ccSpQzYU.s 			page 43


 2370 021b 19       		.uleb128 0x19
 2371 021c 00       		.byte	0
 2372 021d 00       		.byte	0
 2373 021e 2A       		.uleb128 0x2a
 2374 021f 2E       		.uleb128 0x2e
 2375 0220 01       		.byte	0x1
 2376 0221 3F       		.uleb128 0x3f
 2377 0222 19       		.uleb128 0x19
 2378 0223 03       		.uleb128 0x3
 2379 0224 0E       		.uleb128 0xe
 2380 0225 3A       		.uleb128 0x3a
 2381 0226 0B       		.uleb128 0xb
 2382 0227 3B       		.uleb128 0x3b
 2383 0228 0B       		.uleb128 0xb
 2384 0229 27       		.uleb128 0x27
 2385 022a 19       		.uleb128 0x19
 2386 022b 3C       		.uleb128 0x3c
 2387 022c 19       		.uleb128 0x19
 2388 022d 01       		.uleb128 0x1
 2389 022e 13       		.uleb128 0x13
 2390 022f 00       		.byte	0
 2391 0230 00       		.byte	0
 2392 0231 2B       		.uleb128 0x2b
 2393 0232 2E       		.uleb128 0x2e
 2394 0233 01       		.byte	0x1
 2395 0234 3F       		.uleb128 0x3f
 2396 0235 19       		.uleb128 0x19
 2397 0236 03       		.uleb128 0x3
 2398 0237 0E       		.uleb128 0xe
 2399 0238 3A       		.uleb128 0x3a
 2400 0239 0B       		.uleb128 0xb
 2401 023a 3B       		.uleb128 0x3b
 2402 023b 05       		.uleb128 0x5
 2403 023c 27       		.uleb128 0x27
 2404 023d 19       		.uleb128 0x19
 2405 023e 3C       		.uleb128 0x3c
 2406 023f 19       		.uleb128 0x19
 2407 0240 01       		.uleb128 0x1
 2408 0241 13       		.uleb128 0x13
 2409 0242 00       		.byte	0
 2410 0243 00       		.byte	0
 2411 0244 2C       		.uleb128 0x2c
 2412 0245 2E       		.uleb128 0x2e
 2413 0246 01       		.byte	0x1
 2414 0247 3F       		.uleb128 0x3f
 2415 0248 19       		.uleb128 0x19
 2416 0249 03       		.uleb128 0x3
 2417 024a 0E       		.uleb128 0xe
 2418 024b 3A       		.uleb128 0x3a
 2419 024c 0B       		.uleb128 0xb
 2420 024d 3B       		.uleb128 0x3b
 2421 024e 0B       		.uleb128 0xb
 2422 024f 27       		.uleb128 0x27
 2423 0250 19       		.uleb128 0x19
 2424 0251 49       		.uleb128 0x49
 2425 0252 13       		.uleb128 0x13
 2426 0253 3C       		.uleb128 0x3c
ARM GAS  /tmp/ccSpQzYU.s 			page 44


 2427 0254 19       		.uleb128 0x19
 2428 0255 01       		.uleb128 0x1
 2429 0256 13       		.uleb128 0x13
 2430 0257 00       		.byte	0
 2431 0258 00       		.byte	0
 2432 0259 2D       		.uleb128 0x2d
 2433 025a 26       		.uleb128 0x26
 2434 025b 00       		.byte	0
 2435 025c 00       		.byte	0
 2436 025d 00       		.byte	0
 2437 025e 2E       		.uleb128 0x2e
 2438 025f 2E       		.uleb128 0x2e
 2439 0260 01       		.byte	0x1
 2440 0261 3F       		.uleb128 0x3f
 2441 0262 19       		.uleb128 0x19
 2442 0263 03       		.uleb128 0x3
 2443 0264 0E       		.uleb128 0xe
 2444 0265 3A       		.uleb128 0x3a
 2445 0266 0B       		.uleb128 0xb
 2446 0267 3B       		.uleb128 0x3b
 2447 0268 05       		.uleb128 0x5
 2448 0269 27       		.uleb128 0x27
 2449 026a 19       		.uleb128 0x19
 2450 026b 3C       		.uleb128 0x3c
 2451 026c 19       		.uleb128 0x19
 2452 026d 00       		.byte	0
 2453 026e 00       		.byte	0
 2454 026f 00       		.byte	0
 2455              		.section	.debug_loc,"",%progbits
 2456              	.Ldebug_loc0:
 2457              	.LLST0:
 2458 0000 00000000 		.4byte	.LVL5
 2459 0004 13000000 		.4byte	.LVL6-1
 2460 0008 0100     		.2byte	0x1
 2461 000a 50       		.byte	0x50
 2462 000b 13000000 		.4byte	.LVL6-1
 2463 000f 44000000 		.4byte	.LFE124
 2464 0013 0400     		.2byte	0x4
 2465 0015 F3       		.byte	0xf3
 2466 0016 01       		.uleb128 0x1
 2467 0017 50       		.byte	0x50
 2468 0018 9F       		.byte	0x9f
 2469 0019 00000000 		.4byte	0
 2470 001d 00000000 		.4byte	0
 2471              	.LLST1:
 2472 0021 00000000 		.4byte	.LVL5
 2473 0025 13000000 		.4byte	.LVL6-1
 2474 0029 0100     		.2byte	0x1
 2475 002b 51       		.byte	0x51
 2476 002c 13000000 		.4byte	.LVL6-1
 2477 0030 44000000 		.4byte	.LFE124
 2478 0034 0400     		.2byte	0x4
 2479 0036 F3       		.byte	0xf3
 2480 0037 01       		.uleb128 0x1
 2481 0038 51       		.byte	0x51
 2482 0039 9F       		.byte	0x9f
 2483 003a 00000000 		.4byte	0
ARM GAS  /tmp/ccSpQzYU.s 			page 45


 2484 003e 00000000 		.4byte	0
 2485              	.LLST2:
 2486 0042 00000000 		.4byte	.LVL10
 2487 0046 13000000 		.4byte	.LVL11-1
 2488 004a 0100     		.2byte	0x1
 2489 004c 50       		.byte	0x50
 2490 004d 13000000 		.4byte	.LVL11-1
 2491 0051 44000000 		.4byte	.LFE125
 2492 0055 0400     		.2byte	0x4
 2493 0057 F3       		.byte	0xf3
 2494 0058 01       		.uleb128 0x1
 2495 0059 50       		.byte	0x50
 2496 005a 9F       		.byte	0x9f
 2497 005b 00000000 		.4byte	0
 2498 005f 00000000 		.4byte	0
 2499              	.LLST3:
 2500 0063 00000000 		.4byte	.LVL15
 2501 0067 13000000 		.4byte	.LVL16-1
 2502 006b 0100     		.2byte	0x1
 2503 006d 50       		.byte	0x50
 2504 006e 13000000 		.4byte	.LVL16-1
 2505 0072 44000000 		.4byte	.LFE122
 2506 0076 0400     		.2byte	0x4
 2507 0078 F3       		.byte	0xf3
 2508 0079 01       		.uleb128 0x1
 2509 007a 50       		.byte	0x50
 2510 007b 9F       		.byte	0x9f
 2511 007c 00000000 		.4byte	0
 2512 0080 00000000 		.4byte	0
 2513              		.section	.debug_aranges,"",%progbits
 2514 0000 5C000000 		.4byte	0x5c
 2515 0004 0200     		.2byte	0x2
 2516 0006 00000000 		.4byte	.Ldebug_info0
 2517 000a 04       		.byte	0x4
 2518 000b 00       		.byte	0
 2519 000c 0000     		.2byte	0
 2520 000e 0000     		.2byte	0
 2521 0010 00000000 		.4byte	.LFB118
 2522 0014 10000000 		.4byte	.LFE118-.LFB118
 2523 0018 00000000 		.4byte	.LFB119
 2524 001c 10000000 		.4byte	.LFE119-.LFB119
 2525 0020 00000000 		.4byte	.LFB120
 2526 0024 10000000 		.4byte	.LFE120-.LFB120
 2527 0028 00000000 		.4byte	.LFB121
 2528 002c 02000000 		.4byte	.LFE121-.LFB121
 2529 0030 00000000 		.4byte	.LFB123
 2530 0034 02000000 		.4byte	.LFE123-.LFB123
 2531 0038 00000000 		.4byte	.LFB124
 2532 003c 44000000 		.4byte	.LFE124-.LFB124
 2533 0040 00000000 		.4byte	.LFB125
 2534 0044 44000000 		.4byte	.LFE125-.LFB125
 2535 0048 00000000 		.4byte	.LFB122
 2536 004c 44000000 		.4byte	.LFE122-.LFB122
 2537 0050 00000000 		.4byte	.LFB126
 2538 0054 5C000000 		.4byte	.LFE126-.LFB126
 2539 0058 00000000 		.4byte	0
 2540 005c 00000000 		.4byte	0
ARM GAS  /tmp/ccSpQzYU.s 			page 46


 2541              		.section	.debug_ranges,"",%progbits
 2542              	.Ldebug_ranges0:
 2543 0000 00000000 		.4byte	.LFB118
 2544 0004 10000000 		.4byte	.LFE118
 2545 0008 00000000 		.4byte	.LFB119
 2546 000c 10000000 		.4byte	.LFE119
 2547 0010 00000000 		.4byte	.LFB120
 2548 0014 10000000 		.4byte	.LFE120
 2549 0018 00000000 		.4byte	.LFB121
 2550 001c 02000000 		.4byte	.LFE121
 2551 0020 00000000 		.4byte	.LFB123
 2552 0024 02000000 		.4byte	.LFE123
 2553 0028 00000000 		.4byte	.LFB124
 2554 002c 44000000 		.4byte	.LFE124
 2555 0030 00000000 		.4byte	.LFB125
 2556 0034 44000000 		.4byte	.LFE125
 2557 0038 00000000 		.4byte	.LFB122
 2558 003c 44000000 		.4byte	.LFE122
 2559 0040 00000000 		.4byte	.LFB126
 2560 0044 5C000000 		.4byte	.LFE126
 2561 0048 00000000 		.4byte	0
 2562 004c 00000000 		.4byte	0
 2563              		.section	.debug_line,"",%progbits
 2564              	.Ldebug_line0:
 2565 0000 E3020000 		.section	.debug_str,"MS",%progbits,1
 2565      02001A02 
 2565      00000201 
 2565      FB0E0D00 
 2565      01010101 
 2566              	.LASF81:
 2567 0000 646D6172 		.ascii	"dmarx\000"
 2567      7800
 2568              	.LASF52:
 2569 0006 50555044 		.ascii	"PUPDR\000"
 2569      5200
 2570              	.LASF123:
 2571 000c 63685468 		.ascii	"chThdSleep\000"
 2571      64536C65 
 2571      657000
 2572              	.LASF54:
 2573 0017 4C434B52 		.ascii	"LCKR\000"
 2573      00
 2574              	.LASF70:
 2575 001c 55415254 		.ascii	"UART_RX_ACTIVE\000"
 2575      5F52585F 
 2575      41435449 
 2575      564500
 2576              	.LASF30:
 2577 002b 4D304152 		.ascii	"M0AR\000"
 2577      00
 2578              	.LASF2:
 2579 0030 73697A65 		.ascii	"size_t\000"
 2579      5F7400
 2580              	.LASF90:
 2581 0037 72786368 		.ascii	"rxchar_cb\000"
 2581      61725F63 
 2581      6200
ARM GAS  /tmp/ccSpQzYU.s 			page 47


 2582              	.LASF3:
 2583 0041 5F5F7569 		.ascii	"__uint8_t\000"
 2583      6E74385F 
 2583      7400
 2584              	.LASF50:
 2585 004b 4F545950 		.ascii	"OTYPER\000"
 2585      455200
 2586              	.LASF42:
 2587 0052 73747265 		.ascii	"stream\000"
 2587      616D00
 2588              	.LASF49:
 2589 0059 4D4F4445 		.ascii	"MODER\000"
 2589      5200
 2590              	.LASF13:
 2591 005f 6C6F6E67 		.ascii	"long long unsigned int\000"
 2591      206C6F6E 
 2591      6720756E 
 2591      7369676E 
 2591      65642069 
 2592              	.LASF119:
 2593 0076 474E5520 		.ascii	"GNU C 4.9.3 20150529 (prerelease) -mcpu=cortex-m4 -"
 2593      4320342E 
 2593      392E3320 
 2593      32303135 
 2593      30353239 
 2594 00a9 6D6E6F2D 		.ascii	"mno-thumb-interwork -mthumb -ggdb -O2 -fomit-frame-"
 2594      7468756D 
 2594      622D696E 
 2594      74657277 
 2594      6F726B20 
 2595 00dc 706F696E 		.ascii	"pointer -falign-functions=16 -ffunction-sections -f"
 2595      74657220 
 2595      2D66616C 
 2595      69676E2D 
 2595      66756E63 
 2596 010f 64617461 		.ascii	"data-sections -fno-common\000"
 2596      2D736563 
 2596      74696F6E 
 2596      73202D66 
 2596      6E6F2D63 
 2597              	.LASF121:
 2598 0129 2F686F6D 		.ascii	"/home/lithium/Documentos/ChibiOS_2.6.8/demos/GPS\000"
 2598      652F6C69 
 2598      74686975 
 2598      6D2F446F 
 2598      63756D65 
 2599              	.LASF85:
 2600 015a 75617274 		.ascii	"uartccb_t\000"
 2600      6363625F 
 2600      7400
 2601              	.LASF46:
 2602 0164 76656374 		.ascii	"vector\000"
 2602      6F7200
 2603              	.LASF93:
 2604 016b 55415254 		.ascii	"UARTConfig\000"
 2604      436F6E66 
 2604      696700
ARM GAS  /tmp/ccSpQzYU.s 			page 48


 2605              	.LASF106:
 2606 0176 49544D5F 		.ascii	"ITM_RxBuffer\000"
 2606      52784275 
 2606      66666572 
 2606      00
 2607              	.LASF83:
 2608 0183 72786275 		.ascii	"rxbuf\000"
 2608      6600
 2609              	.LASF12:
 2610 0189 6C6F6E67 		.ascii	"long long int\000"
 2610      206C6F6E 
 2610      6720696E 
 2610      7400
 2611              	.LASF1:
 2612 0197 7369676E 		.ascii	"signed char\000"
 2612      65642063 
 2612      68617200 
 2613              	.LASF44:
 2614 01a3 69736869 		.ascii	"ishift\000"
 2614      667400
 2615              	.LASF53:
 2616 01aa 42535252 		.ascii	"BSRR\000"
 2616      00
 2617              	.LASF113:
 2618 01af 63685379 		.ascii	"chSysInit\000"
 2618      73496E69 
 2618      7400
 2619              	.LASF39:
 2620 01b9 47545052 		.ascii	"GTPR\000"
 2620      00
 2621              	.LASF99:
 2622 01be 72786572 		.ascii	"rxerr\000"
 2622      7200
 2623              	.LASF77:
 2624 01c4 72787374 		.ascii	"rxstate\000"
 2624      61746500 
 2625              	.LASF57:
 2626 01cc 4750494F 		.ascii	"GPIO_TypeDef\000"
 2626      5F547970 
 2626      65446566 
 2626      00
 2627              	.LASF75:
 2628 01d9 73746174 		.ascii	"state\000"
 2628      6500
 2629              	.LASF76:
 2630 01df 74787374 		.ascii	"txstate\000"
 2630      61746500 
 2631              	.LASF9:
 2632 01e7 6C6F6E67 		.ascii	"long int\000"
 2632      20696E74 
 2632      00
 2633              	.LASF116:
 2634 01f0 75617274 		.ascii	"uartStopReceive\000"
 2634      53746F70 
 2634      52656365 
 2634      69766500 
 2635              	.LASF104:
ARM GAS  /tmp/ccSpQzYU.s 			page 49


 2636 0200 62756666 		.ascii	"buffer\000"
 2636      657200
 2637              	.LASF118:
 2638 0207 75617274 		.ascii	"uartStartSend\000"
 2638      53746172 
 2638      7453656E 
 2638      6400
 2639              	.LASF120:
 2640 0215 4D61696E 		.ascii	"MainUart.c\000"
 2640      55617274 
 2640      2E6300
 2641              	.LASF105:
 2642 0220 75617274 		.ascii	"uart_cfg_1\000"
 2642      5F636667 
 2642      5F3100
 2643              	.LASF82:
 2644 022b 646D6174 		.ascii	"dmatx\000"
 2644      7800
 2645              	.LASF74:
 2646 0231 55415254 		.ascii	"UARTDriver\000"
 2646      44726976 
 2646      657200
 2647              	.LASF51:
 2648 023c 4F535045 		.ascii	"OSPEEDR\000"
 2648      45445200 
 2649              	.LASF10:
 2650 0244 5F5F7569 		.ascii	"__uint32_t\000"
 2650      6E743332 
 2650      5F7400
 2651              	.LASF24:
 2652 024f 76745F70 		.ascii	"vt_prev\000"
 2652      72657600 
 2653              	.LASF97:
 2654 0257 7478656E 		.ascii	"txend1\000"
 2654      643100
 2655              	.LASF63:
 2656 025e 55415254 		.ascii	"UART_READY\000"
 2656      5F524541 
 2656      445900
 2657              	.LASF66:
 2658 0269 55415254 		.ascii	"UART_TX_ACTIVE\000"
 2658      5F54585F 
 2658      41435449 
 2658      564500
 2659              	.LASF79:
 2660 0278 75736172 		.ascii	"usart\000"
 2660      7400
 2661              	.LASF0:
 2662 027e 756E7369 		.ascii	"unsigned int\000"
 2662      676E6564 
 2662      20696E74 
 2662      00
 2663              	.LASF23:
 2664 028b 76745F6E 		.ascii	"vt_next\000"
 2664      65787400 
 2665              	.LASF15:
 2666 0293 75696E74 		.ascii	"uint16_t\000"
ARM GAS  /tmp/ccSpQzYU.s 			page 50


 2666      31365F74 
 2666      00
 2667              	.LASF11:
 2668 029c 6C6F6E67 		.ascii	"long unsigned int\000"
 2668      20756E73 
 2668      69676E65 
 2668      6420696E 
 2668      7400
 2669              	.LASF112:
 2670 02ae 68616C49 		.ascii	"halInit\000"
 2670      6E697400 
 2671              	.LASF86:
 2672 02b6 75617274 		.ascii	"uartecb_t\000"
 2672      6563625F 
 2672      7400
 2673              	.LASF7:
 2674 02c0 73686F72 		.ascii	"short unsigned int\000"
 2674      7420756E 
 2674      7369676E 
 2674      65642069 
 2674      6E7400
 2675              	.LASF61:
 2676 02d3 55415254 		.ascii	"UART_UNINIT\000"
 2676      5F554E49 
 2676      4E495400 
 2677              	.LASF62:
 2678 02df 55415254 		.ascii	"UART_STOP\000"
 2678      5F53544F 
 2678      5000
 2679              	.LASF41:
 2680 02e9 55534152 		.ascii	"USART_TypeDef\000"
 2680      545F5479 
 2680      70654465 
 2680      6600
 2681              	.LASF8:
 2682 02f7 5F5F696E 		.ascii	"__int32_t\000"
 2682      7433325F 
 2682      7400
 2683              	.LASF107:
 2684 0301 55415254 		.ascii	"UARTD2\000"
 2684      443200
 2685              	.LASF98:
 2686 0308 75617274 		.ascii	"uartp\000"
 2686      7000
 2687              	.LASF25:
 2688 030e 76745F74 		.ascii	"vt_time\000"
 2688      696D6500 
 2689              	.LASF20:
 2690 0316 73697A65 		.ascii	"sizetype\000"
 2690      74797065 
 2690      00
 2691              	.LASF48:
 2692 031f 636C6561 		.ascii	"clear\000"
 2692      7200
 2693              	.LASF71:
 2694 0325 55415254 		.ascii	"UART_RX_COMPLETE\000"
 2694      5F52585F 
ARM GAS  /tmp/ccSpQzYU.s 			page 51


 2694      434F4D50 
 2694      4C455445 
 2694      00
 2695              	.LASF117:
 2696 0336 75617274 		.ascii	"uartStopSend\000"
 2696      53746F70 
 2696      53656E64 
 2696      00
 2697              	.LASF91:
 2698 0343 72786572 		.ascii	"rxerr_cb\000"
 2698      725F6362 
 2698      00
 2699              	.LASF58:
 2700 034c 696F706F 		.ascii	"ioportmask_t\000"
 2700      72746D61 
 2700      736B5F74 
 2700      00
 2701              	.LASF109:
 2702 0359 63685654 		.ascii	"chVTSetI\000"
 2702      53657449 
 2702      00
 2703              	.LASF73:
 2704 0362 75617274 		.ascii	"uartflags_t\000"
 2704      666C6167 
 2704      735F7400 
 2705              	.LASF114:
 2706 036e 75617274 		.ascii	"uartStart\000"
 2706      53746172 
 2706      7400
 2707              	.LASF89:
 2708 0378 7278656E 		.ascii	"rxend_cb\000"
 2708      645F6362 
 2708      00
 2709              	.LASF103:
 2710 0381 6D657373 		.ascii	"message\000"
 2710      61676500 
 2711              	.LASF68:
 2712 0389 75617274 		.ascii	"uarttxstate_t\000"
 2712      74787374 
 2712      6174655F 
 2712      7400
 2713              	.LASF100:
 2714 0397 72786368 		.ascii	"rxchar\000"
 2714      617200
 2715              	.LASF56:
 2716 039e 41465248 		.ascii	"AFRH\000"
 2716      00
 2717              	.LASF55:
 2718 03a3 4146524C 		.ascii	"AFRL\000"
 2718      00
 2719              	.LASF101:
 2720 03a8 7278656E 		.ascii	"rxend\000"
 2720      6400
 2721              	.LASF33:
 2722 03ae 52455345 		.ascii	"RESERVED0\000"
 2722      52564544 
 2722      3000
ARM GAS  /tmp/ccSpQzYU.s 			page 52


 2723              	.LASF34:
 2724 03b8 52455345 		.ascii	"RESERVED1\000"
 2724      52564544 
 2724      3100
 2725              	.LASF35:
 2726 03c2 52455345 		.ascii	"RESERVED2\000"
 2726      52564544 
 2726      3200
 2727              	.LASF36:
 2728 03cc 52455345 		.ascii	"RESERVED3\000"
 2728      52564544 
 2728      3300
 2729              	.LASF37:
 2730 03d6 52455345 		.ascii	"RESERVED4\000"
 2730      52564544 
 2730      3400
 2731              	.LASF38:
 2732 03e0 52455345 		.ascii	"RESERVED5\000"
 2732      52564544 
 2732      3500
 2733              	.LASF40:
 2734 03ea 52455345 		.ascii	"RESERVED6\000"
 2734      52564544 
 2734      3600
 2735              	.LASF47:
 2736 03f4 73746D33 		.ascii	"stm32_dma_stream_t\000"
 2736      325F646D 
 2736      615F7374 
 2736      7265616D 
 2736      5F7400
 2737              	.LASF88:
 2738 0407 7478656E 		.ascii	"txend2_cb\000"
 2738      64325F63 
 2738      6200
 2739              	.LASF18:
 2740 0411 5F426F6F 		.ascii	"_Bool\000"
 2740      6C00
 2741              	.LASF16:
 2742 0417 696E7433 		.ascii	"int32_t\000"
 2742      325F7400 
 2743              	.LASF4:
 2744 041f 756E7369 		.ascii	"unsigned char\000"
 2744      676E6564 
 2744      20636861 
 2744      7200
 2745              	.LASF5:
 2746 042d 73686F72 		.ascii	"short int\000"
 2746      7420696E 
 2746      7400
 2747              	.LASF84:
 2748 0437 75617274 		.ascii	"uartcb_t\000"
 2748      63625F74 
 2748      00
 2749              	.LASF64:
 2750 0440 75617274 		.ascii	"uartstate_t\000"
 2750      73746174 
 2750      655F7400 
ARM GAS  /tmp/ccSpQzYU.s 			page 53


 2751              	.LASF67:
 2752 044c 55415254 		.ascii	"UART_TX_COMPLETE\000"
 2752      5F54585F 
 2752      434F4D50 
 2752      4C455445 
 2752      00
 2753              	.LASF108:
 2754 045d 63685654 		.ascii	"chVTResetI\000"
 2754      52657365 
 2754      744900
 2755              	.LASF43:
 2756 0468 69666372 		.ascii	"ifcr\000"
 2756      00
 2757              	.LASF17:
 2758 046d 75696E74 		.ascii	"uint32_t\000"
 2758      33325F74 
 2758      00
 2759              	.LASF22:
 2760 0476 56697274 		.ascii	"VirtualTimer\000"
 2760      75616C54 
 2760      696D6572 
 2760      00
 2761              	.LASF28:
 2762 0483 63686172 		.ascii	"char\000"
 2762      00
 2763              	.LASF78:
 2764 0488 636F6E66 		.ascii	"config\000"
 2764      696700
 2765              	.LASF96:
 2766 048f 6C656435 		.ascii	"led5off\000"
 2766      6F666600 
 2767              	.LASF6:
 2768 0497 5F5F7569 		.ascii	"__uint16_t\000"
 2768      6E743136 
 2768      5F7400
 2769              	.LASF87:
 2770 04a2 7478656E 		.ascii	"txend1_cb\000"
 2770      64315F63 
 2770      6200
 2771              	.LASF19:
 2772 04ac 73797374 		.ascii	"systime_t\000"
 2772      696D655F 
 2772      7400
 2773              	.LASF102:
 2774 04b6 7478656E 		.ascii	"txend2\000"
 2774      643200
 2775              	.LASF21:
 2776 04bd 76746675 		.ascii	"vtfunc_t\000"
 2776      6E635F74 
 2776      00
 2777              	.LASF65:
 2778 04c6 55415254 		.ascii	"UART_TX_IDLE\000"
 2778      5F54585F 
 2778      49444C45 
 2778      00
 2779              	.LASF29:
 2780 04d3 4E445452 		.ascii	"NDTR\000"
ARM GAS  /tmp/ccSpQzYU.s 			page 54


 2780      00
 2781              	.LASF32:
 2782 04d8 444D415F 		.ascii	"DMA_Stream_TypeDef\000"
 2782      53747265 
 2782      616D5F54 
 2782      79706544 
 2782      656600
 2783              	.LASF60:
 2784 04eb 696F706F 		.ascii	"ioportid_t\000"
 2784      72746964 
 2784      5F7400
 2785              	.LASF115:
 2786 04f6 5F70616C 		.ascii	"_pal_lld_setgroupmode\000"
 2786      5F6C6C64 
 2786      5F736574 
 2786      67726F75 
 2786      706D6F64 
 2787              	.LASF111:
 2788 050c 6462675F 		.ascii	"dbg_check_unlock_from_isr\000"
 2788      63686563 
 2788      6B5F756E 
 2788      6C6F636B 
 2788      5F66726F 
 2789              	.LASF31:
 2790 0526 4D314152 		.ascii	"M1AR\000"
 2790      00
 2791              	.LASF45:
 2792 052b 73656C66 		.ascii	"selfindex\000"
 2792      696E6465 
 2792      7800
 2793              	.LASF27:
 2794 0535 76745F70 		.ascii	"vt_par\000"
 2794      617200
 2795              	.LASF72:
 2796 053c 75617274 		.ascii	"uartrxstate_t\000"
 2796      72787374 
 2796      6174655F 
 2796      7400
 2797              	.LASF95:
 2798 054a 6C656434 		.ascii	"led4off\000"
 2798      6F666600 
 2799              	.LASF14:
 2800 0552 75696E74 		.ascii	"uint8_t\000"
 2800      385F7400 
 2801              	.LASF69:
 2802 055a 55415254 		.ascii	"UART_RX_IDLE\000"
 2802      5F52585F 
 2802      49444C45 
 2802      00
 2803              	.LASF110:
 2804 0567 6462675F 		.ascii	"dbg_check_lock_from_isr\000"
 2804      63686563 
 2804      6B5F6C6F 
 2804      636B5F66 
 2804      726F6D5F 
 2805              	.LASF80:
 2806 057f 646D616D 		.ascii	"dmamode\000"
ARM GAS  /tmp/ccSpQzYU.s 			page 55


 2806      6F646500 
 2807              	.LASF92:
 2808 0587 73706565 		.ascii	"speed\000"
 2808      6400
 2809              	.LASF122:
 2810 058d 6D61696E 		.ascii	"main\000"
 2810      00
 2811              	.LASF59:
 2812 0592 696F6D6F 		.ascii	"iomode_t\000"
 2812      64655F74 
 2812      00
 2813              	.LASF26:
 2814 059b 76745F66 		.ascii	"vt_func\000"
 2814      756E6300 
 2815              	.LASF94:
 2816 05a3 6C656433 		.ascii	"led3off\000"
 2816      6F666600 
 2817              		.ident	"GCC: (15:4.9.3+svn227297-1) 4.9.3 20150529 (prerelease)"
ARM GAS  /tmp/ccSpQzYU.s 			page 56


DEFINED SYMBOLS
                            *ABS*:0000000000000000 MainUart.c
     /tmp/ccSpQzYU.s:19     .text.led3off:0000000000000000 $t
     /tmp/ccSpQzYU.s:24     .text.led3off:0000000000000000 led3off
     /tmp/ccSpQzYU.s:41     .text.led3off:000000000000000c $d
     /tmp/ccSpQzYU.s:46     .text.led4off:0000000000000000 $t
     /tmp/ccSpQzYU.s:51     .text.led4off:0000000000000000 led4off
     /tmp/ccSpQzYU.s:67     .text.led4off:000000000000000c $d
     /tmp/ccSpQzYU.s:72     .text.led5off:0000000000000000 $t
     /tmp/ccSpQzYU.s:77     .text.led5off:0000000000000000 led5off
     /tmp/ccSpQzYU.s:93     .text.led5off:000000000000000c $d
     /tmp/ccSpQzYU.s:98     .text.txend1:0000000000000000 $t
     /tmp/ccSpQzYU.s:103    .text.txend1:0000000000000000 txend1
     /tmp/ccSpQzYU.s:116    .text.rxerr:0000000000000000 $t
     /tmp/ccSpQzYU.s:121    .text.rxerr:0000000000000000 rxerr
     /tmp/ccSpQzYU.s:134    .text.rxchar:0000000000000000 $t
     /tmp/ccSpQzYU.s:139    .text.rxchar:0000000000000000 rxchar
     /tmp/ccSpQzYU.s:193    .text.rxchar:0000000000000038 $d
     /tmp/ccSpQzYU.s:201    .text.rxend:0000000000000000 $t
     /tmp/ccSpQzYU.s:206    .text.rxend:0000000000000000 rxend
     /tmp/ccSpQzYU.s:259    .text.rxend:0000000000000038 $d
     /tmp/ccSpQzYU.s:267    .text.txend2:0000000000000000 $t
     /tmp/ccSpQzYU.s:272    .text.txend2:0000000000000000 txend2
     /tmp/ccSpQzYU.s:325    .text.txend2:0000000000000038 $d
     /tmp/ccSpQzYU.s:333    .text.startup.main:0000000000000000 $t
     /tmp/ccSpQzYU.s:339    .text.startup.main:0000000000000000 main
     /tmp/ccSpQzYU.s:397    .text.startup.main:000000000000004c $d
     /tmp/ccSpQzYU.s:405    .bss.vt3:0000000000000000 $d
     /tmp/ccSpQzYU.s:409    .bss.vt3:0000000000000000 vt3
     /tmp/ccSpQzYU.s:412    .bss.vt4:0000000000000000 $d
     /tmp/ccSpQzYU.s:416    .bss.vt4:0000000000000000 vt4
     /tmp/ccSpQzYU.s:419    .bss.vt5:0000000000000000 $d
     /tmp/ccSpQzYU.s:423    .bss.vt5:0000000000000000 vt5
     /tmp/ccSpQzYU.s:426    .rodata.str1.4:0000000000000000 $d
     /tmp/ccSpQzYU.s:430    .data.uart_cfg_1:0000000000000000 $d
     /tmp/ccSpQzYU.s:434    .data.uart_cfg_1:0000000000000000 uart_cfg_1
                     .debug_frame:0000000000000010 $d
     /tmp/ccSpQzYU.s:200    .text.rxchar:0000000000000044 $t
     /tmp/ccSpQzYU.s:266    .text.rxend:0000000000000044 $t
     /tmp/ccSpQzYU.s:332    .text.txend2:0000000000000044 $t
     /tmp/ccSpQzYU.s:404    .text.startup.main:000000000000005c $t

UNDEFINED SYMBOLS
dbg_check_lock_from_isr
chVTResetI
chVTSetI
dbg_check_unlock_from_isr
halInit
chSysInit
uartStart
_pal_lld_setgroupmode
uartStopReceive
uartStopSend
uartStartSend
chThdSleep
UARTD2
