ARM GAS  /tmp/cczXAoqA.s 			page 1


   1              		.syntax unified
   2              		.cpu cortex-m4
   3              		.fpu softvfp
   4              		.eabi_attribute 20, 1
   5              		.eabi_attribute 21, 1
   6              		.eabi_attribute 23, 3
   7              		.eabi_attribute 24, 1
   8              		.eabi_attribute 25, 1
   9              		.eabi_attribute 26, 1
  10              		.eabi_attribute 30, 2
  11              		.eabi_attribute 34, 1
  12              		.eabi_attribute 18, 4
  13              		.thumb
  14              		.file	"spi.c"
  15              		.text
  16              	.Ltext0:
  17              		.cfi_sections	.debug_frame
  18              		.section	.text.spiInit,"ax",%progbits
  19              		.align	2
  20              		.p2align 4,,15
  21              		.global	spiInit
  22              		.thumb
  23              		.thumb_func
  24              		.type	spiInit, %function
  25              	spiInit:
  26              	.LFB118:
  27              		.file 1 "../../os/hal/src/spi.c"
  28              		.loc 1 68 0
  29              		.cfi_startproc
  30              		@ args = 0, pretend = 0, frame = 0
  31              		@ frame_needed = 0, uses_anonymous_args = 0
  32              		@ link register save eliminated.
  33              		.loc 1 70 0
  34 0000 FFF7FEBF 		b	spi_lld_init
  35              	.LVL0:
  36              		.cfi_endproc
  37              	.LFE118:
  38              		.size	spiInit, .-spiInit
  39 0004 AFF30080 		.section	.text.spiObjectInit,"ax",%progbits
  39      AFF30080 
  39      AFF30080 
  40              		.align	2
  41              		.p2align 4,,15
  42              		.global	spiObjectInit
  43              		.thumb
  44              		.thumb_func
  45              		.type	spiObjectInit, %function
  46              	spiObjectInit:
  47              	.LFB119:
  48              		.loc 1 80 0
  49              		.cfi_startproc
  50              		@ args = 0, pretend = 0, frame = 0
  51              		@ frame_needed = 0, uses_anonymous_args = 0
  52              		@ link register save eliminated.
  53              	.LVL1:
  54              		.loc 1 83 0
  55 0000 0023     		movs	r3, #0
ARM GAS  /tmp/cczXAoqA.s 			page 2


  56              		.loc 1 82 0
  57 0002 0122     		movs	r2, #1
  58 0004 0270     		strb	r2, [r0]
  59              		.loc 1 83 0
  60 0006 4360     		str	r3, [r0, #4]
  61              		.loc 1 85 0
  62 0008 8360     		str	r3, [r0, #8]
  63              		.loc 1 89 0
  64 000a 0C30     		adds	r0, r0, #12
  65              	.LVL2:
  66 000c FFF7FEBF 		b	chMtxInit
  67              	.LVL3:
  68              		.cfi_endproc
  69              	.LFE119:
  70              		.size	spiObjectInit, .-spiObjectInit
  71              		.section	.text.spiStart,"ax",%progbits
  72              		.align	2
  73              		.p2align 4,,15
  74              		.global	spiStart
  75              		.thumb
  76              		.thumb_func
  77              		.type	spiStart, %function
  78              	spiStart:
  79              	.LFB120:
  80              		.loc 1 107 0
  81              		.cfi_startproc
  82              		@ args = 0, pretend = 0, frame = 0
  83              		@ frame_needed = 0, uses_anonymous_args = 0
  84              	.LVL4:
  85 0000 38B5     		push	{r3, r4, r5, lr}
  86              		.cfi_def_cfa_offset 16
  87              		.cfi_offset 3, -16
  88              		.cfi_offset 4, -12
  89              		.cfi_offset 5, -8
  90              		.cfi_offset 14, -4
  91              		.loc 1 107 0
  92 0002 0D46     		mov	r5, r1
  93              		.loc 1 109 0
  94 0004 0446     		mov	r4, r0
  95 0006 C0B1     		cbz	r0, .L4
  96              		.loc 1 109 0 is_stmt 0 discriminator 2
  97 0008 B9B1     		cbz	r1, .L4
  98              	.LVL5:
  99              	.L5:
 100              	.LBB2:
 101              		.loc 1 111 0 is_stmt 1
 102 000a 2023     		movs	r3, #32
 103              	@ 111 "../../os/hal/src/spi.c" 1
 104 000c 83F31188 		msr     BASEPRI, r3
 105              	@ 0 "" 2
 106              		.thumb
 107              	.LBE2:
 108 0010 FFF7FEFF 		bl	dbg_check_lock
 109              	.LVL6:
 110              		.loc 1 112 0
 111 0014 2378     		ldrb	r3, [r4]	@ zero_extendqisi2
 112 0016 013B     		subs	r3, r3, #1
ARM GAS  /tmp/cczXAoqA.s 			page 3


 113 0018 012B     		cmp	r3, #1
 114 001a 02D9     		bls	.L6
 115              		.loc 1 112 0 is_stmt 0 discriminator 1
 116 001c 0948     		ldr	r0, .L12
 117 001e FFF7FEFF 		bl	chDbgPanic
 118              	.LVL7:
 119              	.L6:
 120              		.loc 1 115 0 is_stmt 1
 121 0022 2046     		mov	r0, r4
 122              		.loc 1 114 0
 123 0024 6560     		str	r5, [r4, #4]
 124              		.loc 1 115 0
 125 0026 FFF7FEFF 		bl	spi_lld_start
 126              	.LVL8:
 127              		.loc 1 116 0
 128 002a 0223     		movs	r3, #2
 129 002c 2370     		strb	r3, [r4]
 130              		.loc 1 117 0
 131 002e FFF7FEFF 		bl	dbg_check_unlock
 132              	.LVL9:
 133              	.LBB3:
 134 0032 0023     		movs	r3, #0
 135              	@ 117 "../../os/hal/src/spi.c" 1
 136 0034 83F31188 		msr     BASEPRI, r3
 137              	@ 0 "" 2
 138              		.thumb
 139 0038 38BD     		pop	{r3, r4, r5, pc}
 140              	.LVL10:
 141              	.L4:
 142              	.LBE3:
 143              		.loc 1 109 0 discriminator 3
 144 003a 0348     		ldr	r0, .L12+4
 145              	.LVL11:
 146 003c FFF7FEFF 		bl	chDbgPanic
 147              	.LVL12:
 148 0040 E3E7     		b	.L5
 149              	.L13:
 150 0042 00BF     		.align	2
 151              	.L12:
 152 0044 10000000 		.word	.LC1
 153 0048 00000000 		.word	.LC0
 154              		.cfi_endproc
 155              	.LFE120:
 156              		.size	spiStart, .-spiStart
 157 004c AFF30080 		.section	.text.spiStop,"ax",%progbits
 158              		.align	2
 159              		.p2align 4,,15
 160              		.global	spiStop
 161              		.thumb
 162              		.thumb_func
 163              		.type	spiStop, %function
 164              	spiStop:
 165              	.LFB121:
 166              		.loc 1 129 0
 167              		.cfi_startproc
 168              		@ args = 0, pretend = 0, frame = 0
 169              		@ frame_needed = 0, uses_anonymous_args = 0
ARM GAS  /tmp/cczXAoqA.s 			page 4


 170              	.LVL13:
 171 0000 10B5     		push	{r4, lr}
 172              		.cfi_def_cfa_offset 8
 173              		.cfi_offset 4, -8
 174              		.cfi_offset 14, -4
 175              		.loc 1 131 0
 176 0002 0446     		mov	r4, r0
 177 0004 C8B1     		cbz	r0, .L18
 178              	.LVL14:
 179              	.L15:
 180              	.LBB4:
 181              		.loc 1 133 0
 182 0006 2023     		movs	r3, #32
 183              	@ 133 "../../os/hal/src/spi.c" 1
 184 0008 83F31188 		msr     BASEPRI, r3
 185              	@ 0 "" 2
 186              		.thumb
 187              	.LBE4:
 188 000c FFF7FEFF 		bl	dbg_check_lock
 189              	.LVL15:
 190              		.loc 1 134 0
 191 0010 2378     		ldrb	r3, [r4]	@ zero_extendqisi2
 192 0012 013B     		subs	r3, r3, #1
 193 0014 012B     		cmp	r3, #1
 194 0016 02D9     		bls	.L16
 195              		.loc 1 134 0 is_stmt 0 discriminator 1
 196 0018 0A48     		ldr	r0, .L19
 197 001a FFF7FEFF 		bl	chDbgPanic
 198              	.LVL16:
 199              	.L16:
 200              		.loc 1 136 0 is_stmt 1
 201 001e 2046     		mov	r0, r4
 202 0020 FFF7FEFF 		bl	spi_lld_unselect
 203              	.LVL17:
 204              		.loc 1 137 0
 205 0024 2046     		mov	r0, r4
 206 0026 FFF7FEFF 		bl	spi_lld_stop
 207              	.LVL18:
 208              		.loc 1 138 0
 209 002a 0123     		movs	r3, #1
 210 002c 2370     		strb	r3, [r4]
 211              		.loc 1 139 0
 212 002e FFF7FEFF 		bl	dbg_check_unlock
 213              	.LVL19:
 214              	.LBB5:
 215 0032 0023     		movs	r3, #0
 216              	@ 139 "../../os/hal/src/spi.c" 1
 217 0034 83F31188 		msr     BASEPRI, r3
 218              	@ 0 "" 2
 219              		.thumb
 220 0038 10BD     		pop	{r4, pc}
 221              	.LVL20:
 222              	.L18:
 223              	.LBE5:
 224              		.loc 1 131 0 discriminator 1
 225 003a 0348     		ldr	r0, .L19+4
 226              	.LVL21:
ARM GAS  /tmp/cczXAoqA.s 			page 5


 227 003c FFF7FEFF 		bl	chDbgPanic
 228              	.LVL22:
 229 0040 E1E7     		b	.L15
 230              	.L20:
 231 0042 00BF     		.align	2
 232              	.L19:
 233 0044 2C000000 		.word	.LC3
 234 0048 20000000 		.word	.LC2
 235              		.cfi_endproc
 236              	.LFE121:
 237              		.size	spiStop, .-spiStop
 238 004c AFF30080 		.section	.text.spiSelect,"ax",%progbits
 239              		.align	2
 240              		.p2align 4,,15
 241              		.global	spiSelect
 242              		.thumb
 243              		.thumb_func
 244              		.type	spiSelect, %function
 245              	spiSelect:
 246              	.LFB122:
 247              		.loc 1 149 0
 248              		.cfi_startproc
 249              		@ args = 0, pretend = 0, frame = 0
 250              		@ frame_needed = 0, uses_anonymous_args = 0
 251              	.LVL23:
 252 0000 10B5     		push	{r4, lr}
 253              		.cfi_def_cfa_offset 8
 254              		.cfi_offset 4, -8
 255              		.cfi_offset 14, -4
 256              		.loc 1 151 0
 257 0002 0446     		mov	r4, r0
 258 0004 98B1     		cbz	r0, .L28
 259              	.LVL24:
 260              	.L22:
 261              	.LBB6:
 262              		.loc 1 153 0
 263 0006 2023     		movs	r3, #32
 264              	@ 153 "../../os/hal/src/spi.c" 1
 265 0008 83F31188 		msr     BASEPRI, r3
 266              	@ 0 "" 2
 267              		.thumb
 268              	.LBE6:
 269 000c FFF7FEFF 		bl	dbg_check_lock
 270              	.LVL25:
 271              		.loc 1 154 0
 272 0010 2378     		ldrb	r3, [r4]	@ zero_extendqisi2
 273 0012 022B     		cmp	r3, #2
 274 0014 02D0     		beq	.L23
 275              		.loc 1 154 0 is_stmt 0 discriminator 1
 276 0016 0848     		ldr	r0, .L29
 277 0018 FFF7FEFF 		bl	chDbgPanic
 278              	.LVL26:
 279              	.L23:
 280              		.loc 1 155 0 is_stmt 1
 281 001c 2046     		mov	r0, r4
 282 001e FFF7FEFF 		bl	spi_lld_select
 283              	.LVL27:
ARM GAS  /tmp/cczXAoqA.s 			page 6


 284              		.loc 1 156 0
 285 0022 FFF7FEFF 		bl	dbg_check_unlock
 286              	.LVL28:
 287              	.LBB7:
 288 0026 0023     		movs	r3, #0
 289              	@ 156 "../../os/hal/src/spi.c" 1
 290 0028 83F31188 		msr     BASEPRI, r3
 291              	@ 0 "" 2
 292              		.thumb
 293 002c 10BD     		pop	{r4, pc}
 294              	.LVL29:
 295              	.L28:
 296              	.LBE7:
 297              		.loc 1 151 0 discriminator 1
 298 002e 0348     		ldr	r0, .L29+4
 299              	.LVL30:
 300 0030 FFF7FEFF 		bl	chDbgPanic
 301              	.LVL31:
 302 0034 E7E7     		b	.L22
 303              	.L30:
 304 0036 00BF     		.align	2
 305              	.L29:
 306 0038 4C000000 		.word	.LC5
 307 003c 3C000000 		.word	.LC4
 308              		.cfi_endproc
 309              	.LFE122:
 310              		.size	spiSelect, .-spiSelect
 311              		.section	.text.spiUnselect,"ax",%progbits
 312              		.align	2
 313              		.p2align 4,,15
 314              		.global	spiUnselect
 315              		.thumb
 316              		.thumb_func
 317              		.type	spiUnselect, %function
 318              	spiUnselect:
 319              	.LFB123:
 320              		.loc 1 167 0
 321              		.cfi_startproc
 322              		@ args = 0, pretend = 0, frame = 0
 323              		@ frame_needed = 0, uses_anonymous_args = 0
 324              	.LVL32:
 325 0000 10B5     		push	{r4, lr}
 326              		.cfi_def_cfa_offset 8
 327              		.cfi_offset 4, -8
 328              		.cfi_offset 14, -4
 329              		.loc 1 169 0
 330 0002 0446     		mov	r4, r0
 331 0004 98B1     		cbz	r0, .L38
 332              	.LVL33:
 333              	.L32:
 334              	.LBB8:
 335              		.loc 1 171 0
 336 0006 2023     		movs	r3, #32
 337              	@ 171 "../../os/hal/src/spi.c" 1
 338 0008 83F31188 		msr     BASEPRI, r3
 339              	@ 0 "" 2
 340              		.thumb
ARM GAS  /tmp/cczXAoqA.s 			page 7


 341              	.LBE8:
 342 000c FFF7FEFF 		bl	dbg_check_lock
 343              	.LVL34:
 344              		.loc 1 172 0
 345 0010 2378     		ldrb	r3, [r4]	@ zero_extendqisi2
 346 0012 022B     		cmp	r3, #2
 347 0014 02D0     		beq	.L33
 348              		.loc 1 172 0 is_stmt 0 discriminator 1
 349 0016 0848     		ldr	r0, .L39
 350 0018 FFF7FEFF 		bl	chDbgPanic
 351              	.LVL35:
 352              	.L33:
 353              		.loc 1 173 0 is_stmt 1
 354 001c 2046     		mov	r0, r4
 355 001e FFF7FEFF 		bl	spi_lld_unselect
 356              	.LVL36:
 357              		.loc 1 174 0
 358 0022 FFF7FEFF 		bl	dbg_check_unlock
 359              	.LVL37:
 360              	.LBB9:
 361 0026 0023     		movs	r3, #0
 362              	@ 174 "../../os/hal/src/spi.c" 1
 363 0028 83F31188 		msr     BASEPRI, r3
 364              	@ 0 "" 2
 365              		.thumb
 366 002c 10BD     		pop	{r4, pc}
 367              	.LVL38:
 368              	.L38:
 369              	.LBE9:
 370              		.loc 1 169 0 discriminator 1
 371 002e 0348     		ldr	r0, .L39+4
 372              	.LVL39:
 373 0030 FFF7FEFF 		bl	chDbgPanic
 374              	.LVL40:
 375 0034 E7E7     		b	.L32
 376              	.L40:
 377 0036 00BF     		.align	2
 378              	.L39:
 379 0038 6C000000 		.word	.LC7
 380 003c 5C000000 		.word	.LC6
 381              		.cfi_endproc
 382              	.LFE123:
 383              		.size	spiUnselect, .-spiUnselect
 384              		.section	.text.spiStartIgnore,"ax",%progbits
 385              		.align	2
 386              		.p2align 4,,15
 387              		.global	spiStartIgnore
 388              		.thumb
 389              		.thumb_func
 390              		.type	spiStartIgnore, %function
 391              	spiStartIgnore:
 392              	.LFB124:
 393              		.loc 1 190 0
 394              		.cfi_startproc
 395              		@ args = 0, pretend = 0, frame = 0
 396              		@ frame_needed = 0, uses_anonymous_args = 0
 397              	.LVL41:
ARM GAS  /tmp/cczXAoqA.s 			page 8


 398 0000 38B5     		push	{r3, r4, r5, lr}
 399              		.cfi_def_cfa_offset 16
 400              		.cfi_offset 3, -16
 401              		.cfi_offset 4, -12
 402              		.cfi_offset 5, -8
 403              		.cfi_offset 14, -4
 404              		.loc 1 190 0
 405 0002 0D46     		mov	r5, r1
 406              		.loc 1 192 0
 407 0004 0446     		mov	r4, r0
 408 0006 B8B1     		cbz	r0, .L42
 409              		.loc 1 192 0 is_stmt 0 discriminator 2
 410 0008 B1B1     		cbz	r1, .L42
 411              	.LVL42:
 412              	.L43:
 413              	.LBB10:
 414              		.loc 1 194 0 is_stmt 1
 415 000a 2023     		movs	r3, #32
 416              	@ 194 "../../os/hal/src/spi.c" 1
 417 000c 83F31188 		msr     BASEPRI, r3
 418              	@ 0 "" 2
 419              		.thumb
 420              	.LBE10:
 421 0010 FFF7FEFF 		bl	dbg_check_lock
 422              	.LVL43:
 423              		.loc 1 195 0
 424 0014 2378     		ldrb	r3, [r4]	@ zero_extendqisi2
 425 0016 022B     		cmp	r3, #2
 426 0018 02D0     		beq	.L44
 427              		.loc 1 195 0 is_stmt 0 discriminator 1
 428 001a 0948     		ldr	r0, .L52
 429 001c FFF7FEFF 		bl	chDbgPanic
 430              	.LVL44:
 431              	.L44:
 432              		.loc 1 196 0 is_stmt 1
 433 0020 0323     		movs	r3, #3
 434 0022 2370     		strb	r3, [r4]
 435 0024 2946     		mov	r1, r5
 436 0026 2046     		mov	r0, r4
 437 0028 FFF7FEFF 		bl	spi_lld_ignore
 438              	.LVL45:
 439              		.loc 1 197 0
 440 002c FFF7FEFF 		bl	dbg_check_unlock
 441              	.LVL46:
 442              	.LBB11:
 443 0030 0023     		movs	r3, #0
 444              	@ 197 "../../os/hal/src/spi.c" 1
 445 0032 83F31188 		msr     BASEPRI, r3
 446              	@ 0 "" 2
 447              		.thumb
 448 0036 38BD     		pop	{r3, r4, r5, pc}
 449              	.LVL47:
 450              	.L42:
 451              	.LBE11:
 452              		.loc 1 192 0 discriminator 3
 453 0038 0248     		ldr	r0, .L52+4
 454              	.LVL48:
ARM GAS  /tmp/cczXAoqA.s 			page 9


 455 003a FFF7FEFF 		bl	chDbgPanic
 456              	.LVL49:
 457 003e E4E7     		b	.L43
 458              	.L53:
 459              		.align	2
 460              	.L52:
 461 0040 94000000 		.word	.LC9
 462 0044 80000000 		.word	.LC8
 463              		.cfi_endproc
 464              	.LFE124:
 465              		.size	spiStartIgnore, .-spiStartIgnore
 466 0048 AFF30080 		.section	.text.spiStartExchange,"ax",%progbits
 466      AFF30080 
 467              		.align	2
 468              		.p2align 4,,15
 469              		.global	spiStartExchange
 470              		.thumb
 471              		.thumb_func
 472              		.type	spiStartExchange, %function
 473              	spiStartExchange:
 474              	.LFB125:
 475              		.loc 1 218 0
 476              		.cfi_startproc
 477              		@ args = 0, pretend = 0, frame = 0
 478              		@ frame_needed = 0, uses_anonymous_args = 0
 479              	.LVL50:
 480 0000 F8B5     		push	{r3, r4, r5, r6, r7, lr}
 481              		.cfi_def_cfa_offset 24
 482              		.cfi_offset 3, -24
 483              		.cfi_offset 4, -20
 484              		.cfi_offset 5, -16
 485              		.cfi_offset 6, -12
 486              		.cfi_offset 7, -8
 487              		.cfi_offset 14, -4
 488              		.loc 1 218 0
 489 0002 0D46     		mov	r5, r1
 490 0004 1746     		mov	r7, r2
 491 0006 1E46     		mov	r6, r3
 492              		.loc 1 220 0
 493 0008 0446     		mov	r4, r0
 494 000a 00B1     		cbz	r0, .L55
 495              		.loc 1 220 0 is_stmt 0 discriminator 2
 496 000c D9B9     		cbnz	r1, .L71
 497              	.L55:
 498              		.loc 1 220 0 discriminator 7
 499 000e 1048     		ldr	r0, .L72
 500              	.LVL51:
 501 0010 FFF7FEFF 		bl	chDbgPanic
 502              	.LVL52:
 503              	.L56:
 504              	.LBB12:
 505              		.loc 1 223 0 is_stmt 1
 506 0014 2023     		movs	r3, #32
 507              	@ 223 "../../os/hal/src/spi.c" 1
 508 0016 83F31188 		msr     BASEPRI, r3
 509              	@ 0 "" 2
 510              		.thumb
ARM GAS  /tmp/cczXAoqA.s 			page 10


 511              	.LBE12:
 512 001a FFF7FEFF 		bl	dbg_check_lock
 513              	.LVL53:
 514              		.loc 1 224 0
 515 001e 2378     		ldrb	r3, [r4]	@ zero_extendqisi2
 516 0020 022B     		cmp	r3, #2
 517 0022 02D0     		beq	.L57
 518              		.loc 1 224 0 is_stmt 0 discriminator 1
 519 0024 0B48     		ldr	r0, .L72+4
 520 0026 FFF7FEFF 		bl	chDbgPanic
 521              	.LVL54:
 522              	.L57:
 523              		.loc 1 225 0 is_stmt 1
 524 002a 0320     		movs	r0, #3
 525 002c 3346     		mov	r3, r6
 526 002e 2946     		mov	r1, r5
 527 0030 3A46     		mov	r2, r7
 528 0032 2070     		strb	r0, [r4]
 529 0034 2046     		mov	r0, r4
 530 0036 FFF7FEFF 		bl	spi_lld_exchange
 531              	.LVL55:
 532              		.loc 1 226 0
 533 003a FFF7FEFF 		bl	dbg_check_unlock
 534              	.LVL56:
 535              	.LBB13:
 536 003e 0023     		movs	r3, #0
 537              	@ 226 "../../os/hal/src/spi.c" 1
 538 0040 83F31188 		msr     BASEPRI, r3
 539              	@ 0 "" 2
 540              		.thumb
 541 0044 F8BD     		pop	{r3, r4, r5, r6, r7, pc}
 542              	.LVL57:
 543              	.L71:
 544              	.LBE13:
 545              		.loc 1 220 0 discriminator 4
 546 0046 002B     		cmp	r3, #0
 547 0048 E1D0     		beq	.L55
 548              		.loc 1 220 0 is_stmt 0 discriminator 6
 549 004a 002A     		cmp	r2, #0
 550 004c E2D1     		bne	.L56
 551 004e DEE7     		b	.L55
 552              	.L73:
 553              		.align	2
 554              	.L72:
 555 0050 AC000000 		.word	.LC10
 556 0054 C4000000 		.word	.LC11
 557              		.cfi_endproc
 558              	.LFE125:
 559              		.size	spiStartExchange, .-spiStartExchange
 560 0058 AFF30080 		.section	.text.spiStartSend,"ax",%progbits
 560      AFF30080 
 561              		.align	2
 562              		.p2align 4,,15
 563              		.global	spiStartSend
 564              		.thumb
 565              		.thumb_func
 566              		.type	spiStartSend, %function
ARM GAS  /tmp/cczXAoqA.s 			page 11


 567              	spiStartSend:
 568              	.LFB126:
 569              		.loc 1 244 0 is_stmt 1
 570              		.cfi_startproc
 571              		@ args = 0, pretend = 0, frame = 0
 572              		@ frame_needed = 0, uses_anonymous_args = 0
 573              	.LVL58:
 574 0000 70B5     		push	{r4, r5, r6, lr}
 575              		.cfi_def_cfa_offset 16
 576              		.cfi_offset 4, -16
 577              		.cfi_offset 5, -12
 578              		.cfi_offset 6, -8
 579              		.cfi_offset 14, -4
 580              		.loc 1 244 0
 581 0002 0D46     		mov	r5, r1
 582 0004 1646     		mov	r6, r2
 583              		.loc 1 246 0
 584 0006 0446     		mov	r4, r0
 585 0008 00B1     		cbz	r0, .L75
 586              		.loc 1 246 0 is_stmt 0 discriminator 2
 587 000a D1B9     		cbnz	r1, .L88
 588              	.L75:
 589              		.loc 1 246 0 discriminator 5
 590 000c 0E48     		ldr	r0, .L89
 591              	.LVL59:
 592 000e FFF7FEFF 		bl	chDbgPanic
 593              	.LVL60:
 594              	.L76:
 595              	.LBB14:
 596              		.loc 1 249 0 is_stmt 1
 597 0012 2023     		movs	r3, #32
 598              	@ 249 "../../os/hal/src/spi.c" 1
 599 0014 83F31188 		msr     BASEPRI, r3
 600              	@ 0 "" 2
 601              		.thumb
 602              	.LBE14:
 603 0018 FFF7FEFF 		bl	dbg_check_lock
 604              	.LVL61:
 605              		.loc 1 250 0
 606 001c 2378     		ldrb	r3, [r4]	@ zero_extendqisi2
 607 001e 022B     		cmp	r3, #2
 608 0020 02D0     		beq	.L77
 609              		.loc 1 250 0 is_stmt 0 discriminator 1
 610 0022 0A48     		ldr	r0, .L89+4
 611 0024 FFF7FEFF 		bl	chDbgPanic
 612              	.LVL62:
 613              	.L77:
 614              		.loc 1 251 0 is_stmt 1
 615 0028 0323     		movs	r3, #3
 616 002a 2370     		strb	r3, [r4]
 617 002c 2946     		mov	r1, r5
 618 002e 3246     		mov	r2, r6
 619 0030 2046     		mov	r0, r4
 620 0032 FFF7FEFF 		bl	spi_lld_send
 621              	.LVL63:
 622              		.loc 1 252 0
 623 0036 FFF7FEFF 		bl	dbg_check_unlock
ARM GAS  /tmp/cczXAoqA.s 			page 12


 624              	.LVL64:
 625              	.LBB15:
 626 003a 0023     		movs	r3, #0
 627              	@ 252 "../../os/hal/src/spi.c" 1
 628 003c 83F31188 		msr     BASEPRI, r3
 629              	@ 0 "" 2
 630              		.thumb
 631 0040 70BD     		pop	{r4, r5, r6, pc}
 632              	.LVL65:
 633              	.L88:
 634              	.LBE15:
 635              		.loc 1 246 0 discriminator 4
 636 0042 002A     		cmp	r2, #0
 637 0044 E5D1     		bne	.L76
 638 0046 E1E7     		b	.L75
 639              	.L90:
 640              		.align	2
 641              	.L89:
 642 0048 DC000000 		.word	.LC12
 643 004c F0000000 		.word	.LC13
 644              		.cfi_endproc
 645              	.LFE126:
 646              		.size	spiStartSend, .-spiStartSend
 647              		.section	.text.spiStartReceive,"ax",%progbits
 648              		.align	2
 649              		.p2align 4,,15
 650              		.global	spiStartReceive
 651              		.thumb
 652              		.thumb_func
 653              		.type	spiStartReceive, %function
 654              	spiStartReceive:
 655              	.LFB127:
 656              		.loc 1 270 0
 657              		.cfi_startproc
 658              		@ args = 0, pretend = 0, frame = 0
 659              		@ frame_needed = 0, uses_anonymous_args = 0
 660              	.LVL66:
 661 0000 70B5     		push	{r4, r5, r6, lr}
 662              		.cfi_def_cfa_offset 16
 663              		.cfi_offset 4, -16
 664              		.cfi_offset 5, -12
 665              		.cfi_offset 6, -8
 666              		.cfi_offset 14, -4
 667              		.loc 1 270 0
 668 0002 0D46     		mov	r5, r1
 669 0004 1646     		mov	r6, r2
 670              		.loc 1 272 0
 671 0006 0446     		mov	r4, r0
 672 0008 00B1     		cbz	r0, .L92
 673              		.loc 1 272 0 is_stmt 0 discriminator 2
 674 000a D1B9     		cbnz	r1, .L105
 675              	.L92:
 676              		.loc 1 272 0 discriminator 5
 677 000c 0E48     		ldr	r0, .L106
 678              	.LVL67:
 679 000e FFF7FEFF 		bl	chDbgPanic
 680              	.LVL68:
ARM GAS  /tmp/cczXAoqA.s 			page 13


 681              	.L93:
 682              	.LBB16:
 683              		.loc 1 275 0 is_stmt 1
 684 0012 2023     		movs	r3, #32
 685              	@ 275 "../../os/hal/src/spi.c" 1
 686 0014 83F31188 		msr     BASEPRI, r3
 687              	@ 0 "" 2
 688              		.thumb
 689              	.LBE16:
 690 0018 FFF7FEFF 		bl	dbg_check_lock
 691              	.LVL69:
 692              		.loc 1 276 0
 693 001c 2378     		ldrb	r3, [r4]	@ zero_extendqisi2
 694 001e 022B     		cmp	r3, #2
 695 0020 02D0     		beq	.L94
 696              		.loc 1 276 0 is_stmt 0 discriminator 1
 697 0022 0A48     		ldr	r0, .L106+4
 698 0024 FFF7FEFF 		bl	chDbgPanic
 699              	.LVL70:
 700              	.L94:
 701              		.loc 1 277 0 is_stmt 1
 702 0028 0323     		movs	r3, #3
 703 002a 2370     		strb	r3, [r4]
 704 002c 2946     		mov	r1, r5
 705 002e 3246     		mov	r2, r6
 706 0030 2046     		mov	r0, r4
 707 0032 FFF7FEFF 		bl	spi_lld_receive
 708              	.LVL71:
 709              		.loc 1 278 0
 710 0036 FFF7FEFF 		bl	dbg_check_unlock
 711              	.LVL72:
 712              	.LBB17:
 713 003a 0023     		movs	r3, #0
 714              	@ 278 "../../os/hal/src/spi.c" 1
 715 003c 83F31188 		msr     BASEPRI, r3
 716              	@ 0 "" 2
 717              		.thumb
 718 0040 70BD     		pop	{r4, r5, r6, pc}
 719              	.LVL73:
 720              	.L105:
 721              	.LBE17:
 722              		.loc 1 272 0 discriminator 4
 723 0042 002A     		cmp	r2, #0
 724 0044 E5D1     		bne	.L93
 725 0046 E1E7     		b	.L92
 726              	.L107:
 727              		.align	2
 728              	.L106:
 729 0048 04010000 		.word	.LC14
 730 004c 18010000 		.word	.LC15
 731              		.cfi_endproc
 732              	.LFE127:
 733              		.size	spiStartReceive, .-spiStartReceive
 734              		.section	.text.spiIgnore,"ax",%progbits
 735              		.align	2
 736              		.p2align 4,,15
 737              		.global	spiIgnore
ARM GAS  /tmp/cczXAoqA.s 			page 14


 738              		.thumb
 739              		.thumb_func
 740              		.type	spiIgnore, %function
 741              	spiIgnore:
 742              	.LFB128:
 743              		.loc 1 296 0
 744              		.cfi_startproc
 745              		@ args = 0, pretend = 0, frame = 0
 746              		@ frame_needed = 0, uses_anonymous_args = 0
 747              	.LVL74:
 748 0000 38B5     		push	{r3, r4, r5, lr}
 749              		.cfi_def_cfa_offset 16
 750              		.cfi_offset 3, -16
 751              		.cfi_offset 4, -12
 752              		.cfi_offset 5, -8
 753              		.cfi_offset 14, -4
 754              		.loc 1 296 0
 755 0002 0D46     		mov	r5, r1
 756              		.loc 1 298 0
 757 0004 0446     		mov	r4, r0
 758 0006 40B3     		cbz	r0, .L109
 759              		.loc 1 298 0 is_stmt 0 discriminator 2
 760 0008 39B3     		cbz	r1, .L109
 761              	.LVL75:
 762              	.L110:
 763              	.LBB18:
 764              		.loc 1 300 0 is_stmt 1
 765 000a 2023     		movs	r3, #32
 766              	@ 300 "../../os/hal/src/spi.c" 1
 767 000c 83F31188 		msr     BASEPRI, r3
 768              	@ 0 "" 2
 769              		.thumb
 770              	.LBE18:
 771 0010 FFF7FEFF 		bl	dbg_check_lock
 772              	.LVL76:
 773              		.loc 1 301 0
 774 0014 2378     		ldrb	r3, [r4]	@ zero_extendqisi2
 775 0016 022B     		cmp	r3, #2
 776 0018 02D0     		beq	.L111
 777              		.loc 1 301 0 is_stmt 0 discriminator 1
 778 001a 1248     		ldr	r0, .L127
 779 001c FFF7FEFF 		bl	chDbgPanic
 780              	.LVL77:
 781              	.L111:
 782              		.loc 1 302 0 is_stmt 1
 783 0020 6368     		ldr	r3, [r4, #4]
 784 0022 1B68     		ldr	r3, [r3]
 785 0024 13B1     		cbz	r3, .L112
 786              		.loc 1 302 0 is_stmt 0 discriminator 1
 787 0026 1048     		ldr	r0, .L127+4
 788 0028 FFF7FEFF 		bl	chDbgPanic
 789              	.LVL78:
 790              	.L112:
 791              		.loc 1 303 0 is_stmt 1
 792 002c 0323     		movs	r3, #3
 793 002e 2370     		strb	r3, [r4]
 794 0030 2946     		mov	r1, r5
ARM GAS  /tmp/cczXAoqA.s 			page 15


 795 0032 2046     		mov	r0, r4
 796 0034 FFF7FEFF 		bl	spi_lld_ignore
 797              	.LVL79:
 798              		.loc 1 304 0
 799 0038 A368     		ldr	r3, [r4, #8]
 800 003a 13B1     		cbz	r3, .L113
 801              		.loc 1 304 0 is_stmt 0 discriminator 1
 802 003c 0B48     		ldr	r0, .L127+8
 803 003e FFF7FEFF 		bl	chDbgPanic
 804              	.LVL80:
 805              	.L113:
 806              		.loc 1 304 0 discriminator 3
 807 0042 0B4B     		ldr	r3, .L127+12
 808 0044 9B69     		ldr	r3, [r3, #24]
 809 0046 A360     		str	r3, [r4, #8]
 810 0048 0220     		movs	r0, #2
 811 004a FFF7FEFF 		bl	chSchGoSleepS
 812              	.LVL81:
 813              		.loc 1 305 0 is_stmt 1 discriminator 3
 814 004e FFF7FEFF 		bl	dbg_check_unlock
 815              	.LVL82:
 816              	.LBB19:
 817 0052 0023     		movs	r3, #0
 818              	@ 305 "../../os/hal/src/spi.c" 1
 819 0054 83F31188 		msr     BASEPRI, r3
 820              	@ 0 "" 2
 821              		.thumb
 822 0058 38BD     		pop	{r3, r4, r5, pc}
 823              	.LVL83:
 824              	.L109:
 825              	.LBE19:
 826              		.loc 1 298 0 discriminator 3
 827 005a 0648     		ldr	r0, .L127+16
 828              	.LVL84:
 829 005c FFF7FEFF 		bl	chDbgPanic
 830              	.LVL85:
 831 0060 D3E7     		b	.L110
 832              	.L128:
 833 0062 00BF     		.align	2
 834              	.L127:
 835 0064 44010000 		.word	.LC17
 836 0068 54010000 		.word	.LC18
 837 006c 64010000 		.word	.LC19
 838 0070 00000000 		.word	rlist
 839 0074 30010000 		.word	.LC16
 840              		.cfi_endproc
 841              	.LFE128:
 842              		.size	spiIgnore, .-spiIgnore
 843 0078 AFF30080 		.section	.text.spiExchange,"ax",%progbits
 843      AFF30080 
 844              		.align	2
 845              		.p2align 4,,15
 846              		.global	spiExchange
 847              		.thumb
 848              		.thumb_func
 849              		.type	spiExchange, %function
 850              	spiExchange:
ARM GAS  /tmp/cczXAoqA.s 			page 16


 851              	.LFB129:
 852              		.loc 1 327 0
 853              		.cfi_startproc
 854              		@ args = 0, pretend = 0, frame = 0
 855              		@ frame_needed = 0, uses_anonymous_args = 0
 856              	.LVL86:
 857 0000 F8B5     		push	{r3, r4, r5, r6, r7, lr}
 858              		.cfi_def_cfa_offset 24
 859              		.cfi_offset 3, -24
 860              		.cfi_offset 4, -20
 861              		.cfi_offset 5, -16
 862              		.cfi_offset 6, -12
 863              		.cfi_offset 7, -8
 864              		.cfi_offset 14, -4
 865              		.loc 1 327 0
 866 0002 0D46     		mov	r5, r1
 867 0004 1746     		mov	r7, r2
 868 0006 1E46     		mov	r6, r3
 869              		.loc 1 329 0
 870 0008 0446     		mov	r4, r0
 871 000a 00B1     		cbz	r0, .L130
 872              		.loc 1 329 0 is_stmt 0 discriminator 2
 873 000c 61BB     		cbnz	r1, .L154
 874              	.L130:
 875              		.loc 1 329 0 discriminator 7
 876 000e 1948     		ldr	r0, .L155
 877              	.LVL87:
 878 0010 FFF7FEFF 		bl	chDbgPanic
 879              	.LVL88:
 880              	.L131:
 881              	.LBB20:
 882              		.loc 1 332 0 is_stmt 1
 883 0014 2023     		movs	r3, #32
 884              	@ 332 "../../os/hal/src/spi.c" 1
 885 0016 83F31188 		msr     BASEPRI, r3
 886              	@ 0 "" 2
 887              		.thumb
 888              	.LBE20:
 889 001a FFF7FEFF 		bl	dbg_check_lock
 890              	.LVL89:
 891              		.loc 1 333 0
 892 001e 2378     		ldrb	r3, [r4]	@ zero_extendqisi2
 893 0020 022B     		cmp	r3, #2
 894 0022 02D0     		beq	.L132
 895              		.loc 1 333 0 is_stmt 0 discriminator 1
 896 0024 1448     		ldr	r0, .L155+4
 897 0026 FFF7FEFF 		bl	chDbgPanic
 898              	.LVL90:
 899              	.L132:
 900              		.loc 1 334 0 is_stmt 1
 901 002a 6368     		ldr	r3, [r4, #4]
 902 002c 1B68     		ldr	r3, [r3]
 903 002e 13B1     		cbz	r3, .L133
 904              		.loc 1 334 0 is_stmt 0 discriminator 1
 905 0030 1248     		ldr	r0, .L155+8
 906 0032 FFF7FEFF 		bl	chDbgPanic
 907              	.LVL91:
ARM GAS  /tmp/cczXAoqA.s 			page 17


 908              	.L133:
 909              		.loc 1 336 0 is_stmt 1
 910 0036 0320     		movs	r0, #3
 911 0038 3346     		mov	r3, r6
 912 003a 2070     		strb	r0, [r4]
 913 003c 2946     		mov	r1, r5
 914 003e 3A46     		mov	r2, r7
 915 0040 2046     		mov	r0, r4
 916 0042 FFF7FEFF 		bl	spi_lld_exchange
 917              	.LVL92:
 918              		.loc 1 337 0
 919 0046 A368     		ldr	r3, [r4, #8]
 920 0048 13B1     		cbz	r3, .L134
 921              		.loc 1 337 0 is_stmt 0 discriminator 1
 922 004a 0D48     		ldr	r0, .L155+12
 923 004c FFF7FEFF 		bl	chDbgPanic
 924              	.LVL93:
 925              	.L134:
 926              		.loc 1 337 0 discriminator 3
 927 0050 0C4B     		ldr	r3, .L155+16
 928 0052 9B69     		ldr	r3, [r3, #24]
 929 0054 A360     		str	r3, [r4, #8]
 930 0056 0220     		movs	r0, #2
 931 0058 FFF7FEFF 		bl	chSchGoSleepS
 932              	.LVL94:
 933              		.loc 1 338 0 is_stmt 1 discriminator 3
 934 005c FFF7FEFF 		bl	dbg_check_unlock
 935              	.LVL95:
 936              	.LBB21:
 937 0060 0023     		movs	r3, #0
 938              	@ 338 "../../os/hal/src/spi.c" 1
 939 0062 83F31188 		msr     BASEPRI, r3
 940              	@ 0 "" 2
 941              		.thumb
 942 0066 F8BD     		pop	{r3, r4, r5, r6, r7, pc}
 943              	.LVL96:
 944              	.L154:
 945              	.LBE21:
 946              		.loc 1 329 0 discriminator 4
 947 0068 002B     		cmp	r3, #0
 948 006a D0D0     		beq	.L130
 949              		.loc 1 329 0 is_stmt 0 discriminator 6
 950 006c 002A     		cmp	r2, #0
 951 006e D1D1     		bne	.L131
 952 0070 CDE7     		b	.L130
 953              	.L156:
 954 0072 00BF     		.align	2
 955              	.L155:
 956 0074 74010000 		.word	.LC20
 957 0078 84010000 		.word	.LC21
 958 007c 98010000 		.word	.LC22
 959 0080 64010000 		.word	.LC19
 960 0084 00000000 		.word	rlist
 961              		.cfi_endproc
 962              	.LFE129:
 963              		.size	spiExchange, .-spiExchange
 964 0088 AFF30080 		.section	.text.spiSend,"ax",%progbits
ARM GAS  /tmp/cczXAoqA.s 			page 18


 964      AFF30080 
 965              		.align	2
 966              		.p2align 4,,15
 967              		.global	spiSend
 968              		.thumb
 969              		.thumb_func
 970              		.type	spiSend, %function
 971              	spiSend:
 972              	.LFB130:
 973              		.loc 1 357 0 is_stmt 1
 974              		.cfi_startproc
 975              		@ args = 0, pretend = 0, frame = 0
 976              		@ frame_needed = 0, uses_anonymous_args = 0
 977              	.LVL97:
 978 0000 70B5     		push	{r4, r5, r6, lr}
 979              		.cfi_def_cfa_offset 16
 980              		.cfi_offset 4, -16
 981              		.cfi_offset 5, -12
 982              		.cfi_offset 6, -8
 983              		.cfi_offset 14, -4
 984              		.loc 1 357 0
 985 0002 0D46     		mov	r5, r1
 986 0004 1646     		mov	r6, r2
 987              		.loc 1 359 0
 988 0006 0446     		mov	r4, r0
 989 0008 00B1     		cbz	r0, .L158
 990              		.loc 1 359 0 is_stmt 0 discriminator 2
 991 000a 59BB     		cbnz	r1, .L179
 992              	.L158:
 993              		.loc 1 359 0 discriminator 5
 994 000c 1748     		ldr	r0, .L180
 995              	.LVL98:
 996 000e FFF7FEFF 		bl	chDbgPanic
 997              	.LVL99:
 998              	.L159:
 999              	.LBB22:
 1000              		.loc 1 361 0 is_stmt 1
 1001 0012 2023     		movs	r3, #32
 1002              	@ 361 "../../os/hal/src/spi.c" 1
 1003 0014 83F31188 		msr     BASEPRI, r3
 1004              	@ 0 "" 2
 1005              		.thumb
 1006              	.LBE22:
 1007 0018 FFF7FEFF 		bl	dbg_check_lock
 1008              	.LVL100:
 1009              		.loc 1 362 0
 1010 001c 2378     		ldrb	r3, [r4]	@ zero_extendqisi2
 1011 001e 022B     		cmp	r3, #2
 1012 0020 02D0     		beq	.L160
 1013              		.loc 1 362 0 is_stmt 0 discriminator 1
 1014 0022 1348     		ldr	r0, .L180+4
 1015 0024 FFF7FEFF 		bl	chDbgPanic
 1016              	.LVL101:
 1017              	.L160:
 1018              		.loc 1 363 0 is_stmt 1
 1019 0028 6368     		ldr	r3, [r4, #4]
 1020 002a 1B68     		ldr	r3, [r3]
ARM GAS  /tmp/cczXAoqA.s 			page 19


 1021 002c 13B1     		cbz	r3, .L161
 1022              		.loc 1 363 0 is_stmt 0 discriminator 1
 1023 002e 1148     		ldr	r0, .L180+8
 1024 0030 FFF7FEFF 		bl	chDbgPanic
 1025              	.LVL102:
 1026              	.L161:
 1027              		.loc 1 364 0 is_stmt 1
 1028 0034 0323     		movs	r3, #3
 1029 0036 2370     		strb	r3, [r4]
 1030 0038 2946     		mov	r1, r5
 1031 003a 3246     		mov	r2, r6
 1032 003c 2046     		mov	r0, r4
 1033 003e FFF7FEFF 		bl	spi_lld_send
 1034              	.LVL103:
 1035              		.loc 1 365 0
 1036 0042 A368     		ldr	r3, [r4, #8]
 1037 0044 13B1     		cbz	r3, .L162
 1038              		.loc 1 365 0 is_stmt 0 discriminator 1
 1039 0046 0C48     		ldr	r0, .L180+12
 1040 0048 FFF7FEFF 		bl	chDbgPanic
 1041              	.LVL104:
 1042              	.L162:
 1043              		.loc 1 365 0 discriminator 3
 1044 004c 0B4B     		ldr	r3, .L180+16
 1045 004e 9B69     		ldr	r3, [r3, #24]
 1046 0050 A360     		str	r3, [r4, #8]
 1047 0052 0220     		movs	r0, #2
 1048 0054 FFF7FEFF 		bl	chSchGoSleepS
 1049              	.LVL105:
 1050              		.loc 1 366 0 is_stmt 1 discriminator 3
 1051 0058 FFF7FEFF 		bl	dbg_check_unlock
 1052              	.LVL106:
 1053              	.LBB23:
 1054 005c 0023     		movs	r3, #0
 1055              	@ 366 "../../os/hal/src/spi.c" 1
 1056 005e 83F31188 		msr     BASEPRI, r3
 1057              	@ 0 "" 2
 1058              		.thumb
 1059 0062 70BD     		pop	{r4, r5, r6, pc}
 1060              	.LVL107:
 1061              	.L179:
 1062              	.LBE23:
 1063              		.loc 1 359 0 discriminator 4
 1064 0064 002A     		cmp	r2, #0
 1065 0066 D4D1     		bne	.L159
 1066 0068 D0E7     		b	.L158
 1067              	.L181:
 1068 006a 00BF     		.align	2
 1069              	.L180:
 1070 006c AC010000 		.word	.LC23
 1071 0070 B8010000 		.word	.LC24
 1072 0074 C8010000 		.word	.LC25
 1073 0078 64010000 		.word	.LC19
 1074 007c 00000000 		.word	rlist
 1075              		.cfi_endproc
 1076              	.LFE130:
 1077              		.size	spiSend, .-spiSend
ARM GAS  /tmp/cczXAoqA.s 			page 20


 1078              		.section	.text.spiReceive,"ax",%progbits
 1079              		.align	2
 1080              		.p2align 4,,15
 1081              		.global	spiReceive
 1082              		.thumb
 1083              		.thumb_func
 1084              		.type	spiReceive, %function
 1085              	spiReceive:
 1086              	.LFB131:
 1087              		.loc 1 385 0
 1088              		.cfi_startproc
 1089              		@ args = 0, pretend = 0, frame = 0
 1090              		@ frame_needed = 0, uses_anonymous_args = 0
 1091              	.LVL108:
 1092 0000 70B5     		push	{r4, r5, r6, lr}
 1093              		.cfi_def_cfa_offset 16
 1094              		.cfi_offset 4, -16
 1095              		.cfi_offset 5, -12
 1096              		.cfi_offset 6, -8
 1097              		.cfi_offset 14, -4
 1098              		.loc 1 385 0
 1099 0002 0D46     		mov	r5, r1
 1100 0004 1646     		mov	r6, r2
 1101              		.loc 1 387 0
 1102 0006 0446     		mov	r4, r0
 1103 0008 00B1     		cbz	r0, .L183
 1104              		.loc 1 387 0 is_stmt 0 discriminator 2
 1105 000a 59BB     		cbnz	r1, .L204
 1106              	.L183:
 1107              		.loc 1 387 0 discriminator 5
 1108 000c 1748     		ldr	r0, .L205
 1109              	.LVL109:
 1110 000e FFF7FEFF 		bl	chDbgPanic
 1111              	.LVL110:
 1112              	.L184:
 1113              	.LBB24:
 1114              		.loc 1 390 0 is_stmt 1
 1115 0012 2023     		movs	r3, #32
 1116              	@ 390 "../../os/hal/src/spi.c" 1
 1117 0014 83F31188 		msr     BASEPRI, r3
 1118              	@ 0 "" 2
 1119              		.thumb
 1120              	.LBE24:
 1121 0018 FFF7FEFF 		bl	dbg_check_lock
 1122              	.LVL111:
 1123              		.loc 1 391 0
 1124 001c 2378     		ldrb	r3, [r4]	@ zero_extendqisi2
 1125 001e 022B     		cmp	r3, #2
 1126 0020 02D0     		beq	.L185
 1127              		.loc 1 391 0 is_stmt 0 discriminator 1
 1128 0022 1348     		ldr	r0, .L205+4
 1129 0024 FFF7FEFF 		bl	chDbgPanic
 1130              	.LVL112:
 1131              	.L185:
 1132              		.loc 1 392 0 is_stmt 1
 1133 0028 6368     		ldr	r3, [r4, #4]
 1134 002a 1B68     		ldr	r3, [r3]
ARM GAS  /tmp/cczXAoqA.s 			page 21


 1135 002c 13B1     		cbz	r3, .L186
 1136              		.loc 1 392 0 is_stmt 0 discriminator 1
 1137 002e 1148     		ldr	r0, .L205+8
 1138 0030 FFF7FEFF 		bl	chDbgPanic
 1139              	.LVL113:
 1140              	.L186:
 1141              		.loc 1 394 0 is_stmt 1
 1142 0034 0323     		movs	r3, #3
 1143 0036 2370     		strb	r3, [r4]
 1144 0038 2946     		mov	r1, r5
 1145 003a 3246     		mov	r2, r6
 1146 003c 2046     		mov	r0, r4
 1147 003e FFF7FEFF 		bl	spi_lld_receive
 1148              	.LVL114:
 1149              		.loc 1 395 0
 1150 0042 A368     		ldr	r3, [r4, #8]
 1151 0044 13B1     		cbz	r3, .L187
 1152              		.loc 1 395 0 is_stmt 0 discriminator 1
 1153 0046 0C48     		ldr	r0, .L205+12
 1154 0048 FFF7FEFF 		bl	chDbgPanic
 1155              	.LVL115:
 1156              	.L187:
 1157              		.loc 1 395 0 discriminator 3
 1158 004c 0B4B     		ldr	r3, .L205+16
 1159 004e 9B69     		ldr	r3, [r3, #24]
 1160 0050 A360     		str	r3, [r4, #8]
 1161 0052 0220     		movs	r0, #2
 1162 0054 FFF7FEFF 		bl	chSchGoSleepS
 1163              	.LVL116:
 1164              		.loc 1 396 0 is_stmt 1 discriminator 3
 1165 0058 FFF7FEFF 		bl	dbg_check_unlock
 1166              	.LVL117:
 1167              	.LBB25:
 1168 005c 0023     		movs	r3, #0
 1169              	@ 396 "../../os/hal/src/spi.c" 1
 1170 005e 83F31188 		msr     BASEPRI, r3
 1171              	@ 0 "" 2
 1172              		.thumb
 1173 0062 70BD     		pop	{r4, r5, r6, pc}
 1174              	.LVL118:
 1175              	.L204:
 1176              	.LBE25:
 1177              		.loc 1 387 0 discriminator 4
 1178 0064 002A     		cmp	r2, #0
 1179 0066 D4D1     		bne	.L184
 1180 0068 D0E7     		b	.L183
 1181              	.L206:
 1182 006a 00BF     		.align	2
 1183              	.L205:
 1184 006c D8010000 		.word	.LC26
 1185 0070 E8010000 		.word	.LC27
 1186 0074 FC010000 		.word	.LC28
 1187 0078 64010000 		.word	.LC19
 1188 007c 00000000 		.word	rlist
 1189              		.cfi_endproc
 1190              	.LFE131:
 1191              		.size	spiReceive, .-spiReceive
ARM GAS  /tmp/cczXAoqA.s 			page 22


 1192              		.section	.text.spiAcquireBus,"ax",%progbits
 1193              		.align	2
 1194              		.p2align 4,,15
 1195              		.global	spiAcquireBus
 1196              		.thumb
 1197              		.thumb_func
 1198              		.type	spiAcquireBus, %function
 1199              	spiAcquireBus:
 1200              	.LFB132:
 1201              		.loc 1 412 0
 1202              		.cfi_startproc
 1203              		@ args = 0, pretend = 0, frame = 0
 1204              		@ frame_needed = 0, uses_anonymous_args = 0
 1205              	.LVL119:
 1206 0000 10B5     		push	{r4, lr}
 1207              		.cfi_def_cfa_offset 8
 1208              		.cfi_offset 4, -8
 1209              		.cfi_offset 14, -4
 1210              		.loc 1 414 0
 1211 0002 0446     		mov	r4, r0
 1212 0004 28B1     		cbz	r0, .L210
 1213              		.loc 1 417 0
 1214 0006 04F10C00 		add	r0, r4, #12
 1215              	.LVL120:
 1216              		.loc 1 421 0
 1217 000a BDE81040 		pop	{r4, lr}
 1218              		.cfi_remember_state
 1219              		.cfi_restore 14
 1220              		.cfi_restore 4
 1221              		.cfi_def_cfa_offset 0
 1222              	.LVL121:
 1223              		.loc 1 417 0
 1224 000e FFF7FEBF 		b	chMtxLock
 1225              	.LVL122:
 1226              	.L210:
 1227              		.cfi_restore_state
 1228              		.loc 1 414 0 discriminator 1
 1229 0012 0448     		ldr	r0, .L211
 1230              	.LVL123:
 1231 0014 FFF7FEFF 		bl	chDbgPanic
 1232              	.LVL124:
 1233              		.loc 1 417 0 discriminator 1
 1234 0018 04F10C00 		add	r0, r4, #12
 1235              		.loc 1 421 0 discriminator 1
 1236 001c BDE81040 		pop	{r4, lr}
 1237              		.cfi_restore 4
 1238              		.cfi_restore 14
 1239              		.cfi_def_cfa_offset 0
 1240              	.LVL125:
 1241              		.loc 1 417 0 discriminator 1
 1242 0020 FFF7FEBF 		b	chMtxLock
 1243              	.LVL126:
 1244              	.L212:
 1245              		.align	2
 1246              	.L211:
 1247 0024 10020000 		.word	.LC29
 1248              		.cfi_endproc
ARM GAS  /tmp/cczXAoqA.s 			page 23


 1249              	.LFE132:
 1250              		.size	spiAcquireBus, .-spiAcquireBus
 1251 0028 AFF30080 		.section	.text.spiReleaseBus,"ax",%progbits
 1251      AFF30080 
 1252              		.align	2
 1253              		.p2align 4,,15
 1254              		.global	spiReleaseBus
 1255              		.thumb
 1256              		.thumb_func
 1257              		.type	spiReleaseBus, %function
 1258              	spiReleaseBus:
 1259              	.LFB133:
 1260              		.loc 1 432 0
 1261              		.cfi_startproc
 1262              		@ args = 0, pretend = 0, frame = 0
 1263              		@ frame_needed = 0, uses_anonymous_args = 0
 1264              	.LVL127:
 1265              		.loc 1 434 0
 1266 0000 08B1     		cbz	r0, .L217
 1267              		.loc 1 438 0
 1268 0002 FFF7FEBF 		b	chMtxUnlock
 1269              	.LVL128:
 1270              	.L217:
 1271              		.loc 1 432 0 discriminator 1
 1272 0006 08B5     		push	{r3, lr}
 1273              		.cfi_def_cfa_offset 8
 1274              		.cfi_offset 3, -8
 1275              		.cfi_offset 14, -4
 1276              		.loc 1 434 0 discriminator 1
 1277 0008 0348     		ldr	r0, .L218
 1278              	.LVL129:
 1279 000a FFF7FEFF 		bl	chDbgPanic
 1280              	.LVL130:
 1281              		.loc 1 442 0 discriminator 1
 1282 000e BDE80840 		pop	{r3, lr}
 1283              		.cfi_restore 14
 1284              		.cfi_restore 3
 1285              		.cfi_def_cfa_offset 0
 1286              		.loc 1 438 0 discriminator 1
 1287 0012 FFF7FEBF 		b	chMtxUnlock
 1288              	.LVL131:
 1289              	.L219:
 1290 0016 00BF     		.align	2
 1291              	.L218:
 1292 0018 24020000 		.word	.LC30
 1293              		.cfi_endproc
 1294              	.LFE133:
 1295              		.size	spiReleaseBus, .-spiReleaseBus
 1296 001c AFF30080 		.section	.rodata.str1.4,"aMS",%progbits,1
 1297              		.align	2
 1298              	.LC0:
 1299 0000 22737069 		.ascii	"\"spiStart\"()\000"
 1299      53746172 
 1299      74222829 
 1299      00
 1300 000d 000000   		.space	3
 1301              	.LC1:
ARM GAS  /tmp/cczXAoqA.s 			page 24


 1302 0010 73706953 		.ascii	"spiStart(), #1\000"
 1302      74617274 
 1302      28292C20 
 1302      233100
 1303 001f 00       		.space	1
 1304              	.LC2:
 1305 0020 22737069 		.ascii	"\"spiStop\"()\000"
 1305      53746F70 
 1305      22282900 
 1306              	.LC3:
 1307 002c 73706953 		.ascii	"spiStop(), #1\000"
 1307      746F7028 
 1307      292C2023 
 1307      3100
 1308 003a 0000     		.space	2
 1309              	.LC4:
 1310 003c 22737069 		.ascii	"\"spiSelect\"()\000"
 1310      53656C65 
 1310      63742228 
 1310      2900
 1311 004a 0000     		.space	2
 1312              	.LC5:
 1313 004c 73706953 		.ascii	"spiSelect(), #1\000"
 1313      656C6563 
 1313      7428292C 
 1313      20233100 
 1314              	.LC6:
 1315 005c 22737069 		.ascii	"\"spiUnselect\"()\000"
 1315      556E7365 
 1315      6C656374 
 1315      22282900 
 1316              	.LC7:
 1317 006c 73706955 		.ascii	"spiUnselect(), #1\000"
 1317      6E73656C 
 1317      65637428 
 1317      292C2023 
 1317      3100
 1318 007e 0000     		.space	2
 1319              	.LC8:
 1320 0080 22737069 		.ascii	"\"spiStartIgnore\"()\000"
 1320      53746172 
 1320      7449676E 
 1320      6F726522 
 1320      282900
 1321 0093 00       		.space	1
 1322              	.LC9:
 1323 0094 73706953 		.ascii	"spiStartIgnore(), #1\000"
 1323      74617274 
 1323      49676E6F 
 1323      72652829 
 1323      2C202331 
 1324 00a9 000000   		.space	3
 1325              	.LC10:
 1326 00ac 22737069 		.ascii	"\"spiStartExchange\"()\000"
 1326      53746172 
 1326      74457863 
 1326      68616E67 
ARM GAS  /tmp/cczXAoqA.s 			page 25


 1326      65222829 
 1327 00c1 000000   		.space	3
 1328              	.LC11:
 1329 00c4 73706953 		.ascii	"spiStartExchange(), #1\000"
 1329      74617274 
 1329      45786368 
 1329      616E6765 
 1329      28292C20 
 1330 00db 00       		.space	1
 1331              	.LC12:
 1332 00dc 22737069 		.ascii	"\"spiStartSend\"()\000"
 1332      53746172 
 1332      7453656E 
 1332      64222829 
 1332      00
 1333 00ed 000000   		.space	3
 1334              	.LC13:
 1335 00f0 73706953 		.ascii	"spiStartSend(), #1\000"
 1335      74617274 
 1335      53656E64 
 1335      28292C20 
 1335      233100
 1336 0103 00       		.space	1
 1337              	.LC14:
 1338 0104 22737069 		.ascii	"\"spiStartReceive\"()\000"
 1338      53746172 
 1338      74526563 
 1338      65697665 
 1338      22282900 
 1339              	.LC15:
 1340 0118 73706953 		.ascii	"spiStartReceive(), #1\000"
 1340      74617274 
 1340      52656365 
 1340      69766528 
 1340      292C2023 
 1341 012e 0000     		.space	2
 1342              	.LC16:
 1343 0130 22737069 		.ascii	"\"spiIgnoreWait\"()\000"
 1343      49676E6F 
 1343      72655761 
 1343      69742228 
 1343      2900
 1344 0142 0000     		.space	2
 1345              	.LC17:
 1346 0144 73706949 		.ascii	"spiIgnore(), #1\000"
 1346      676E6F72 
 1346      6528292C 
 1346      20233100 
 1347              	.LC18:
 1348 0154 73706949 		.ascii	"spiIgnore(), #2\000"
 1348      676E6F72 
 1348      6528292C 
 1348      20233200 
 1349              	.LC19:
 1350 0164 5F737069 		.ascii	"_spi_wait(), #1\000"
 1350      5F776169 
 1350      7428292C 
ARM GAS  /tmp/cczXAoqA.s 			page 26


 1350      20233100 
 1351              	.LC20:
 1352 0174 22737069 		.ascii	"\"spiExchange\"()\000"
 1352      45786368 
 1352      616E6765 
 1352      22282900 
 1353              	.LC21:
 1354 0184 73706945 		.ascii	"spiExchange(), #1\000"
 1354      78636861 
 1354      6E676528 
 1354      292C2023 
 1354      3100
 1355 0196 0000     		.space	2
 1356              	.LC22:
 1357 0198 73706945 		.ascii	"spiExchange(), #2\000"
 1357      78636861 
 1357      6E676528 
 1357      292C2023 
 1357      3200
 1358 01aa 0000     		.space	2
 1359              	.LC23:
 1360 01ac 22737069 		.ascii	"\"spiSend\"()\000"
 1360      53656E64 
 1360      22282900 
 1361              	.LC24:
 1362 01b8 73706953 		.ascii	"spiSend(), #1\000"
 1362      656E6428 
 1362      292C2023 
 1362      3100
 1363 01c6 0000     		.space	2
 1364              	.LC25:
 1365 01c8 73706953 		.ascii	"spiSend(), #2\000"
 1365      656E6428 
 1365      292C2023 
 1365      3200
 1366 01d6 0000     		.space	2
 1367              	.LC26:
 1368 01d8 22737069 		.ascii	"\"spiReceive\"()\000"
 1368      52656365 
 1368      69766522 
 1368      282900
 1369 01e7 00       		.space	1
 1370              	.LC27:
 1371 01e8 73706952 		.ascii	"spiReceive(), #1\000"
 1371      65636569 
 1371      76652829 
 1371      2C202331 
 1371      00
 1372 01f9 000000   		.space	3
 1373              	.LC28:
 1374 01fc 73706952 		.ascii	"spiReceive(), #2\000"
 1374      65636569 
 1374      76652829 
 1374      2C202332 
 1374      00
 1375 020d 000000   		.space	3
 1376              	.LC29:
ARM GAS  /tmp/cczXAoqA.s 			page 27


 1377 0210 22737069 		.ascii	"\"spiAcquireBus\"()\000"
 1377      41637175 
 1377      69726542 
 1377      75732228 
 1377      2900
 1378 0222 0000     		.space	2
 1379              	.LC30:
 1380 0224 22737069 		.ascii	"\"spiReleaseBus\"()\000"
 1380      52656C65 
 1380      61736542 
 1380      75732228 
 1380      2900
 1381 0236 0000     		.text
 1382              	.Letext0:
 1383              		.file 2 "/usr/lib/gcc/arm-none-eabi/4.9.3/include/stddef.h"
 1384              		.file 3 "/usr/include/newlib/machine/_default_types.h"
 1385              		.file 4 "/usr/include/newlib/stdint.h"
 1386              		.file 5 "../../os/ports/GCC/ARMCMx/chtypes.h"
 1387              		.file 6 "../../os/kernel/include/chlists.h"
 1388              		.file 7 "../../os/kernel/include/chthreads.h"
 1389              		.file 8 "../../os/ports/GCC/ARMCMx/chcore_v7m.h"
 1390              		.file 9 "../../os/kernel/include/chschd.h"
 1391              		.file 10 "../../os/kernel/include/chmtx.h"
 1392              		.file 11 "../../os/hal/platforms/STM32F4xx/stm32f4xx.h"
 1393              		.file 12 "../../os/hal/platforms/STM32F4xx/stm32_dma.h"
 1394              		.file 13 "../../os/hal/platforms/STM32/GPIOv2/pal_lld.h"
 1395              		.file 14 "../../os/hal/include/spi.h"
 1396              		.file 15 "../../os/hal/platforms/STM32/SPIv1/spi_lld.h"
 1397              		.file 16 "../../os/ports/common/ARMCMx/CMSIS/include/core_cm4.h"
 1398              		.file 17 "../../os/kernel/include/chdebug.h"