ARM GAS  /tmp/cc2nr082.s 			page 1


   1              		.syntax unified
   2              		.cpu cortex-m4
   3              		.fpu softvfp
   4              		.eabi_attribute 20, 1
   5              		.eabi_attribute 21, 1
   6              		.eabi_attribute 23, 3
   7              		.eabi_attribute 24, 1
   8              		.eabi_attribute 25, 1
   9              		.eabi_attribute 26, 1
  10              		.eabi_attribute 30, 2
  11              		.eabi_attribute 34, 1
  12              		.eabi_attribute 18, 4
  13              		.thumb
  14              		.file	"spi_lld.c"
  15              		.text
  16              	.Ltext0:
  17              		.cfi_sections	.debug_frame
  18              		.section	.text.spi_lld_serve_tx_interrupt,"ax",%progbits
  19              		.align	2
  20              		.p2align 4,,15
  21              		.thumb
  22              		.thumb_func
  23              		.type	spi_lld_serve_tx_interrupt, %function
  24              	spi_lld_serve_tx_interrupt:
  25              	.LFB119:
  26              		.file 1 "../../os/hal/platforms/STM32/SPIv1/spi_lld.c"
  27              		.loc 1 159 0
  28              		.cfi_startproc
  29              		@ args = 0, pretend = 0, frame = 0
  30              		@ frame_needed = 0, uses_anonymous_args = 0
  31              		@ link register save eliminated.
  32              	.LVL0:
  33              		.loc 1 164 0
  34 0000 11F00C0F 		tst	r1, #12
  35 0004 00D1     		bne	.L4
  36 0006 7047     		bx	lr
  37              	.L4:
  38              		.loc 1 165 0
  39 0008 FFF7FEBF 		b	port_halt
  40              	.LVL1:
  41              		.cfi_endproc
  42              	.LFE119:
  43              		.size	spi_lld_serve_tx_interrupt, .-spi_lld_serve_tx_interrupt
  44 000c AFF30080 		.section	.text.spi_lld_serve_rx_interrupt,"ax",%progbits
  45              		.align	2
  46              		.p2align 4,,15
  47              		.thumb
  48              		.thumb_func
  49              		.type	spi_lld_serve_rx_interrupt, %function
  50              	spi_lld_serve_rx_interrupt:
  51              	.LFB118:
  52              		.loc 1 133 0
  53              		.cfi_startproc
  54              		@ args = 0, pretend = 0, frame = 0
  55              		@ frame_needed = 0, uses_anonymous_args = 0
  56              	.LVL2:
  57              		.loc 1 137 0
ARM GAS  /tmp/cc2nr082.s 			page 2


  58 0000 11F00C0F 		tst	r1, #12
  59              		.loc 1 133 0
  60 0004 38B5     		push	{r3, r4, r5, lr}
  61              		.cfi_def_cfa_offset 16
  62              		.cfi_offset 3, -16
  63              		.cfi_offset 4, -12
  64              		.cfi_offset 5, -8
  65              		.cfi_offset 14, -4
  66              		.loc 1 133 0
  67 0006 0446     		mov	r4, r0
  68              		.loc 1 137 0
  69 0008 3BD1     		bne	.L24
  70              	.LVL3:
  71              	.L6:
  72              		.loc 1 145 0
  73 000a 606A     		ldr	r0, [r4, #36]
  74 000c 0268     		ldr	r2, [r0]
  75 000e 1368     		ldr	r3, [r2]
  76 0010 23F01F03 		bic	r3, r3, #31
  77 0014 1360     		str	r3, [r2]
  78              	.L7:
  79              		.loc 1 145 0 is_stmt 0 discriminator 2
  80 0016 1368     		ldr	r3, [r2]
  81 0018 D907     		lsls	r1, r3, #31
  82 001a FCD4     		bmi	.L7
  83              		.loc 1 145 0 discriminator 3
  84 001c 057A     		ldrb	r5, [r0, #8]	@ zero_extendqisi2
  85              		.loc 1 146 0 is_stmt 1 discriminator 3
  86 001e 216A     		ldr	r1, [r4, #32]
  87              		.loc 1 145 0 discriminator 3
  88 0020 4068     		ldr	r0, [r0, #4]
  89              		.loc 1 146 0 discriminator 3
  90 0022 0A68     		ldr	r2, [r1]
  91              		.loc 1 145 0 discriminator 3
  92 0024 3D23     		movs	r3, #61
  93 0026 AB40     		lsls	r3, r3, r5
  94 0028 0360     		str	r3, [r0]
  95              		.loc 1 146 0 discriminator 3
  96 002a 1368     		ldr	r3, [r2]
  97 002c 23F01F03 		bic	r3, r3, #31
  98 0030 1360     		str	r3, [r2]
  99              	.L8:
 100              		.loc 1 146 0 is_stmt 0 discriminator 2
 101 0032 1368     		ldr	r3, [r2]
 102 0034 DB07     		lsls	r3, r3, #31
 103 0036 FCD4     		bmi	.L8
 104              		.loc 1 150 0 is_stmt 1 discriminator 3
 105 0038 6368     		ldr	r3, [r4, #4]
 106              		.loc 1 146 0 discriminator 3
 107 003a 087A     		ldrb	r0, [r1, #8]	@ zero_extendqisi2
 108              		.loc 1 150 0 discriminator 3
 109 003c 1A68     		ldr	r2, [r3]
 110              		.loc 1 146 0 discriminator 3
 111 003e 4968     		ldr	r1, [r1, #4]
 112 0040 3D23     		movs	r3, #61
 113 0042 8340     		lsls	r3, r3, r0
 114 0044 0B60     		str	r3, [r1]
ARM GAS  /tmp/cc2nr082.s 			page 3


 115              		.loc 1 150 0 discriminator 3
 116 0046 CAB1     		cbz	r2, .L9
 117              		.loc 1 150 0 is_stmt 0 discriminator 1
 118 0048 0423     		movs	r3, #4
 119 004a 2370     		strb	r3, [r4]
 120 004c 2046     		mov	r0, r4
 121 004e 9047     		blx	r2
 122              	.LVL4:
 123 0050 2378     		ldrb	r3, [r4]	@ zero_extendqisi2
 124 0052 042B     		cmp	r3, #4
 125 0054 12D0     		beq	.L9
 126              	.L10:
 127              	.LBB2:
 128              		.loc 1 150 0 discriminator 4
 129 0056 2023     		movs	r3, #32
 130              	@ 150 "../../os/hal/platforms/STM32/SPIv1/spi_lld.c" 1
 131 0058 83F31188 		msr     BASEPRI, r3
 132              	@ 0 "" 2
 133              		.thumb
 134              	.LBE2:
 135 005c FFF7FEFF 		bl	dbg_check_lock_from_isr
 136              	.LVL5:
 137 0060 A368     		ldr	r3, [r4, #8]
 138 0062 2BB1     		cbz	r3, .L11
 139              	.LVL6:
 140              	.LBB3:
 141              		.loc 1 150 0 discriminator 5
 142 0064 0022     		movs	r2, #0
 143 0066 A260     		str	r2, [r4, #8]
 144 0068 1846     		mov	r0, r3
 145 006a 9A62     		str	r2, [r3, #40]
 146 006c FFF7FEFF 		bl	chSchReadyI
 147              	.LVL7:
 148              	.L11:
 149              	.LBE3:
 150              		.loc 1 150 0 discriminator 7
 151 0070 FFF7FEFF 		bl	dbg_check_unlock_from_isr
 152              	.LVL8:
 153              	.LBB4:
 154 0074 0023     		movs	r3, #0
 155              	@ 150 "../../os/hal/platforms/STM32/SPIv1/spi_lld.c" 1
 156 0076 83F31188 		msr     BASEPRI, r3
 157              	@ 0 "" 2
 158              		.thumb
 159 007a 38BD     		pop	{r3, r4, r5, pc}
 160              	.LVL9:
 161              	.L9:
 162              	.LBE4:
 163              		.loc 1 150 0 discriminator 3
 164 007c 0223     		movs	r3, #2
 165 007e 2370     		strb	r3, [r4]
 166 0080 E9E7     		b	.L10
 167              	.LVL10:
 168              	.L24:
 169              		.loc 1 138 0 is_stmt 1
 170 0082 FFF7FEFF 		bl	port_halt
 171              	.LVL11:
ARM GAS  /tmp/cc2nr082.s 			page 4


 172 0086 C0E7     		b	.L6
 173              		.cfi_endproc
 174              	.LFE118:
 175              		.size	spi_lld_serve_rx_interrupt, .-spi_lld_serve_rx_interrupt
 176 0088 AFF30080 		.section	.text.spi_lld_init,"ax",%progbits
 176      AFF30080 
 177              		.align	2
 178              		.p2align 4,,15
 179              		.global	spi_lld_init
 180              		.thumb
 181              		.thumb_func
 182              		.type	spi_lld_init, %function
 183              	spi_lld_init:
 184              	.LFB120:
 185              		.loc 1 186 0
 186              		.cfi_startproc
 187              		@ args = 0, pretend = 0, frame = 0
 188              		@ frame_needed = 0, uses_anonymous_args = 0
 189 0000 10B5     		push	{r4, lr}
 190              		.cfi_def_cfa_offset 8
 191              		.cfi_offset 4, -8
 192              		.cfi_offset 14, -4
 193              		.loc 1 209 0
 194 0002 0A4C     		ldr	r4, .L27
 195              		.loc 1 188 0
 196 0004 0A4B     		ldr	r3, .L27+4
 197 0006 4FF6FF72 		movw	r2, #65535
 198              		.loc 1 209 0
 199 000a 2046     		mov	r0, r4
 200              		.loc 1 188 0
 201 000c 1A80     		strh	r2, [r3]	@ movhi
 202              		.loc 1 209 0
 203 000e FFF7FEFF 		bl	spiObjectInit
 204              	.LVL12:
 205              		.loc 1 211 0
 206 0012 084B     		ldr	r3, .L27+8
 207              		.loc 1 210 0
 208 0014 0848     		ldr	r0, .L27+12
 209              		.loc 1 213 0
 210 0016 0949     		ldr	r1, .L27+16
 211              		.loc 1 219 0
 212 0018 094A     		ldr	r2, .L27+20
 213              		.loc 1 210 0
 214 001a E061     		str	r0, [r4, #28]
 215              		.loc 1 212 0
 216 001c 03F10C00 		add	r0, r3, #12
 217              		.loc 1 211 0
 218 0020 2362     		str	r3, [r4, #32]
 219              		.loc 1 212 0
 220 0022 6062     		str	r0, [r4, #36]
 221              		.loc 1 213 0
 222 0024 A162     		str	r1, [r4, #40]
 223              		.loc 1 219 0
 224 0026 E262     		str	r2, [r4, #44]
 225 0028 10BD     		pop	{r4, pc}
 226              	.L28:
 227 002a 00BF     		.align	2
ARM GAS  /tmp/cc2nr082.s 			page 5


 228              	.L27:
 229 002c 00000000 		.word	.LANCHOR1
 230 0030 00000000 		.word	.LANCHOR0
 231 0034 24000000 		.word	_stm32_dma_streams+36
 232 0038 00380040 		.word	1073756160
 233 003c 16000100 		.word	65558
 234 0040 46000100 		.word	65606
 235              		.cfi_endproc
 236              	.LFE120:
 237              		.size	spi_lld_init, .-spi_lld_init
 238 0044 AFF30080 		.section	.text.spi_lld_start,"ax",%progbits
 238      AFF30080 
 238      AFF30080 
 239              		.align	2
 240              		.p2align 4,,15
 241              		.global	spi_lld_start
 242              		.thumb
 243              		.thumb_func
 244              		.type	spi_lld_start, %function
 245              	spi_lld_start:
 246              	.LFB121:
 247              		.loc 1 306 0
 248              		.cfi_startproc
 249              		@ args = 0, pretend = 0, frame = 0
 250              		@ frame_needed = 0, uses_anonymous_args = 0
 251              	.LVL13:
 252 0000 38B5     		push	{r3, r4, r5, lr}
 253              		.cfi_def_cfa_offset 16
 254              		.cfi_offset 3, -16
 255              		.cfi_offset 4, -12
 256              		.cfi_offset 5, -8
 257              		.cfi_offset 14, -4
 258              		.loc 1 309 0
 259 0002 0378     		ldrb	r3, [r0]	@ zero_extendqisi2
 260 0004 012B     		cmp	r3, #1
 261              		.loc 1 306 0
 262 0006 0446     		mov	r4, r0
 263              		.loc 1 309 0
 264 0008 1DD0     		beq	.L43
 265 000a C369     		ldr	r3, [r0, #28]
 266              	.LVL14:
 267              	.L30:
 268              		.loc 1 413 0
 269 000c 6268     		ldr	r2, [r4, #4]
 270              		.loc 1 416 0
 271 000e A06A     		ldr	r0, [r4, #40]
 272              		.loc 1 413 0
 273 0010 5289     		ldrh	r2, [r2, #10]
 274              		.loc 1 418 0
 275 0012 E16A     		ldr	r1, [r4, #44]
 276              		.loc 1 416 0
 277 0014 20F4F040 		bic	r0, r0, #30720
 278              		.loc 1 418 0
 279 0018 21F4F041 		bic	r1, r1, #30720
 280              		.loc 1 413 0
 281 001c 1505     		lsls	r5, r2, #20
 282              		.loc 1 423 0
ARM GAS  /tmp/cc2nr082.s 			page 6


 283 001e 44BF     		itt	mi
 284 0020 40F42050 		orrmi	r0, r0, #10240
 285              		.loc 1 425 0
 286 0024 41F42051 		orrmi	r1, r1, #10240
 287              		.loc 1 422 0
 288 0028 A062     		str	r0, [r4, #40]
 289              		.loc 1 424 0
 290 002a E162     		str	r1, [r4, #44]
 291              		.loc 1 429 0
 292 002c 42F44172 		orr	r2, r2, #772
 293              		.loc 1 428 0
 294 0030 0020     		movs	r0, #0
 295              		.loc 1 431 0
 296 0032 0721     		movs	r1, #7
 297              		.loc 1 428 0
 298 0034 1880     		strh	r0, [r3]	@ movhi
 299              		.loc 1 429 0
 300 0036 1A80     		strh	r2, [r3]	@ movhi
 301              		.loc 1 431 0
 302 0038 9980     		strh	r1, [r3, #4]	@ movhi
 303              		.loc 1 432 0
 304 003a 1A88     		ldrh	r2, [r3]
 305 003c 92B2     		uxth	r2, r2
 306 003e 42F04002 		orr	r2, r2, #64
 307 0042 1A80     		strh	r2, [r3]	@ movhi
 308 0044 38BD     		pop	{r3, r4, r5, pc}
 309              	.LVL15:
 310              	.L43:
 311              		.loc 1 327 0
 312 0046 144D     		ldr	r5, .L49
 313 0048 A842     		cmp	r0, r5
 314 004a 09D0     		beq	.L46
 315              	.LVL16:
 316              	.L31:
 317              		.loc 1 408 0
 318 004c 216A     		ldr	r1, [r4, #32]
 319              		.loc 1 409 0
 320 004e 626A     		ldr	r2, [r4, #36]
 321              		.loc 1 408 0
 322 0050 E369     		ldr	r3, [r4, #28]
 323 0052 0868     		ldr	r0, [r1]
 324              		.loc 1 409 0
 325 0054 1168     		ldr	r1, [r2]
 326              		.loc 1 408 0
 327 0056 03F10C02 		add	r2, r3, #12
 328 005a 8260     		str	r2, [r0, #8]
 329              		.loc 1 409 0
 330 005c 8A60     		str	r2, [r1, #8]
 331 005e D5E7     		b	.L30
 332              	.LVL17:
 333              	.L46:
 334              	.LBB5:
 335              		.loc 1 329 0
 336 0060 006A     		ldr	r0, [r0, #32]
 337              	.LVL18:
 338 0062 0E4A     		ldr	r2, .L49+4
 339 0064 0A21     		movs	r1, #10
ARM GAS  /tmp/cc2nr082.s 			page 7


 340 0066 2346     		mov	r3, r4
 341 0068 FFF7FEFF 		bl	dmaStreamAllocate
 342              	.LVL19:
 343              		.loc 1 333 0
 344 006c 60B9     		cbnz	r0, .L47
 345              	.LVL20:
 346              	.L32:
 347              		.loc 1 334 0
 348 006e 686A     		ldr	r0, [r5, #36]
 349 0070 0B4A     		ldr	r2, .L49+8
 350 0072 094B     		ldr	r3, .L49
 351 0074 0A21     		movs	r1, #10
 352 0076 FFF7FEFF 		bl	dmaStreamAllocate
 353              	.LVL21:
 354              		.loc 1 338 0
 355 007a 48B9     		cbnz	r0, .L48
 356              	.LVL22:
 357              	.L33:
 358              		.loc 1 339 0
 359 007c 094A     		ldr	r2, .L49+12
 360 007e 136C     		ldr	r3, [r2, #64]
 361 0080 43F48043 		orr	r3, r3, #16384
 362 0084 1364     		str	r3, [r2, #64]
 363 0086 E1E7     		b	.L31
 364              	.LVL23:
 365              	.L47:
 366              		.loc 1 333 0 discriminator 1
 367 0088 0748     		ldr	r0, .L49+16
 368              	.LVL24:
 369 008a FFF7FEFF 		bl	chDbgPanic
 370              	.LVL25:
 371 008e EEE7     		b	.L32
 372              	.LVL26:
 373              	.L48:
 374              		.loc 1 338 0 discriminator 1
 375 0090 0648     		ldr	r0, .L49+20
 376              	.LVL27:
 377 0092 FFF7FEFF 		bl	chDbgPanic
 378              	.LVL28:
 379 0096 F1E7     		b	.L33
 380              	.L50:
 381              		.align	2
 382              	.L49:
 383 0098 00000000 		.word	.LANCHOR1
 384 009c 00000000 		.word	spi_lld_serve_rx_interrupt
 385 00a0 00000000 		.word	spi_lld_serve_tx_interrupt
 386 00a4 00380240 		.word	1073887232
 387 00a8 00000000 		.word	.LC0
 388 00ac 14000000 		.word	.LC1
 389              	.LBE5:
 390              		.cfi_endproc
 391              	.LFE121:
 392              		.size	spi_lld_start, .-spi_lld_start
 393              		.section	.text.spi_lld_stop,"ax",%progbits
 394              		.align	2
 395              		.p2align 4,,15
 396              		.global	spi_lld_stop
ARM GAS  /tmp/cc2nr082.s 			page 8


 397              		.thumb
 398              		.thumb_func
 399              		.type	spi_lld_stop, %function
 400              	spi_lld_stop:
 401              	.LFB122:
 402              		.loc 1 442 0
 403              		.cfi_startproc
 404              		@ args = 0, pretend = 0, frame = 0
 405              		@ frame_needed = 0, uses_anonymous_args = 0
 406              	.LVL29:
 407              		.loc 1 445 0
 408 0000 0378     		ldrb	r3, [r0]	@ zero_extendqisi2
 409 0002 022B     		cmp	r3, #2
 410 0004 00D0     		beq	.L57
 411 0006 7047     		bx	lr
 412              	.L57:
 413              		.loc 1 448 0
 414 0008 C369     		ldr	r3, [r0, #28]
 415              		.loc 1 442 0
 416 000a 10B5     		push	{r4, lr}
 417              		.cfi_def_cfa_offset 8
 418              		.cfi_offset 4, -8
 419              		.cfi_offset 14, -4
 420              		.loc 1 448 0
 421 000c 0022     		movs	r2, #0
 422 000e 0446     		mov	r4, r0
 423              		.loc 1 450 0
 424 0010 006A     		ldr	r0, [r0, #32]
 425              	.LVL30:
 426              		.loc 1 448 0
 427 0012 1A80     		strh	r2, [r3]	@ movhi
 428              		.loc 1 449 0
 429 0014 9A80     		strh	r2, [r3, #4]	@ movhi
 430              		.loc 1 450 0
 431 0016 FFF7FEFF 		bl	dmaStreamRelease
 432              	.LVL31:
 433              		.loc 1 451 0
 434 001a 606A     		ldr	r0, [r4, #36]
 435 001c FFF7FEFF 		bl	dmaStreamRelease
 436              	.LVL32:
 437              		.loc 1 458 0
 438 0020 044B     		ldr	r3, .L59
 439 0022 9C42     		cmp	r4, r3
 440 0024 00D0     		beq	.L58
 441              	.L51:
 442 0026 10BD     		pop	{r4, pc}
 443              	.LVL33:
 444              	.L58:
 445              		.loc 1 459 0
 446 0028 034A     		ldr	r2, .L59+4
 447 002a 136C     		ldr	r3, [r2, #64]
 448 002c 23F48043 		bic	r3, r3, #16384
 449 0030 1364     		str	r3, [r2, #64]
 450 0032 F8E7     		b	.L51
 451              	.L60:
 452              		.align	2
 453              	.L59:
ARM GAS  /tmp/cc2nr082.s 			page 9


 454 0034 00000000 		.word	.LANCHOR1
 455 0038 00380240 		.word	1073887232
 456              		.cfi_endproc
 457              	.LFE122:
 458              		.size	spi_lld_stop, .-spi_lld_stop
 459 003c AFF30080 		.section	.text.spi_lld_select,"ax",%progbits
 460              		.align	2
 461              		.p2align 4,,15
 462              		.global	spi_lld_select
 463              		.thumb
 464              		.thumb_func
 465              		.type	spi_lld_select, %function
 466              	spi_lld_select:
 467              	.LFB123:
 468              		.loc 1 487 0
 469              		.cfi_startproc
 470              		@ args = 0, pretend = 0, frame = 0
 471              		@ frame_needed = 0, uses_anonymous_args = 0
 472              		@ link register save eliminated.
 473              	.LVL34:
 474              		.loc 1 489 0
 475 0000 4368     		ldr	r3, [r0, #4]
 476 0002 1989     		ldrh	r1, [r3, #8]
 477 0004 5A68     		ldr	r2, [r3, #4]
 478 0006 0123     		movs	r3, #1
 479 0008 8B40     		lsls	r3, r3, r1
 480 000a 9BB2     		uxth	r3, r3
 481 000c 5383     		strh	r3, [r2, #26]	@ movhi
 482 000e 7047     		bx	lr
 483              		.cfi_endproc
 484              	.LFE123:
 485              		.size	spi_lld_select, .-spi_lld_select
 486              		.section	.text.spi_lld_unselect,"ax",%progbits
 487              		.align	2
 488              		.p2align 4,,15
 489              		.global	spi_lld_unselect
 490              		.thumb
 491              		.thumb_func
 492              		.type	spi_lld_unselect, %function
 493              	spi_lld_unselect:
 494              	.LFB124:
 495              		.loc 1 500 0
 496              		.cfi_startproc
 497              		@ args = 0, pretend = 0, frame = 0
 498              		@ frame_needed = 0, uses_anonymous_args = 0
 499              		@ link register save eliminated.
 500              	.LVL35:
 501              		.loc 1 502 0
 502 0000 4368     		ldr	r3, [r0, #4]
 503 0002 1989     		ldrh	r1, [r3, #8]
 504 0004 5A68     		ldr	r2, [r3, #4]
 505 0006 0123     		movs	r3, #1
 506 0008 8B40     		lsls	r3, r3, r1
 507 000a 9BB2     		uxth	r3, r3
 508 000c 1383     		strh	r3, [r2, #24]	@ movhi
 509 000e 7047     		bx	lr
 510              		.cfi_endproc
ARM GAS  /tmp/cc2nr082.s 			page 10


 511              	.LFE124:
 512              		.size	spi_lld_unselect, .-spi_lld_unselect
 513              		.section	.text.spi_lld_ignore,"ax",%progbits
 514              		.align	2
 515              		.p2align 4,,15
 516              		.global	spi_lld_ignore
 517              		.thumb
 518              		.thumb_func
 519              		.type	spi_lld_ignore, %function
 520              	spi_lld_ignore:
 521              	.LFB125:
 522              		.loc 1 516 0
 523              		.cfi_startproc
 524              		@ args = 0, pretend = 0, frame = 0
 525              		@ frame_needed = 0, uses_anonymous_args = 0
 526              		@ link register save eliminated.
 527              	.LVL36:
 528              		.loc 1 518 0
 529 0000 026A     		ldr	r2, [r0, #32]
 530              		.loc 1 522 0
 531 0002 436A     		ldr	r3, [r0, #36]
 532              		.loc 1 518 0
 533 0004 1268     		ldr	r2, [r2]
 534              		.loc 1 522 0
 535 0006 1B68     		ldr	r3, [r3]
 536              		.loc 1 516 0
 537 0008 70B4     		push	{r4, r5, r6}
 538              		.cfi_def_cfa_offset 12
 539              		.cfi_offset 4, -12
 540              		.cfi_offset 5, -8
 541              		.cfi_offset 6, -4
 542              		.loc 1 520 0
 543 000a 856A     		ldr	r5, [r0, #40]
 544              		.loc 1 518 0
 545 000c 094E     		ldr	r6, .L65
 546              		.loc 1 524 0
 547 000e C06A     		ldr	r0, [r0, #44]
 548              	.LVL37:
 549              		.loc 1 522 0
 550 0010 094C     		ldr	r4, .L65+4
 551              		.loc 1 518 0
 552 0012 D660     		str	r6, [r2, #12]
 553              		.loc 1 519 0
 554 0014 5160     		str	r1, [r2, #4]
 555              		.loc 1 520 0
 556 0016 1560     		str	r5, [r2]
 557              		.loc 1 522 0
 558 0018 DC60     		str	r4, [r3, #12]
 559              		.loc 1 523 0
 560 001a 5960     		str	r1, [r3, #4]
 561              		.loc 1 524 0
 562 001c 1860     		str	r0, [r3]
 563              		.loc 1 526 0
 564 001e 1168     		ldr	r1, [r2]
 565              	.LVL38:
 566 0020 41F00101 		orr	r1, r1, #1
 567 0024 1160     		str	r1, [r2]
ARM GAS  /tmp/cc2nr082.s 			page 11


 568              		.loc 1 527 0
 569 0026 1A68     		ldr	r2, [r3]
 570 0028 42F00102 		orr	r2, r2, #1
 571 002c 1A60     		str	r2, [r3]
 572              		.loc 1 528 0
 573 002e 70BC     		pop	{r4, r5, r6}
 574              		.cfi_restore 6
 575              		.cfi_restore 5
 576              		.cfi_restore 4
 577              		.cfi_def_cfa_offset 0
 578 0030 7047     		bx	lr
 579              	.L66:
 580 0032 00BF     		.align	2
 581              	.L65:
 582 0034 00000000 		.word	.LANCHOR2
 583 0038 00000000 		.word	.LANCHOR0
 584              		.cfi_endproc
 585              	.LFE125:
 586              		.size	spi_lld_ignore, .-spi_lld_ignore
 587 003c AFF30080 		.section	.text.spi_lld_exchange,"ax",%progbits
 588              		.align	2
 589              		.p2align 4,,15
 590              		.global	spi_lld_exchange
 591              		.thumb
 592              		.thumb_func
 593              		.type	spi_lld_exchange, %function
 594              	spi_lld_exchange:
 595              	.LFB126:
 596              		.loc 1 546 0
 597              		.cfi_startproc
 598              		@ args = 0, pretend = 0, frame = 0
 599              		@ frame_needed = 0, uses_anonymous_args = 0
 600              		@ link register save eliminated.
 601              	.LVL39:
 602 0000 F0B4     		push	{r4, r5, r6, r7}
 603              		.cfi_def_cfa_offset 16
 604              		.cfi_offset 4, -16
 605              		.cfi_offset 5, -12
 606              		.cfi_offset 6, -8
 607              		.cfi_offset 7, -4
 608              		.loc 1 548 0
 609 0002 046A     		ldr	r4, [r0, #32]
 610              		.loc 1 552 0
 611 0004 476A     		ldr	r7, [r0, #36]
 612              		.loc 1 550 0
 613 0006 866A     		ldr	r6, [r0, #40]
 614              		.loc 1 554 0
 615 0008 C56A     		ldr	r5, [r0, #44]
 616              		.loc 1 548 0
 617 000a 2468     		ldr	r4, [r4]
 618              		.loc 1 552 0
 619 000c 3868     		ldr	r0, [r7]
 620              	.LVL40:
 621              		.loc 1 548 0
 622 000e E360     		str	r3, [r4, #12]
 623              		.loc 1 550 0
 624 0010 46F48066 		orr	r6, r6, #1024
ARM GAS  /tmp/cc2nr082.s 			page 12


 625              		.loc 1 554 0
 626 0014 45F48065 		orr	r5, r5, #1024
 627              		.loc 1 549 0
 628 0018 6160     		str	r1, [r4, #4]
 629              		.loc 1 550 0
 630 001a 2660     		str	r6, [r4]
 631              		.loc 1 552 0
 632 001c C260     		str	r2, [r0, #12]
 633              		.loc 1 553 0
 634 001e 4160     		str	r1, [r0, #4]
 635              		.loc 1 554 0
 636 0020 0560     		str	r5, [r0]
 637              		.loc 1 556 0
 638 0022 2368     		ldr	r3, [r4]
 639              	.LVL41:
 640 0024 43F00103 		orr	r3, r3, #1
 641 0028 2360     		str	r3, [r4]
 642              		.loc 1 557 0
 643 002a 0368     		ldr	r3, [r0]
 644 002c 43F00103 		orr	r3, r3, #1
 645 0030 0360     		str	r3, [r0]
 646              		.loc 1 558 0
 647 0032 F0BC     		pop	{r4, r5, r6, r7}
 648              		.cfi_restore 7
 649              		.cfi_restore 6
 650              		.cfi_restore 5
 651              		.cfi_restore 4
 652              		.cfi_def_cfa_offset 0
 653 0034 7047     		bx	lr
 654              		.cfi_endproc
 655              	.LFE126:
 656              		.size	spi_lld_exchange, .-spi_lld_exchange
 657 0036 00BFAFF3 		.section	.text.spi_lld_send,"ax",%progbits
 657      0080AFF3 
 657      0080
 658              		.align	2
 659              		.p2align 4,,15
 660              		.global	spi_lld_send
 661              		.thumb
 662              		.thumb_func
 663              		.type	spi_lld_send, %function
 664              	spi_lld_send:
 665              	.LFB127:
 666              		.loc 1 573 0
 667              		.cfi_startproc
 668              		@ args = 0, pretend = 0, frame = 0
 669              		@ frame_needed = 0, uses_anonymous_args = 0
 670              		@ link register save eliminated.
 671              	.LVL42:
 672 0000 70B4     		push	{r4, r5, r6}
 673              		.cfi_def_cfa_offset 12
 674              		.cfi_offset 4, -12
 675              		.cfi_offset 5, -8
 676              		.cfi_offset 6, -4
 677              		.loc 1 579 0
 678 0002 436A     		ldr	r3, [r0, #36]
 679              		.loc 1 575 0
ARM GAS  /tmp/cc2nr082.s 			page 13


 680 0004 046A     		ldr	r4, [r0, #32]
 681              		.loc 1 581 0
 682 0006 C56A     		ldr	r5, [r0, #44]
 683              		.loc 1 575 0
 684 0008 2468     		ldr	r4, [r4]
 685              		.loc 1 579 0
 686 000a 1B68     		ldr	r3, [r3]
 687              		.loc 1 577 0
 688 000c 806A     		ldr	r0, [r0, #40]
 689              	.LVL43:
 690              		.loc 1 575 0
 691 000e 094E     		ldr	r6, .L71
 692 0010 E660     		str	r6, [r4, #12]
 693              		.loc 1 581 0
 694 0012 45F48065 		orr	r5, r5, #1024
 695              		.loc 1 576 0
 696 0016 6160     		str	r1, [r4, #4]
 697              		.loc 1 577 0
 698 0018 2060     		str	r0, [r4]
 699              		.loc 1 579 0
 700 001a DA60     		str	r2, [r3, #12]
 701              		.loc 1 580 0
 702 001c 5960     		str	r1, [r3, #4]
 703              		.loc 1 581 0
 704 001e 1D60     		str	r5, [r3]
 705              		.loc 1 583 0
 706 0020 2268     		ldr	r2, [r4]
 707              	.LVL44:
 708 0022 42F00102 		orr	r2, r2, #1
 709 0026 2260     		str	r2, [r4]
 710              		.loc 1 584 0
 711 0028 1A68     		ldr	r2, [r3]
 712 002a 42F00102 		orr	r2, r2, #1
 713 002e 1A60     		str	r2, [r3]
 714              		.loc 1 585 0
 715 0030 70BC     		pop	{r4, r5, r6}
 716              		.cfi_restore 6
 717              		.cfi_restore 5
 718              		.cfi_restore 4
 719              		.cfi_def_cfa_offset 0
 720 0032 7047     		bx	lr
 721              	.L72:
 722              		.align	2
 723              	.L71:
 724 0034 00000000 		.word	.LANCHOR2
 725              		.cfi_endproc
 726              	.LFE127:
 727              		.size	spi_lld_send, .-spi_lld_send
 728 0038 AFF30080 		.section	.text.spi_lld_receive,"ax",%progbits
 728      AFF30080 
 729              		.align	2
 730              		.p2align 4,,15
 731              		.global	spi_lld_receive
 732              		.thumb
 733              		.thumb_func
 734              		.type	spi_lld_receive, %function
 735              	spi_lld_receive:
ARM GAS  /tmp/cc2nr082.s 			page 14


 736              	.LFB128:
 737              		.loc 1 600 0
 738              		.cfi_startproc
 739              		@ args = 0, pretend = 0, frame = 0
 740              		@ frame_needed = 0, uses_anonymous_args = 0
 741              		@ link register save eliminated.
 742              	.LVL45:
 743 0000 70B4     		push	{r4, r5, r6}
 744              		.cfi_def_cfa_offset 12
 745              		.cfi_offset 4, -12
 746              		.cfi_offset 5, -8
 747              		.cfi_offset 6, -4
 748              		.loc 1 606 0
 749 0002 436A     		ldr	r3, [r0, #36]
 750              		.loc 1 602 0
 751 0004 046A     		ldr	r4, [r0, #32]
 752              		.loc 1 604 0
 753 0006 856A     		ldr	r5, [r0, #40]
 754              		.loc 1 602 0
 755 0008 2468     		ldr	r4, [r4]
 756              		.loc 1 606 0
 757 000a 1B68     		ldr	r3, [r3]
 758              		.loc 1 608 0
 759 000c C06A     		ldr	r0, [r0, #44]
 760              	.LVL46:
 761              		.loc 1 606 0
 762 000e 094E     		ldr	r6, .L75
 763              		.loc 1 602 0
 764 0010 E260     		str	r2, [r4, #12]
 765              		.loc 1 604 0
 766 0012 45F48065 		orr	r5, r5, #1024
 767              		.loc 1 603 0
 768 0016 6160     		str	r1, [r4, #4]
 769              		.loc 1 604 0
 770 0018 2560     		str	r5, [r4]
 771              		.loc 1 606 0
 772 001a DE60     		str	r6, [r3, #12]
 773              		.loc 1 607 0
 774 001c 5960     		str	r1, [r3, #4]
 775              		.loc 1 608 0
 776 001e 1860     		str	r0, [r3]
 777              		.loc 1 610 0
 778 0020 2268     		ldr	r2, [r4]
 779              	.LVL47:
 780 0022 42F00102 		orr	r2, r2, #1
 781 0026 2260     		str	r2, [r4]
 782              		.loc 1 611 0
 783 0028 1A68     		ldr	r2, [r3]
 784 002a 42F00102 		orr	r2, r2, #1
 785 002e 1A60     		str	r2, [r3]
 786              		.loc 1 612 0
 787 0030 70BC     		pop	{r4, r5, r6}
 788              		.cfi_restore 6
 789              		.cfi_restore 5
 790              		.cfi_restore 4
 791              		.cfi_def_cfa_offset 0
 792 0032 7047     		bx	lr
ARM GAS  /tmp/cc2nr082.s 			page 15


 793              	.L76:
 794              		.align	2
 795              	.L75:
 796 0034 00000000 		.word	.LANCHOR0
 797              		.cfi_endproc
 798              	.LFE128:
 799              		.size	spi_lld_receive, .-spi_lld_receive
 800 0038 AFF30080 		.section	.text.spi_lld_polled_exchange,"ax",%progbits
 800      AFF30080 
 801              		.align	2
 802              		.p2align 4,,15
 803              		.global	spi_lld_polled_exchange
 804              		.thumb
 805              		.thumb_func
 806              		.type	spi_lld_polled_exchange, %function
 807              	spi_lld_polled_exchange:
 808              	.LFB129:
 809              		.loc 1 626 0
 810              		.cfi_startproc
 811              		@ args = 0, pretend = 0, frame = 0
 812              		@ frame_needed = 0, uses_anonymous_args = 0
 813              		@ link register save eliminated.
 814              	.LVL48:
 815              		.loc 1 628 0
 816 0000 C269     		ldr	r2, [r0, #28]
 817 0002 9181     		strh	r1, [r2, #12]	@ movhi
 818              	.L78:
 819              		.loc 1 629 0 discriminator 1
 820 0004 1389     		ldrh	r3, [r2, #8]
 821 0006 DB07     		lsls	r3, r3, #31
 822 0008 FCD5     		bpl	.L78
 823              		.loc 1 631 0
 824 000a 9089     		ldrh	r0, [r2, #12]
 825              	.LVL49:
 826              		.loc 1 632 0
 827 000c 80B2     		uxth	r0, r0
 828 000e 7047     		bx	lr
 829              		.cfi_endproc
 830              	.LFE129:
 831              		.size	spi_lld_polled_exchange, .-spi_lld_polled_exchange
 832              		.global	SPID2
 833              		.section	.bss.dummytx,"aw",%nobits
 834              		.align	1
 835              		.set	.LANCHOR0,. + 0
 836              		.type	dummytx, %object
 837              		.size	dummytx, 2
 838              	dummytx:
 839 0000 0000     		.space	2
 840              		.section	.bss.SPID2,"aw",%nobits
 841              		.align	2
 842              		.set	.LANCHOR1,. + 0
 843              		.type	SPID2, %object
 844              		.size	SPID2, 48
 845              	SPID2:
 846 0000 00000000 		.space	48
 846      00000000 
 846      00000000 
ARM GAS  /tmp/cc2nr082.s 			page 16


 846      00000000 
 846      00000000 
 847              		.section	.rodata.str1.4,"aMS",%progbits,1
 848              		.align	2
 849              	.LC0:
 850 0000 7370695F 		.ascii	"spi_lld_start(), #3\000"
 850      6C6C645F 
 850      73746172 
 850      7428292C 
 850      20233300 
 851              	.LC1:
 852 0014 7370695F 		.ascii	"spi_lld_start(), #4\000"
 852      6C6C645F 
 852      73746172 
 852      7428292C 
 852      20233400 
 853              		.section	.bss.dummyrx,"aw",%nobits
 854              		.align	1
 855              		.set	.LANCHOR2,. + 0
 856              		.type	dummyrx, %object
 857              		.size	dummyrx, 2
 858              	dummyrx:
 859 0000 0000     		.space	2
 860              		.text
 861              	.Letext0:
 862              		.file 2 "/usr/lib/gcc/arm-none-eabi/4.9.3/include/stddef.h"
 863              		.file 3 "/usr/include/newlib/machine/_default_types.h"
 864              		.file 4 "/usr/include/newlib/stdint.h"
 865              		.file 5 "../../os/ports/GCC/ARMCMx/chtypes.h"
 866              		.file 6 "../../os/kernel/include/chlists.h"
 867              		.file 7 "../../os/kernel/include/chthreads.h"
 868              		.file 8 "../../os/ports/GCC/ARMCMx/chcore_v7m.h"
 869              		.file 9 "../../os/kernel/include/chmtx.h"
 870              		.file 10 "../../os/hal/platforms/STM32F4xx/stm32f4xx.h"
 871              		.file 11 "../../os/hal/platforms/STM32F4xx/stm32_dma.h"
 872              		.file 12 "../../os/hal/platforms/STM32/GPIOv2/pal_lld.h"
 873              		.file 13 "../../os/hal/include/spi.h"
 874              		.file 14 "../../os/hal/platforms/STM32/SPIv1/spi_lld.h"
 875              		.file 15 "../../os/ports/common/ARMCMx/CMSIS/include/core_cm4.h"
 876              		.file 16 "../../os/kernel/include/chdebug.h"
 877              		.file 17 "../../os/kernel/include/chschd.h"