ARM GAS  /tmp/ccpfWE4J.s 			page 1


   1              		.syntax unified
   2              		.cpu cortex-m0
   3              		.fpu softvfp
   4              		.eabi_attribute 20, 1
   5              		.eabi_attribute 21, 1
   6              		.eabi_attribute 23, 3
   7              		.eabi_attribute 24, 1
   8              		.eabi_attribute 25, 1
   9              		.eabi_attribute 26, 1
  10              		.eabi_attribute 30, 2
  11              		.eabi_attribute 34, 0
  12              		.eabi_attribute 18, 4
  13              		.thumb
  14              		.syntax unified
  15              		.file	"AcelerometroV2.c"
  16              		.text
  17              	.Ltext0:
  18              		.cfi_sections	.debug_frame
  19              		.section	.text.gpt3cb,"ax",%progbits
  20              		.align	2
  21              		.p2align 4,,15
  22              		.code	16
  23              		.thumb_func
  24              		.type	gpt3cb, %function
  25              	gpt3cb:
  26              	.LFB43:
  27              		.file 1 "/home/lithium/Documentos/ChibiOS_2.6.8/demos/BikeTracker/test/AcelerometroV2.c"
  28              		.loc 1 113 0
  29              		.cfi_startproc
  30              		@ args = 0, pretend = 0, frame = 0
  31              		@ frame_needed = 0, uses_anonymous_args = 0
  32              		@ link register save eliminated.
  33              	.LVL0:
  34              		.loc 1 116 0
  35 0000 9023     		movs	r3, #144
  36 0002 0122     		movs	r2, #1
  37 0004 DB05     		lsls	r3, r3, #23
  38 0006 5A83     		strh	r2, [r3, #26]
  39              		.loc 1 118 0
  40              		@ sp needed
  41 0008 7047     		bx	lr
  42              		.cfi_endproc
  43              	.LFE43:
  44              		.size	gpt3cb, .-gpt3cb
  45 000a C046     		.section	.text.MMA8451Standby,"ax",%progbits
  46              		.align	2
  47              		.p2align 4,,15
  48              		.global	MMA8451Standby
  49              		.code	16
  50              		.thumb_func
  51              		.type	MMA8451Standby, %function
  52              	MMA8451Standby:
  53              	.LFB40:
  54              		.loc 1 59 0
  55              		.cfi_startproc
  56              		@ args = 0, pretend = 0, frame = 0
  57              		@ frame_needed = 0, uses_anonymous_args = 0
ARM GAS  /tmp/ccpfWE4J.s 			page 2


  58              		.loc 1 61 0
  59 0000 2A23     		movs	r3, #42
  60 0002 0A4A     		ldr	r2, .L3
  61              		.loc 1 59 0
  62 0004 00B5     		push	{lr}
  63              		.cfi_def_cfa_offset 4
  64              		.cfi_offset 14, -4
  65              		.loc 1 61 0
  66 0006 1370     		strb	r3, [r2]
  67              		.loc 1 62 0
  68 0008 0023     		movs	r3, #0
  69              		.loc 1 63 0
  70 000a 0121     		movs	r1, #1
  71              		.loc 1 59 0
  72 000c 85B0     		sub	sp, sp, #20
  73              		.cfi_def_cfa_offset 24
  74              		.loc 1 62 0
  75 000e 5370     		strb	r3, [r2, #1]
  76              		.loc 1 63 0
  77 0010 0193     		str	r3, [sp, #4]
  78 0012 074B     		ldr	r3, .L3+4
  79 0014 4942     		rsbs	r1, r1, #0
  80 0016 0291     		str	r1, [sp, #8]
  81 0018 0093     		str	r3, [sp]
  82 001a 1D31     		adds	r1, r1, #29
  83 001c 0223     		movs	r3, #2
  84 001e 0548     		ldr	r0, .L3+8
  85 0020 FFF7FEFF 		bl	i2cMasterTransmitTimeout
  86              	.LVL1:
  87 0024 044B     		ldr	r3, .L3+12
  88 0026 1860     		str	r0, [r3]
  89              		.loc 1 66 0
  90 0028 05B0     		add	sp, sp, #20
  91              		@ sp needed
  92 002a 00BD     		pop	{pc}
  93              	.L4:
  94              		.align	2
  95              	.L3:
  96 002c 00000000 		.word	.LANCHOR0
  97 0030 00000000 		.word	.LANCHOR1
  98 0034 00000000 		.word	I2CD1
  99 0038 00000000 		.word	.LANCHOR2
 100              		.cfi_endproc
 101              	.LFE40:
 102              		.size	MMA8451Standby, .-MMA8451Standby
 103              		.section	.text.MMA8451Active,"ax",%progbits
 104              		.align	2
 105              		.p2align 4,,15
 106              		.global	MMA8451Active
 107              		.code	16
 108              		.thumb_func
 109              		.type	MMA8451Active, %function
 110              	MMA8451Active:
 111              	.LFB41:
 112              		.loc 1 68 0
 113              		.cfi_startproc
 114              		@ args = 0, pretend = 0, frame = 0
ARM GAS  /tmp/ccpfWE4J.s 			page 3


 115              		@ frame_needed = 0, uses_anonymous_args = 0
 116 0000 00B5     		push	{lr}
 117              		.cfi_def_cfa_offset 4
 118              		.cfi_offset 14, -4
 119              		.loc 1 70 0
 120 0002 0A20     		movs	r0, #10
 121              		.loc 1 68 0
 122 0004 85B0     		sub	sp, sp, #20
 123              		.cfi_def_cfa_offset 24
 124              		.loc 1 70 0
 125 0006 FFF7FEFF 		bl	chThdSleep
 126              	.LVL2:
 127              		.loc 1 71 0
 128 000a 2A23     		movs	r3, #42
 129 000c 094A     		ldr	r2, .L6
 130              		.loc 1 73 0
 131 000e 1C21     		movs	r1, #28
 132              		.loc 1 71 0
 133 0010 1370     		strb	r3, [r2]
 134              		.loc 1 72 0
 135 0012 0733     		adds	r3, r3, #7
 136 0014 5370     		strb	r3, [r2, #1]
 137              		.loc 1 73 0
 138 0016 323B     		subs	r3, r3, #50
 139 0018 0293     		str	r3, [sp, #8]
 140 001a 0023     		movs	r3, #0
 141 001c 0193     		str	r3, [sp, #4]
 142 001e 064B     		ldr	r3, .L6+4
 143 0020 0648     		ldr	r0, .L6+8
 144 0022 0093     		str	r3, [sp]
 145 0024 0223     		movs	r3, #2
 146 0026 FFF7FEFF 		bl	i2cMasterTransmitTimeout
 147              	.LVL3:
 148 002a 054B     		ldr	r3, .L6+12
 149 002c 1860     		str	r0, [r3]
 150              		.loc 1 76 0
 151 002e 05B0     		add	sp, sp, #20
 152              		@ sp needed
 153 0030 00BD     		pop	{pc}
 154              	.L7:
 155 0032 C046     		.align	2
 156              	.L6:
 157 0034 00000000 		.word	.LANCHOR0
 158 0038 00000000 		.word	.LANCHOR1
 159 003c 00000000 		.word	I2CD1
 160 0040 00000000 		.word	.LANCHOR2
 161              		.cfi_endproc
 162              	.LFE41:
 163              		.size	MMA8451Active, .-MMA8451Active
 164              		.section	.text.init_MMA8451Q,"ax",%progbits
 165              		.align	2
 166              		.p2align 4,,15
 167              		.global	init_MMA8451Q
 168              		.code	16
 169              		.thumb_func
 170              		.type	init_MMA8451Q, %function
 171              	init_MMA8451Q:
ARM GAS  /tmp/ccpfWE4J.s 			page 4


 172              	.LFB42:
 173              		.loc 1 78 0
 174              		.cfi_startproc
 175              		@ args = 0, pretend = 0, frame = 0
 176              		@ frame_needed = 0, uses_anonymous_args = 0
 177 0000 F0B5     		push	{r4, r5, r6, r7, lr}
 178              		.cfi_def_cfa_offset 20
 179              		.cfi_offset 4, -20
 180              		.cfi_offset 5, -16
 181              		.cfi_offset 6, -12
 182              		.cfi_offset 7, -8
 183              		.cfi_offset 14, -4
 184 0002 4F46     		mov	r7, r9
 185 0004 4646     		mov	r6, r8
 186 0006 C0B4     		push	{r6, r7}
 187              		.cfi_def_cfa_offset 28
 188              		.cfi_offset 8, -28
 189              		.cfi_offset 9, -24
 190 0008 85B0     		sub	sp, sp, #20
 191              		.cfi_def_cfa_offset 48
 192              		.loc 1 80 0
 193 000a FFF7FEFF 		bl	MMA8451Standby
 194              	.LVL4:
 195              		.loc 1 81 0
 196 000e 0A20     		movs	r0, #10
 197 0010 FFF7FEFF 		bl	chThdSleep
 198              	.LVL5:
 199              		.loc 1 82 0
 200 0014 2B23     		movs	r3, #43
 201 0016 2C4C     		ldr	r4, .L9
 202              		.loc 1 84 0
 203 0018 2C4E     		ldr	r6, .L9+4
 204              		.loc 1 82 0
 205 001a 2370     		strb	r3, [r4]
 206              		.loc 1 83 0
 207 001c 283B     		subs	r3, r3, #40
 208 001e 6370     		strb	r3, [r4, #1]
 209              		.loc 1 84 0
 210 0020 043B     		subs	r3, r3, #4
 211 0022 9946     		mov	r9, r3
 212 0024 0293     		str	r3, [sp, #8]
 213 0026 0023     		movs	r3, #0
 214 0028 294F     		ldr	r7, .L9+8
 215 002a 9846     		mov	r8, r3
 216 002c 2200     		movs	r2, r4
 217 002e 0193     		str	r3, [sp, #4]
 218 0030 1C21     		movs	r1, #28
 219 0032 0233     		adds	r3, r3, #2
 220 0034 0097     		str	r7, [sp]
 221 0036 3000     		movs	r0, r6
 222 0038 FFF7FEFF 		bl	i2cMasterTransmitTimeout
 223              	.LVL6:
 224 003c 254D     		ldr	r5, .L9+12
 225 003e 2860     		str	r0, [r5]
 226              		.loc 1 87 0
 227 0040 0A20     		movs	r0, #10
 228 0042 FFF7FEFF 		bl	chThdSleep
ARM GAS  /tmp/ccpfWE4J.s 			page 5


 229              	.LVL7:
 230              		.loc 1 88 0
 231 0046 1523     		movs	r3, #21
 232 0048 2370     		strb	r3, [r4]
 233              		.loc 1 89 0
 234 004a 6333     		adds	r3, r3, #99
 235 004c 6370     		strb	r3, [r4, #1]
 236              		.loc 1 90 0
 237 004e 4B46     		mov	r3, r9
 238 0050 0293     		str	r3, [sp, #8]
 239 0052 4346     		mov	r3, r8
 240 0054 2200     		movs	r2, r4
 241 0056 0193     		str	r3, [sp, #4]
 242 0058 1C21     		movs	r1, #28
 243 005a 0233     		adds	r3, r3, #2
 244 005c 0097     		str	r7, [sp]
 245 005e 3000     		movs	r0, r6
 246 0060 FFF7FEFF 		bl	i2cMasterTransmitTimeout
 247              	.LVL8:
 248 0064 2860     		str	r0, [r5]
 249              		.loc 1 93 0
 250 0066 0A20     		movs	r0, #10
 251 0068 FFF7FEFF 		bl	chThdSleep
 252              	.LVL9:
 253              		.loc 1 94 0
 254 006c 1723     		movs	r3, #23
 255 006e 2370     		strb	r3, [r4]
 256              		.loc 1 95 0
 257 0070 7833     		adds	r3, r3, #120
 258 0072 6370     		strb	r3, [r4, #1]
 259              		.loc 1 96 0
 260 0074 4B46     		mov	r3, r9
 261 0076 0293     		str	r3, [sp, #8]
 262 0078 4346     		mov	r3, r8
 263 007a 2200     		movs	r2, r4
 264 007c 0193     		str	r3, [sp, #4]
 265 007e 1C21     		movs	r1, #28
 266 0080 0233     		adds	r3, r3, #2
 267 0082 0097     		str	r7, [sp]
 268 0084 3000     		movs	r0, r6
 269 0086 FFF7FEFF 		bl	i2cMasterTransmitTimeout
 270              	.LVL10:
 271 008a 2860     		str	r0, [r5]
 272              		.loc 1 99 0
 273 008c 0A20     		movs	r0, #10
 274 008e FFF7FEFF 		bl	chThdSleep
 275              	.LVL11:
 276              		.loc 1 100 0
 277 0092 1823     		movs	r3, #24
 278 0094 2370     		strb	r3, [r4]
 279              		.loc 1 101 0
 280 0096 093B     		subs	r3, r3, #9
 281 0098 6370     		strb	r3, [r4, #1]
 282              		.loc 1 102 0
 283 009a 4B46     		mov	r3, r9
 284 009c 0293     		str	r3, [sp, #8]
 285 009e 4346     		mov	r3, r8
ARM GAS  /tmp/ccpfWE4J.s 			page 6


 286 00a0 2200     		movs	r2, r4
 287 00a2 1C21     		movs	r1, #28
 288 00a4 0193     		str	r3, [sp, #4]
 289 00a6 0097     		str	r7, [sp]
 290 00a8 0233     		adds	r3, r3, #2
 291 00aa 3000     		movs	r0, r6
 292 00ac FFF7FEFF 		bl	i2cMasterTransmitTimeout
 293              	.LVL12:
 294 00b0 2860     		str	r0, [r5]
 295              		.loc 1 105 0
 296 00b2 0A20     		movs	r0, #10
 297 00b4 FFF7FEFF 		bl	chThdSleep
 298              	.LVL13:
 299              		.loc 1 106 0
 300 00b8 FFF7FEFF 		bl	MMA8451Active
 301              	.LVL14:
 302              		.loc 1 108 0
 303 00bc 05B0     		add	sp, sp, #20
 304              		@ sp needed
 305 00be 0CBC     		pop	{r2, r3}
 306 00c0 9046     		mov	r8, r2
 307 00c2 9946     		mov	r9, r3
 308 00c4 F0BD     		pop	{r4, r5, r6, r7, pc}
 309              	.L10:
 310 00c6 C046     		.align	2
 311              	.L9:
 312 00c8 00000000 		.word	.LANCHOR0
 313 00cc 00000000 		.word	I2CD1
 314 00d0 00000000 		.word	.LANCHOR1
 315 00d4 00000000 		.word	.LANCHOR2
 316              		.cfi_endproc
 317              	.LFE42:
 318              		.size	init_MMA8451Q, .-init_MMA8451Q
 319              		.section	.text.startup.main,"ax",%progbits
 320              		.align	2
 321              		.p2align 4,,15
 322              		.global	main
 323              		.code	16
 324              		.thumb_func
 325              		.type	main, %function
 326              	main:
 327              	.LFB44:
 328              		.loc 1 130 0
 329              		.cfi_startproc
 330              		@ Volatile: function does not return.
 331              		@ args = 0, pretend = 0, frame = 0
 332              		@ frame_needed = 0, uses_anonymous_args = 0
 333 0000 F0B5     		push	{r4, r5, r6, r7, lr}
 334              		.cfi_def_cfa_offset 20
 335              		.cfi_offset 4, -20
 336              		.cfi_offset 5, -16
 337              		.cfi_offset 6, -12
 338              		.cfi_offset 7, -8
 339              		.cfi_offset 14, -4
 340 0002 5746     		mov	r7, r10
 341 0004 4E46     		mov	r6, r9
 342 0006 4546     		mov	r5, r8
ARM GAS  /tmp/ccpfWE4J.s 			page 7


 343 0008 E0B4     		push	{r5, r6, r7}
 344              		.cfi_def_cfa_offset 32
 345              		.cfi_offset 8, -32
 346              		.cfi_offset 9, -28
 347              		.cfi_offset 10, -24
 348 000a 84B0     		sub	sp, sp, #16
 349              		.cfi_def_cfa_offset 48
 350              		.loc 1 132 0
 351 000c FFF7FEFF 		bl	halInit
 352              	.LVL15:
 353              		.loc 1 133 0
 354 0010 FFF7FEFF 		bl	chSysInit
 355              	.LVL16:
 356              		.loc 1 136 0
 357 0014 1C4F     		ldr	r7, .L16
 358 0016 1D49     		ldr	r1, .L16+4
 359 0018 3800     		movs	r0, r7
 360 001a FFF7FEFF 		bl	i2cStart
 361              	.LVL17:
 362              		.loc 1 138 0
 363 001e 1C49     		ldr	r1, .L16+8
 364 0020 1C48     		ldr	r0, .L16+12
 365 0022 FFF7FEFF 		bl	gptStart
 366              	.LVL18:
 367              		.loc 1 140 0
 368 0026 9023     		movs	r3, #144
 369 0028 0222     		movs	r2, #2
 370 002a DB05     		lsls	r3, r3, #23
 371 002c 5A83     		strh	r2, [r3, #26]
 372              		.loc 1 142 0
 373 002e 0232     		adds	r2, r2, #2
 374 0030 5A83     		strh	r2, [r3, #26]
 375              		.loc 1 144 0
 376 0032 8022     		movs	r2, #128
 377 0034 184B     		ldr	r3, .L16+16
 378 0036 5201     		lsls	r2, r2, #5
 379 0038 5A83     		strh	r2, [r3, #26]
 380              		.loc 1 146 0
 381 003a FFF7FEFF 		bl	init_MMA8451Q
 382              	.LVL19:
 383 003e 174B     		ldr	r3, .L16+20
 384              		.loc 1 155 0
 385 0040 0124     		movs	r4, #1
 386 0042 9A46     		mov	r10, r3
 387              		.loc 1 154 0
 388 0044 1623     		movs	r3, #22
 389 0046 9946     		mov	r9, r3
 390              		.loc 1 155 0
 391 0048 173B     		subs	r3, r3, #23
 392 004a 9846     		mov	r8, r3
 393 004c 144E     		ldr	r6, .L16+24
 394 004e 154D     		ldr	r5, .L16+28
 395              	.L12:
 396              		.loc 1 153 0
 397 0050 6420     		movs	r0, #100
 398 0052 FFF7FEFF 		bl	chThdSleep
 399              	.LVL20:
ARM GAS  /tmp/ccpfWE4J.s 			page 8


 400              		.loc 1 154 0
 401 0056 4B46     		mov	r3, r9
 402 0058 3370     		strb	r3, [r6]
 403              		.loc 1 155 0
 404 005a 4346     		mov	r3, r8
 405 005c 0194     		str	r4, [sp, #4]
 406 005e 0293     		str	r3, [sp, #8]
 407 0060 0095     		str	r5, [sp]
 408 0062 0223     		movs	r3, #2
 409 0064 3200     		movs	r2, r6
 410 0066 1C21     		movs	r1, #28
 411 0068 3800     		movs	r0, r7
 412 006a FFF7FEFF 		bl	i2cMasterTransmitTimeout
 413              	.LVL21:
 414 006e 5346     		mov	r3, r10
 415 0070 1860     		str	r0, [r3]
 416              		.loc 1 160 0
 417 0072 2B78     		ldrb	r3, [r5]
 418 0074 DB09     		lsrs	r3, r3, #7
 419 0076 03D0     		beq	.L13
 420              		.loc 1 162 0
 421 0078 9023     		movs	r3, #144
 422 007a DB05     		lsls	r3, r3, #23
 423 007c 1C83     		strh	r4, [r3, #24]
 424 007e E7E7     		b	.L12
 425              	.L13:
 426              		.loc 1 167 0
 427 0080 9023     		movs	r3, #144
 428 0082 DB05     		lsls	r3, r3, #23
 429 0084 5C83     		strh	r4, [r3, #26]
 430 0086 E3E7     		b	.L12
 431              	.L17:
 432              		.align	2
 433              	.L16:
 434 0088 00000000 		.word	I2CD1
 435 008c 00000000 		.word	.LANCHOR3
 436 0090 00000000 		.word	.LANCHOR4
 437 0094 00000000 		.word	GPTD3
 438 0098 00040048 		.word	1207960576
 439 009c 00000000 		.word	.LANCHOR2
 440 00a0 00000000 		.word	.LANCHOR0
 441 00a4 00000000 		.word	.LANCHOR1
 442              		.cfi_endproc
 443              	.LFE44:
 444              		.size	main, .-main
 445              		.global	status
 446              		.section	.bss.rxbuf,"aw",%nobits
 447              		.align	2
 448              		.set	.LANCHOR1,. + 0
 449              		.type	rxbuf, %object
 450              		.size	rxbuf, 6
 451              	rxbuf:
 452 0000 00000000 		.space	6
 452      0000
 453              		.section	.rodata.gpt3cfg,"a",%progbits
 454              		.align	2
 455              		.set	.LANCHOR4,. + 0
ARM GAS  /tmp/ccpfWE4J.s 			page 9


 456              		.type	gpt3cfg, %object
 457              		.size	gpt3cfg, 12
 458              	gpt3cfg:
 459 0000 10270000 		.word	10000
 460 0004 00000000 		.word	gpt3cb
 461 0008 00000000 		.word	0
 462              		.section	.rodata.i2cconfig,"a",%progbits
 463              		.align	2
 464              		.set	.LANCHOR3,. + 0
 465              		.type	i2cconfig, %object
 466              		.size	i2cconfig, 12
 467              	i2cconfig:
 468 0000 130F4210 		.word	272764691
 469 0004 00000000 		.word	0
 470 0008 00000000 		.word	0
 471              		.section	.bss.txbuf,"aw",%nobits
 472              		.align	2
 473              		.set	.LANCHOR0,. + 0
 474              		.type	txbuf, %object
 475              		.size	txbuf, 2
 476              	txbuf:
 477 0000 0000     		.space	2
 478              		.section	.bss.status,"aw",%nobits
 479              		.align	2
 480              		.set	.LANCHOR2,. + 0
 481              		.type	status, %object
 482              		.size	status, 4
 483              	status:
 484 0000 00000000 		.space	4
 485              		.text
 486              	.Letext0:
 487              		.file 2 "/home/lithium/Descargas/gcc-arm-none-eabi-5_3-2016q1/arm-none-eabi/include/machine/_defau
 488              		.file 3 "/home/lithium/Descargas/gcc-arm-none-eabi-5_3-2016q1/arm-none-eabi/include/sys/_stdint.h"
 489              		.file 4 "../../os/ports/GCC/ARMCMx/chtypes.h"
 490              		.file 5 "../../os/kernel/include/chlists.h"
 491              		.file 6 "../../os/kernel/include/chthreads.h"
 492              		.file 7 "../../os/ports/GCC/ARMCMx/chcore_v6m.h"
 493              		.file 8 "../../os/kernel/include/chmtx.h"
 494              		.file 9 "../../os/hal/platforms/STM32F0xx/stm32f0xx.h"
 495              		.file 10 "../../os/hal/platforms/STM32F0xx/stm32_dma.h"
 496              		.file 11 "../../os/hal/platforms/STM32/GPIOv2/pal_lld.h"
 497              		.file 12 "../../os/hal/include/gpt.h"
 498              		.file 13 "../../os/hal/platforms/STM32/TIMv1/gpt_lld.h"
 499              		.file 14 "../../os/hal/platforms/STM32/TIMv1/stm32_tim.h"
 500              		.file 15 "../../os/hal/include/i2c.h"
 501              		.file 16 "../../os/hal/platforms/STM32/I2Cv2/i2c_lld.h"
 502              		.file 17 "../../os/hal/include/hal.h"
 503              		.file 18 "../../os/kernel/include/chsys.h"