ARM GAS  /tmp/ccgYhxk1.s 			page 1


   1              		.syntax unified
   2              		.cpu cortex-m0
   3              		.fpu softvfp
   4              		.eabi_attribute 20, 1
   5              		.eabi_attribute 21, 1
   6              		.eabi_attribute 23, 3
   7              		.eabi_attribute 24, 1
   8              		.eabi_attribute 25, 1
   9              		.eabi_attribute 26, 1
  10              		.eabi_attribute 30, 2
  11              		.eabi_attribute 34, 0
  12              		.eabi_attribute 18, 4
  13              		.thumb
  14              		.syntax unified
  15              		.file	"chcond.c"
  16              		.text
  17              	.Ltext0:
  18              		.cfi_sections	.debug_frame
  19              		.section	.text.chCondInit,"ax",%progbits
  20              		.align	2
  21              		.p2align 4,,15
  22              		.global	chCondInit
  23              		.code	16
  24              		.thumb_func
  25              		.type	chCondInit, %function
  26              	chCondInit:
  27              	.LFB7:
  28              		.file 1 "../../os/kernel/src/chcond.c"
  29              		.loc 1 59 0
  30              		.cfi_startproc
  31              		@ args = 0, pretend = 0, frame = 0
  32              		@ frame_needed = 0, uses_anonymous_args = 0
  33              		@ link register save eliminated.
  34              	.LVL0:
  35              		.loc 1 63 0
  36 0000 4060     		str	r0, [r0, #4]
  37 0002 0060     		str	r0, [r0]
  38              		.loc 1 64 0
  39              		@ sp needed
  40 0004 7047     		bx	lr
  41              		.cfi_endproc
  42              	.LFE7:
  43              		.size	chCondInit, .-chCondInit
  44 0006 C046     		.section	.text.chCondSignal,"ax",%progbits
  45              		.align	2
  46              		.p2align 4,,15
  47              		.global	chCondSignal
  48              		.code	16
  49              		.thumb_func
  50              		.type	chCondSignal, %function
  51              	chCondSignal:
  52              	.LFB8:
  53              		.loc 1 73 0
  54              		.cfi_startproc
  55              		@ args = 0, pretend = 0, frame = 0
  56              		@ frame_needed = 0, uses_anonymous_args = 0
  57              	.LVL1:
ARM GAS  /tmp/ccgYhxk1.s 			page 2


  58 0000 10B5     		push	{r4, lr}
  59              		.cfi_def_cfa_offset 8
  60              		.cfi_offset 4, -8
  61              		.cfi_offset 14, -4
  62              		.loc 1 77 0
  63              		.syntax divided
  64              	@ 77 "../../os/kernel/src/chcond.c" 1
  65 0002 72B6     		cpsid   i
  66              	@ 0 "" 2
  67              		.loc 1 78 0
  68              		.thumb
  69              		.syntax unified
  70 0004 0368     		ldr	r3, [r0]
  71 0006 8342     		cmp	r3, r0
  72 0008 06D0     		beq	.L3
  73              	.LVL2:
  74              	.LBB16:
  75              	.LBB17:
  76              		.file 2 "../../os/kernel/include/chinline.h"
  77              		.loc 2 62 0
  78 000a 1A68     		ldr	r2, [r3]
  79              	.LBE17:
  80              	.LBE16:
  81              		.loc 1 79 0
  82 000c 0021     		movs	r1, #0
  83              	.LBB19:
  84              	.LBB18:
  85              		.loc 2 62 0
  86 000e 0260     		str	r2, [r0]
  87 0010 5060     		str	r0, [r2, #4]
  88              	.LVL3:
  89              	.LBE18:
  90              	.LBE19:
  91              		.loc 1 79 0
  92 0012 1800     		movs	r0, r3
  93              	.LVL4:
  94 0014 FFF7FEFF 		bl	chSchWakeupS
  95              	.LVL5:
  96              	.L3:
  97              		.loc 1 80 0
  98              		.syntax divided
  99              	@ 80 "../../os/kernel/src/chcond.c" 1
 100 0018 62B6     		cpsie   i
 101              	@ 0 "" 2
 102              		.loc 1 81 0
 103              		.thumb
 104              		.syntax unified
 105              		@ sp needed
 106 001a 10BD     		pop	{r4, pc}
 107              		.cfi_endproc
 108              	.LFE8:
 109              		.size	chCondSignal, .-chCondSignal
 110              		.section	.text.chCondSignalI,"ax",%progbits
 111              		.align	2
 112              		.p2align 4,,15
 113              		.global	chCondSignalI
 114              		.code	16
ARM GAS  /tmp/ccgYhxk1.s 			page 3


 115              		.thumb_func
 116              		.type	chCondSignalI, %function
 117              	chCondSignalI:
 118              	.LFB9:
 119              		.loc 1 94 0
 120              		.cfi_startproc
 121              		@ args = 0, pretend = 0, frame = 0
 122              		@ frame_needed = 0, uses_anonymous_args = 0
 123              	.LVL6:
 124              		.loc 1 99 0
 125 0000 0368     		ldr	r3, [r0]
 126              		.loc 1 94 0
 127 0002 10B5     		push	{r4, lr}
 128              		.cfi_def_cfa_offset 8
 129              		.cfi_offset 4, -8
 130              		.cfi_offset 14, -4
 131              		.loc 1 99 0
 132 0004 8342     		cmp	r3, r0
 133 0006 07D0     		beq	.L5
 134              	.LVL7:
 135              	.LBB20:
 136              	.LBB21:
 137              		.loc 2 62 0
 138 0008 1A68     		ldr	r2, [r3]
 139 000a 0260     		str	r2, [r0]
 140 000c 5060     		str	r0, [r2, #4]
 141              	.LVL8:
 142              	.LBE21:
 143              	.LBE20:
 144              		.loc 1 100 0
 145 000e 1800     		movs	r0, r3
 146              	.LVL9:
 147 0010 FFF7FEFF 		bl	chSchReadyI
 148              	.LVL10:
 149 0014 0023     		movs	r3, #0
 150 0016 4362     		str	r3, [r0, #36]
 151              	.L5:
 152              		.loc 1 101 0
 153              		@ sp needed
 154 0018 10BD     		pop	{r4, pc}
 155              		.cfi_endproc
 156              	.LFE9:
 157              		.size	chCondSignalI, .-chCondSignalI
 158 001a C046     		.section	.text.chCondBroadcast,"ax",%progbits
 159              		.align	2
 160              		.p2align 4,,15
 161              		.global	chCondBroadcast
 162              		.code	16
 163              		.thumb_func
 164              		.type	chCondBroadcast, %function
 165              	chCondBroadcast:
 166              	.LFB10:
 167              		.loc 1 110 0
 168              		.cfi_startproc
 169              		@ args = 0, pretend = 0, frame = 0
 170              		@ frame_needed = 0, uses_anonymous_args = 0
 171              	.LVL11:
ARM GAS  /tmp/ccgYhxk1.s 			page 4


 172 0000 70B5     		push	{r4, r5, r6, lr}
 173              		.cfi_def_cfa_offset 16
 174              		.cfi_offset 4, -16
 175              		.cfi_offset 5, -12
 176              		.cfi_offset 6, -8
 177              		.cfi_offset 14, -4
 178              		.loc 1 110 0
 179 0002 0400     		movs	r4, r0
 180              		.loc 1 112 0
 181              		.syntax divided
 182              	@ 112 "../../os/kernel/src/chcond.c" 1
 183 0004 72B6     		cpsid   i
 184              	@ 0 "" 2
 185              	.LVL12:
 186              		.thumb
 187              		.syntax unified
 188              	.LBB22:
 189              	.LBB23:
 190              		.loc 1 138 0
 191 0006 0225     		movs	r5, #2
 192              		.loc 1 137 0
 193 0008 0068     		ldr	r0, [r0]
 194              	.LVL13:
 195              		.loc 1 138 0
 196 000a 6D42     		rsbs	r5, r5, #0
 197              		.loc 1 137 0
 198 000c A042     		cmp	r0, r4
 199 000e 08D0     		beq	.L10
 200              	.L11:
 201              	.LVL14:
 202              	.LBB24:
 203              	.LBB25:
 204              		.loc 2 62 0
 205 0010 0368     		ldr	r3, [r0]
 206 0012 2360     		str	r3, [r4]
 207 0014 5C60     		str	r4, [r3, #4]
 208              	.LVL15:
 209              	.LBE25:
 210              	.LBE24:
 211              		.loc 1 138 0
 212 0016 FFF7FEFF 		bl	chSchReadyI
 213              	.LVL16:
 214 001a 4562     		str	r5, [r0, #36]
 215              		.loc 1 137 0
 216 001c 2068     		ldr	r0, [r4]
 217 001e A042     		cmp	r0, r4
 218 0020 F6D1     		bne	.L11
 219              	.L10:
 220              	.LVL17:
 221              	.LBE23:
 222              	.LBE22:
 223              		.loc 1 114 0
 224 0022 FFF7FEFF 		bl	chSchRescheduleS
 225              	.LVL18:
 226              		.loc 1 115 0
 227              		.syntax divided
 228              	@ 115 "../../os/kernel/src/chcond.c" 1
ARM GAS  /tmp/ccgYhxk1.s 			page 5


 229 0026 62B6     		cpsie   i
 230              	@ 0 "" 2
 231              		.loc 1 116 0
 232              		.thumb
 233              		.syntax unified
 234              		@ sp needed
 235              	.LVL19:
 236 0028 70BD     		pop	{r4, r5, r6, pc}
 237              		.cfi_endproc
 238              	.LFE10:
 239              		.size	chCondBroadcast, .-chCondBroadcast
 240 002a C046     		.section	.text.chCondBroadcastI,"ax",%progbits
 241              		.align	2
 242              		.p2align 4,,15
 243              		.global	chCondBroadcastI
 244              		.code	16
 245              		.thumb_func
 246              		.type	chCondBroadcastI, %function
 247              	chCondBroadcastI:
 248              	.LFB11:
 249              		.loc 1 129 0
 250              		.cfi_startproc
 251              		@ args = 0, pretend = 0, frame = 0
 252              		@ frame_needed = 0, uses_anonymous_args = 0
 253              	.LVL20:
 254 0000 70B5     		push	{r4, r5, r6, lr}
 255              		.cfi_def_cfa_offset 16
 256              		.cfi_offset 4, -16
 257              		.cfi_offset 5, -12
 258              		.cfi_offset 6, -8
 259              		.cfi_offset 14, -4
 260              		.loc 1 129 0
 261 0002 0400     		movs	r4, r0
 262              		.loc 1 137 0
 263 0004 0068     		ldr	r0, [r0]
 264              	.LVL21:
 265 0006 A042     		cmp	r0, r4
 266 0008 0AD0     		beq	.L14
 267              		.loc 1 138 0
 268 000a 0225     		movs	r5, #2
 269 000c 6D42     		rsbs	r5, r5, #0
 270              	.L18:
 271              	.LVL22:
 272              	.LBB26:
 273              	.LBB27:
 274              		.loc 2 62 0
 275 000e 0368     		ldr	r3, [r0]
 276 0010 2360     		str	r3, [r4]
 277 0012 5C60     		str	r4, [r3, #4]
 278              	.LVL23:
 279              	.LBE27:
 280              	.LBE26:
 281              		.loc 1 138 0
 282 0014 FFF7FEFF 		bl	chSchReadyI
 283              	.LVL24:
 284 0018 4562     		str	r5, [r0, #36]
 285              		.loc 1 137 0
ARM GAS  /tmp/ccgYhxk1.s 			page 6


 286 001a 2068     		ldr	r0, [r4]
 287 001c A042     		cmp	r0, r4
 288 001e F6D1     		bne	.L18
 289              	.L14:
 290              		.loc 1 139 0
 291              		@ sp needed
 292              	.LVL25:
 293 0020 70BD     		pop	{r4, r5, r6, pc}
 294              		.cfi_endproc
 295              	.LFE11:
 296              		.size	chCondBroadcastI, .-chCondBroadcastI
 297 0022 C046     		.section	.text.chCondWaitS,"ax",%progbits
 298              		.align	2
 299              		.p2align 4,,15
 300              		.global	chCondWaitS
 301              		.code	16
 302              		.thumb_func
 303              		.type	chCondWaitS, %function
 304              	chCondWaitS:
 305              	.LFB13:
 306              		.loc 1 184 0
 307              		.cfi_startproc
 308              		@ args = 0, pretend = 0, frame = 0
 309              		@ frame_needed = 0, uses_anonymous_args = 0
 310              	.LVL26:
 311              		.loc 1 185 0
 312 0000 0F4B     		ldr	r3, .L27
 313              		.loc 1 184 0
 314 0002 70B5     		push	{r4, r5, r6, lr}
 315              		.cfi_def_cfa_offset 16
 316              		.cfi_offset 4, -16
 317              		.cfi_offset 5, -12
 318              		.cfi_offset 6, -8
 319              		.cfi_offset 14, -4
 320              		.loc 1 184 0
 321 0004 0500     		movs	r5, r0
 322              		.loc 1 185 0
 323 0006 9C69     		ldr	r4, [r3, #24]
 324              	.LVL27:
 325              		.loc 1 195 0
 326 0008 FFF7FEFF 		bl	chMtxUnlockS
 327              	.LVL28:
 328              		.loc 1 196 0
 329 000c 6562     		str	r5, [r4, #36]
 330              		.loc 1 195 0
 331 000e 0600     		movs	r6, r0
 332              	.LVL29:
 333              	.LBB28:
 334              	.LBB29:
 335              		.loc 2 43 0
 336 0010 2B00     		movs	r3, r5
 337 0012 03E0     		b	.L22
 338              	.LVL30:
 339              	.L26:
 340              		.loc 2 46 0
 341 0014 9A68     		ldr	r2, [r3, #8]
 342 0016 A168     		ldr	r1, [r4, #8]
ARM GAS  /tmp/ccgYhxk1.s 			page 7


 343 0018 8A42     		cmp	r2, r1
 344 001a 02D3     		bcc	.L23
 345              	.L22:
 346              		.loc 2 45 0
 347 001c 1B68     		ldr	r3, [r3]
 348              	.LVL31:
 349              		.loc 2 46 0
 350 001e 9D42     		cmp	r5, r3
 351 0020 F8D1     		bne	.L26
 352              	.L23:
 353              		.loc 2 48 0
 354 0022 5A68     		ldr	r2, [r3, #4]
 355              		.loc 2 47 0
 356 0024 2360     		str	r3, [r4]
 357              		.loc 2 48 0
 358 0026 6260     		str	r2, [r4, #4]
 359              	.LBE29:
 360              	.LBE28:
 361              		.loc 1 198 0
 362 0028 0520     		movs	r0, #5
 363              	.LVL32:
 364              	.LBB31:
 365              	.LBB30:
 366              		.loc 2 49 0
 367 002a 5C60     		str	r4, [r3, #4]
 368 002c 1460     		str	r4, [r2]
 369              	.LVL33:
 370              	.LBE30:
 371              	.LBE31:
 372              		.loc 1 198 0
 373 002e FFF7FEFF 		bl	chSchGoSleepS
 374              	.LVL34:
 375              		.loc 1 199 0
 376 0032 646A     		ldr	r4, [r4, #36]
 377              	.LVL35:
 378              		.loc 1 200 0
 379 0034 3000     		movs	r0, r6
 380 0036 FFF7FEFF 		bl	chMtxLockS
 381              	.LVL36:
 382              		.loc 1 202 0
 383              		@ sp needed
 384 003a 2000     		movs	r0, r4
 385              	.LVL37:
 386              	.LVL38:
 387              	.LVL39:
 388 003c 70BD     		pop	{r4, r5, r6, pc}
 389              	.L28:
 390 003e C046     		.align	2
 391              	.L27:
 392 0040 00000000 		.word	rlist
 393              		.cfi_endproc
 394              	.LFE13:
 395              		.size	chCondWaitS, .-chCondWaitS
 396              		.section	.text.chCondWait,"ax",%progbits
 397              		.align	2
 398              		.p2align 4,,15
 399              		.global	chCondWait
ARM GAS  /tmp/ccgYhxk1.s 			page 8


 400              		.code	16
 401              		.thumb_func
 402              		.type	chCondWait, %function
 403              	chCondWait:
 404              	.LFB12:
 405              		.loc 1 158 0
 406              		.cfi_startproc
 407              		@ args = 0, pretend = 0, frame = 0
 408              		@ frame_needed = 0, uses_anonymous_args = 0
 409              	.LVL40:
 410 0000 10B5     		push	{r4, lr}
 411              		.cfi_def_cfa_offset 8
 412              		.cfi_offset 4, -8
 413              		.cfi_offset 14, -4
 414              		.loc 1 161 0
 415              		.syntax divided
 416              	@ 161 "../../os/kernel/src/chcond.c" 1
 417 0002 72B6     		cpsid   i
 418              	@ 0 "" 2
 419              		.loc 1 162 0
 420              		.thumb
 421              		.syntax unified
 422 0004 FFF7FEFF 		bl	chCondWaitS
 423              	.LVL41:
 424              		.loc 1 163 0
 425              		.syntax divided
 426              	@ 163 "../../os/kernel/src/chcond.c" 1
 427 0008 62B6     		cpsie   i
 428              	@ 0 "" 2
 429              		.loc 1 165 0
 430              		.thumb
 431              		.syntax unified
 432              		@ sp needed
 433 000a 10BD     		pop	{r4, pc}
 434              		.cfi_endproc
 435              	.LFE12:
 436              		.size	chCondWait, .-chCondWait
 437              		.section	.text.chCondWaitTimeoutS,"ax",%progbits
 438              		.align	2
 439              		.p2align 4,,15
 440              		.global	chCondWaitTimeoutS
 441              		.code	16
 442              		.thumb_func
 443              		.type	chCondWaitTimeoutS, %function
 444              	chCondWaitTimeoutS:
 445              	.LFB15:
 446              		.loc 1 270 0
 447              		.cfi_startproc
 448              		@ args = 0, pretend = 0, frame = 0
 449              		@ frame_needed = 0, uses_anonymous_args = 0
 450              	.LVL42:
 451 0000 70B5     		push	{r4, r5, r6, lr}
 452              		.cfi_def_cfa_offset 16
 453              		.cfi_offset 4, -16
 454              		.cfi_offset 5, -12
 455              		.cfi_offset 6, -8
 456              		.cfi_offset 14, -4
ARM GAS  /tmp/ccgYhxk1.s 			page 9


 457              		.loc 1 270 0
 458 0002 0400     		movs	r4, r0
 459 0004 0D00     		movs	r5, r1
 460              		.loc 1 280 0
 461 0006 FFF7FEFF 		bl	chMtxUnlockS
 462              	.LVL43:
 463              		.loc 1 281 0
 464 000a 0F4B     		ldr	r3, .L37
 465              		.loc 1 280 0
 466 000c 0600     		movs	r6, r0
 467              	.LVL44:
 468              		.loc 1 281 0
 469 000e 9A69     		ldr	r2, [r3, #24]
 470              	.LBB32:
 471              	.LBB33:
 472              		.loc 2 43 0
 473 0010 2300     		movs	r3, r4
 474              	.LBE33:
 475              	.LBE32:
 476              		.loc 1 281 0
 477 0012 5462     		str	r4, [r2, #36]
 478              	.LVL45:
 479 0014 03E0     		b	.L34
 480              	.LVL46:
 481              	.L31:
 482              	.LBB36:
 483              	.LBB34:
 484              		.loc 2 46 0
 485 0016 9968     		ldr	r1, [r3, #8]
 486 0018 9068     		ldr	r0, [r2, #8]
 487 001a 8142     		cmp	r1, r0
 488 001c 02D3     		bcc	.L35
 489              	.L34:
 490              		.loc 2 45 0
 491 001e 1B68     		ldr	r3, [r3]
 492              	.LVL47:
 493              		.loc 2 46 0
 494 0020 9C42     		cmp	r4, r3
 495 0022 F8D1     		bne	.L31
 496              	.L35:
 497              		.loc 2 48 0
 498 0024 5968     		ldr	r1, [r3, #4]
 499              		.loc 2 47 0
 500 0026 1360     		str	r3, [r2]
 501              		.loc 2 48 0
 502 0028 5160     		str	r1, [r2, #4]
 503              	.LBE34:
 504              	.LBE36:
 505              		.loc 1 283 0
 506 002a 0520     		movs	r0, #5
 507              	.LBB37:
 508              	.LBB35:
 509              		.loc 2 49 0
 510 002c 5A60     		str	r2, [r3, #4]
 511 002e 0A60     		str	r2, [r1]
 512              	.LVL48:
 513              	.LBE35:
ARM GAS  /tmp/ccgYhxk1.s 			page 10


 514              	.LBE37:
 515              		.loc 1 283 0
 516 0030 2900     		movs	r1, r5
 517 0032 FFF7FEFF 		bl	chSchGoSleepTimeoutS
 518              	.LVL49:
 519 0036 0400     		movs	r4, r0
 520              	.LVL50:
 521              		.loc 1 284 0
 522 0038 431C     		adds	r3, r0, #1
 523 003a 02D0     		beq	.L33
 524              		.loc 1 285 0
 525 003c 3000     		movs	r0, r6
 526              	.LVL51:
 527 003e FFF7FEFF 		bl	chMtxLockS
 528              	.LVL52:
 529              	.L33:
 530              		.loc 1 287 0
 531 0042 2000     		movs	r0, r4
 532              		@ sp needed
 533              	.LVL53:
 534              	.LVL54:
 535              	.LVL55:
 536 0044 70BD     		pop	{r4, r5, r6, pc}
 537              	.L38:
 538 0046 C046     		.align	2
 539              	.L37:
 540 0048 00000000 		.word	rlist
 541              		.cfi_endproc
 542              	.LFE15:
 543              		.size	chCondWaitTimeoutS, .-chCondWaitTimeoutS
 544              		.section	.text.chCondWaitTimeout,"ax",%progbits
 545              		.align	2
 546              		.p2align 4,,15
 547              		.global	chCondWaitTimeout
 548              		.code	16
 549              		.thumb_func
 550              		.type	chCondWaitTimeout, %function
 551              	chCondWaitTimeout:
 552              	.LFB14:
 553              		.loc 1 233 0
 554              		.cfi_startproc
 555              		@ args = 0, pretend = 0, frame = 0
 556              		@ frame_needed = 0, uses_anonymous_args = 0
 557              	.LVL56:
 558 0000 10B5     		push	{r4, lr}
 559              		.cfi_def_cfa_offset 8
 560              		.cfi_offset 4, -8
 561              		.cfi_offset 14, -4
 562              		.loc 1 236 0
 563              		.syntax divided
 564              	@ 236 "../../os/kernel/src/chcond.c" 1
 565 0002 72B6     		cpsid   i
 566              	@ 0 "" 2
 567              		.loc 1 237 0
 568              		.thumb
 569              		.syntax unified
 570 0004 FFF7FEFF 		bl	chCondWaitTimeoutS
ARM GAS  /tmp/ccgYhxk1.s 			page 11


 571              	.LVL57:
 572              		.loc 1 238 0
 573              		.syntax divided
 574              	@ 238 "../../os/kernel/src/chcond.c" 1
 575 0008 62B6     		cpsie   i
 576              	@ 0 "" 2
 577              		.loc 1 240 0
 578              		.thumb
 579              		.syntax unified
 580              		@ sp needed
 581 000a 10BD     		pop	{r4, pc}
 582              		.cfi_endproc
 583              	.LFE14:
 584              		.size	chCondWaitTimeout, .-chCondWaitTimeout
 585              		.text
 586              	.Letext0:
 587              		.file 3 "/home/lithium/Descargas/gcc-arm-none-eabi-5_3-2016q1/arm-none-eabi/include/machine/_defau
 588              		.file 4 "/home/lithium/Descargas/gcc-arm-none-eabi-5_3-2016q1/arm-none-eabi/include/sys/_stdint.h"
 589              		.file 5 "../../os/ports/GCC/ARMCMx/chtypes.h"
 590              		.file 6 "../../os/kernel/include/chlists.h"
 591              		.file 7 "../../os/kernel/include/chthreads.h"
 592              		.file 8 "../../os/ports/GCC/ARMCMx/chcore_v6m.h"
 593              		.file 9 "../../os/kernel/include/chschd.h"
 594              		.file 10 "../../os/kernel/include/chmtx.h"
 595              		.file 11 "../../os/kernel/include/chcond.h"