ARM GAS  /tmp/cczamFke.s 			page 1


   1              		.syntax unified
   2              		.cpu cortex-m0
   3              		.fpu softvfp
   4              		.eabi_attribute 20, 1
   5              		.eabi_attribute 21, 1
   6              		.eabi_attribute 23, 3
   7              		.eabi_attribute 24, 1
   8              		.eabi_attribute 25, 1
   9              		.eabi_attribute 26, 1
  10              		.eabi_attribute 30, 2
  11              		.eabi_attribute 34, 0
  12              		.eabi_attribute 18, 4
  13              		.thumb
  14              		.syntax unified
  15              		.file	"chdynamic.c"
  16              		.text
  17              	.Ltext0:
  18              		.cfi_sections	.debug_frame
  19              		.section	.text.chThdAddRef,"ax",%progbits
  20              		.align	2
  21              		.p2align 4,,15
  22              		.global	chThdAddRef
  23              		.code	16
  24              		.thumb_func
  25              		.type	chThdAddRef, %function
  26              	chThdAddRef:
  27              	.LFB7:
  28              		.file 1 "../../os/kernel/src/chdynamic.c"
  29              		.loc 1 52 0
  30              		.cfi_startproc
  31              		@ args = 0, pretend = 0, frame = 0
  32              		@ frame_needed = 0, uses_anonymous_args = 0
  33              		@ link register save eliminated.
  34              	.LVL0:
  35              		.loc 1 54 0
  36              		.syntax divided
  37              	@ 54 "../../os/kernel/src/chdynamic.c" 1
  38 0000 72B6     		cpsid   i
  39              	@ 0 "" 2
  40              		.loc 1 56 0
  41              		.thumb
  42              		.syntax unified
  43 0002 837F     		ldrb	r3, [r0, #30]
  44 0004 0133     		adds	r3, r3, #1
  45 0006 8377     		strb	r3, [r0, #30]
  46              		.loc 1 57 0
  47              		.syntax divided
  48              	@ 57 "../../os/kernel/src/chdynamic.c" 1
  49 0008 62B6     		cpsie   i
  50              	@ 0 "" 2
  51              		.loc 1 59 0
  52              		.thumb
  53              		.syntax unified
  54              		@ sp needed
  55 000a 7047     		bx	lr
  56              		.cfi_endproc
  57              	.LFE7:
ARM GAS  /tmp/cczamFke.s 			page 2


  58              		.size	chThdAddRef, .-chThdAddRef
  59              		.section	.text.chThdRelease,"ax",%progbits
  60              		.align	2
  61              		.p2align 4,,15
  62              		.global	chThdRelease
  63              		.code	16
  64              		.thumb_func
  65              		.type	chThdRelease, %function
  66              	chThdRelease:
  67              	.LFB8:
  68              		.loc 1 74 0
  69              		.cfi_startproc
  70              		@ args = 0, pretend = 0, frame = 0
  71              		@ frame_needed = 0, uses_anonymous_args = 0
  72              	.LVL1:
  73 0000 10B5     		push	{r4, lr}
  74              		.cfi_def_cfa_offset 8
  75              		.cfi_offset 4, -8
  76              		.cfi_offset 14, -4
  77              		.loc 1 77 0
  78              		.syntax divided
  79              	@ 77 "../../os/kernel/src/chdynamic.c" 1
  80 0002 72B6     		cpsid   i
  81              	@ 0 "" 2
  82              		.loc 1 79 0
  83              		.thumb
  84              		.syntax unified
  85 0004 837F     		ldrb	r3, [r0, #30]
  86 0006 013B     		subs	r3, r3, #1
  87 0008 DBB2     		uxtb	r3, r3
  88 000a 8377     		strb	r3, [r0, #30]
  89              	.LVL2:
  90              		.loc 1 80 0
  91              		.syntax divided
  92              	@ 80 "../../os/kernel/src/chdynamic.c" 1
  93 000c 62B6     		cpsie   i
  94              	@ 0 "" 2
  95              		.loc 1 85 0
  96              		.thumb
  97              		.syntax unified
  98 000e 002B     		cmp	r3, #0
  99 0010 02D1     		bne	.L2
 100              		.loc 1 85 0 is_stmt 0 discriminator 1
 101 0012 037F     		ldrb	r3, [r0, #28]
 102              	.LVL3:
 103 0014 0E2B     		cmp	r3, #14
 104 0016 00D0     		beq	.L7
 105              	.LVL4:
 106              	.L2:
 107              		.loc 1 105 0 is_stmt 1
 108              		@ sp needed
 109 0018 10BD     		pop	{r4, pc}
 110              	.LVL5:
 111              	.L7:
 112              		.loc 1 86 0
 113 001a 0322     		movs	r2, #3
 114 001c 437F     		ldrb	r3, [r0, #29]
ARM GAS  /tmp/cczamFke.s 			page 3


 115 001e 1340     		ands	r3, r2
 116 0020 012B     		cmp	r3, #1
 117 0022 0CD0     		beq	.L4
 118 0024 022B     		cmp	r3, #2
 119 0026 F7D1     		bne	.L2
 120              		.loc 1 98 0
 121 0028 4369     		ldr	r3, [r0, #20]
 122 002a 0269     		ldr	r2, [r0, #16]
 123              		.loc 1 100 0
 124 002c 0100     		movs	r1, r0
 125              		.loc 1 98 0
 126 002e 1A61     		str	r2, [r3, #16]
 127              	.LVL6:
 128 0030 0269     		ldr	r2, [r0, #16]
 129 0032 5361     		str	r3, [r2, #20]
 130              		.loc 1 100 0
 131 0034 436C     		ldr	r3, [r0, #68]
 132 0036 1800     		movs	r0, r3
 133              	.LVL7:
 134 0038 FFF7FEFF 		bl	chPoolFree
 135              	.LVL8:
 136              		.loc 1 105 0
 137 003c ECE7     		b	.L2
 138              	.LVL9:
 139              	.L4:
 140              		.loc 1 90 0
 141 003e 0269     		ldr	r2, [r0, #16]
 142 0040 4369     		ldr	r3, [r0, #20]
 143 0042 1A61     		str	r2, [r3, #16]
 144              	.LVL10:
 145 0044 0269     		ldr	r2, [r0, #16]
 146 0046 5361     		str	r3, [r2, #20]
 147              		.loc 1 92 0
 148 0048 FFF7FEFF 		bl	chHeapFree
 149              	.LVL11:
 150              		.loc 1 93 0
 151 004c E4E7     		b	.L2
 152              		.cfi_endproc
 153              	.LFE8:
 154              		.size	chThdRelease, .-chThdRelease
 155 004e C046     		.section	.text.chThdCreateFromHeap,"ax",%progbits
 156              		.align	2
 157              		.p2align 4,,15
 158              		.global	chThdCreateFromHeap
 159              		.code	16
 160              		.thumb_func
 161              		.type	chThdCreateFromHeap, %function
 162              	chThdCreateFromHeap:
 163              	.LFB9:
 164              		.loc 1 131 0
 165              		.cfi_startproc
 166              		@ args = 4, pretend = 0, frame = 0
 167              		@ frame_needed = 0, uses_anonymous_args = 0
 168              	.LVL12:
 169 0000 70B5     		push	{r4, r5, r6, lr}
 170              		.cfi_def_cfa_offset 16
 171              		.cfi_offset 4, -16
ARM GAS  /tmp/cczamFke.s 			page 4


 172              		.cfi_offset 5, -12
 173              		.cfi_offset 6, -8
 174              		.cfi_offset 14, -4
 175 0002 82B0     		sub	sp, sp, #8
 176              		.cfi_def_cfa_offset 24
 177              		.loc 1 131 0
 178 0004 0C00     		movs	r4, r1
 179 0006 1500     		movs	r5, r2
 180 0008 1E00     		movs	r6, r3
 181              		.loc 1 135 0
 182 000a FFF7FEFF 		bl	chHeapAlloc
 183              	.LVL13:
 184              		.loc 1 136 0
 185 000e 0028     		cmp	r0, #0
 186 0010 11D0     		beq	.L10
 187              		.loc 1 148 0
 188              		.syntax divided
 189              	@ 148 "../../os/kernel/src/chdynamic.c" 1
 190 0012 72B6     		cpsid   i
 191              	@ 0 "" 2
 192              		.loc 1 149 0
 193              		.thumb
 194              		.syntax unified
 195 0014 069B     		ldr	r3, [sp, #24]
 196 0016 2A00     		movs	r2, r5
 197 0018 0093     		str	r3, [sp]
 198 001a 2100     		movs	r1, r4
 199 001c 3300     		movs	r3, r6
 200 001e FFF7FEFF 		bl	chThdCreateI
 201              	.LVL14:
 202              		.loc 1 150 0
 203 0022 0123     		movs	r3, #1
 204              		.loc 1 151 0
 205 0024 0021     		movs	r1, #0
 206              		.loc 1 150 0
 207 0026 4377     		strb	r3, [r0, #29]
 208              		.loc 1 149 0
 209 0028 0400     		movs	r4, r0
 210              	.LVL15:
 211              		.loc 1 151 0
 212 002a FFF7FEFF 		bl	chSchWakeupS
 213              	.LVL16:
 214              		.loc 1 152 0
 215              		.syntax divided
 216              	@ 152 "../../os/kernel/src/chdynamic.c" 1
 217 002e 62B6     		cpsie   i
 218              	@ 0 "" 2
 219              		.loc 1 153 0
 220              		.thumb
 221              		.syntax unified
 222 0030 2000     		movs	r0, r4
 223              	.LVL17:
 224              	.L9:
 225              		.loc 1 154 0
 226 0032 02B0     		add	sp, sp, #8
 227              		@ sp needed
 228              	.LVL18:
ARM GAS  /tmp/cczamFke.s 			page 5


 229              	.LVL19:
 230 0034 70BD     		pop	{r4, r5, r6, pc}
 231              	.LVL20:
 232              	.L10:
 233              		.loc 1 137 0
 234 0036 0020     		movs	r0, #0
 235              	.LVL21:
 236 0038 FBE7     		b	.L9
 237              		.cfi_endproc
 238              	.LFE9:
 239              		.size	chThdCreateFromHeap, .-chThdCreateFromHeap
 240 003a C046     		.section	.text.chThdCreateFromMemoryPool,"ax",%progbits
 241              		.align	2
 242              		.p2align 4,,15
 243              		.global	chThdCreateFromMemoryPool
 244              		.code	16
 245              		.thumb_func
 246              		.type	chThdCreateFromMemoryPool, %function
 247              	chThdCreateFromMemoryPool:
 248              	.LFB10:
 249              		.loc 1 180 0
 250              		.cfi_startproc
 251              		@ args = 0, pretend = 0, frame = 0
 252              		@ frame_needed = 0, uses_anonymous_args = 0
 253              	.LVL22:
 254 0000 F0B5     		push	{r4, r5, r6, r7, lr}
 255              		.cfi_def_cfa_offset 20
 256              		.cfi_offset 4, -20
 257              		.cfi_offset 5, -16
 258              		.cfi_offset 6, -12
 259              		.cfi_offset 7, -8
 260              		.cfi_offset 14, -4
 261 0002 83B0     		sub	sp, sp, #12
 262              		.cfi_def_cfa_offset 32
 263              		.loc 1 180 0
 264 0004 0500     		movs	r5, r0
 265 0006 0C00     		movs	r4, r1
 266 0008 1600     		movs	r6, r2
 267 000a 1F00     		movs	r7, r3
 268              		.loc 1 186 0
 269 000c FFF7FEFF 		bl	chPoolAlloc
 270              	.LVL23:
 271              		.loc 1 187 0
 272 0010 0028     		cmp	r0, #0
 273 0012 11D0     		beq	.L13
 274              		.loc 1 199 0
 275              		.syntax divided
 276              	@ 199 "../../os/kernel/src/chdynamic.c" 1
 277 0014 72B6     		cpsid   i
 278              	@ 0 "" 2
 279              		.loc 1 200 0
 280              		.thumb
 281              		.syntax unified
 282 0016 2200     		movs	r2, r4
 283 0018 3300     		movs	r3, r6
 284 001a 6968     		ldr	r1, [r5, #4]
 285 001c 0097     		str	r7, [sp]
ARM GAS  /tmp/cczamFke.s 			page 6


 286 001e FFF7FEFF 		bl	chThdCreateI
 287              	.LVL24:
 288              		.loc 1 201 0
 289 0022 0223     		movs	r3, #2
 290              		.loc 1 202 0
 291 0024 4564     		str	r5, [r0, #68]
 292              		.loc 1 201 0
 293 0026 4377     		strb	r3, [r0, #29]
 294              		.loc 1 203 0
 295 0028 0021     		movs	r1, #0
 296              		.loc 1 200 0
 297 002a 0400     		movs	r4, r0
 298              	.LVL25:
 299              		.loc 1 203 0
 300 002c FFF7FEFF 		bl	chSchWakeupS
 301              	.LVL26:
 302              		.loc 1 204 0
 303              		.syntax divided
 304              	@ 204 "../../os/kernel/src/chdynamic.c" 1
 305 0030 62B6     		cpsie   i
 306              	@ 0 "" 2
 307              		.loc 1 205 0
 308              		.thumb
 309              		.syntax unified
 310 0032 2000     		movs	r0, r4
 311              	.LVL27:
 312              	.L12:
 313              		.loc 1 206 0
 314 0034 03B0     		add	sp, sp, #12
 315              		@ sp needed
 316              	.LVL28:
 317              	.LVL29:
 318              	.LVL30:
 319 0036 F0BD     		pop	{r4, r5, r6, r7, pc}
 320              	.LVL31:
 321              	.L13:
 322              		.loc 1 188 0
 323 0038 0020     		movs	r0, #0
 324              	.LVL32:
 325 003a FBE7     		b	.L12
 326              		.cfi_endproc
 327              	.LFE10:
 328              		.size	chThdCreateFromMemoryPool, .-chThdCreateFromMemoryPool
 329              		.text
 330              	.Letext0:
 331              		.file 2 "/home/lithium/Descargas/gcc-arm-none-eabi-5_3-2016q1/lib/gcc/arm-none-eabi/5.3.1/include/
 332              		.file 3 "/home/lithium/Descargas/gcc-arm-none-eabi-5_3-2016q1/arm-none-eabi/include/machine/_defau
 333              		.file 4 "/home/lithium/Descargas/gcc-arm-none-eabi-5_3-2016q1/arm-none-eabi/include/sys/_stdint.h"
 334              		.file 5 "../../os/ports/GCC/ARMCMx/chtypes.h"
 335              		.file 6 "../../os/kernel/include/chlists.h"
 336              		.file 7 "../../os/kernel/include/chthreads.h"
 337              		.file 8 "../../os/ports/GCC/ARMCMx/chcore_v6m.h"
 338              		.file 9 "../../os/kernel/include/chmtx.h"
 339              		.file 10 "../../os/kernel/include/chmemcore.h"
 340              		.file 11 "../../os/kernel/include/chheap.h"
 341              		.file 12 "../../os/kernel/include/chmempools.h"
 342              		.file 13 "../../os/kernel/include/chschd.h"
ARM GAS  /tmp/cczamFke.s 			page 7

