ARM GAS  /tmp/ccx90MpO.s 			page 1


   1              		.syntax unified
   2              		.cpu cortex-m0
   3              		.fpu softvfp
   4              		.eabi_attribute 20, 1
   5              		.eabi_attribute 21, 1
   6              		.eabi_attribute 23, 3
   7              		.eabi_attribute 24, 1
   8              		.eabi_attribute 25, 1
   9              		.eabi_attribute 26, 1
  10              		.eabi_attribute 30, 2
  11              		.eabi_attribute 34, 0
  12              		.eabi_attribute 18, 4
  13              		.thumb
  14              		.syntax unified
  15              		.file	"chmboxes.c"
  16              		.text
  17              	.Ltext0:
  18              		.cfi_sections	.debug_frame
  19              		.section	.text.chMBInit,"ax",%progbits
  20              		.align	2
  21              		.p2align 4,,15
  22              		.global	chMBInit
  23              		.code	16
  24              		.thumb_func
  25              		.type	chMBInit, %function
  26              	chMBInit:
  27              	.LFB7:
  28              		.file 1 "../../os/kernel/src/chmboxes.c"
  29              		.loc 1 72 0
  30              		.cfi_startproc
  31              		@ args = 0, pretend = 0, frame = 0
  32              		@ frame_needed = 0, uses_anonymous_args = 0
  33              	.LVL0:
  34 0000 10B5     		push	{r4, lr}
  35              		.cfi_def_cfa_offset 8
  36              		.cfi_offset 4, -8
  37              		.cfi_offset 14, -4
  38              		.loc 1 72 0
  39 0002 0400     		movs	r4, r0
  40              		.loc 1 76 0
  41 0004 C160     		str	r1, [r0, #12]
  42 0006 8160     		str	r1, [r0, #8]
  43 0008 0160     		str	r1, [r0]
  44              		.loc 1 77 0
  45 000a 9000     		lsls	r0, r2, #2
  46              	.LVL1:
  47 000c 0B18     		adds	r3, r1, r0
  48              		.loc 1 78 0
  49 000e 2000     		movs	r0, r4
  50 0010 1100     		movs	r1, r2
  51              	.LVL2:
  52              		.loc 1 77 0
  53 0012 6360     		str	r3, [r4, #4]
  54              		.loc 1 78 0
  55 0014 1C30     		adds	r0, r0, #28
  56 0016 FFF7FEFF 		bl	chSemInit
  57              	.LVL3:
ARM GAS  /tmp/ccx90MpO.s 			page 2


  58              		.loc 1 79 0
  59 001a 2000     		movs	r0, r4
  60 001c 0021     		movs	r1, #0
  61 001e 1030     		adds	r0, r0, #16
  62 0020 FFF7FEFF 		bl	chSemInit
  63              	.LVL4:
  64              		.loc 1 80 0
  65              		@ sp needed
  66              	.LVL5:
  67 0024 10BD     		pop	{r4, pc}
  68              		.cfi_endproc
  69              	.LFE7:
  70              		.size	chMBInit, .-chMBInit
  71 0026 C046     		.section	.text.chMBReset,"ax",%progbits
  72              		.align	2
  73              		.p2align 4,,15
  74              		.global	chMBReset
  75              		.code	16
  76              		.thumb_func
  77              		.type	chMBReset, %function
  78              	chMBReset:
  79              	.LFB8:
  80              		.loc 1 91 0
  81              		.cfi_startproc
  82              		@ args = 0, pretend = 0, frame = 0
  83              		@ frame_needed = 0, uses_anonymous_args = 0
  84              	.LVL6:
  85 0000 10B5     		push	{r4, lr}
  86              		.cfi_def_cfa_offset 8
  87              		.cfi_offset 4, -8
  88              		.cfi_offset 14, -4
  89              		.loc 1 91 0
  90 0002 0400     		movs	r4, r0
  91              		.loc 1 95 0
  92              		.syntax divided
  93              	@ 95 "../../os/kernel/src/chmboxes.c" 1
  94 0004 72B6     		cpsid   i
  95              	@ 0 "" 2
  96              		.loc 1 97 0
  97              		.thumb
  98              		.syntax unified
  99 0006 4368     		ldr	r3, [r0, #4]
 100              		.loc 1 96 0
 101 0008 0168     		ldr	r1, [r0]
 102 000a C160     		str	r1, [r0, #12]
 103 000c 8160     		str	r1, [r0, #8]
 104              		.loc 1 97 0
 105 000e 591A     		subs	r1, r3, r1
 106 0010 8910     		asrs	r1, r1, #2
 107 0012 1C30     		adds	r0, r0, #28
 108              	.LVL7:
 109 0014 FFF7FEFF 		bl	chSemResetI
 110              	.LVL8:
 111              		.loc 1 98 0
 112 0018 2000     		movs	r0, r4
 113 001a 0021     		movs	r1, #0
 114 001c 1030     		adds	r0, r0, #16
ARM GAS  /tmp/ccx90MpO.s 			page 3


 115 001e FFF7FEFF 		bl	chSemResetI
 116              	.LVL9:
 117              		.loc 1 99 0
 118 0022 FFF7FEFF 		bl	chSchRescheduleS
 119              	.LVL10:
 120              		.loc 1 100 0
 121              		.syntax divided
 122              	@ 100 "../../os/kernel/src/chmboxes.c" 1
 123 0026 62B6     		cpsie   i
 124              	@ 0 "" 2
 125              		.loc 1 101 0
 126              		.thumb
 127              		.syntax unified
 128              		@ sp needed
 129              	.LVL11:
 130 0028 10BD     		pop	{r4, pc}
 131              		.cfi_endproc
 132              	.LFE8:
 133              		.size	chMBReset, .-chMBReset
 134 002a C046     		.section	.text.chMBPost,"ax",%progbits
 135              		.align	2
 136              		.p2align 4,,15
 137              		.global	chMBPost
 138              		.code	16
 139              		.thumb_func
 140              		.type	chMBPost, %function
 141              	chMBPost:
 142              	.LFB9:
 143              		.loc 1 122 0
 144              		.cfi_startproc
 145              		@ args = 0, pretend = 0, frame = 0
 146              		@ frame_needed = 0, uses_anonymous_args = 0
 147              	.LVL12:
 148 0000 70B5     		push	{r4, r5, r6, lr}
 149              		.cfi_def_cfa_offset 16
 150              		.cfi_offset 4, -16
 151              		.cfi_offset 5, -12
 152              		.cfi_offset 6, -8
 153              		.cfi_offset 14, -4
 154              		.loc 1 122 0
 155 0002 0400     		movs	r4, r0
 156 0004 0E00     		movs	r6, r1
 157              		.loc 1 125 0
 158              		.syntax divided
 159              	@ 125 "../../os/kernel/src/chmboxes.c" 1
 160 0006 72B6     		cpsid   i
 161              	@ 0 "" 2
 162              	.LVL13:
 163              		.thumb
 164              		.syntax unified
 165              	.LBB12:
 166              	.LBB13:
 167              		.loc 1 156 0
 168 0008 1C30     		adds	r0, r0, #28
 169              	.LVL14:
 170 000a 1100     		movs	r1, r2
 171              	.LVL15:
ARM GAS  /tmp/ccx90MpO.s 			page 4


 172 000c FFF7FEFF 		bl	chSemWaitTimeoutS
 173              	.LVL16:
 174 0010 051E     		subs	r5, r0, #0
 175              	.LVL17:
 176              		.loc 1 157 0
 177 0012 02D0     		beq	.L7
 178              	.LVL18:
 179              	.L4:
 180              	.LBE13:
 181              	.LBE12:
 182              		.loc 1 127 0
 183              		.syntax divided
 184              	@ 127 "../../os/kernel/src/chmboxes.c" 1
 185 0014 62B6     		cpsie   i
 186              	@ 0 "" 2
 187              		.loc 1 129 0
 188              		.thumb
 189              		.syntax unified
 190 0016 2800     		movs	r0, r5
 191              		@ sp needed
 192              	.LVL19:
 193              	.LVL20:
 194 0018 70BD     		pop	{r4, r5, r6, pc}
 195              	.LVL21:
 196              	.L7:
 197              	.LBB17:
 198              	.LBB16:
 199              	.LBB14:
 200              	.LBB15:
 201              		.loc 1 158 0
 202 001a A268     		ldr	r2, [r4, #8]
 203 001c 131D     		adds	r3, r2, #4
 204 001e A360     		str	r3, [r4, #8]
 205 0020 1660     		str	r6, [r2]
 206              		.loc 1 159 0
 207 0022 6268     		ldr	r2, [r4, #4]
 208 0024 9342     		cmp	r3, r2
 209 0026 01D3     		bcc	.L5
 210              		.loc 1 160 0
 211 0028 2368     		ldr	r3, [r4]
 212 002a A360     		str	r3, [r4, #8]
 213              	.L5:
 214              		.loc 1 161 0
 215 002c 2000     		movs	r0, r4
 216              	.LVL22:
 217 002e 1030     		adds	r0, r0, #16
 218 0030 FFF7FEFF 		bl	chSemSignalI
 219              	.LVL23:
 220              		.loc 1 162 0
 221 0034 FFF7FEFF 		bl	chSchRescheduleS
 222              	.LVL24:
 223 0038 ECE7     		b	.L4
 224              	.LBE15:
 225              	.LBE14:
 226              	.LBE16:
 227              	.LBE17:
 228              		.cfi_endproc
ARM GAS  /tmp/ccx90MpO.s 			page 5


 229              	.LFE9:
 230              		.size	chMBPost, .-chMBPost
 231 003a C046     		.section	.text.chMBPostS,"ax",%progbits
 232              		.align	2
 233              		.p2align 4,,15
 234              		.global	chMBPostS
 235              		.code	16
 236              		.thumb_func
 237              		.type	chMBPostS, %function
 238              	chMBPostS:
 239              	.LFB10:
 240              		.loc 1 150 0
 241              		.cfi_startproc
 242              		@ args = 0, pretend = 0, frame = 0
 243              		@ frame_needed = 0, uses_anonymous_args = 0
 244              	.LVL25:
 245 0000 70B5     		push	{r4, r5, r6, lr}
 246              		.cfi_def_cfa_offset 16
 247              		.cfi_offset 4, -16
 248              		.cfi_offset 5, -12
 249              		.cfi_offset 6, -8
 250              		.cfi_offset 14, -4
 251              		.loc 1 150 0
 252 0002 0400     		movs	r4, r0
 253 0004 0E00     		movs	r6, r1
 254              		.loc 1 156 0
 255 0006 1C30     		adds	r0, r0, #28
 256              	.LVL26:
 257 0008 1100     		movs	r1, r2
 258              	.LVL27:
 259 000a FFF7FEFF 		bl	chSemWaitTimeoutS
 260              	.LVL28:
 261 000e 051E     		subs	r5, r0, #0
 262              	.LVL29:
 263              		.loc 1 157 0
 264 0010 0CD1     		bne	.L9
 265              	.LVL30:
 266              	.LBB20:
 267              	.LBB21:
 268              		.loc 1 158 0
 269 0012 A268     		ldr	r2, [r4, #8]
 270 0014 131D     		adds	r3, r2, #4
 271 0016 A360     		str	r3, [r4, #8]
 272 0018 1660     		str	r6, [r2]
 273              		.loc 1 159 0
 274 001a 6268     		ldr	r2, [r4, #4]
 275 001c 9342     		cmp	r3, r2
 276 001e 07D2     		bcs	.L11
 277              	.L10:
 278              		.loc 1 161 0
 279 0020 2000     		movs	r0, r4
 280              	.LVL31:
 281 0022 1030     		adds	r0, r0, #16
 282 0024 FFF7FEFF 		bl	chSemSignalI
 283              	.LVL32:
 284              		.loc 1 162 0
 285 0028 FFF7FEFF 		bl	chSchRescheduleS
ARM GAS  /tmp/ccx90MpO.s 			page 6


 286              	.LVL33:
 287              	.L9:
 288              	.LBE21:
 289              	.LBE20:
 290              		.loc 1 165 0
 291 002c 2800     		movs	r0, r5
 292              		@ sp needed
 293              	.LVL34:
 294              	.LVL35:
 295              	.LVL36:
 296 002e 70BD     		pop	{r4, r5, r6, pc}
 297              	.LVL37:
 298              	.L11:
 299              	.LBB23:
 300              	.LBB22:
 301              		.loc 1 160 0
 302 0030 2368     		ldr	r3, [r4]
 303 0032 A360     		str	r3, [r4, #8]
 304 0034 F4E7     		b	.L10
 305              	.LBE22:
 306              	.LBE23:
 307              		.cfi_endproc
 308              	.LFE10:
 309              		.size	chMBPostS, .-chMBPostS
 310 0036 C046     		.section	.text.chMBPostI,"ax",%progbits
 311              		.align	2
 312              		.p2align 4,,15
 313              		.global	chMBPostI
 314              		.code	16
 315              		.thumb_func
 316              		.type	chMBPostI, %function
 317              	chMBPostI:
 318              	.LFB11:
 319              		.loc 1 181 0
 320              		.cfi_startproc
 321              		@ args = 0, pretend = 0, frame = 0
 322              		@ frame_needed = 0, uses_anonymous_args = 0
 323              	.LVL38:
 324              		.loc 1 186 0
 325 0000 436A     		ldr	r3, [r0, #36]
 326              		.loc 1 181 0
 327 0002 10B5     		push	{r4, lr}
 328              		.cfi_def_cfa_offset 8
 329              		.cfi_offset 4, -8
 330              		.cfi_offset 14, -4
 331              		.loc 1 186 0
 332 0004 002B     		cmp	r3, #0
 333 0006 10DD     		ble	.L15
 334              		.loc 1 189 0
 335 0008 8268     		ldr	r2, [r0, #8]
 336              		.loc 1 188 0
 337 000a 013B     		subs	r3, r3, #1
 338 000c 4362     		str	r3, [r0, #36]
 339              		.loc 1 189 0
 340 000e 131D     		adds	r3, r2, #4
 341 0010 8360     		str	r3, [r0, #8]
 342 0012 1160     		str	r1, [r2]
ARM GAS  /tmp/ccx90MpO.s 			page 7


 343              		.loc 1 190 0
 344 0014 4268     		ldr	r2, [r0, #4]
 345 0016 9342     		cmp	r3, r2
 346 0018 04D2     		bcs	.L16
 347              	.L14:
 348              		.loc 1 192 0
 349 001a 1030     		adds	r0, r0, #16
 350              	.LVL39:
 351 001c FFF7FEFF 		bl	chSemSignalI
 352              	.LVL40:
 353              		.loc 1 193 0
 354 0020 0020     		movs	r0, #0
 355              	.L13:
 356              		.loc 1 194 0
 357              		@ sp needed
 358 0022 10BD     		pop	{r4, pc}
 359              	.LVL41:
 360              	.L16:
 361              		.loc 1 191 0
 362 0024 0368     		ldr	r3, [r0]
 363 0026 8360     		str	r3, [r0, #8]
 364 0028 F7E7     		b	.L14
 365              	.L15:
 366              		.loc 1 187 0
 367 002a 0120     		movs	r0, #1
 368              	.LVL42:
 369 002c 4042     		rsbs	r0, r0, #0
 370 002e F8E7     		b	.L13
 371              		.cfi_endproc
 372              	.LFE11:
 373              		.size	chMBPostI, .-chMBPostI
 374              		.section	.text.chMBPostAhead,"ax",%progbits
 375              		.align	2
 376              		.p2align 4,,15
 377              		.global	chMBPostAhead
 378              		.code	16
 379              		.thumb_func
 380              		.type	chMBPostAhead, %function
 381              	chMBPostAhead:
 382              	.LFB12:
 383              		.loc 1 215 0
 384              		.cfi_startproc
 385              		@ args = 0, pretend = 0, frame = 0
 386              		@ frame_needed = 0, uses_anonymous_args = 0
 387              	.LVL43:
 388 0000 70B5     		push	{r4, r5, r6, lr}
 389              		.cfi_def_cfa_offset 16
 390              		.cfi_offset 4, -16
 391              		.cfi_offset 5, -12
 392              		.cfi_offset 6, -8
 393              		.cfi_offset 14, -4
 394              		.loc 1 215 0
 395 0002 0400     		movs	r4, r0
 396 0004 0E00     		movs	r6, r1
 397              		.loc 1 218 0
 398              		.syntax divided
 399              	@ 218 "../../os/kernel/src/chmboxes.c" 1
ARM GAS  /tmp/ccx90MpO.s 			page 8


 400 0006 72B6     		cpsid   i
 401              	@ 0 "" 2
 402              	.LVL44:
 403              		.thumb
 404              		.syntax unified
 405              	.LBB28:
 406              	.LBB29:
 407              		.loc 1 249 0
 408 0008 1C30     		adds	r0, r0, #28
 409              	.LVL45:
 410 000a 1100     		movs	r1, r2
 411              	.LVL46:
 412 000c FFF7FEFF 		bl	chSemWaitTimeoutS
 413              	.LVL47:
 414 0010 051E     		subs	r5, r0, #0
 415              	.LVL48:
 416              		.loc 1 250 0
 417 0012 02D0     		beq	.L20
 418              	.LVL49:
 419              	.L18:
 420              	.LBE29:
 421              	.LBE28:
 422              		.loc 1 220 0
 423              		.syntax divided
 424              	@ 220 "../../os/kernel/src/chmboxes.c" 1
 425 0014 62B6     		cpsie   i
 426              	@ 0 "" 2
 427              		.loc 1 222 0
 428              		.thumb
 429              		.syntax unified
 430 0016 2800     		movs	r0, r5
 431              		@ sp needed
 432              	.LVL50:
 433              	.LVL51:
 434 0018 70BD     		pop	{r4, r5, r6, pc}
 435              	.LVL52:
 436              	.L20:
 437              	.LBB33:
 438              	.LBB32:
 439              	.LBB30:
 440              	.LBB31:
 441              		.loc 1 251 0
 442 001a E368     		ldr	r3, [r4, #12]
 443 001c 2268     		ldr	r2, [r4]
 444 001e 043B     		subs	r3, r3, #4
 445 0020 E360     		str	r3, [r4, #12]
 446 0022 9342     		cmp	r3, r2
 447 0024 02D2     		bcs	.L19
 448              		.loc 1 252 0
 449 0026 6368     		ldr	r3, [r4, #4]
 450 0028 043B     		subs	r3, r3, #4
 451 002a E360     		str	r3, [r4, #12]
 452              	.L19:
 453              		.loc 1 254 0
 454 002c 2000     		movs	r0, r4
 455              	.LVL53:
 456              		.loc 1 253 0
ARM GAS  /tmp/ccx90MpO.s 			page 9


 457 002e 1E60     		str	r6, [r3]
 458              		.loc 1 254 0
 459 0030 1030     		adds	r0, r0, #16
 460 0032 FFF7FEFF 		bl	chSemSignalI
 461              	.LVL54:
 462              		.loc 1 255 0
 463 0036 FFF7FEFF 		bl	chSchRescheduleS
 464              	.LVL55:
 465 003a EBE7     		b	.L18
 466              	.LBE31:
 467              	.LBE30:
 468              	.LBE32:
 469              	.LBE33:
 470              		.cfi_endproc
 471              	.LFE12:
 472              		.size	chMBPostAhead, .-chMBPostAhead
 473              		.section	.text.chMBPostAheadS,"ax",%progbits
 474              		.align	2
 475              		.p2align 4,,15
 476              		.global	chMBPostAheadS
 477              		.code	16
 478              		.thumb_func
 479              		.type	chMBPostAheadS, %function
 480              	chMBPostAheadS:
 481              	.LFB13:
 482              		.loc 1 243 0
 483              		.cfi_startproc
 484              		@ args = 0, pretend = 0, frame = 0
 485              		@ frame_needed = 0, uses_anonymous_args = 0
 486              	.LVL56:
 487 0000 70B5     		push	{r4, r5, r6, lr}
 488              		.cfi_def_cfa_offset 16
 489              		.cfi_offset 4, -16
 490              		.cfi_offset 5, -12
 491              		.cfi_offset 6, -8
 492              		.cfi_offset 14, -4
 493              		.loc 1 243 0
 494 0002 0400     		movs	r4, r0
 495 0004 0E00     		movs	r6, r1
 496              		.loc 1 249 0
 497 0006 1C30     		adds	r0, r0, #28
 498              	.LVL57:
 499 0008 1100     		movs	r1, r2
 500              	.LVL58:
 501 000a FFF7FEFF 		bl	chSemWaitTimeoutS
 502              	.LVL59:
 503 000e 051E     		subs	r5, r0, #0
 504              	.LVL60:
 505              		.loc 1 250 0
 506 0010 0CD1     		bne	.L22
 507              	.LVL61:
 508              	.LBB36:
 509              	.LBB37:
 510              		.loc 1 251 0
 511 0012 E368     		ldr	r3, [r4, #12]
 512 0014 2268     		ldr	r2, [r4]
 513 0016 043B     		subs	r3, r3, #4
ARM GAS  /tmp/ccx90MpO.s 			page 10


 514 0018 E360     		str	r3, [r4, #12]
 515 001a 9342     		cmp	r3, r2
 516 001c 08D3     		bcc	.L24
 517              	.L23:
 518              		.loc 1 254 0
 519 001e 2000     		movs	r0, r4
 520              	.LVL62:
 521              		.loc 1 253 0
 522 0020 1E60     		str	r6, [r3]
 523              		.loc 1 254 0
 524 0022 1030     		adds	r0, r0, #16
 525 0024 FFF7FEFF 		bl	chSemSignalI
 526              	.LVL63:
 527              		.loc 1 255 0
 528 0028 FFF7FEFF 		bl	chSchRescheduleS
 529              	.LVL64:
 530              	.L22:
 531              	.LBE37:
 532              	.LBE36:
 533              		.loc 1 258 0
 534 002c 2800     		movs	r0, r5
 535              		@ sp needed
 536              	.LVL65:
 537              	.LVL66:
 538              	.LVL67:
 539 002e 70BD     		pop	{r4, r5, r6, pc}
 540              	.LVL68:
 541              	.L24:
 542              	.LBB39:
 543              	.LBB38:
 544              		.loc 1 252 0
 545 0030 6368     		ldr	r3, [r4, #4]
 546 0032 043B     		subs	r3, r3, #4
 547 0034 E360     		str	r3, [r4, #12]
 548 0036 F2E7     		b	.L23
 549              	.LBE38:
 550              	.LBE39:
 551              		.cfi_endproc
 552              	.LFE13:
 553              		.size	chMBPostAheadS, .-chMBPostAheadS
 554              		.section	.text.chMBPostAheadI,"ax",%progbits
 555              		.align	2
 556              		.p2align 4,,15
 557              		.global	chMBPostAheadI
 558              		.code	16
 559              		.thumb_func
 560              		.type	chMBPostAheadI, %function
 561              	chMBPostAheadI:
 562              	.LFB14:
 563              		.loc 1 274 0
 564              		.cfi_startproc
 565              		@ args = 0, pretend = 0, frame = 0
 566              		@ frame_needed = 0, uses_anonymous_args = 0
 567              	.LVL69:
 568              		.loc 1 279 0
 569 0000 436A     		ldr	r3, [r0, #36]
 570              		.loc 1 274 0
ARM GAS  /tmp/ccx90MpO.s 			page 11


 571 0002 10B5     		push	{r4, lr}
 572              		.cfi_def_cfa_offset 8
 573              		.cfi_offset 4, -8
 574              		.cfi_offset 14, -4
 575              		.loc 1 279 0
 576 0004 002B     		cmp	r3, #0
 577 0006 11DD     		ble	.L28
 578              		.loc 1 281 0
 579 0008 013B     		subs	r3, r3, #1
 580 000a 4362     		str	r3, [r0, #36]
 581              		.loc 1 282 0
 582 000c C368     		ldr	r3, [r0, #12]
 583 000e 0268     		ldr	r2, [r0]
 584 0010 043B     		subs	r3, r3, #4
 585 0012 C360     		str	r3, [r0, #12]
 586 0014 9342     		cmp	r3, r2
 587 0016 05D3     		bcc	.L29
 588              	.L27:
 589              		.loc 1 285 0
 590 0018 1030     		adds	r0, r0, #16
 591              	.LVL70:
 592              		.loc 1 284 0
 593 001a 1960     		str	r1, [r3]
 594              		.loc 1 285 0
 595 001c FFF7FEFF 		bl	chSemSignalI
 596              	.LVL71:
 597              		.loc 1 286 0
 598 0020 0020     		movs	r0, #0
 599              	.L26:
 600              		.loc 1 287 0
 601              		@ sp needed
 602 0022 10BD     		pop	{r4, pc}
 603              	.LVL72:
 604              	.L29:
 605              		.loc 1 283 0
 606 0024 4368     		ldr	r3, [r0, #4]
 607 0026 043B     		subs	r3, r3, #4
 608 0028 C360     		str	r3, [r0, #12]
 609 002a F5E7     		b	.L27
 610              	.L28:
 611              		.loc 1 280 0
 612 002c 0120     		movs	r0, #1
 613              	.LVL73:
 614 002e 4042     		rsbs	r0, r0, #0
 615 0030 F7E7     		b	.L26
 616              		.cfi_endproc
 617              	.LFE14:
 618              		.size	chMBPostAheadI, .-chMBPostAheadI
 619 0032 C046     		.section	.text.chMBFetch,"ax",%progbits
 620              		.align	2
 621              		.p2align 4,,15
 622              		.global	chMBFetch
 623              		.code	16
 624              		.thumb_func
 625              		.type	chMBFetch, %function
 626              	chMBFetch:
 627              	.LFB15:
ARM GAS  /tmp/ccx90MpO.s 			page 12


 628              		.loc 1 308 0
 629              		.cfi_startproc
 630              		@ args = 0, pretend = 0, frame = 0
 631              		@ frame_needed = 0, uses_anonymous_args = 0
 632              	.LVL74:
 633 0000 70B5     		push	{r4, r5, r6, lr}
 634              		.cfi_def_cfa_offset 16
 635              		.cfi_offset 4, -16
 636              		.cfi_offset 5, -12
 637              		.cfi_offset 6, -8
 638              		.cfi_offset 14, -4
 639              		.loc 1 308 0
 640 0002 0400     		movs	r4, r0
 641 0004 0E00     		movs	r6, r1
 642              		.loc 1 311 0
 643              		.syntax divided
 644              	@ 311 "../../os/kernel/src/chmboxes.c" 1
 645 0006 72B6     		cpsid   i
 646              	@ 0 "" 2
 647              	.LVL75:
 648              		.thumb
 649              		.syntax unified
 650              	.LBB44:
 651              	.LBB45:
 652              		.loc 1 342 0
 653 0008 1030     		adds	r0, r0, #16
 654              	.LVL76:
 655 000a 1100     		movs	r1, r2
 656              	.LVL77:
 657 000c FFF7FEFF 		bl	chSemWaitTimeoutS
 658              	.LVL78:
 659 0010 051E     		subs	r5, r0, #0
 660              	.LVL79:
 661              		.loc 1 343 0
 662 0012 02D0     		beq	.L33
 663              	.LVL80:
 664              	.L31:
 665              	.LBE45:
 666              	.LBE44:
 667              		.loc 1 313 0
 668              		.syntax divided
 669              	@ 313 "../../os/kernel/src/chmboxes.c" 1
 670 0014 62B6     		cpsie   i
 671              	@ 0 "" 2
 672              		.loc 1 315 0
 673              		.thumb
 674              		.syntax unified
 675 0016 2800     		movs	r0, r5
 676              		@ sp needed
 677              	.LVL81:
 678              	.LVL82:
 679 0018 70BD     		pop	{r4, r5, r6, pc}
 680              	.LVL83:
 681              	.L33:
 682              	.LBB49:
 683              	.LBB48:
 684              	.LBB46:
ARM GAS  /tmp/ccx90MpO.s 			page 13


 685              	.LBB47:
 686              		.loc 1 344 0
 687 001a E268     		ldr	r2, [r4, #12]
 688 001c 131D     		adds	r3, r2, #4
 689 001e 1268     		ldr	r2, [r2]
 690 0020 E360     		str	r3, [r4, #12]
 691 0022 3260     		str	r2, [r6]
 692              		.loc 1 345 0
 693 0024 6268     		ldr	r2, [r4, #4]
 694 0026 9342     		cmp	r3, r2
 695 0028 01D3     		bcc	.L32
 696              		.loc 1 346 0
 697 002a 2368     		ldr	r3, [r4]
 698 002c E360     		str	r3, [r4, #12]
 699              	.L32:
 700              		.loc 1 347 0
 701 002e 2000     		movs	r0, r4
 702              	.LVL84:
 703 0030 1C30     		adds	r0, r0, #28
 704 0032 FFF7FEFF 		bl	chSemSignalI
 705              	.LVL85:
 706              		.loc 1 348 0
 707 0036 FFF7FEFF 		bl	chSchRescheduleS
 708              	.LVL86:
 709 003a EBE7     		b	.L31
 710              	.LBE47:
 711              	.LBE46:
 712              	.LBE48:
 713              	.LBE49:
 714              		.cfi_endproc
 715              	.LFE15:
 716              		.size	chMBFetch, .-chMBFetch
 717              		.section	.text.chMBFetchS,"ax",%progbits
 718              		.align	2
 719              		.p2align 4,,15
 720              		.global	chMBFetchS
 721              		.code	16
 722              		.thumb_func
 723              		.type	chMBFetchS, %function
 724              	chMBFetchS:
 725              	.LFB16:
 726              		.loc 1 336 0
 727              		.cfi_startproc
 728              		@ args = 0, pretend = 0, frame = 0
 729              		@ frame_needed = 0, uses_anonymous_args = 0
 730              	.LVL87:
 731 0000 70B5     		push	{r4, r5, r6, lr}
 732              		.cfi_def_cfa_offset 16
 733              		.cfi_offset 4, -16
 734              		.cfi_offset 5, -12
 735              		.cfi_offset 6, -8
 736              		.cfi_offset 14, -4
 737              		.loc 1 336 0
 738 0002 0400     		movs	r4, r0
 739 0004 0E00     		movs	r6, r1
 740              		.loc 1 342 0
 741 0006 1030     		adds	r0, r0, #16
ARM GAS  /tmp/ccx90MpO.s 			page 14


 742              	.LVL88:
 743 0008 1100     		movs	r1, r2
 744              	.LVL89:
 745 000a FFF7FEFF 		bl	chSemWaitTimeoutS
 746              	.LVL90:
 747 000e 051E     		subs	r5, r0, #0
 748              	.LVL91:
 749              		.loc 1 343 0
 750 0010 0DD1     		bne	.L35
 751              	.LVL92:
 752              	.LBB52:
 753              	.LBB53:
 754              		.loc 1 344 0
 755 0012 E268     		ldr	r2, [r4, #12]
 756 0014 131D     		adds	r3, r2, #4
 757 0016 1268     		ldr	r2, [r2]
 758 0018 E360     		str	r3, [r4, #12]
 759 001a 3260     		str	r2, [r6]
 760              		.loc 1 345 0
 761 001c 6268     		ldr	r2, [r4, #4]
 762 001e 9342     		cmp	r3, r2
 763 0020 07D2     		bcs	.L37
 764              	.L36:
 765              		.loc 1 347 0
 766 0022 2000     		movs	r0, r4
 767              	.LVL93:
 768 0024 1C30     		adds	r0, r0, #28
 769 0026 FFF7FEFF 		bl	chSemSignalI
 770              	.LVL94:
 771              		.loc 1 348 0
 772 002a FFF7FEFF 		bl	chSchRescheduleS
 773              	.LVL95:
 774              	.L35:
 775              	.LBE53:
 776              	.LBE52:
 777              		.loc 1 351 0
 778 002e 2800     		movs	r0, r5
 779              		@ sp needed
 780              	.LVL96:
 781              	.LVL97:
 782              	.LVL98:
 783 0030 70BD     		pop	{r4, r5, r6, pc}
 784              	.LVL99:
 785              	.L37:
 786              	.LBB55:
 787              	.LBB54:
 788              		.loc 1 346 0
 789 0032 2368     		ldr	r3, [r4]
 790 0034 E360     		str	r3, [r4, #12]
 791 0036 F4E7     		b	.L36
 792              	.LBE54:
 793              	.LBE55:
 794              		.cfi_endproc
 795              	.LFE16:
 796              		.size	chMBFetchS, .-chMBFetchS
 797              		.section	.text.chMBFetchI,"ax",%progbits
 798              		.align	2
ARM GAS  /tmp/ccx90MpO.s 			page 15


 799              		.p2align 4,,15
 800              		.global	chMBFetchI
 801              		.code	16
 802              		.thumb_func
 803              		.type	chMBFetchI, %function
 804              	chMBFetchI:
 805              	.LFB17:
 806              		.loc 1 367 0
 807              		.cfi_startproc
 808              		@ args = 0, pretend = 0, frame = 0
 809              		@ frame_needed = 0, uses_anonymous_args = 0
 810              	.LVL100:
 811              		.loc 1 372 0
 812 0000 8369     		ldr	r3, [r0, #24]
 813              		.loc 1 367 0
 814 0002 10B5     		push	{r4, lr}
 815              		.cfi_def_cfa_offset 8
 816              		.cfi_offset 4, -8
 817              		.cfi_offset 14, -4
 818              		.loc 1 372 0
 819 0004 002B     		cmp	r3, #0
 820 0006 11DD     		ble	.L41
 821              		.loc 1 375 0
 822 0008 C268     		ldr	r2, [r0, #12]
 823              		.loc 1 374 0
 824 000a 013B     		subs	r3, r3, #1
 825 000c 8361     		str	r3, [r0, #24]
 826              		.loc 1 375 0
 827 000e 131D     		adds	r3, r2, #4
 828 0010 1268     		ldr	r2, [r2]
 829 0012 C360     		str	r3, [r0, #12]
 830 0014 0A60     		str	r2, [r1]
 831              		.loc 1 376 0
 832 0016 4268     		ldr	r2, [r0, #4]
 833 0018 9342     		cmp	r3, r2
 834 001a 04D2     		bcs	.L42
 835              	.L40:
 836              		.loc 1 378 0
 837 001c 1C30     		adds	r0, r0, #28
 838              	.LVL101:
 839 001e FFF7FEFF 		bl	chSemSignalI
 840              	.LVL102:
 841              		.loc 1 379 0
 842 0022 0020     		movs	r0, #0
 843              	.L39:
 844              		.loc 1 380 0
 845              		@ sp needed
 846 0024 10BD     		pop	{r4, pc}
 847              	.LVL103:
 848              	.L42:
 849              		.loc 1 377 0
 850 0026 0368     		ldr	r3, [r0]
 851 0028 C360     		str	r3, [r0, #12]
 852 002a F7E7     		b	.L40
 853              	.L41:
 854              		.loc 1 373 0
 855 002c 0120     		movs	r0, #1
ARM GAS  /tmp/ccx90MpO.s 			page 16


 856              	.LVL104:
 857 002e 4042     		rsbs	r0, r0, #0
 858 0030 F8E7     		b	.L39
 859              		.cfi_endproc
 860              	.LFE17:
 861              		.size	chMBFetchI, .-chMBFetchI
 862 0032 C046     		.text
 863              	.Letext0:
 864              		.file 2 "/home/lithium/Descargas/gcc-arm-none-eabi-5_3-2016q1/arm-none-eabi/include/machine/_defau
 865              		.file 3 "/home/lithium/Descargas/gcc-arm-none-eabi-5_3-2016q1/arm-none-eabi/include/sys/_stdint.h"
 866              		.file 4 "../../os/ports/GCC/ARMCMx/chtypes.h"
 867              		.file 5 "../../os/kernel/include/chlists.h"
 868              		.file 6 "../../os/kernel/include/chthreads.h"
 869              		.file 7 "../../os/ports/GCC/ARMCMx/chcore_v6m.h"
 870              		.file 8 "../../os/kernel/include/chsem.h"
 871              		.file 9 "../../os/kernel/include/chmtx.h"
 872              		.file 10 "../../os/kernel/include/chmboxes.h"
 873              		.file 11 "../../os/kernel/include/chschd.h"
 874              		.section	.debug_info,"",%progbits
 875              	.Ldebug_info0:
 876 0000 AB0B0000 		.4byte	0xbab
 877 0004 0400     		.2byte	0x4
 878 0006 00000000 		.4byte	.Ldebug_abbrev0
 879 000a 04       		.byte	0x4
 880 000b 01       		.uleb128 0x1
 881 000c 7F030000 		.4byte	.LASF89
 882 0010 0C       		.byte	0xc
 883 0011 F4000000 		.4byte	.LASF90
 884 0015 DA010000 		.4byte	.LASF91
 885 0019 90000000 		.4byte	.Ldebug_ranges0+0x90
 886 001d 00000000 		.4byte	0
 887 0021 00000000 		.4byte	.Ldebug_line0
 888 0025 02       		.uleb128 0x2
 889 0026 04       		.byte	0x4
 890 0027 05       		.byte	0x5
 891 0028 696E7400 		.ascii	"int\000"
 892 002c 03       		.uleb128 0x3
 893 002d 04       		.byte	0x4
 894 002e 07       		.byte	0x7
 895 002f 3E010000 		.4byte	.LASF0
 896 0033 03       		.uleb128 0x3
 897 0034 08       		.byte	0x8
 898 0035 05       		.byte	0x5
 899 0036 97000000 		.4byte	.LASF1
 900 003a 03       		.uleb128 0x3
 901 003b 08       		.byte	0x8
 902 003c 04       		.byte	0x4
 903 003d 28020000 		.4byte	.LASF2
 904 0041 03       		.uleb128 0x3
 905 0042 01       		.byte	0x1
 906 0043 06       		.byte	0x6
 907 0044 A5000000 		.4byte	.LASF3
 908 0048 04       		.uleb128 0x4
 909 0049 23000000 		.4byte	.LASF7
 910 004d 02       		.byte	0x2
 911 004e 1D       		.byte	0x1d
 912 004f 53000000 		.4byte	0x53
ARM GAS  /tmp/ccx90MpO.s 			page 17


 913 0053 03       		.uleb128 0x3
 914 0054 01       		.byte	0x1
 915 0055 08       		.byte	0x8
 916 0056 87020000 		.4byte	.LASF4
 917 005a 03       		.uleb128 0x3
 918 005b 02       		.byte	0x2
 919 005c 05       		.byte	0x5
 920 005d A6020000 		.4byte	.LASF5
 921 0061 03       		.uleb128 0x3
 922 0062 02       		.byte	0x2
 923 0063 07       		.byte	0x7
 924 0064 80010000 		.4byte	.LASF6
 925 0068 04       		.uleb128 0x4
 926 0069 2F030000 		.4byte	.LASF8
 927 006d 02       		.byte	0x2
 928 006e 3F       		.byte	0x3f
 929 006f 73000000 		.4byte	0x73
 930 0073 03       		.uleb128 0x3
 931 0074 04       		.byte	0x4
 932 0075 05       		.byte	0x5
 933 0076 CB000000 		.4byte	.LASF9
 934 007a 04       		.uleb128 0x4
 935 007b 24010000 		.4byte	.LASF10
 936 007f 02       		.byte	0x2
 937 0080 41       		.byte	0x41
 938 0081 85000000 		.4byte	0x85
 939 0085 03       		.uleb128 0x3
 940 0086 04       		.byte	0x4
 941 0087 07       		.byte	0x7
 942 0088 54010000 		.4byte	.LASF11
 943 008c 03       		.uleb128 0x3
 944 008d 08       		.byte	0x8
 945 008e 07       		.byte	0x7
 946 008f 58000000 		.4byte	.LASF12
 947 0093 04       		.uleb128 0x4
 948 0094 65040000 		.4byte	.LASF13
 949 0098 03       		.byte	0x3
 950 0099 14       		.byte	0x14
 951 009a 48000000 		.4byte	0x48
 952 009e 04       		.uleb128 0x4
 953 009f 7F020000 		.4byte	.LASF14
 954 00a3 03       		.byte	0x3
 955 00a4 1F       		.byte	0x1f
 956 00a5 68000000 		.4byte	0x68
 957 00a9 04       		.uleb128 0x4
 958 00aa F3020000 		.4byte	.LASF15
 959 00ae 03       		.byte	0x3
 960 00af 20       		.byte	0x20
 961 00b0 7A000000 		.4byte	0x7a
 962 00b4 03       		.uleb128 0x3
 963 00b5 01       		.byte	0x1
 964 00b6 02       		.byte	0x2
 965 00b7 79020000 		.4byte	.LASF16
 966 00bb 04       		.uleb128 0x4
 967 00bc AF010000 		.4byte	.LASF17
 968 00c0 04       		.byte	0x4
 969 00c1 2C       		.byte	0x2c
ARM GAS  /tmp/ccx90MpO.s 			page 18


 970 00c2 93000000 		.4byte	0x93
 971 00c6 04       		.uleb128 0x4
 972 00c7 D4000000 		.4byte	.LASF18
 973 00cb 04       		.byte	0x4
 974 00cc 2D       		.byte	0x2d
 975 00cd 93000000 		.4byte	0x93
 976 00d1 04       		.uleb128 0x4
 977 00d2 62020000 		.4byte	.LASF19
 978 00d6 04       		.byte	0x4
 979 00d7 2E       		.byte	0x2e
 980 00d8 93000000 		.4byte	0x93
 981 00dc 04       		.uleb128 0x4
 982 00dd C1000000 		.4byte	.LASF20
 983 00e1 04       		.byte	0x4
 984 00e2 2F       		.byte	0x2f
 985 00e3 93000000 		.4byte	0x93
 986 00e7 04       		.uleb128 0x4
 987 00e8 71020000 		.4byte	.LASF21
 988 00ec 04       		.byte	0x4
 989 00ed 30       		.byte	0x30
 990 00ee A9000000 		.4byte	0xa9
 991 00f2 04       		.uleb128 0x4
 992 00f3 9E010000 		.4byte	.LASF22
 993 00f7 04       		.byte	0x4
 994 00f8 31       		.byte	0x31
 995 00f9 9E000000 		.4byte	0x9e
 996 00fd 04       		.uleb128 0x4
 997 00fe C3010000 		.4byte	.LASF23
 998 0102 04       		.byte	0x4
 999 0103 33       		.byte	0x33
 1000 0104 A9000000 		.4byte	0xa9
 1001 0108 04       		.uleb128 0x4
 1002 0109 1A030000 		.4byte	.LASF24
 1003 010d 04       		.byte	0x4
 1004 010e 35       		.byte	0x35
 1005 010f A9000000 		.4byte	0xa9
 1006 0113 04       		.uleb128 0x4
 1007 0114 38010000 		.4byte	.LASF25
 1008 0118 04       		.byte	0x4
 1009 0119 36       		.byte	0x36
 1010 011a 9E000000 		.4byte	0x9e
 1011 011e 04       		.uleb128 0x4
 1012 011f E1020000 		.4byte	.LASF26
 1013 0123 05       		.byte	0x5
 1014 0124 2A       		.byte	0x2a
 1015 0125 29010000 		.4byte	0x129
 1016 0129 05       		.uleb128 0x5
 1017 012a E1020000 		.4byte	.LASF26
 1018 012e 48       		.byte	0x48
 1019 012f 06       		.byte	0x6
 1020 0130 5E       		.byte	0x5e
 1021 0131 26020000 		.4byte	0x226
 1022 0135 06       		.uleb128 0x6
 1023 0136 C9020000 		.4byte	.LASF27
 1024 013a 06       		.byte	0x6
 1025 013b 5F       		.byte	0x5f
 1026 013c 47020000 		.4byte	0x247
ARM GAS  /tmp/ccx90MpO.s 			page 19


 1027 0140 00       		.byte	0
 1028 0141 06       		.uleb128 0x6
 1029 0142 6A020000 		.4byte	.LASF28
 1030 0146 06       		.byte	0x6
 1031 0147 61       		.byte	0x61
 1032 0148 47020000 		.4byte	0x247
 1033 014c 04       		.byte	0x4
 1034 014d 06       		.uleb128 0x6
 1035 014e 90000000 		.4byte	.LASF29
 1036 0152 06       		.byte	0x6
 1037 0153 63       		.byte	0x63
 1038 0154 E7000000 		.4byte	0xe7
 1039 0158 08       		.byte	0x8
 1040 0159 06       		.uleb128 0x6
 1041 015a 83040000 		.4byte	.LASF30
 1042 015e 06       		.byte	0x6
 1043 015f 64       		.byte	0x64
 1044 0160 F7020000 		.4byte	0x2f7
 1045 0164 0C       		.byte	0xc
 1046 0165 06       		.uleb128 0x6
 1047 0166 E4000000 		.4byte	.LASF31
 1048 016a 06       		.byte	0x6
 1049 016b 66       		.byte	0x66
 1050 016c 47020000 		.4byte	0x247
 1051 0170 10       		.byte	0x10
 1052 0171 06       		.uleb128 0x6
 1053 0172 3E020000 		.4byte	.LASF32
 1054 0176 06       		.byte	0x6
 1055 0177 67       		.byte	0x67
 1056 0178 47020000 		.4byte	0x247
 1057 017c 14       		.byte	0x14
 1058 017d 06       		.uleb128 0x6
 1059 017e 74040000 		.4byte	.LASF33
 1060 0182 06       		.byte	0x6
 1061 0183 6E       		.byte	0x6e
 1062 0184 2B040000 		.4byte	0x42b
 1063 0188 18       		.byte	0x18
 1064 0189 06       		.uleb128 0x6
 1065 018a B0020000 		.4byte	.LASF34
 1066 018e 06       		.byte	0x6
 1067 018f 79       		.byte	0x79
 1068 0190 C6000000 		.4byte	0xc6
 1069 0194 1C       		.byte	0x1c
 1070 0195 06       		.uleb128 0x6
 1071 0196 D0020000 		.4byte	.LASF35
 1072 019a 06       		.byte	0x6
 1073 019b 7D       		.byte	0x7d
 1074 019c BB000000 		.4byte	0xbb
 1075 01a0 1D       		.byte	0x1d
 1076 01a1 06       		.uleb128 0x6
 1077 01a2 DD000000 		.4byte	.LASF36
 1078 01a6 06       		.byte	0x6
 1079 01a7 82       		.byte	0x82
 1080 01a8 D1000000 		.4byte	0xd1
 1081 01ac 1E       		.byte	0x1e
 1082 01ad 06       		.uleb128 0x6
 1083 01ae B8020000 		.4byte	.LASF37
ARM GAS  /tmp/ccx90MpO.s 			page 20


 1084 01b2 06       		.byte	0x6
 1085 01b3 88       		.byte	0x88
 1086 01b4 DC000000 		.4byte	0xdc
 1087 01b8 1F       		.byte	0x1f
 1088 01b9 06       		.uleb128 0x6
 1089 01ba 39030000 		.4byte	.LASF38
 1090 01be 06       		.byte	0x6
 1091 01bf 8F       		.byte	0x8f
 1092 01c0 1D030000 		.4byte	0x31d
 1093 01c4 20       		.byte	0x20
 1094 01c5 07       		.uleb128 0x7
 1095 01c6 705F7500 		.ascii	"p_u\000"
 1096 01ca 06       		.byte	0x6
 1097 01cb B4       		.byte	0xb4
 1098 01cc F6030000 		.4byte	0x3f6
 1099 01d0 24       		.byte	0x24
 1100 01d1 06       		.uleb128 0x6
 1101 01d2 89040000 		.4byte	.LASF39
 1102 01d6 06       		.byte	0x6
 1103 01d7 B9       		.byte	0xb9
 1104 01d8 6D020000 		.4byte	0x26d
 1105 01dc 28       		.byte	0x28
 1106 01dd 06       		.uleb128 0x6
 1107 01de 55030000 		.4byte	.LASF40
 1108 01e2 06       		.byte	0x6
 1109 01e3 BF       		.byte	0xbf
 1110 01e4 4D020000 		.4byte	0x24d
 1111 01e8 2C       		.byte	0x2c
 1112 01e9 06       		.uleb128 0x6
 1113 01ea 00000000 		.4byte	.LASF41
 1114 01ee 06       		.byte	0x6
 1115 01ef C3       		.byte	0xc3
 1116 01f0 F2000000 		.4byte	0xf2
 1117 01f4 34       		.byte	0x34
 1118 01f5 06       		.uleb128 0x6
 1119 01f6 E8020000 		.4byte	.LASF42
 1120 01fa 06       		.byte	0x6
 1121 01fb C9       		.byte	0xc9
 1122 01fc FD000000 		.4byte	0xfd
 1123 0200 38       		.byte	0x38
 1124 0201 06       		.uleb128 0x6
 1125 0202 9C020000 		.4byte	.LASF43
 1126 0206 06       		.byte	0x6
 1127 0207 D0       		.byte	0xd0
 1128 0208 3D040000 		.4byte	0x43d
 1129 020c 3C       		.byte	0x3c
 1130 020d 06       		.uleb128 0x6
 1131 020e 24030000 		.4byte	.LASF44
 1132 0212 06       		.byte	0x6
 1133 0213 D4       		.byte	0xd4
 1134 0214 E7000000 		.4byte	0xe7
 1135 0218 40       		.byte	0x40
 1136 0219 06       		.uleb128 0x6
 1137 021a B1000000 		.4byte	.LASF45
 1138 021e 06       		.byte	0x6
 1139 021f DA       		.byte	0xda
 1140 0220 83020000 		.4byte	0x283
ARM GAS  /tmp/ccx90MpO.s 			page 21


 1141 0224 44       		.byte	0x44
 1142 0225 00       		.byte	0
 1143 0226 08       		.uleb128 0x8
 1144 0227 08       		.byte	0x8
 1145 0228 05       		.byte	0x5
 1146 0229 61       		.byte	0x61
 1147 022a 47020000 		.4byte	0x247
 1148 022e 06       		.uleb128 0x6
 1149 022f C9020000 		.4byte	.LASF27
 1150 0233 05       		.byte	0x5
 1151 0234 62       		.byte	0x62
 1152 0235 47020000 		.4byte	0x247
 1153 0239 00       		.byte	0
 1154 023a 06       		.uleb128 0x6
 1155 023b 6A020000 		.4byte	.LASF28
 1156 023f 05       		.byte	0x5
 1157 0240 64       		.byte	0x64
 1158 0241 47020000 		.4byte	0x247
 1159 0245 04       		.byte	0x4
 1160 0246 00       		.byte	0
 1161 0247 09       		.uleb128 0x9
 1162 0248 04       		.byte	0x4
 1163 0249 1E010000 		.4byte	0x11e
 1164 024d 04       		.uleb128 0x4
 1165 024e 46020000 		.4byte	.LASF46
 1166 0252 05       		.byte	0x5
 1167 0253 66       		.byte	0x66
 1168 0254 26020000 		.4byte	0x226
 1169 0258 08       		.uleb128 0x8
 1170 0259 04       		.byte	0x4
 1171 025a 05       		.byte	0x5
 1172 025b 6B       		.byte	0x6b
 1173 025c 6D020000 		.4byte	0x26d
 1174 0260 06       		.uleb128 0x6
 1175 0261 C9020000 		.4byte	.LASF27
 1176 0265 05       		.byte	0x5
 1177 0266 6D       		.byte	0x6d
 1178 0267 47020000 		.4byte	0x247
 1179 026b 00       		.byte	0
 1180 026c 00       		.byte	0
 1181 026d 04       		.uleb128 0x4
 1182 026e B7010000 		.4byte	.LASF47
 1183 0272 05       		.byte	0x5
 1184 0273 70       		.byte	0x70
 1185 0274 58020000 		.4byte	0x258
 1186 0278 04       		.uleb128 0x4
 1187 0279 2F010000 		.4byte	.LASF48
 1188 027d 07       		.byte	0x7
 1189 027e A7       		.byte	0xa7
 1190 027f 83020000 		.4byte	0x283
 1191 0283 0A       		.uleb128 0xa
 1192 0284 04       		.byte	0x4
 1193 0285 05       		.uleb128 0x5
 1194 0286 4E030000 		.4byte	.LASF49
 1195 028a 24       		.byte	0x24
 1196 028b 07       		.byte	0x7
 1197 028c BA       		.byte	0xba
ARM GAS  /tmp/ccx90MpO.s 			page 22


 1198 028d F7020000 		.4byte	0x2f7
 1199 0291 07       		.uleb128 0x7
 1200 0292 723800   		.ascii	"r8\000"
 1201 0295 07       		.byte	0x7
 1202 0296 BB       		.byte	0xbb
 1203 0297 78020000 		.4byte	0x278
 1204 029b 00       		.byte	0
 1205 029c 07       		.uleb128 0x7
 1206 029d 723900   		.ascii	"r9\000"
 1207 02a0 07       		.byte	0x7
 1208 02a1 BC       		.byte	0xbc
 1209 02a2 78020000 		.4byte	0x278
 1210 02a6 04       		.byte	0x4
 1211 02a7 07       		.uleb128 0x7
 1212 02a8 72313000 		.ascii	"r10\000"
 1213 02ac 07       		.byte	0x7
 1214 02ad BD       		.byte	0xbd
 1215 02ae 78020000 		.4byte	0x278
 1216 02b2 08       		.byte	0x8
 1217 02b3 07       		.uleb128 0x7
 1218 02b4 72313100 		.ascii	"r11\000"
 1219 02b8 07       		.byte	0x7
 1220 02b9 BE       		.byte	0xbe
 1221 02ba 78020000 		.4byte	0x278
 1222 02be 0C       		.byte	0xc
 1223 02bf 07       		.uleb128 0x7
 1224 02c0 723400   		.ascii	"r4\000"
 1225 02c3 07       		.byte	0x7
 1226 02c4 BF       		.byte	0xbf
 1227 02c5 78020000 		.4byte	0x278
 1228 02c9 10       		.byte	0x10
 1229 02ca 07       		.uleb128 0x7
 1230 02cb 723500   		.ascii	"r5\000"
 1231 02ce 07       		.byte	0x7
 1232 02cf C0       		.byte	0xc0
 1233 02d0 78020000 		.4byte	0x278
 1234 02d4 14       		.byte	0x14
 1235 02d5 07       		.uleb128 0x7
 1236 02d6 723600   		.ascii	"r6\000"
 1237 02d9 07       		.byte	0x7
 1238 02da C1       		.byte	0xc1
 1239 02db 78020000 		.4byte	0x278
 1240 02df 18       		.byte	0x18
 1241 02e0 07       		.uleb128 0x7
 1242 02e1 723700   		.ascii	"r7\000"
 1243 02e4 07       		.byte	0x7
 1244 02e5 C2       		.byte	0xc2
 1245 02e6 78020000 		.4byte	0x278
 1246 02ea 1C       		.byte	0x1c
 1247 02eb 07       		.uleb128 0x7
 1248 02ec 6C7200   		.ascii	"lr\000"
 1249 02ef 07       		.byte	0x7
 1250 02f0 C3       		.byte	0xc3
 1251 02f1 78020000 		.4byte	0x278
 1252 02f5 20       		.byte	0x20
 1253 02f6 00       		.byte	0
 1254 02f7 05       		.uleb128 0x5
ARM GAS  /tmp/ccx90MpO.s 			page 23


 1255 02f8 78010000 		.4byte	.LASF50
 1256 02fc 04       		.byte	0x4
 1257 02fd 07       		.byte	0x7
 1258 02fe CD       		.byte	0xcd
 1259 02ff 10030000 		.4byte	0x310
 1260 0303 07       		.uleb128 0x7
 1261 0304 72313300 		.ascii	"r13\000"
 1262 0308 07       		.byte	0x7
 1263 0309 CE       		.byte	0xce
 1264 030a 10030000 		.4byte	0x310
 1265 030e 00       		.byte	0
 1266 030f 00       		.byte	0
 1267 0310 09       		.uleb128 0x9
 1268 0311 04       		.byte	0x4
 1269 0312 85020000 		.4byte	0x285
 1270 0316 03       		.uleb128 0x3
 1271 0317 04       		.byte	0x4
 1272 0318 07       		.byte	0x7
 1273 0319 1F020000 		.4byte	.LASF51
 1274 031d 0B       		.uleb128 0xb
 1275 031e 08010000 		.4byte	0x108
 1276 0322 05       		.uleb128 0x5
 1277 0323 6A030000 		.4byte	.LASF52
 1278 0327 0C       		.byte	0xc
 1279 0328 08       		.byte	0x8
 1280 0329 2C       		.byte	0x2c
 1281 032a 47030000 		.4byte	0x347
 1282 032e 06       		.uleb128 0x6
 1283 032f EC000000 		.4byte	.LASF53
 1284 0333 08       		.byte	0x8
 1285 0334 2D       		.byte	0x2d
 1286 0335 4D020000 		.4byte	0x24d
 1287 0339 00       		.byte	0
 1288 033a 06       		.uleb128 0x6
 1289 033b 72010000 		.4byte	.LASF54
 1290 033f 08       		.byte	0x8
 1291 0340 2F       		.byte	0x2f
 1292 0341 13010000 		.4byte	0x113
 1293 0345 08       		.byte	0x8
 1294 0346 00       		.byte	0
 1295 0347 04       		.uleb128 0x4
 1296 0348 6A030000 		.4byte	.LASF52
 1297 034c 08       		.byte	0x8
 1298 034d 30       		.byte	0x30
 1299 034e 22030000 		.4byte	0x322
 1300 0352 05       		.uleb128 0x5
 1301 0353 CF010000 		.4byte	.LASF55
 1302 0357 10       		.byte	0x10
 1303 0358 09       		.byte	0x9
 1304 0359 2C       		.byte	0x2c
 1305 035a 83030000 		.4byte	0x383
 1306 035e 06       		.uleb128 0x6
 1307 035f B9000000 		.4byte	.LASF56
 1308 0363 09       		.byte	0x9
 1309 0364 2D       		.byte	0x2d
 1310 0365 4D020000 		.4byte	0x24d
 1311 0369 00       		.byte	0
ARM GAS  /tmp/ccx90MpO.s 			page 24


 1312 036a 06       		.uleb128 0x6
 1313 036b 7B040000 		.4byte	.LASF57
 1314 036f 09       		.byte	0x9
 1315 0370 2F       		.byte	0x2f
 1316 0371 47020000 		.4byte	0x247
 1317 0375 08       		.byte	0x8
 1318 0376 06       		.uleb128 0x6
 1319 0377 13030000 		.4byte	.LASF58
 1320 037b 09       		.byte	0x9
 1321 037c 31       		.byte	0x31
 1322 037d 83030000 		.4byte	0x383
 1323 0381 0C       		.byte	0xc
 1324 0382 00       		.byte	0
 1325 0383 09       		.uleb128 0x9
 1326 0384 04       		.byte	0x4
 1327 0385 52030000 		.4byte	0x352
 1328 0389 04       		.uleb128 0x4
 1329 038a CF010000 		.4byte	.LASF55
 1330 038e 09       		.byte	0x9
 1331 038f 33       		.byte	0x33
 1332 0390 52030000 		.4byte	0x352
 1333 0394 08       		.uleb128 0x8
 1334 0395 28       		.byte	0x28
 1335 0396 0A       		.byte	0xa
 1336 0397 33       		.byte	0x33
 1337 0398 E5030000 		.4byte	0x3e5
 1338 039c 06       		.uleb128 0x6
 1339 039d 53020000 		.4byte	.LASF59
 1340 03a1 0A       		.byte	0xa
 1341 03a2 34       		.byte	0x34
 1342 03a3 E5030000 		.4byte	0x3e5
 1343 03a7 00       		.byte	0
 1344 03a8 06       		.uleb128 0x6
 1345 03a9 95020000 		.4byte	.LASF60
 1346 03ad 0A       		.byte	0xa
 1347 03ae 36       		.byte	0x36
 1348 03af E5030000 		.4byte	0x3e5
 1349 03b3 04       		.byte	0x4
 1350 03b4 06       		.uleb128 0x6
 1351 03b5 87000000 		.4byte	.LASF61
 1352 03b9 0A       		.byte	0xa
 1353 03ba 38       		.byte	0x38
 1354 03bb E5030000 		.4byte	0x3e5
 1355 03bf 08       		.byte	0x8
 1356 03c0 06       		.uleb128 0x6
 1357 03c1 1A000000 		.4byte	.LASF62
 1358 03c5 0A       		.byte	0xa
 1359 03c6 39       		.byte	0x39
 1360 03c7 E5030000 		.4byte	0x3e5
 1361 03cb 0C       		.byte	0xc
 1362 03cc 06       		.uleb128 0x6
 1363 03cd 74030000 		.4byte	.LASF63
 1364 03d1 0A       		.byte	0xa
 1365 03d2 3A       		.byte	0x3a
 1366 03d3 47030000 		.4byte	0x347
 1367 03d7 10       		.byte	0x10
 1368 03d8 06       		.uleb128 0x6
ARM GAS  /tmp/ccx90MpO.s 			page 25


 1369 03d9 66010000 		.4byte	.LASF64
 1370 03dd 0A       		.byte	0xa
 1371 03de 3C       		.byte	0x3c
 1372 03df 47030000 		.4byte	0x347
 1373 03e3 1C       		.byte	0x1c
 1374 03e4 00       		.byte	0
 1375 03e5 09       		.uleb128 0x9
 1376 03e6 04       		.byte	0x4
 1377 03e7 F2000000 		.4byte	0xf2
 1378 03eb 04       		.uleb128 0x4
 1379 03ec 41000000 		.4byte	.LASF65
 1380 03f0 0A       		.byte	0xa
 1381 03f1 3E       		.byte	0x3e
 1382 03f2 94030000 		.4byte	0x394
 1383 03f6 0C       		.uleb128 0xc
 1384 03f7 04       		.byte	0x4
 1385 03f8 06       		.byte	0x6
 1386 03f9 96       		.byte	0x96
 1387 03fa 2B040000 		.4byte	0x42b
 1388 03fe 0D       		.uleb128 0xd
 1389 03ff 13000000 		.4byte	.LASF66
 1390 0403 06       		.byte	0x6
 1391 0404 9D       		.byte	0x9d
 1392 0405 F2000000 		.4byte	0xf2
 1393 0409 0D       		.uleb128 0xd
 1394 040a 6F000000 		.4byte	.LASF67
 1395 040e 06       		.byte	0x6
 1396 040f A4       		.byte	0xa4
 1397 0410 F2000000 		.4byte	0xf2
 1398 0414 0D       		.uleb128 0xd
 1399 0415 6D040000 		.4byte	.LASF68
 1400 0419 06       		.byte	0x6
 1401 041a AB       		.byte	0xab
 1402 041b 83020000 		.4byte	0x283
 1403 041f 0D       		.uleb128 0xd
 1404 0420 C2020000 		.4byte	.LASF69
 1405 0424 06       		.byte	0x6
 1406 0425 B2       		.byte	0xb2
 1407 0426 FD000000 		.4byte	0xfd
 1408 042a 00       		.byte	0
 1409 042b 09       		.uleb128 0x9
 1410 042c 04       		.byte	0x4
 1411 042d 38040000 		.4byte	0x438
 1412 0431 03       		.uleb128 0x3
 1413 0432 01       		.byte	0x1
 1414 0433 08       		.byte	0x8
 1415 0434 FC020000 		.4byte	.LASF70
 1416 0438 0E       		.uleb128 0xe
 1417 0439 31040000 		.4byte	0x431
 1418 043d 09       		.uleb128 0x9
 1419 043e 04       		.byte	0x4
 1420 043f 89030000 		.4byte	0x389
 1421 0443 0F       		.uleb128 0xf
 1422 0444 37000000 		.4byte	.LASF72
 1423 0448 01       		.byte	0x1
 1424 0449 96       		.byte	0x96
 1425 044a F2000000 		.4byte	0xf2
ARM GAS  /tmp/ccx90MpO.s 			page 26


 1426 044e 01       		.byte	0x1
 1427 044f 80040000 		.4byte	0x480
 1428 0453 10       		.uleb128 0x10
 1429 0454 6D627000 		.ascii	"mbp\000"
 1430 0458 01       		.byte	0x1
 1431 0459 96       		.byte	0x96
 1432 045a 80040000 		.4byte	0x480
 1433 045e 10       		.uleb128 0x10
 1434 045f 6D736700 		.ascii	"msg\000"
 1435 0463 01       		.byte	0x1
 1436 0464 96       		.byte	0x96
 1437 0465 F2000000 		.4byte	0xf2
 1438 0469 11       		.uleb128 0x11
 1439 046a 5D020000 		.4byte	.LASF71
 1440 046e 01       		.byte	0x1
 1441 046f 96       		.byte	0x96
 1442 0470 08010000 		.4byte	0x108
 1443 0474 12       		.uleb128 0x12
 1444 0475 13000000 		.4byte	.LASF66
 1445 0479 01       		.byte	0x1
 1446 047a 97       		.byte	0x97
 1447 047b F2000000 		.4byte	0xf2
 1448 047f 00       		.byte	0
 1449 0480 09       		.uleb128 0x9
 1450 0481 04       		.byte	0x4
 1451 0482 EB030000 		.4byte	0x3eb
 1452 0486 0F       		.uleb128 0xf
 1453 0487 78000000 		.4byte	.LASF73
 1454 048b 01       		.byte	0x1
 1455 048c F3       		.byte	0xf3
 1456 048d F2000000 		.4byte	0xf2
 1457 0491 01       		.byte	0x1
 1458 0492 C3040000 		.4byte	0x4c3
 1459 0496 10       		.uleb128 0x10
 1460 0497 6D627000 		.ascii	"mbp\000"
 1461 049b 01       		.byte	0x1
 1462 049c F3       		.byte	0xf3
 1463 049d 80040000 		.4byte	0x480
 1464 04a1 10       		.uleb128 0x10
 1465 04a2 6D736700 		.ascii	"msg\000"
 1466 04a6 01       		.byte	0x1
 1467 04a7 F3       		.byte	0xf3
 1468 04a8 F2000000 		.4byte	0xf2
 1469 04ac 11       		.uleb128 0x11
 1470 04ad 5D020000 		.4byte	.LASF71
 1471 04b1 01       		.byte	0x1
 1472 04b2 F3       		.byte	0xf3
 1473 04b3 08010000 		.4byte	0x108
 1474 04b7 12       		.uleb128 0x12
 1475 04b8 13000000 		.4byte	.LASF66
 1476 04bc 01       		.byte	0x1
 1477 04bd F4       		.byte	0xf4
 1478 04be F2000000 		.4byte	0xf2
 1479 04c2 00       		.byte	0
 1480 04c3 13       		.uleb128 0x13
 1481 04c4 A4010000 		.4byte	.LASF74
 1482 04c8 01       		.byte	0x1
ARM GAS  /tmp/ccx90MpO.s 			page 27


 1483 04c9 5001     		.2byte	0x150
 1484 04cb F2000000 		.4byte	0xf2
 1485 04cf 01       		.byte	0x1
 1486 04d0 05050000 		.4byte	0x505
 1487 04d4 14       		.uleb128 0x14
 1488 04d5 6D627000 		.ascii	"mbp\000"
 1489 04d9 01       		.byte	0x1
 1490 04da 5001     		.2byte	0x150
 1491 04dc 80040000 		.4byte	0x480
 1492 04e0 15       		.uleb128 0x15
 1493 04e1 D5010000 		.4byte	.LASF75
 1494 04e5 01       		.byte	0x1
 1495 04e6 5001     		.2byte	0x150
 1496 04e8 E5030000 		.4byte	0x3e5
 1497 04ec 15       		.uleb128 0x15
 1498 04ed 5D020000 		.4byte	.LASF71
 1499 04f1 01       		.byte	0x1
 1500 04f2 5001     		.2byte	0x150
 1501 04f4 08010000 		.4byte	0x108
 1502 04f8 16       		.uleb128 0x16
 1503 04f9 13000000 		.4byte	.LASF66
 1504 04fd 01       		.byte	0x1
 1505 04fe 5101     		.2byte	0x151
 1506 0500 F2000000 		.4byte	0xf2
 1507 0504 00       		.byte	0
 1508 0505 17       		.uleb128 0x17
 1509 0506 4B010000 		.4byte	.LASF76
 1510 050a 01       		.byte	0x1
 1511 050b 48       		.byte	0x48
 1512 050c 00000000 		.4byte	.LFB7
 1513 0510 26000000 		.4byte	.LFE7-.LFB7
 1514 0514 01       		.uleb128 0x1
 1515 0515 9C       		.byte	0x9c
 1516 0516 76050000 		.4byte	0x576
 1517 051a 18       		.uleb128 0x18
 1518 051b 6D627000 		.ascii	"mbp\000"
 1519 051f 01       		.byte	0x1
 1520 0520 48       		.byte	0x48
 1521 0521 80040000 		.4byte	0x480
 1522 0525 00000000 		.4byte	.LLST0
 1523 0529 18       		.uleb128 0x18
 1524 052a 62756600 		.ascii	"buf\000"
 1525 052e 01       		.byte	0x1
 1526 052f 48       		.byte	0x48
 1527 0530 E5030000 		.4byte	0x3e5
 1528 0534 2C000000 		.4byte	.LLST1
 1529 0538 18       		.uleb128 0x18
 1530 0539 6E00     		.ascii	"n\000"
 1531 053b 01       		.byte	0x1
 1532 053c 48       		.byte	0x48
 1533 053d 13010000 		.4byte	0x113
 1534 0541 59000000 		.4byte	.LLST2
 1535 0545 19       		.uleb128 0x19
 1536 0546 1A000000 		.4byte	.LVL3
 1537 054a 770B0000 		.4byte	0xb77
 1538 054e 60050000 		.4byte	0x560
 1539 0552 1A       		.uleb128 0x1a
ARM GAS  /tmp/ccx90MpO.s 			page 28


 1540 0553 01       		.uleb128 0x1
 1541 0554 50       		.byte	0x50
 1542 0555 02       		.uleb128 0x2
 1543 0556 74       		.byte	0x74
 1544 0557 1C       		.sleb128 28
 1545 0558 1A       		.uleb128 0x1a
 1546 0559 01       		.uleb128 0x1
 1547 055a 51       		.byte	0x51
 1548 055b 03       		.uleb128 0x3
 1549 055c F3       		.byte	0xf3
 1550 055d 01       		.uleb128 0x1
 1551 055e 52       		.byte	0x52
 1552 055f 00       		.byte	0
 1553 0560 1B       		.uleb128 0x1b
 1554 0561 24000000 		.4byte	.LVL4
 1555 0565 770B0000 		.4byte	0xb77
 1556 0569 1A       		.uleb128 0x1a
 1557 056a 01       		.uleb128 0x1
 1558 056b 50       		.byte	0x50
 1559 056c 02       		.uleb128 0x2
 1560 056d 74       		.byte	0x74
 1561 056e 10       		.sleb128 16
 1562 056f 1A       		.uleb128 0x1a
 1563 0570 01       		.uleb128 0x1
 1564 0571 51       		.byte	0x51
 1565 0572 01       		.uleb128 0x1
 1566 0573 30       		.byte	0x30
 1567 0574 00       		.byte	0
 1568 0575 00       		.byte	0
 1569 0576 17       		.uleb128 0x17
 1570 0577 34020000 		.4byte	.LASF77
 1571 057b 01       		.byte	0x1
 1572 057c 5B       		.byte	0x5b
 1573 057d 00000000 		.4byte	.LFB8
 1574 0581 2A000000 		.4byte	.LFE8-.LFB8
 1575 0585 01       		.uleb128 0x1
 1576 0586 9C       		.byte	0x9c
 1577 0587 D1050000 		.4byte	0x5d1
 1578 058b 18       		.uleb128 0x18
 1579 058c 6D627000 		.ascii	"mbp\000"
 1580 0590 01       		.byte	0x1
 1581 0591 5B       		.byte	0x5b
 1582 0592 80040000 		.4byte	0x480
 1583 0596 7A000000 		.4byte	.LLST3
 1584 059a 19       		.uleb128 0x19
 1585 059b 18000000 		.4byte	.LVL8
 1586 059f 820B0000 		.4byte	0xb82
 1587 05a3 AE050000 		.4byte	0x5ae
 1588 05a7 1A       		.uleb128 0x1a
 1589 05a8 01       		.uleb128 0x1
 1590 05a9 50       		.byte	0x50
 1591 05aa 02       		.uleb128 0x2
 1592 05ab 74       		.byte	0x74
 1593 05ac 1C       		.sleb128 28
 1594 05ad 00       		.byte	0
 1595 05ae 19       		.uleb128 0x19
 1596 05af 22000000 		.4byte	.LVL9
ARM GAS  /tmp/ccx90MpO.s 			page 29


 1597 05b3 820B0000 		.4byte	0xb82
 1598 05b7 C7050000 		.4byte	0x5c7
 1599 05bb 1A       		.uleb128 0x1a
 1600 05bc 01       		.uleb128 0x1
 1601 05bd 50       		.byte	0x50
 1602 05be 02       		.uleb128 0x2
 1603 05bf 74       		.byte	0x74
 1604 05c0 10       		.sleb128 16
 1605 05c1 1A       		.uleb128 0x1a
 1606 05c2 01       		.uleb128 0x1
 1607 05c3 51       		.byte	0x51
 1608 05c4 01       		.uleb128 0x1
 1609 05c5 30       		.byte	0x30
 1610 05c6 00       		.byte	0
 1611 05c7 1C       		.uleb128 0x1c
 1612 05c8 26000000 		.4byte	.LVL10
 1613 05cc 8D0B0000 		.4byte	0xb8d
 1614 05d0 00       		.byte	0
 1615 05d1 1D       		.uleb128 0x1d
 1616 05d2 D8020000 		.4byte	.LASF78
 1617 05d6 01       		.byte	0x1
 1618 05d7 7A       		.byte	0x7a
 1619 05d8 F2000000 		.4byte	0xf2
 1620 05dc 00000000 		.4byte	.LFB9
 1621 05e0 3A000000 		.4byte	.LFE9-.LFB9
 1622 05e4 01       		.uleb128 0x1
 1623 05e5 9C       		.byte	0x9c
 1624 05e6 C8060000 		.4byte	0x6c8
 1625 05ea 18       		.uleb128 0x18
 1626 05eb 6D627000 		.ascii	"mbp\000"
 1627 05ef 01       		.byte	0x1
 1628 05f0 7A       		.byte	0x7a
 1629 05f1 80040000 		.4byte	0x480
 1630 05f5 A6000000 		.4byte	.LLST4
 1631 05f9 18       		.uleb128 0x18
 1632 05fa 6D736700 		.ascii	"msg\000"
 1633 05fe 01       		.byte	0x1
 1634 05ff 7A       		.byte	0x7a
 1635 0600 F2000000 		.4byte	0xf2
 1636 0604 DD000000 		.4byte	.LLST5
 1637 0608 1E       		.uleb128 0x1e
 1638 0609 5D020000 		.4byte	.LASF71
 1639 060d 01       		.byte	0x1
 1640 060e 7A       		.byte	0x7a
 1641 060f 08010000 		.4byte	0x108
 1642 0613 14010000 		.4byte	.LLST6
 1643 0617 1F       		.uleb128 0x1f
 1644 0618 13000000 		.4byte	.LASF66
 1645 061c 01       		.byte	0x1
 1646 061d 7B       		.byte	0x7b
 1647 061e F2000000 		.4byte	0xf2
 1648 0622 01       		.uleb128 0x1
 1649 0623 55       		.byte	0x55
 1650 0624 20       		.uleb128 0x20
 1651 0625 43040000 		.4byte	0x443
 1652 0629 08000000 		.4byte	.LBB12
 1653 062d 00000000 		.4byte	.Ldebug_ranges0+0
ARM GAS  /tmp/ccx90MpO.s 			page 30


 1654 0631 01       		.byte	0x1
 1655 0632 7E       		.byte	0x7e
 1656 0633 21       		.uleb128 0x21
 1657 0634 69040000 		.4byte	0x469
 1658 0638 35010000 		.4byte	.LLST7
 1659 063c 21       		.uleb128 0x21
 1660 063d 5E040000 		.4byte	0x45e
 1661 0641 64010000 		.4byte	.LLST8
 1662 0645 21       		.uleb128 0x21
 1663 0646 53040000 		.4byte	0x453
 1664 064a 8D010000 		.4byte	.LLST9
 1665 064e 22       		.uleb128 0x22
 1666 064f 00000000 		.4byte	.Ldebug_ranges0+0
 1667 0653 23       		.uleb128 0x23
 1668 0654 74040000 		.4byte	0x474
 1669 0658 B6010000 		.4byte	.LLST10
 1670 065c 24       		.uleb128 0x24
 1671 065d 1A000000 		.4byte	.LBB14
 1672 0661 20000000 		.4byte	.LBE14-.LBB14
 1673 0665 AE060000 		.4byte	0x6ae
 1674 0669 25       		.uleb128 0x25
 1675 066a 69040000 		.4byte	0x469
 1676 066e 04       		.uleb128 0x4
 1677 066f F3       		.byte	0xf3
 1678 0670 01       		.uleb128 0x1
 1679 0671 52       		.byte	0x52
 1680 0672 9F       		.byte	0x9f
 1681 0673 25       		.uleb128 0x25
 1682 0674 5E040000 		.4byte	0x45e
 1683 0678 01       		.uleb128 0x1
 1684 0679 56       		.byte	0x56
 1685 067a 25       		.uleb128 0x25
 1686 067b 53040000 		.4byte	0x453
 1687 067f 01       		.uleb128 0x1
 1688 0680 54       		.byte	0x54
 1689 0681 26       		.uleb128 0x26
 1690 0682 1A000000 		.4byte	.LBB15
 1691 0686 20000000 		.4byte	.LBE15-.LBB15
 1692 068a 27       		.uleb128 0x27
 1693 068b 74040000 		.4byte	0x474
 1694 068f 19       		.uleb128 0x19
 1695 0690 34000000 		.4byte	.LVL23
 1696 0694 980B0000 		.4byte	0xb98
 1697 0698 A3060000 		.4byte	0x6a3
 1698 069c 1A       		.uleb128 0x1a
 1699 069d 01       		.uleb128 0x1
 1700 069e 50       		.byte	0x50
 1701 069f 02       		.uleb128 0x2
 1702 06a0 74       		.byte	0x74
 1703 06a1 10       		.sleb128 16
 1704 06a2 00       		.byte	0
 1705 06a3 1C       		.uleb128 0x1c
 1706 06a4 38000000 		.4byte	.LVL24
 1707 06a8 8D0B0000 		.4byte	0xb8d
 1708 06ac 00       		.byte	0
 1709 06ad 00       		.byte	0
 1710 06ae 1B       		.uleb128 0x1b
ARM GAS  /tmp/ccx90MpO.s 			page 31


 1711 06af 10000000 		.4byte	.LVL16
 1712 06b3 A30B0000 		.4byte	0xba3
 1713 06b7 1A       		.uleb128 0x1a
 1714 06b8 01       		.uleb128 0x1
 1715 06b9 50       		.byte	0x50
 1716 06ba 02       		.uleb128 0x2
 1717 06bb 74       		.byte	0x74
 1718 06bc 1C       		.sleb128 28
 1719 06bd 1A       		.uleb128 0x1a
 1720 06be 01       		.uleb128 0x1
 1721 06bf 51       		.byte	0x51
 1722 06c0 03       		.uleb128 0x3
 1723 06c1 F3       		.byte	0xf3
 1724 06c2 01       		.uleb128 0x1
 1725 06c3 52       		.byte	0x52
 1726 06c4 00       		.byte	0
 1727 06c5 00       		.byte	0
 1728 06c6 00       		.byte	0
 1729 06c7 00       		.byte	0
 1730 06c8 28       		.uleb128 0x28
 1731 06c9 43040000 		.4byte	0x443
 1732 06cd 00000000 		.4byte	.LFB10
 1733 06d1 36000000 		.4byte	.LFE10-.LFB10
 1734 06d5 01       		.uleb128 0x1
 1735 06d6 9C       		.byte	0x9c
 1736 06d7 64070000 		.4byte	0x764
 1737 06db 21       		.uleb128 0x21
 1738 06dc 53040000 		.4byte	0x453
 1739 06e0 DF010000 		.4byte	.LLST11
 1740 06e4 21       		.uleb128 0x21
 1741 06e5 5E040000 		.4byte	0x45e
 1742 06e9 16020000 		.4byte	.LLST12
 1743 06ed 21       		.uleb128 0x21
 1744 06ee 69040000 		.4byte	0x469
 1745 06f2 4D020000 		.4byte	.LLST13
 1746 06f6 23       		.uleb128 0x23
 1747 06f7 74040000 		.4byte	0x474
 1748 06fb 6E020000 		.4byte	.LLST14
 1749 06ff 29       		.uleb128 0x29
 1750 0700 18000000 		.4byte	.Ldebug_ranges0+0x18
 1751 0704 4C070000 		.4byte	0x74c
 1752 0708 21       		.uleb128 0x21
 1753 0709 69040000 		.4byte	0x469
 1754 070d 97020000 		.4byte	.LLST15
 1755 0711 21       		.uleb128 0x21
 1756 0712 5E040000 		.4byte	0x45e
 1757 0716 BB020000 		.4byte	.LLST16
 1758 071a 21       		.uleb128 0x21
 1759 071b 53040000 		.4byte	0x453
 1760 071f D9020000 		.4byte	.LLST17
 1761 0723 22       		.uleb128 0x22
 1762 0724 18000000 		.4byte	.Ldebug_ranges0+0x18
 1763 0728 27       		.uleb128 0x27
 1764 0729 74040000 		.4byte	0x474
 1765 072d 19       		.uleb128 0x19
 1766 072e 28000000 		.4byte	.LVL32
 1767 0732 980B0000 		.4byte	0xb98
ARM GAS  /tmp/ccx90MpO.s 			page 32


 1768 0736 41070000 		.4byte	0x741
 1769 073a 1A       		.uleb128 0x1a
 1770 073b 01       		.uleb128 0x1
 1771 073c 50       		.byte	0x50
 1772 073d 02       		.uleb128 0x2
 1773 073e 74       		.byte	0x74
 1774 073f 10       		.sleb128 16
 1775 0740 00       		.byte	0
 1776 0741 1C       		.uleb128 0x1c
 1777 0742 2C000000 		.4byte	.LVL33
 1778 0746 8D0B0000 		.4byte	0xb8d
 1779 074a 00       		.byte	0
 1780 074b 00       		.byte	0
 1781 074c 1B       		.uleb128 0x1b
 1782 074d 0E000000 		.4byte	.LVL28
 1783 0751 A30B0000 		.4byte	0xba3
 1784 0755 1A       		.uleb128 0x1a
 1785 0756 01       		.uleb128 0x1
 1786 0757 50       		.byte	0x50
 1787 0758 02       		.uleb128 0x2
 1788 0759 74       		.byte	0x74
 1789 075a 1C       		.sleb128 28
 1790 075b 1A       		.uleb128 0x1a
 1791 075c 01       		.uleb128 0x1
 1792 075d 51       		.byte	0x51
 1793 075e 03       		.uleb128 0x3
 1794 075f F3       		.byte	0xf3
 1795 0760 01       		.uleb128 0x1
 1796 0761 52       		.byte	0x52
 1797 0762 00       		.byte	0
 1798 0763 00       		.byte	0
 1799 0764 1D       		.uleb128 0x1d
 1800 0765 2D000000 		.4byte	.LASF79
 1801 0769 01       		.byte	0x1
 1802 076a B5       		.byte	0xb5
 1803 076b F2000000 		.4byte	0xf2
 1804 076f 00000000 		.4byte	.LFB11
 1805 0773 30000000 		.4byte	.LFE11-.LFB11
 1806 0777 01       		.uleb128 0x1
 1807 0778 9C       		.byte	0x9c
 1808 0779 AF070000 		.4byte	0x7af
 1809 077d 18       		.uleb128 0x18
 1810 077e 6D627000 		.ascii	"mbp\000"
 1811 0782 01       		.byte	0x1
 1812 0783 B5       		.byte	0xb5
 1813 0784 80040000 		.4byte	0x480
 1814 0788 F7020000 		.4byte	.LLST18
 1815 078c 18       		.uleb128 0x18
 1816 078d 6D736700 		.ascii	"msg\000"
 1817 0791 01       		.byte	0x1
 1818 0792 B5       		.byte	0xb5
 1819 0793 F2000000 		.4byte	0xf2
 1820 0797 3E030000 		.4byte	.LLST19
 1821 079b 1B       		.uleb128 0x1b
 1822 079c 20000000 		.4byte	.LVL40
 1823 07a0 980B0000 		.4byte	0xb98
 1824 07a4 1A       		.uleb128 0x1a
ARM GAS  /tmp/ccx90MpO.s 			page 33


 1825 07a5 01       		.uleb128 0x1
 1826 07a6 50       		.byte	0x50
 1827 07a7 05       		.uleb128 0x5
 1828 07a8 F3       		.byte	0xf3
 1829 07a9 01       		.uleb128 0x1
 1830 07aa 50       		.byte	0x50
 1831 07ab 23       		.byte	0x23
 1832 07ac 10       		.uleb128 0x10
 1833 07ad 00       		.byte	0
 1834 07ae 00       		.byte	0
 1835 07af 1D       		.uleb128 0x1d
 1836 07b0 40030000 		.4byte	.LASF80
 1837 07b4 01       		.byte	0x1
 1838 07b5 D7       		.byte	0xd7
 1839 07b6 F2000000 		.4byte	0xf2
 1840 07ba 00000000 		.4byte	.LFB12
 1841 07be 3C000000 		.4byte	.LFE12-.LFB12
 1842 07c2 01       		.uleb128 0x1
 1843 07c3 9C       		.byte	0x9c
 1844 07c4 A6080000 		.4byte	0x8a6
 1845 07c8 18       		.uleb128 0x18
 1846 07c9 6D627000 		.ascii	"mbp\000"
 1847 07cd 01       		.byte	0x1
 1848 07ce D7       		.byte	0xd7
 1849 07cf 80040000 		.4byte	0x480
 1850 07d3 6A030000 		.4byte	.LLST20
 1851 07d7 18       		.uleb128 0x18
 1852 07d8 6D736700 		.ascii	"msg\000"
 1853 07dc 01       		.byte	0x1
 1854 07dd D7       		.byte	0xd7
 1855 07de F2000000 		.4byte	0xf2
 1856 07e2 A1030000 		.4byte	.LLST21
 1857 07e6 1E       		.uleb128 0x1e
 1858 07e7 5D020000 		.4byte	.LASF71
 1859 07eb 01       		.byte	0x1
 1860 07ec D7       		.byte	0xd7
 1861 07ed 08010000 		.4byte	0x108
 1862 07f1 D8030000 		.4byte	.LLST22
 1863 07f5 1F       		.uleb128 0x1f
 1864 07f6 13000000 		.4byte	.LASF66
 1865 07fa 01       		.byte	0x1
 1866 07fb D8       		.byte	0xd8
 1867 07fc F2000000 		.4byte	0xf2
 1868 0800 01       		.uleb128 0x1
 1869 0801 55       		.byte	0x55
 1870 0802 20       		.uleb128 0x20
 1871 0803 86040000 		.4byte	0x486
 1872 0807 08000000 		.4byte	.LBB28
 1873 080b 30000000 		.4byte	.Ldebug_ranges0+0x30
 1874 080f 01       		.byte	0x1
 1875 0810 DB       		.byte	0xdb
 1876 0811 21       		.uleb128 0x21
 1877 0812 AC040000 		.4byte	0x4ac
 1878 0816 F9030000 		.4byte	.LLST23
 1879 081a 21       		.uleb128 0x21
 1880 081b A1040000 		.4byte	0x4a1
 1881 081f 28040000 		.4byte	.LLST24
ARM GAS  /tmp/ccx90MpO.s 			page 34


 1882 0823 21       		.uleb128 0x21
 1883 0824 96040000 		.4byte	0x496
 1884 0828 51040000 		.4byte	.LLST25
 1885 082c 22       		.uleb128 0x22
 1886 082d 30000000 		.4byte	.Ldebug_ranges0+0x30
 1887 0831 23       		.uleb128 0x23
 1888 0832 B7040000 		.4byte	0x4b7
 1889 0836 7A040000 		.4byte	.LLST26
 1890 083a 24       		.uleb128 0x24
 1891 083b 1A000000 		.4byte	.LBB30
 1892 083f 22000000 		.4byte	.LBE30-.LBB30
 1893 0843 8C080000 		.4byte	0x88c
 1894 0847 25       		.uleb128 0x25
 1895 0848 AC040000 		.4byte	0x4ac
 1896 084c 04       		.uleb128 0x4
 1897 084d F3       		.byte	0xf3
 1898 084e 01       		.uleb128 0x1
 1899 084f 52       		.byte	0x52
 1900 0850 9F       		.byte	0x9f
 1901 0851 25       		.uleb128 0x25
 1902 0852 A1040000 		.4byte	0x4a1
 1903 0856 01       		.uleb128 0x1
 1904 0857 56       		.byte	0x56
 1905 0858 25       		.uleb128 0x25
 1906 0859 96040000 		.4byte	0x496
 1907 085d 01       		.uleb128 0x1
 1908 085e 54       		.byte	0x54
 1909 085f 26       		.uleb128 0x26
 1910 0860 1A000000 		.4byte	.LBB31
 1911 0864 22000000 		.4byte	.LBE31-.LBB31
 1912 0868 27       		.uleb128 0x27
 1913 0869 B7040000 		.4byte	0x4b7
 1914 086d 19       		.uleb128 0x19
 1915 086e 36000000 		.4byte	.LVL54
 1916 0872 980B0000 		.4byte	0xb98
 1917 0876 81080000 		.4byte	0x881
 1918 087a 1A       		.uleb128 0x1a
 1919 087b 01       		.uleb128 0x1
 1920 087c 50       		.byte	0x50
 1921 087d 02       		.uleb128 0x2
 1922 087e 74       		.byte	0x74
 1923 087f 10       		.sleb128 16
 1924 0880 00       		.byte	0
 1925 0881 1C       		.uleb128 0x1c
 1926 0882 3A000000 		.4byte	.LVL55
 1927 0886 8D0B0000 		.4byte	0xb8d
 1928 088a 00       		.byte	0
 1929 088b 00       		.byte	0
 1930 088c 1B       		.uleb128 0x1b
 1931 088d 10000000 		.4byte	.LVL47
 1932 0891 A30B0000 		.4byte	0xba3
 1933 0895 1A       		.uleb128 0x1a
 1934 0896 01       		.uleb128 0x1
 1935 0897 50       		.byte	0x50
 1936 0898 02       		.uleb128 0x2
 1937 0899 74       		.byte	0x74
 1938 089a 1C       		.sleb128 28
ARM GAS  /tmp/ccx90MpO.s 			page 35


 1939 089b 1A       		.uleb128 0x1a
 1940 089c 01       		.uleb128 0x1
 1941 089d 51       		.byte	0x51
 1942 089e 03       		.uleb128 0x3
 1943 089f F3       		.byte	0xf3
 1944 08a0 01       		.uleb128 0x1
 1945 08a1 52       		.byte	0x52
 1946 08a2 00       		.byte	0
 1947 08a3 00       		.byte	0
 1948 08a4 00       		.byte	0
 1949 08a5 00       		.byte	0
 1950 08a6 28       		.uleb128 0x28
 1951 08a7 86040000 		.4byte	0x486
 1952 08ab 00000000 		.4byte	.LFB13
 1953 08af 38000000 		.4byte	.LFE13-.LFB13
 1954 08b3 01       		.uleb128 0x1
 1955 08b4 9C       		.byte	0x9c
 1956 08b5 42090000 		.4byte	0x942
 1957 08b9 21       		.uleb128 0x21
 1958 08ba 96040000 		.4byte	0x496
 1959 08be A3040000 		.4byte	.LLST27
 1960 08c2 21       		.uleb128 0x21
 1961 08c3 A1040000 		.4byte	0x4a1
 1962 08c7 DA040000 		.4byte	.LLST28
 1963 08cb 21       		.uleb128 0x21
 1964 08cc AC040000 		.4byte	0x4ac
 1965 08d0 11050000 		.4byte	.LLST29
 1966 08d4 23       		.uleb128 0x23
 1967 08d5 B7040000 		.4byte	0x4b7
 1968 08d9 32050000 		.4byte	.LLST30
 1969 08dd 29       		.uleb128 0x29
 1970 08de 48000000 		.4byte	.Ldebug_ranges0+0x48
 1971 08e2 2A090000 		.4byte	0x92a
 1972 08e6 21       		.uleb128 0x21
 1973 08e7 AC040000 		.4byte	0x4ac
 1974 08eb 5B050000 		.4byte	.LLST31
 1975 08ef 21       		.uleb128 0x21
 1976 08f0 A1040000 		.4byte	0x4a1
 1977 08f4 7F050000 		.4byte	.LLST32
 1978 08f8 21       		.uleb128 0x21
 1979 08f9 96040000 		.4byte	0x496
 1980 08fd 9D050000 		.4byte	.LLST33
 1981 0901 22       		.uleb128 0x22
 1982 0902 48000000 		.4byte	.Ldebug_ranges0+0x48
 1983 0906 27       		.uleb128 0x27
 1984 0907 B7040000 		.4byte	0x4b7
 1985 090b 19       		.uleb128 0x19
 1986 090c 28000000 		.4byte	.LVL63
 1987 0910 980B0000 		.4byte	0xb98
 1988 0914 1F090000 		.4byte	0x91f
 1989 0918 1A       		.uleb128 0x1a
 1990 0919 01       		.uleb128 0x1
 1991 091a 50       		.byte	0x50
 1992 091b 02       		.uleb128 0x2
 1993 091c 74       		.byte	0x74
 1994 091d 10       		.sleb128 16
 1995 091e 00       		.byte	0
ARM GAS  /tmp/ccx90MpO.s 			page 36


 1996 091f 1C       		.uleb128 0x1c
 1997 0920 2C000000 		.4byte	.LVL64
 1998 0924 8D0B0000 		.4byte	0xb8d
 1999 0928 00       		.byte	0
 2000 0929 00       		.byte	0
 2001 092a 1B       		.uleb128 0x1b
 2002 092b 0E000000 		.4byte	.LVL59
 2003 092f A30B0000 		.4byte	0xba3
 2004 0933 1A       		.uleb128 0x1a
 2005 0934 01       		.uleb128 0x1
 2006 0935 50       		.byte	0x50
 2007 0936 02       		.uleb128 0x2
 2008 0937 74       		.byte	0x74
 2009 0938 1C       		.sleb128 28
 2010 0939 1A       		.uleb128 0x1a
 2011 093a 01       		.uleb128 0x1
 2012 093b 51       		.byte	0x51
 2013 093c 03       		.uleb128 0x3
 2014 093d F3       		.byte	0xf3
 2015 093e 01       		.uleb128 0x1
 2016 093f 52       		.byte	0x52
 2017 0940 00       		.byte	0
 2018 0941 00       		.byte	0
 2019 0942 2A       		.uleb128 0x2a
 2020 0943 49000000 		.4byte	.LASF81
 2021 0947 01       		.byte	0x1
 2022 0948 1201     		.2byte	0x112
 2023 094a F2000000 		.4byte	0xf2
 2024 094e 00000000 		.4byte	.LFB14
 2025 0952 32000000 		.4byte	.LFE14-.LFB14
 2026 0956 01       		.uleb128 0x1
 2027 0957 9C       		.byte	0x9c
 2028 0958 90090000 		.4byte	0x990
 2029 095c 2B       		.uleb128 0x2b
 2030 095d 6D627000 		.ascii	"mbp\000"
 2031 0961 01       		.byte	0x1
 2032 0962 1201     		.2byte	0x112
 2033 0964 80040000 		.4byte	0x480
 2034 0968 BB050000 		.4byte	.LLST34
 2035 096c 2B       		.uleb128 0x2b
 2036 096d 6D736700 		.ascii	"msg\000"
 2037 0971 01       		.byte	0x1
 2038 0972 1201     		.2byte	0x112
 2039 0974 F2000000 		.4byte	0xf2
 2040 0978 02060000 		.4byte	.LLST35
 2041 097c 1B       		.uleb128 0x1b
 2042 097d 20000000 		.4byte	.LVL71
 2043 0981 980B0000 		.4byte	0xb98
 2044 0985 1A       		.uleb128 0x1a
 2045 0986 01       		.uleb128 0x1
 2046 0987 50       		.byte	0x50
 2047 0988 05       		.uleb128 0x5
 2048 0989 F3       		.byte	0xf3
 2049 098a 01       		.uleb128 0x1
 2050 098b 50       		.byte	0x50
 2051 098c 23       		.byte	0x23
 2052 098d 10       		.uleb128 0x10
ARM GAS  /tmp/ccx90MpO.s 			page 37


 2053 098e 00       		.byte	0
 2054 098f 00       		.byte	0
 2055 0990 2A       		.uleb128 0x2a
 2056 0991 60030000 		.4byte	.LASF82
 2057 0995 01       		.byte	0x1
 2058 0996 3401     		.2byte	0x134
 2059 0998 F2000000 		.4byte	0xf2
 2060 099c 00000000 		.4byte	.LFB15
 2061 09a0 3C000000 		.4byte	.LFE15-.LFB15
 2062 09a4 01       		.uleb128 0x1
 2063 09a5 9C       		.byte	0x9c
 2064 09a6 8D0A0000 		.4byte	0xa8d
 2065 09aa 2B       		.uleb128 0x2b
 2066 09ab 6D627000 		.ascii	"mbp\000"
 2067 09af 01       		.byte	0x1
 2068 09b0 3401     		.2byte	0x134
 2069 09b2 80040000 		.4byte	0x480
 2070 09b6 2E060000 		.4byte	.LLST36
 2071 09ba 2C       		.uleb128 0x2c
 2072 09bb D5010000 		.4byte	.LASF75
 2073 09bf 01       		.byte	0x1
 2074 09c0 3401     		.2byte	0x134
 2075 09c2 E5030000 		.4byte	0x3e5
 2076 09c6 65060000 		.4byte	.LLST37
 2077 09ca 2C       		.uleb128 0x2c
 2078 09cb 5D020000 		.4byte	.LASF71
 2079 09cf 01       		.byte	0x1
 2080 09d0 3401     		.2byte	0x134
 2081 09d2 08010000 		.4byte	0x108
 2082 09d6 9C060000 		.4byte	.LLST38
 2083 09da 2D       		.uleb128 0x2d
 2084 09db 13000000 		.4byte	.LASF66
 2085 09df 01       		.byte	0x1
 2086 09e0 3501     		.2byte	0x135
 2087 09e2 F2000000 		.4byte	0xf2
 2088 09e6 01       		.uleb128 0x1
 2089 09e7 55       		.byte	0x55
 2090 09e8 2E       		.uleb128 0x2e
 2091 09e9 C3040000 		.4byte	0x4c3
 2092 09ed 08000000 		.4byte	.LBB44
 2093 09f1 60000000 		.4byte	.Ldebug_ranges0+0x60
 2094 09f5 01       		.byte	0x1
 2095 09f6 3801     		.2byte	0x138
 2096 09f8 21       		.uleb128 0x21
 2097 09f9 EC040000 		.4byte	0x4ec
 2098 09fd BD060000 		.4byte	.LLST39
 2099 0a01 21       		.uleb128 0x21
 2100 0a02 E0040000 		.4byte	0x4e0
 2101 0a06 EC060000 		.4byte	.LLST40
 2102 0a0a 21       		.uleb128 0x21
 2103 0a0b D4040000 		.4byte	0x4d4
 2104 0a0f 15070000 		.4byte	.LLST41
 2105 0a13 22       		.uleb128 0x22
 2106 0a14 60000000 		.4byte	.Ldebug_ranges0+0x60
 2107 0a18 23       		.uleb128 0x23
 2108 0a19 F8040000 		.4byte	0x4f8
 2109 0a1d 3E070000 		.4byte	.LLST42
ARM GAS  /tmp/ccx90MpO.s 			page 38


 2110 0a21 24       		.uleb128 0x24
 2111 0a22 1A000000 		.4byte	.LBB46
 2112 0a26 22000000 		.4byte	.LBE46-.LBB46
 2113 0a2a 730A0000 		.4byte	0xa73
 2114 0a2e 25       		.uleb128 0x25
 2115 0a2f EC040000 		.4byte	0x4ec
 2116 0a33 04       		.uleb128 0x4
 2117 0a34 F3       		.byte	0xf3
 2118 0a35 01       		.uleb128 0x1
 2119 0a36 52       		.byte	0x52
 2120 0a37 9F       		.byte	0x9f
 2121 0a38 25       		.uleb128 0x25
 2122 0a39 E0040000 		.4byte	0x4e0
 2123 0a3d 01       		.uleb128 0x1
 2124 0a3e 56       		.byte	0x56
 2125 0a3f 25       		.uleb128 0x25
 2126 0a40 D4040000 		.4byte	0x4d4
 2127 0a44 01       		.uleb128 0x1
 2128 0a45 54       		.byte	0x54
 2129 0a46 26       		.uleb128 0x26
 2130 0a47 1A000000 		.4byte	.LBB47
 2131 0a4b 22000000 		.4byte	.LBE47-.LBB47
 2132 0a4f 27       		.uleb128 0x27
 2133 0a50 F8040000 		.4byte	0x4f8
 2134 0a54 19       		.uleb128 0x19
 2135 0a55 36000000 		.4byte	.LVL85
 2136 0a59 980B0000 		.4byte	0xb98
 2137 0a5d 680A0000 		.4byte	0xa68
 2138 0a61 1A       		.uleb128 0x1a
 2139 0a62 01       		.uleb128 0x1
 2140 0a63 50       		.byte	0x50
 2141 0a64 02       		.uleb128 0x2
 2142 0a65 74       		.byte	0x74
 2143 0a66 1C       		.sleb128 28
 2144 0a67 00       		.byte	0
 2145 0a68 1C       		.uleb128 0x1c
 2146 0a69 3A000000 		.4byte	.LVL86
 2147 0a6d 8D0B0000 		.4byte	0xb8d
 2148 0a71 00       		.byte	0
 2149 0a72 00       		.byte	0
 2150 0a73 1B       		.uleb128 0x1b
 2151 0a74 10000000 		.4byte	.LVL78
 2152 0a78 A30B0000 		.4byte	0xba3
 2153 0a7c 1A       		.uleb128 0x1a
 2154 0a7d 01       		.uleb128 0x1
 2155 0a7e 50       		.byte	0x50
 2156 0a7f 02       		.uleb128 0x2
 2157 0a80 74       		.byte	0x74
 2158 0a81 10       		.sleb128 16
 2159 0a82 1A       		.uleb128 0x1a
 2160 0a83 01       		.uleb128 0x1
 2161 0a84 51       		.byte	0x51
 2162 0a85 03       		.uleb128 0x3
 2163 0a86 F3       		.byte	0xf3
 2164 0a87 01       		.uleb128 0x1
 2165 0a88 52       		.byte	0x52
 2166 0a89 00       		.byte	0
ARM GAS  /tmp/ccx90MpO.s 			page 39


 2167 0a8a 00       		.byte	0
 2168 0a8b 00       		.byte	0
 2169 0a8c 00       		.byte	0
 2170 0a8d 28       		.uleb128 0x28
 2171 0a8e C3040000 		.4byte	0x4c3
 2172 0a92 00000000 		.4byte	.LFB16
 2173 0a96 38000000 		.4byte	.LFE16-.LFB16
 2174 0a9a 01       		.uleb128 0x1
 2175 0a9b 9C       		.byte	0x9c
 2176 0a9c 290B0000 		.4byte	0xb29
 2177 0aa0 21       		.uleb128 0x21
 2178 0aa1 D4040000 		.4byte	0x4d4
 2179 0aa5 67070000 		.4byte	.LLST43
 2180 0aa9 21       		.uleb128 0x21
 2181 0aaa E0040000 		.4byte	0x4e0
 2182 0aae 9E070000 		.4byte	.LLST44
 2183 0ab2 21       		.uleb128 0x21
 2184 0ab3 EC040000 		.4byte	0x4ec
 2185 0ab7 D5070000 		.4byte	.LLST45
 2186 0abb 23       		.uleb128 0x23
 2187 0abc F8040000 		.4byte	0x4f8
 2188 0ac0 F6070000 		.4byte	.LLST46
 2189 0ac4 29       		.uleb128 0x29
 2190 0ac5 78000000 		.4byte	.Ldebug_ranges0+0x78
 2191 0ac9 110B0000 		.4byte	0xb11
 2192 0acd 21       		.uleb128 0x21
 2193 0ace EC040000 		.4byte	0x4ec
 2194 0ad2 1F080000 		.4byte	.LLST47
 2195 0ad6 21       		.uleb128 0x21
 2196 0ad7 E0040000 		.4byte	0x4e0
 2197 0adb 43080000 		.4byte	.LLST48
 2198 0adf 21       		.uleb128 0x21
 2199 0ae0 D4040000 		.4byte	0x4d4
 2200 0ae4 61080000 		.4byte	.LLST49
 2201 0ae8 22       		.uleb128 0x22
 2202 0ae9 78000000 		.4byte	.Ldebug_ranges0+0x78
 2203 0aed 27       		.uleb128 0x27
 2204 0aee F8040000 		.4byte	0x4f8
 2205 0af2 19       		.uleb128 0x19
 2206 0af3 2A000000 		.4byte	.LVL94
 2207 0af7 980B0000 		.4byte	0xb98
 2208 0afb 060B0000 		.4byte	0xb06
 2209 0aff 1A       		.uleb128 0x1a
 2210 0b00 01       		.uleb128 0x1
 2211 0b01 50       		.byte	0x50
 2212 0b02 02       		.uleb128 0x2
 2213 0b03 74       		.byte	0x74
 2214 0b04 1C       		.sleb128 28
 2215 0b05 00       		.byte	0
 2216 0b06 1C       		.uleb128 0x1c
 2217 0b07 2E000000 		.4byte	.LVL95
 2218 0b0b 8D0B0000 		.4byte	0xb8d
 2219 0b0f 00       		.byte	0
 2220 0b10 00       		.byte	0
 2221 0b11 1B       		.uleb128 0x1b
 2222 0b12 0E000000 		.4byte	.LVL90
 2223 0b16 A30B0000 		.4byte	0xba3
ARM GAS  /tmp/ccx90MpO.s 			page 40


 2224 0b1a 1A       		.uleb128 0x1a
 2225 0b1b 01       		.uleb128 0x1
 2226 0b1c 50       		.byte	0x50
 2227 0b1d 02       		.uleb128 0x2
 2228 0b1e 74       		.byte	0x74
 2229 0b1f 10       		.sleb128 16
 2230 0b20 1A       		.uleb128 0x1a
 2231 0b21 01       		.uleb128 0x1
 2232 0b22 51       		.byte	0x51
 2233 0b23 03       		.uleb128 0x3
 2234 0b24 F3       		.byte	0xf3
 2235 0b25 01       		.uleb128 0x1
 2236 0b26 52       		.byte	0x52
 2237 0b27 00       		.byte	0
 2238 0b28 00       		.byte	0
 2239 0b29 2A       		.uleb128 0x2a
 2240 0b2a 93010000 		.4byte	.LASF83
 2241 0b2e 01       		.byte	0x1
 2242 0b2f 6F01     		.2byte	0x16f
 2243 0b31 F2000000 		.4byte	0xf2
 2244 0b35 00000000 		.4byte	.LFB17
 2245 0b39 32000000 		.4byte	.LFE17-.LFB17
 2246 0b3d 01       		.uleb128 0x1
 2247 0b3e 9C       		.byte	0x9c
 2248 0b3f 770B0000 		.4byte	0xb77
 2249 0b43 2B       		.uleb128 0x2b
 2250 0b44 6D627000 		.ascii	"mbp\000"
 2251 0b48 01       		.byte	0x1
 2252 0b49 6F01     		.2byte	0x16f
 2253 0b4b 80040000 		.4byte	0x480
 2254 0b4f 7F080000 		.4byte	.LLST50
 2255 0b53 2C       		.uleb128 0x2c
 2256 0b54 D5010000 		.4byte	.LASF75
 2257 0b58 01       		.byte	0x1
 2258 0b59 6F01     		.2byte	0x16f
 2259 0b5b E5030000 		.4byte	0x3e5
 2260 0b5f C6080000 		.4byte	.LLST51
 2261 0b63 1B       		.uleb128 0x1b
 2262 0b64 22000000 		.4byte	.LVL102
 2263 0b68 980B0000 		.4byte	0xb98
 2264 0b6c 1A       		.uleb128 0x1a
 2265 0b6d 01       		.uleb128 0x1
 2266 0b6e 50       		.byte	0x50
 2267 0b6f 05       		.uleb128 0x5
 2268 0b70 F3       		.byte	0xf3
 2269 0b71 01       		.uleb128 0x1
 2270 0b72 50       		.byte	0x50
 2271 0b73 23       		.byte	0x23
 2272 0b74 1C       		.uleb128 0x1c
 2273 0b75 00       		.byte	0
 2274 0b76 00       		.byte	0
 2275 0b77 2F       		.uleb128 0x2f
 2276 0b78 93040000 		.4byte	.LASF84
 2277 0b7c 93040000 		.4byte	.LASF84
 2278 0b80 08       		.byte	0x8
 2279 0b81 35       		.byte	0x35
 2280 0b82 2F       		.uleb128 0x2f
ARM GAS  /tmp/ccx90MpO.s 			page 41


 2281 0b83 59040000 		.4byte	.LASF85
 2282 0b87 59040000 		.4byte	.LASF85
 2283 0b8b 08       		.byte	0x8
 2284 0b8c 37       		.byte	0x37
 2285 0b8d 2F       		.uleb128 0x2f
 2286 0b8e 13010000 		.4byte	.LASF86
 2287 0b92 13010000 		.4byte	.LASF86
 2288 0b96 0B       		.byte	0xb
 2289 0b97 9C       		.byte	0x9c
 2290 0b98 2F       		.uleb128 0x2f
 2291 0b99 06000000 		.4byte	.LASF87
 2292 0b9d 06000000 		.4byte	.LASF87
 2293 0ba1 08       		.byte	0x8
 2294 0ba2 3D       		.byte	0x3d
 2295 0ba3 2F       		.uleb128 0x2f
 2296 0ba4 01030000 		.4byte	.LASF88
 2297 0ba8 01030000 		.4byte	.LASF88
 2298 0bac 08       		.byte	0x8
 2299 0bad 3B       		.byte	0x3b
 2300 0bae 00       		.byte	0
 2301              		.section	.debug_abbrev,"",%progbits
 2302              	.Ldebug_abbrev0:
 2303 0000 01       		.uleb128 0x1
 2304 0001 11       		.uleb128 0x11
 2305 0002 01       		.byte	0x1
 2306 0003 25       		.uleb128 0x25
 2307 0004 0E       		.uleb128 0xe
 2308 0005 13       		.uleb128 0x13
 2309 0006 0B       		.uleb128 0xb
 2310 0007 03       		.uleb128 0x3
 2311 0008 0E       		.uleb128 0xe
 2312 0009 1B       		.uleb128 0x1b
 2313 000a 0E       		.uleb128 0xe
 2314 000b 55       		.uleb128 0x55
 2315 000c 17       		.uleb128 0x17
 2316 000d 11       		.uleb128 0x11
 2317 000e 01       		.uleb128 0x1
 2318 000f 10       		.uleb128 0x10
 2319 0010 17       		.uleb128 0x17
 2320 0011 00       		.byte	0
 2321 0012 00       		.byte	0
 2322 0013 02       		.uleb128 0x2
 2323 0014 24       		.uleb128 0x24
 2324 0015 00       		.byte	0
 2325 0016 0B       		.uleb128 0xb
 2326 0017 0B       		.uleb128 0xb
 2327 0018 3E       		.uleb128 0x3e
 2328 0019 0B       		.uleb128 0xb
 2329 001a 03       		.uleb128 0x3
 2330 001b 08       		.uleb128 0x8
 2331 001c 00       		.byte	0
 2332 001d 00       		.byte	0
 2333 001e 03       		.uleb128 0x3
 2334 001f 24       		.uleb128 0x24
 2335 0020 00       		.byte	0
 2336 0021 0B       		.uleb128 0xb
 2337 0022 0B       		.uleb128 0xb
ARM GAS  /tmp/ccx90MpO.s 			page 42


 2338 0023 3E       		.uleb128 0x3e
 2339 0024 0B       		.uleb128 0xb
 2340 0025 03       		.uleb128 0x3
 2341 0026 0E       		.uleb128 0xe
 2342 0027 00       		.byte	0
 2343 0028 00       		.byte	0
 2344 0029 04       		.uleb128 0x4
 2345 002a 16       		.uleb128 0x16
 2346 002b 00       		.byte	0
 2347 002c 03       		.uleb128 0x3
 2348 002d 0E       		.uleb128 0xe
 2349 002e 3A       		.uleb128 0x3a
 2350 002f 0B       		.uleb128 0xb
 2351 0030 3B       		.uleb128 0x3b
 2352 0031 0B       		.uleb128 0xb
 2353 0032 49       		.uleb128 0x49
 2354 0033 13       		.uleb128 0x13
 2355 0034 00       		.byte	0
 2356 0035 00       		.byte	0
 2357 0036 05       		.uleb128 0x5
 2358 0037 13       		.uleb128 0x13
 2359 0038 01       		.byte	0x1
 2360 0039 03       		.uleb128 0x3
 2361 003a 0E       		.uleb128 0xe
 2362 003b 0B       		.uleb128 0xb
 2363 003c 0B       		.uleb128 0xb
 2364 003d 3A       		.uleb128 0x3a
 2365 003e 0B       		.uleb128 0xb
 2366 003f 3B       		.uleb128 0x3b
 2367 0040 0B       		.uleb128 0xb
 2368 0041 01       		.uleb128 0x1
 2369 0042 13       		.uleb128 0x13
 2370 0043 00       		.byte	0
 2371 0044 00       		.byte	0
 2372 0045 06       		.uleb128 0x6
 2373 0046 0D       		.uleb128 0xd
 2374 0047 00       		.byte	0
 2375 0048 03       		.uleb128 0x3
 2376 0049 0E       		.uleb128 0xe
 2377 004a 3A       		.uleb128 0x3a
 2378 004b 0B       		.uleb128 0xb
 2379 004c 3B       		.uleb128 0x3b
 2380 004d 0B       		.uleb128 0xb
 2381 004e 49       		.uleb128 0x49
 2382 004f 13       		.uleb128 0x13
 2383 0050 38       		.uleb128 0x38
 2384 0051 0B       		.uleb128 0xb
 2385 0052 00       		.byte	0
 2386 0053 00       		.byte	0
 2387 0054 07       		.uleb128 0x7
 2388 0055 0D       		.uleb128 0xd
 2389 0056 00       		.byte	0
 2390 0057 03       		.uleb128 0x3
 2391 0058 08       		.uleb128 0x8
 2392 0059 3A       		.uleb128 0x3a
 2393 005a 0B       		.uleb128 0xb
 2394 005b 3B       		.uleb128 0x3b
ARM GAS  /tmp/ccx90MpO.s 			page 43


 2395 005c 0B       		.uleb128 0xb
 2396 005d 49       		.uleb128 0x49
 2397 005e 13       		.uleb128 0x13
 2398 005f 38       		.uleb128 0x38
 2399 0060 0B       		.uleb128 0xb
 2400 0061 00       		.byte	0
 2401 0062 00       		.byte	0
 2402 0063 08       		.uleb128 0x8
 2403 0064 13       		.uleb128 0x13
 2404 0065 01       		.byte	0x1
 2405 0066 0B       		.uleb128 0xb
 2406 0067 0B       		.uleb128 0xb
 2407 0068 3A       		.uleb128 0x3a
 2408 0069 0B       		.uleb128 0xb
 2409 006a 3B       		.uleb128 0x3b
 2410 006b 0B       		.uleb128 0xb
 2411 006c 01       		.uleb128 0x1
 2412 006d 13       		.uleb128 0x13
 2413 006e 00       		.byte	0
 2414 006f 00       		.byte	0
 2415 0070 09       		.uleb128 0x9
 2416 0071 0F       		.uleb128 0xf
 2417 0072 00       		.byte	0
 2418 0073 0B       		.uleb128 0xb
 2419 0074 0B       		.uleb128 0xb
 2420 0075 49       		.uleb128 0x49
 2421 0076 13       		.uleb128 0x13
 2422 0077 00       		.byte	0
 2423 0078 00       		.byte	0
 2424 0079 0A       		.uleb128 0xa
 2425 007a 0F       		.uleb128 0xf
 2426 007b 00       		.byte	0
 2427 007c 0B       		.uleb128 0xb
 2428 007d 0B       		.uleb128 0xb
 2429 007e 00       		.byte	0
 2430 007f 00       		.byte	0
 2431 0080 0B       		.uleb128 0xb
 2432 0081 35       		.uleb128 0x35
 2433 0082 00       		.byte	0
 2434 0083 49       		.uleb128 0x49
 2435 0084 13       		.uleb128 0x13
 2436 0085 00       		.byte	0
 2437 0086 00       		.byte	0
 2438 0087 0C       		.uleb128 0xc
 2439 0088 17       		.uleb128 0x17
 2440 0089 01       		.byte	0x1
 2441 008a 0B       		.uleb128 0xb
 2442 008b 0B       		.uleb128 0xb
 2443 008c 3A       		.uleb128 0x3a
 2444 008d 0B       		.uleb128 0xb
 2445 008e 3B       		.uleb128 0x3b
 2446 008f 0B       		.uleb128 0xb
 2447 0090 01       		.uleb128 0x1
 2448 0091 13       		.uleb128 0x13
 2449 0092 00       		.byte	0
 2450 0093 00       		.byte	0
 2451 0094 0D       		.uleb128 0xd
ARM GAS  /tmp/ccx90MpO.s 			page 44


 2452 0095 0D       		.uleb128 0xd
 2453 0096 00       		.byte	0
 2454 0097 03       		.uleb128 0x3
 2455 0098 0E       		.uleb128 0xe
 2456 0099 3A       		.uleb128 0x3a
 2457 009a 0B       		.uleb128 0xb
 2458 009b 3B       		.uleb128 0x3b
 2459 009c 0B       		.uleb128 0xb
 2460 009d 49       		.uleb128 0x49
 2461 009e 13       		.uleb128 0x13
 2462 009f 00       		.byte	0
 2463 00a0 00       		.byte	0
 2464 00a1 0E       		.uleb128 0xe
 2465 00a2 26       		.uleb128 0x26
 2466 00a3 00       		.byte	0
 2467 00a4 49       		.uleb128 0x49
 2468 00a5 13       		.uleb128 0x13
 2469 00a6 00       		.byte	0
 2470 00a7 00       		.byte	0
 2471 00a8 0F       		.uleb128 0xf
 2472 00a9 2E       		.uleb128 0x2e
 2473 00aa 01       		.byte	0x1
 2474 00ab 3F       		.uleb128 0x3f
 2475 00ac 19       		.uleb128 0x19
 2476 00ad 03       		.uleb128 0x3
 2477 00ae 0E       		.uleb128 0xe
 2478 00af 3A       		.uleb128 0x3a
 2479 00b0 0B       		.uleb128 0xb
 2480 00b1 3B       		.uleb128 0x3b
 2481 00b2 0B       		.uleb128 0xb
 2482 00b3 27       		.uleb128 0x27
 2483 00b4 19       		.uleb128 0x19
 2484 00b5 49       		.uleb128 0x49
 2485 00b6 13       		.uleb128 0x13
 2486 00b7 20       		.uleb128 0x20
 2487 00b8 0B       		.uleb128 0xb
 2488 00b9 01       		.uleb128 0x1
 2489 00ba 13       		.uleb128 0x13
 2490 00bb 00       		.byte	0
 2491 00bc 00       		.byte	0
 2492 00bd 10       		.uleb128 0x10
 2493 00be 05       		.uleb128 0x5
 2494 00bf 00       		.byte	0
 2495 00c0 03       		.uleb128 0x3
 2496 00c1 08       		.uleb128 0x8
 2497 00c2 3A       		.uleb128 0x3a
 2498 00c3 0B       		.uleb128 0xb
 2499 00c4 3B       		.uleb128 0x3b
 2500 00c5 0B       		.uleb128 0xb
 2501 00c6 49       		.uleb128 0x49
 2502 00c7 13       		.uleb128 0x13
 2503 00c8 00       		.byte	0
 2504 00c9 00       		.byte	0
 2505 00ca 11       		.uleb128 0x11
 2506 00cb 05       		.uleb128 0x5
 2507 00cc 00       		.byte	0
 2508 00cd 03       		.uleb128 0x3
ARM GAS  /tmp/ccx90MpO.s 			page 45


 2509 00ce 0E       		.uleb128 0xe
 2510 00cf 3A       		.uleb128 0x3a
 2511 00d0 0B       		.uleb128 0xb
 2512 00d1 3B       		.uleb128 0x3b
 2513 00d2 0B       		.uleb128 0xb
 2514 00d3 49       		.uleb128 0x49
 2515 00d4 13       		.uleb128 0x13
 2516 00d5 00       		.byte	0
 2517 00d6 00       		.byte	0
 2518 00d7 12       		.uleb128 0x12
 2519 00d8 34       		.uleb128 0x34
 2520 00d9 00       		.byte	0
 2521 00da 03       		.uleb128 0x3
 2522 00db 0E       		.uleb128 0xe
 2523 00dc 3A       		.uleb128 0x3a
 2524 00dd 0B       		.uleb128 0xb
 2525 00de 3B       		.uleb128 0x3b
 2526 00df 0B       		.uleb128 0xb
 2527 00e0 49       		.uleb128 0x49
 2528 00e1 13       		.uleb128 0x13
 2529 00e2 00       		.byte	0
 2530 00e3 00       		.byte	0
 2531 00e4 13       		.uleb128 0x13
 2532 00e5 2E       		.uleb128 0x2e
 2533 00e6 01       		.byte	0x1
 2534 00e7 3F       		.uleb128 0x3f
 2535 00e8 19       		.uleb128 0x19
 2536 00e9 03       		.uleb128 0x3
 2537 00ea 0E       		.uleb128 0xe
 2538 00eb 3A       		.uleb128 0x3a
 2539 00ec 0B       		.uleb128 0xb
 2540 00ed 3B       		.uleb128 0x3b
 2541 00ee 05       		.uleb128 0x5
 2542 00ef 27       		.uleb128 0x27
 2543 00f0 19       		.uleb128 0x19
 2544 00f1 49       		.uleb128 0x49
 2545 00f2 13       		.uleb128 0x13
 2546 00f3 20       		.uleb128 0x20
 2547 00f4 0B       		.uleb128 0xb
 2548 00f5 01       		.uleb128 0x1
 2549 00f6 13       		.uleb128 0x13
 2550 00f7 00       		.byte	0
 2551 00f8 00       		.byte	0
 2552 00f9 14       		.uleb128 0x14
 2553 00fa 05       		.uleb128 0x5
 2554 00fb 00       		.byte	0
 2555 00fc 03       		.uleb128 0x3
 2556 00fd 08       		.uleb128 0x8
 2557 00fe 3A       		.uleb128 0x3a
 2558 00ff 0B       		.uleb128 0xb
 2559 0100 3B       		.uleb128 0x3b
 2560 0101 05       		.uleb128 0x5
 2561 0102 49       		.uleb128 0x49
 2562 0103 13       		.uleb128 0x13
 2563 0104 00       		.byte	0
 2564 0105 00       		.byte	0
 2565 0106 15       		.uleb128 0x15
ARM GAS  /tmp/ccx90MpO.s 			page 46


 2566 0107 05       		.uleb128 0x5
 2567 0108 00       		.byte	0
 2568 0109 03       		.uleb128 0x3
 2569 010a 0E       		.uleb128 0xe
 2570 010b 3A       		.uleb128 0x3a
 2571 010c 0B       		.uleb128 0xb
 2572 010d 3B       		.uleb128 0x3b
 2573 010e 05       		.uleb128 0x5
 2574 010f 49       		.uleb128 0x49
 2575 0110 13       		.uleb128 0x13
 2576 0111 00       		.byte	0
 2577 0112 00       		.byte	0
 2578 0113 16       		.uleb128 0x16
 2579 0114 34       		.uleb128 0x34
 2580 0115 00       		.byte	0
 2581 0116 03       		.uleb128 0x3
 2582 0117 0E       		.uleb128 0xe
 2583 0118 3A       		.uleb128 0x3a
 2584 0119 0B       		.uleb128 0xb
 2585 011a 3B       		.uleb128 0x3b
 2586 011b 05       		.uleb128 0x5
 2587 011c 49       		.uleb128 0x49
 2588 011d 13       		.uleb128 0x13
 2589 011e 00       		.byte	0
 2590 011f 00       		.byte	0
 2591 0120 17       		.uleb128 0x17
 2592 0121 2E       		.uleb128 0x2e
 2593 0122 01       		.byte	0x1
 2594 0123 3F       		.uleb128 0x3f
 2595 0124 19       		.uleb128 0x19
 2596 0125 03       		.uleb128 0x3
 2597 0126 0E       		.uleb128 0xe
 2598 0127 3A       		.uleb128 0x3a
 2599 0128 0B       		.uleb128 0xb
 2600 0129 3B       		.uleb128 0x3b
 2601 012a 0B       		.uleb128 0xb
 2602 012b 27       		.uleb128 0x27
 2603 012c 19       		.uleb128 0x19
 2604 012d 11       		.uleb128 0x11
 2605 012e 01       		.uleb128 0x1
 2606 012f 12       		.uleb128 0x12
 2607 0130 06       		.uleb128 0x6
 2608 0131 40       		.uleb128 0x40
 2609 0132 18       		.uleb128 0x18
 2610 0133 9742     		.uleb128 0x2117
 2611 0135 19       		.uleb128 0x19
 2612 0136 01       		.uleb128 0x1
 2613 0137 13       		.uleb128 0x13
 2614 0138 00       		.byte	0
 2615 0139 00       		.byte	0
 2616 013a 18       		.uleb128 0x18
 2617 013b 05       		.uleb128 0x5
 2618 013c 00       		.byte	0
 2619 013d 03       		.uleb128 0x3
 2620 013e 08       		.uleb128 0x8
 2621 013f 3A       		.uleb128 0x3a
 2622 0140 0B       		.uleb128 0xb
ARM GAS  /tmp/ccx90MpO.s 			page 47


 2623 0141 3B       		.uleb128 0x3b
 2624 0142 0B       		.uleb128 0xb
 2625 0143 49       		.uleb128 0x49
 2626 0144 13       		.uleb128 0x13
 2627 0145 02       		.uleb128 0x2
 2628 0146 17       		.uleb128 0x17
 2629 0147 00       		.byte	0
 2630 0148 00       		.byte	0
 2631 0149 19       		.uleb128 0x19
 2632 014a 898201   		.uleb128 0x4109
 2633 014d 01       		.byte	0x1
 2634 014e 11       		.uleb128 0x11
 2635 014f 01       		.uleb128 0x1
 2636 0150 31       		.uleb128 0x31
 2637 0151 13       		.uleb128 0x13
 2638 0152 01       		.uleb128 0x1
 2639 0153 13       		.uleb128 0x13
 2640 0154 00       		.byte	0
 2641 0155 00       		.byte	0
 2642 0156 1A       		.uleb128 0x1a
 2643 0157 8A8201   		.uleb128 0x410a
 2644 015a 00       		.byte	0
 2645 015b 02       		.uleb128 0x2
 2646 015c 18       		.uleb128 0x18
 2647 015d 9142     		.uleb128 0x2111
 2648 015f 18       		.uleb128 0x18
 2649 0160 00       		.byte	0
 2650 0161 00       		.byte	0
 2651 0162 1B       		.uleb128 0x1b
 2652 0163 898201   		.uleb128 0x4109
 2653 0166 01       		.byte	0x1
 2654 0167 11       		.uleb128 0x11
 2655 0168 01       		.uleb128 0x1
 2656 0169 31       		.uleb128 0x31
 2657 016a 13       		.uleb128 0x13
 2658 016b 00       		.byte	0
 2659 016c 00       		.byte	0
 2660 016d 1C       		.uleb128 0x1c
 2661 016e 898201   		.uleb128 0x4109
 2662 0171 00       		.byte	0
 2663 0172 11       		.uleb128 0x11
 2664 0173 01       		.uleb128 0x1
 2665 0174 31       		.uleb128 0x31
 2666 0175 13       		.uleb128 0x13
 2667 0176 00       		.byte	0
 2668 0177 00       		.byte	0
 2669 0178 1D       		.uleb128 0x1d
 2670 0179 2E       		.uleb128 0x2e
 2671 017a 01       		.byte	0x1
 2672 017b 3F       		.uleb128 0x3f
 2673 017c 19       		.uleb128 0x19
 2674 017d 03       		.uleb128 0x3
 2675 017e 0E       		.uleb128 0xe
 2676 017f 3A       		.uleb128 0x3a
 2677 0180 0B       		.uleb128 0xb
 2678 0181 3B       		.uleb128 0x3b
 2679 0182 0B       		.uleb128 0xb
ARM GAS  /tmp/ccx90MpO.s 			page 48


 2680 0183 27       		.uleb128 0x27
 2681 0184 19       		.uleb128 0x19
 2682 0185 49       		.uleb128 0x49
 2683 0186 13       		.uleb128 0x13
 2684 0187 11       		.uleb128 0x11
 2685 0188 01       		.uleb128 0x1
 2686 0189 12       		.uleb128 0x12
 2687 018a 06       		.uleb128 0x6
 2688 018b 40       		.uleb128 0x40
 2689 018c 18       		.uleb128 0x18
 2690 018d 9742     		.uleb128 0x2117
 2691 018f 19       		.uleb128 0x19
 2692 0190 01       		.uleb128 0x1
 2693 0191 13       		.uleb128 0x13
 2694 0192 00       		.byte	0
 2695 0193 00       		.byte	0
 2696 0194 1E       		.uleb128 0x1e
 2697 0195 05       		.uleb128 0x5
 2698 0196 00       		.byte	0
 2699 0197 03       		.uleb128 0x3
 2700 0198 0E       		.uleb128 0xe
 2701 0199 3A       		.uleb128 0x3a
 2702 019a 0B       		.uleb128 0xb
 2703 019b 3B       		.uleb128 0x3b
 2704 019c 0B       		.uleb128 0xb
 2705 019d 49       		.uleb128 0x49
 2706 019e 13       		.uleb128 0x13
 2707 019f 02       		.uleb128 0x2
 2708 01a0 17       		.uleb128 0x17
 2709 01a1 00       		.byte	0
 2710 01a2 00       		.byte	0
 2711 01a3 1F       		.uleb128 0x1f
 2712 01a4 34       		.uleb128 0x34
 2713 01a5 00       		.byte	0
 2714 01a6 03       		.uleb128 0x3
 2715 01a7 0E       		.uleb128 0xe
 2716 01a8 3A       		.uleb128 0x3a
 2717 01a9 0B       		.uleb128 0xb
 2718 01aa 3B       		.uleb128 0x3b
 2719 01ab 0B       		.uleb128 0xb
 2720 01ac 49       		.uleb128 0x49
 2721 01ad 13       		.uleb128 0x13
 2722 01ae 02       		.uleb128 0x2
 2723 01af 18       		.uleb128 0x18
 2724 01b0 00       		.byte	0
 2725 01b1 00       		.byte	0
 2726 01b2 20       		.uleb128 0x20
 2727 01b3 1D       		.uleb128 0x1d
 2728 01b4 01       		.byte	0x1
 2729 01b5 31       		.uleb128 0x31
 2730 01b6 13       		.uleb128 0x13
 2731 01b7 52       		.uleb128 0x52
 2732 01b8 01       		.uleb128 0x1
 2733 01b9 55       		.uleb128 0x55
 2734 01ba 17       		.uleb128 0x17
 2735 01bb 58       		.uleb128 0x58
 2736 01bc 0B       		.uleb128 0xb
ARM GAS  /tmp/ccx90MpO.s 			page 49


 2737 01bd 59       		.uleb128 0x59
 2738 01be 0B       		.uleb128 0xb
 2739 01bf 00       		.byte	0
 2740 01c0 00       		.byte	0
 2741 01c1 21       		.uleb128 0x21
 2742 01c2 05       		.uleb128 0x5
 2743 01c3 00       		.byte	0
 2744 01c4 31       		.uleb128 0x31
 2745 01c5 13       		.uleb128 0x13
 2746 01c6 02       		.uleb128 0x2
 2747 01c7 17       		.uleb128 0x17
 2748 01c8 00       		.byte	0
 2749 01c9 00       		.byte	0
 2750 01ca 22       		.uleb128 0x22
 2751 01cb 0B       		.uleb128 0xb
 2752 01cc 01       		.byte	0x1
 2753 01cd 55       		.uleb128 0x55
 2754 01ce 17       		.uleb128 0x17
 2755 01cf 00       		.byte	0
 2756 01d0 00       		.byte	0
 2757 01d1 23       		.uleb128 0x23
 2758 01d2 34       		.uleb128 0x34
 2759 01d3 00       		.byte	0
 2760 01d4 31       		.uleb128 0x31
 2761 01d5 13       		.uleb128 0x13
 2762 01d6 02       		.uleb128 0x2
 2763 01d7 17       		.uleb128 0x17
 2764 01d8 00       		.byte	0
 2765 01d9 00       		.byte	0
 2766 01da 24       		.uleb128 0x24
 2767 01db 0B       		.uleb128 0xb
 2768 01dc 01       		.byte	0x1
 2769 01dd 11       		.uleb128 0x11
 2770 01de 01       		.uleb128 0x1
 2771 01df 12       		.uleb128 0x12
 2772 01e0 06       		.uleb128 0x6
 2773 01e1 01       		.uleb128 0x1
 2774 01e2 13       		.uleb128 0x13
 2775 01e3 00       		.byte	0
 2776 01e4 00       		.byte	0
 2777 01e5 25       		.uleb128 0x25
 2778 01e6 05       		.uleb128 0x5
 2779 01e7 00       		.byte	0
 2780 01e8 31       		.uleb128 0x31
 2781 01e9 13       		.uleb128 0x13
 2782 01ea 02       		.uleb128 0x2
 2783 01eb 18       		.uleb128 0x18
 2784 01ec 00       		.byte	0
 2785 01ed 00       		.byte	0
 2786 01ee 26       		.uleb128 0x26
 2787 01ef 0B       		.uleb128 0xb
 2788 01f0 01       		.byte	0x1
 2789 01f1 11       		.uleb128 0x11
 2790 01f2 01       		.uleb128 0x1
 2791 01f3 12       		.uleb128 0x12
 2792 01f4 06       		.uleb128 0x6
 2793 01f5 00       		.byte	0
ARM GAS  /tmp/ccx90MpO.s 			page 50


 2794 01f6 00       		.byte	0
 2795 01f7 27       		.uleb128 0x27
 2796 01f8 34       		.uleb128 0x34
 2797 01f9 00       		.byte	0
 2798 01fa 31       		.uleb128 0x31
 2799 01fb 13       		.uleb128 0x13
 2800 01fc 00       		.byte	0
 2801 01fd 00       		.byte	0
 2802 01fe 28       		.uleb128 0x28
 2803 01ff 2E       		.uleb128 0x2e
 2804 0200 01       		.byte	0x1
 2805 0201 31       		.uleb128 0x31
 2806 0202 13       		.uleb128 0x13
 2807 0203 11       		.uleb128 0x11
 2808 0204 01       		.uleb128 0x1
 2809 0205 12       		.uleb128 0x12
 2810 0206 06       		.uleb128 0x6
 2811 0207 40       		.uleb128 0x40
 2812 0208 18       		.uleb128 0x18
 2813 0209 9742     		.uleb128 0x2117
 2814 020b 19       		.uleb128 0x19
 2815 020c 01       		.uleb128 0x1
 2816 020d 13       		.uleb128 0x13
 2817 020e 00       		.byte	0
 2818 020f 00       		.byte	0
 2819 0210 29       		.uleb128 0x29
 2820 0211 0B       		.uleb128 0xb
 2821 0212 01       		.byte	0x1
 2822 0213 55       		.uleb128 0x55
 2823 0214 17       		.uleb128 0x17
 2824 0215 01       		.uleb128 0x1
 2825 0216 13       		.uleb128 0x13
 2826 0217 00       		.byte	0
 2827 0218 00       		.byte	0
 2828 0219 2A       		.uleb128 0x2a
 2829 021a 2E       		.uleb128 0x2e
 2830 021b 01       		.byte	0x1
 2831 021c 3F       		.uleb128 0x3f
 2832 021d 19       		.uleb128 0x19
 2833 021e 03       		.uleb128 0x3
 2834 021f 0E       		.uleb128 0xe
 2835 0220 3A       		.uleb128 0x3a
 2836 0221 0B       		.uleb128 0xb
 2837 0222 3B       		.uleb128 0x3b
 2838 0223 05       		.uleb128 0x5
 2839 0224 27       		.uleb128 0x27
 2840 0225 19       		.uleb128 0x19
 2841 0226 49       		.uleb128 0x49
 2842 0227 13       		.uleb128 0x13
 2843 0228 11       		.uleb128 0x11
 2844 0229 01       		.uleb128 0x1
 2845 022a 12       		.uleb128 0x12
 2846 022b 06       		.uleb128 0x6
 2847 022c 40       		.uleb128 0x40
 2848 022d 18       		.uleb128 0x18
 2849 022e 9742     		.uleb128 0x2117
 2850 0230 19       		.uleb128 0x19
ARM GAS  /tmp/ccx90MpO.s 			page 51


 2851 0231 01       		.uleb128 0x1
 2852 0232 13       		.uleb128 0x13
 2853 0233 00       		.byte	0
 2854 0234 00       		.byte	0
 2855 0235 2B       		.uleb128 0x2b
 2856 0236 05       		.uleb128 0x5
 2857 0237 00       		.byte	0
 2858 0238 03       		.uleb128 0x3
 2859 0239 08       		.uleb128 0x8
 2860 023a 3A       		.uleb128 0x3a
 2861 023b 0B       		.uleb128 0xb
 2862 023c 3B       		.uleb128 0x3b
 2863 023d 05       		.uleb128 0x5
 2864 023e 49       		.uleb128 0x49
 2865 023f 13       		.uleb128 0x13
 2866 0240 02       		.uleb128 0x2
 2867 0241 17       		.uleb128 0x17
 2868 0242 00       		.byte	0
 2869 0243 00       		.byte	0
 2870 0244 2C       		.uleb128 0x2c
 2871 0245 05       		.uleb128 0x5
 2872 0246 00       		.byte	0
 2873 0247 03       		.uleb128 0x3
 2874 0248 0E       		.uleb128 0xe
 2875 0249 3A       		.uleb128 0x3a
 2876 024a 0B       		.uleb128 0xb
 2877 024b 3B       		.uleb128 0x3b
 2878 024c 05       		.uleb128 0x5
 2879 024d 49       		.uleb128 0x49
 2880 024e 13       		.uleb128 0x13
 2881 024f 02       		.uleb128 0x2
 2882 0250 17       		.uleb128 0x17
 2883 0251 00       		.byte	0
 2884 0252 00       		.byte	0
 2885 0253 2D       		.uleb128 0x2d
 2886 0254 34       		.uleb128 0x34
 2887 0255 00       		.byte	0
 2888 0256 03       		.uleb128 0x3
 2889 0257 0E       		.uleb128 0xe
 2890 0258 3A       		.uleb128 0x3a
 2891 0259 0B       		.uleb128 0xb
 2892 025a 3B       		.uleb128 0x3b
 2893 025b 05       		.uleb128 0x5
 2894 025c 49       		.uleb128 0x49
 2895 025d 13       		.uleb128 0x13
 2896 025e 02       		.uleb128 0x2
 2897 025f 18       		.uleb128 0x18
 2898 0260 00       		.byte	0
 2899 0261 00       		.byte	0
 2900 0262 2E       		.uleb128 0x2e
 2901 0263 1D       		.uleb128 0x1d
 2902 0264 01       		.byte	0x1
 2903 0265 31       		.uleb128 0x31
 2904 0266 13       		.uleb128 0x13
 2905 0267 52       		.uleb128 0x52
 2906 0268 01       		.uleb128 0x1
 2907 0269 55       		.uleb128 0x55
ARM GAS  /tmp/ccx90MpO.s 			page 52


 2908 026a 17       		.uleb128 0x17
 2909 026b 58       		.uleb128 0x58
 2910 026c 0B       		.uleb128 0xb
 2911 026d 59       		.uleb128 0x59
 2912 026e 05       		.uleb128 0x5
 2913 026f 00       		.byte	0
 2914 0270 00       		.byte	0
 2915 0271 2F       		.uleb128 0x2f
 2916 0272 2E       		.uleb128 0x2e
 2917 0273 00       		.byte	0
 2918 0274 3F       		.uleb128 0x3f
 2919 0275 19       		.uleb128 0x19
 2920 0276 3C       		.uleb128 0x3c
 2921 0277 19       		.uleb128 0x19
 2922 0278 6E       		.uleb128 0x6e
 2923 0279 0E       		.uleb128 0xe
 2924 027a 03       		.uleb128 0x3
 2925 027b 0E       		.uleb128 0xe
 2926 027c 3A       		.uleb128 0x3a
 2927 027d 0B       		.uleb128 0xb
 2928 027e 3B       		.uleb128 0x3b
 2929 027f 0B       		.uleb128 0xb
 2930 0280 00       		.byte	0
 2931 0281 00       		.byte	0
 2932 0282 00       		.byte	0
 2933              		.section	.debug_loc,"",%progbits
 2934              	.Ldebug_loc0:
 2935              	.LLST0:
 2936 0000 00000000 		.4byte	.LVL0
 2937 0004 0C000000 		.4byte	.LVL1
 2938 0008 0100     		.2byte	0x1
 2939 000a 50       		.byte	0x50
 2940 000b 0C000000 		.4byte	.LVL1
 2941 000f 24000000 		.4byte	.LVL5
 2942 0013 0100     		.2byte	0x1
 2943 0015 54       		.byte	0x54
 2944 0016 24000000 		.4byte	.LVL5
 2945 001a 26000000 		.4byte	.LFE7
 2946 001e 0400     		.2byte	0x4
 2947 0020 F3       		.byte	0xf3
 2948 0021 01       		.uleb128 0x1
 2949 0022 50       		.byte	0x50
 2950 0023 9F       		.byte	0x9f
 2951 0024 00000000 		.4byte	0
 2952 0028 00000000 		.4byte	0
 2953              	.LLST1:
 2954 002c 00000000 		.4byte	.LVL0
 2955 0030 12000000 		.4byte	.LVL2
 2956 0034 0100     		.2byte	0x1
 2957 0036 51       		.byte	0x51
 2958 0037 12000000 		.4byte	.LVL2
 2959 003b 19000000 		.4byte	.LVL3-1
 2960 003f 0200     		.2byte	0x2
 2961 0041 74       		.byte	0x74
 2962 0042 00       		.sleb128 0
 2963 0043 19000000 		.4byte	.LVL3-1
 2964 0047 26000000 		.4byte	.LFE7
ARM GAS  /tmp/ccx90MpO.s 			page 53


 2965 004b 0400     		.2byte	0x4
 2966 004d F3       		.byte	0xf3
 2967 004e 01       		.uleb128 0x1
 2968 004f 51       		.byte	0x51
 2969 0050 9F       		.byte	0x9f
 2970 0051 00000000 		.4byte	0
 2971 0055 00000000 		.4byte	0
 2972              	.LLST2:
 2973 0059 00000000 		.4byte	.LVL0
 2974 005d 19000000 		.4byte	.LVL3-1
 2975 0061 0100     		.2byte	0x1
 2976 0063 52       		.byte	0x52
 2977 0064 19000000 		.4byte	.LVL3-1
 2978 0068 26000000 		.4byte	.LFE7
 2979 006c 0400     		.2byte	0x4
 2980 006e F3       		.byte	0xf3
 2981 006f 01       		.uleb128 0x1
 2982 0070 52       		.byte	0x52
 2983 0071 9F       		.byte	0x9f
 2984 0072 00000000 		.4byte	0
 2985 0076 00000000 		.4byte	0
 2986              	.LLST3:
 2987 007a 00000000 		.4byte	.LVL6
 2988 007e 14000000 		.4byte	.LVL7
 2989 0082 0100     		.2byte	0x1
 2990 0084 50       		.byte	0x50
 2991 0085 14000000 		.4byte	.LVL7
 2992 0089 28000000 		.4byte	.LVL11
 2993 008d 0100     		.2byte	0x1
 2994 008f 54       		.byte	0x54
 2995 0090 28000000 		.4byte	.LVL11
 2996 0094 2A000000 		.4byte	.LFE8
 2997 0098 0400     		.2byte	0x4
 2998 009a F3       		.byte	0xf3
 2999 009b 01       		.uleb128 0x1
 3000 009c 50       		.byte	0x50
 3001 009d 9F       		.byte	0x9f
 3002 009e 00000000 		.4byte	0
 3003 00a2 00000000 		.4byte	0
 3004              	.LLST4:
 3005 00a6 00000000 		.4byte	.LVL12
 3006 00aa 0A000000 		.4byte	.LVL14
 3007 00ae 0100     		.2byte	0x1
 3008 00b0 50       		.byte	0x50
 3009 00b1 0A000000 		.4byte	.LVL14
 3010 00b5 18000000 		.4byte	.LVL19
 3011 00b9 0100     		.2byte	0x1
 3012 00bb 54       		.byte	0x54
 3013 00bc 18000000 		.4byte	.LVL19
 3014 00c0 1A000000 		.4byte	.LVL21
 3015 00c4 0400     		.2byte	0x4
 3016 00c6 F3       		.byte	0xf3
 3017 00c7 01       		.uleb128 0x1
 3018 00c8 50       		.byte	0x50
 3019 00c9 9F       		.byte	0x9f
 3020 00ca 1A000000 		.4byte	.LVL21
 3021 00ce 3A000000 		.4byte	.LFE9
ARM GAS  /tmp/ccx90MpO.s 			page 54


 3022 00d2 0100     		.2byte	0x1
 3023 00d4 54       		.byte	0x54
 3024 00d5 00000000 		.4byte	0
 3025 00d9 00000000 		.4byte	0
 3026              	.LLST5:
 3027 00dd 00000000 		.4byte	.LVL12
 3028 00e1 0C000000 		.4byte	.LVL15
 3029 00e5 0100     		.2byte	0x1
 3030 00e7 51       		.byte	0x51
 3031 00e8 0C000000 		.4byte	.LVL15
 3032 00ec 18000000 		.4byte	.LVL20
 3033 00f0 0100     		.2byte	0x1
 3034 00f2 56       		.byte	0x56
 3035 00f3 18000000 		.4byte	.LVL20
 3036 00f7 1A000000 		.4byte	.LVL21
 3037 00fb 0400     		.2byte	0x4
 3038 00fd F3       		.byte	0xf3
 3039 00fe 01       		.uleb128 0x1
 3040 00ff 51       		.byte	0x51
 3041 0100 9F       		.byte	0x9f
 3042 0101 1A000000 		.4byte	.LVL21
 3043 0105 3A000000 		.4byte	.LFE9
 3044 0109 0100     		.2byte	0x1
 3045 010b 56       		.byte	0x56
 3046 010c 00000000 		.4byte	0
 3047 0110 00000000 		.4byte	0
 3048              	.LLST6:
 3049 0114 00000000 		.4byte	.LVL12
 3050 0118 0F000000 		.4byte	.LVL16-1
 3051 011c 0100     		.2byte	0x1
 3052 011e 52       		.byte	0x52
 3053 011f 0F000000 		.4byte	.LVL16-1
 3054 0123 3A000000 		.4byte	.LFE9
 3055 0127 0400     		.2byte	0x4
 3056 0129 F3       		.byte	0xf3
 3057 012a 01       		.uleb128 0x1
 3058 012b 52       		.byte	0x52
 3059 012c 9F       		.byte	0x9f
 3060 012d 00000000 		.4byte	0
 3061 0131 00000000 		.4byte	0
 3062              	.LLST7:
 3063 0135 08000000 		.4byte	.LVL13
 3064 0139 0F000000 		.4byte	.LVL16-1
 3065 013d 0100     		.2byte	0x1
 3066 013f 52       		.byte	0x52
 3067 0140 0F000000 		.4byte	.LVL16-1
 3068 0144 14000000 		.4byte	.LVL18
 3069 0148 0400     		.2byte	0x4
 3070 014a F3       		.byte	0xf3
 3071 014b 01       		.uleb128 0x1
 3072 014c 52       		.byte	0x52
 3073 014d 9F       		.byte	0x9f
 3074 014e 1A000000 		.4byte	.LVL21
 3075 0152 3A000000 		.4byte	.LFE9
 3076 0156 0400     		.2byte	0x4
 3077 0158 F3       		.byte	0xf3
 3078 0159 01       		.uleb128 0x1
ARM GAS  /tmp/ccx90MpO.s 			page 55


 3079 015a 52       		.byte	0x52
 3080 015b 9F       		.byte	0x9f
 3081 015c 00000000 		.4byte	0
 3082 0160 00000000 		.4byte	0
 3083              	.LLST8:
 3084 0164 08000000 		.4byte	.LVL13
 3085 0168 0C000000 		.4byte	.LVL15
 3086 016c 0100     		.2byte	0x1
 3087 016e 51       		.byte	0x51
 3088 016f 0C000000 		.4byte	.LVL15
 3089 0173 14000000 		.4byte	.LVL18
 3090 0177 0100     		.2byte	0x1
 3091 0179 56       		.byte	0x56
 3092 017a 1A000000 		.4byte	.LVL21
 3093 017e 3A000000 		.4byte	.LFE9
 3094 0182 0100     		.2byte	0x1
 3095 0184 56       		.byte	0x56
 3096 0185 00000000 		.4byte	0
 3097 0189 00000000 		.4byte	0
 3098              	.LLST9:
 3099 018d 08000000 		.4byte	.LVL13
 3100 0191 0A000000 		.4byte	.LVL14
 3101 0195 0100     		.2byte	0x1
 3102 0197 50       		.byte	0x50
 3103 0198 0A000000 		.4byte	.LVL14
 3104 019c 14000000 		.4byte	.LVL18
 3105 01a0 0100     		.2byte	0x1
 3106 01a2 54       		.byte	0x54
 3107 01a3 1A000000 		.4byte	.LVL21
 3108 01a7 3A000000 		.4byte	.LFE9
 3109 01ab 0100     		.2byte	0x1
 3110 01ad 54       		.byte	0x54
 3111 01ae 00000000 		.4byte	0
 3112 01b2 00000000 		.4byte	0
 3113              	.LLST10:
 3114 01b6 12000000 		.4byte	.LVL17
 3115 01ba 14000000 		.4byte	.LVL18
 3116 01be 0100     		.2byte	0x1
 3117 01c0 50       		.byte	0x50
 3118 01c1 1A000000 		.4byte	.LVL21
 3119 01c5 2E000000 		.4byte	.LVL22
 3120 01c9 0100     		.2byte	0x1
 3121 01cb 50       		.byte	0x50
 3122 01cc 2E000000 		.4byte	.LVL22
 3123 01d0 3A000000 		.4byte	.LFE9
 3124 01d4 0100     		.2byte	0x1
 3125 01d6 55       		.byte	0x55
 3126 01d7 00000000 		.4byte	0
 3127 01db 00000000 		.4byte	0
 3128              	.LLST11:
 3129 01df 00000000 		.4byte	.LVL25
 3130 01e3 08000000 		.4byte	.LVL26
 3131 01e7 0100     		.2byte	0x1
 3132 01e9 50       		.byte	0x50
 3133 01ea 08000000 		.4byte	.LVL26
 3134 01ee 2E000000 		.4byte	.LVL34
 3135 01f2 0100     		.2byte	0x1
ARM GAS  /tmp/ccx90MpO.s 			page 56


 3136 01f4 54       		.byte	0x54
 3137 01f5 2E000000 		.4byte	.LVL34
 3138 01f9 30000000 		.4byte	.LVL37
 3139 01fd 0400     		.2byte	0x4
 3140 01ff F3       		.byte	0xf3
 3141 0200 01       		.uleb128 0x1
 3142 0201 50       		.byte	0x50
 3143 0202 9F       		.byte	0x9f
 3144 0203 30000000 		.4byte	.LVL37
 3145 0207 36000000 		.4byte	.LFE10
 3146 020b 0100     		.2byte	0x1
 3147 020d 54       		.byte	0x54
 3148 020e 00000000 		.4byte	0
 3149 0212 00000000 		.4byte	0
 3150              	.LLST12:
 3151 0216 00000000 		.4byte	.LVL25
 3152 021a 0A000000 		.4byte	.LVL27
 3153 021e 0100     		.2byte	0x1
 3154 0220 51       		.byte	0x51
 3155 0221 0A000000 		.4byte	.LVL27
 3156 0225 2E000000 		.4byte	.LVL36
 3157 0229 0100     		.2byte	0x1
 3158 022b 56       		.byte	0x56
 3159 022c 2E000000 		.4byte	.LVL36
 3160 0230 30000000 		.4byte	.LVL37
 3161 0234 0400     		.2byte	0x4
 3162 0236 F3       		.byte	0xf3
 3163 0237 01       		.uleb128 0x1
 3164 0238 51       		.byte	0x51
 3165 0239 9F       		.byte	0x9f
 3166 023a 30000000 		.4byte	.LVL37
 3167 023e 36000000 		.4byte	.LFE10
 3168 0242 0100     		.2byte	0x1
 3169 0244 56       		.byte	0x56
 3170 0245 00000000 		.4byte	0
 3171 0249 00000000 		.4byte	0
 3172              	.LLST13:
 3173 024d 00000000 		.4byte	.LVL25
 3174 0251 0D000000 		.4byte	.LVL28-1
 3175 0255 0100     		.2byte	0x1
 3176 0257 52       		.byte	0x52
 3177 0258 0D000000 		.4byte	.LVL28-1
 3178 025c 36000000 		.4byte	.LFE10
 3179 0260 0400     		.2byte	0x4
 3180 0262 F3       		.byte	0xf3
 3181 0263 01       		.uleb128 0x1
 3182 0264 52       		.byte	0x52
 3183 0265 9F       		.byte	0x9f
 3184 0266 00000000 		.4byte	0
 3185 026a 00000000 		.4byte	0
 3186              	.LLST14:
 3187 026e 10000000 		.4byte	.LVL29
 3188 0272 22000000 		.4byte	.LVL31
 3189 0276 0100     		.2byte	0x1
 3190 0278 50       		.byte	0x50
 3191 0279 22000000 		.4byte	.LVL31
 3192 027d 2E000000 		.4byte	.LVL35
ARM GAS  /tmp/ccx90MpO.s 			page 57


 3193 0281 0100     		.2byte	0x1
 3194 0283 55       		.byte	0x55
 3195 0284 2E000000 		.4byte	.LVL35
 3196 0288 36000000 		.4byte	.LFE10
 3197 028c 0100     		.2byte	0x1
 3198 028e 50       		.byte	0x50
 3199 028f 00000000 		.4byte	0
 3200 0293 00000000 		.4byte	0
 3201              	.LLST15:
 3202 0297 12000000 		.4byte	.LVL30
 3203 029b 2C000000 		.4byte	.LVL33
 3204 029f 0400     		.2byte	0x4
 3205 02a1 F3       		.byte	0xf3
 3206 02a2 01       		.uleb128 0x1
 3207 02a3 52       		.byte	0x52
 3208 02a4 9F       		.byte	0x9f
 3209 02a5 30000000 		.4byte	.LVL37
 3210 02a9 36000000 		.4byte	.LFE10
 3211 02ad 0400     		.2byte	0x4
 3212 02af F3       		.byte	0xf3
 3213 02b0 01       		.uleb128 0x1
 3214 02b1 52       		.byte	0x52
 3215 02b2 9F       		.byte	0x9f
 3216 02b3 00000000 		.4byte	0
 3217 02b7 00000000 		.4byte	0
 3218              	.LLST16:
 3219 02bb 12000000 		.4byte	.LVL30
 3220 02bf 2C000000 		.4byte	.LVL33
 3221 02c3 0100     		.2byte	0x1
 3222 02c5 56       		.byte	0x56
 3223 02c6 30000000 		.4byte	.LVL37
 3224 02ca 36000000 		.4byte	.LFE10
 3225 02ce 0100     		.2byte	0x1
 3226 02d0 56       		.byte	0x56
 3227 02d1 00000000 		.4byte	0
 3228 02d5 00000000 		.4byte	0
 3229              	.LLST17:
 3230 02d9 12000000 		.4byte	.LVL30
 3231 02dd 2C000000 		.4byte	.LVL33
 3232 02e1 0100     		.2byte	0x1
 3233 02e3 54       		.byte	0x54
 3234 02e4 30000000 		.4byte	.LVL37
 3235 02e8 36000000 		.4byte	.LFE10
 3236 02ec 0100     		.2byte	0x1
 3237 02ee 54       		.byte	0x54
 3238 02ef 00000000 		.4byte	0
 3239 02f3 00000000 		.4byte	0
 3240              	.LLST18:
 3241 02f7 00000000 		.4byte	.LVL38
 3242 02fb 1C000000 		.4byte	.LVL39
 3243 02ff 0100     		.2byte	0x1
 3244 0301 50       		.byte	0x50
 3245 0302 1C000000 		.4byte	.LVL39
 3246 0306 1F000000 		.4byte	.LVL40-1
 3247 030a 0300     		.2byte	0x3
 3248 030c 70       		.byte	0x70
 3249 030d 70       		.sleb128 -16
ARM GAS  /tmp/ccx90MpO.s 			page 58


 3250 030e 9F       		.byte	0x9f
 3251 030f 1F000000 		.4byte	.LVL40-1
 3252 0313 24000000 		.4byte	.LVL41
 3253 0317 0400     		.2byte	0x4
 3254 0319 F3       		.byte	0xf3
 3255 031a 01       		.uleb128 0x1
 3256 031b 50       		.byte	0x50
 3257 031c 9F       		.byte	0x9f
 3258 031d 24000000 		.4byte	.LVL41
 3259 0321 2C000000 		.4byte	.LVL42
 3260 0325 0100     		.2byte	0x1
 3261 0327 50       		.byte	0x50
 3262 0328 2C000000 		.4byte	.LVL42
 3263 032c 30000000 		.4byte	.LFE11
 3264 0330 0400     		.2byte	0x4
 3265 0332 F3       		.byte	0xf3
 3266 0333 01       		.uleb128 0x1
 3267 0334 50       		.byte	0x50
 3268 0335 9F       		.byte	0x9f
 3269 0336 00000000 		.4byte	0
 3270 033a 00000000 		.4byte	0
 3271              	.LLST19:
 3272 033e 00000000 		.4byte	.LVL38
 3273 0342 1F000000 		.4byte	.LVL40-1
 3274 0346 0100     		.2byte	0x1
 3275 0348 51       		.byte	0x51
 3276 0349 1F000000 		.4byte	.LVL40-1
 3277 034d 24000000 		.4byte	.LVL41
 3278 0351 0400     		.2byte	0x4
 3279 0353 F3       		.byte	0xf3
 3280 0354 01       		.uleb128 0x1
 3281 0355 51       		.byte	0x51
 3282 0356 9F       		.byte	0x9f
 3283 0357 24000000 		.4byte	.LVL41
 3284 035b 30000000 		.4byte	.LFE11
 3285 035f 0100     		.2byte	0x1
 3286 0361 51       		.byte	0x51
 3287 0362 00000000 		.4byte	0
 3288 0366 00000000 		.4byte	0
 3289              	.LLST20:
 3290 036a 00000000 		.4byte	.LVL43
 3291 036e 0A000000 		.4byte	.LVL45
 3292 0372 0100     		.2byte	0x1
 3293 0374 50       		.byte	0x50
 3294 0375 0A000000 		.4byte	.LVL45
 3295 0379 18000000 		.4byte	.LVL50
 3296 037d 0100     		.2byte	0x1
 3297 037f 54       		.byte	0x54
 3298 0380 18000000 		.4byte	.LVL50
 3299 0384 1A000000 		.4byte	.LVL52
 3300 0388 0400     		.2byte	0x4
 3301 038a F3       		.byte	0xf3
 3302 038b 01       		.uleb128 0x1
 3303 038c 50       		.byte	0x50
 3304 038d 9F       		.byte	0x9f
 3305 038e 1A000000 		.4byte	.LVL52
 3306 0392 3C000000 		.4byte	.LFE12
ARM GAS  /tmp/ccx90MpO.s 			page 59


 3307 0396 0100     		.2byte	0x1
 3308 0398 54       		.byte	0x54
 3309 0399 00000000 		.4byte	0
 3310 039d 00000000 		.4byte	0
 3311              	.LLST21:
 3312 03a1 00000000 		.4byte	.LVL43
 3313 03a5 0C000000 		.4byte	.LVL46
 3314 03a9 0100     		.2byte	0x1
 3315 03ab 51       		.byte	0x51
 3316 03ac 0C000000 		.4byte	.LVL46
 3317 03b0 18000000 		.4byte	.LVL51
 3318 03b4 0100     		.2byte	0x1
 3319 03b6 56       		.byte	0x56
 3320 03b7 18000000 		.4byte	.LVL51
 3321 03bb 1A000000 		.4byte	.LVL52
 3322 03bf 0400     		.2byte	0x4
 3323 03c1 F3       		.byte	0xf3
 3324 03c2 01       		.uleb128 0x1
 3325 03c3 51       		.byte	0x51
 3326 03c4 9F       		.byte	0x9f
 3327 03c5 1A000000 		.4byte	.LVL52
 3328 03c9 3C000000 		.4byte	.LFE12
 3329 03cd 0100     		.2byte	0x1
 3330 03cf 56       		.byte	0x56
 3331 03d0 00000000 		.4byte	0
 3332 03d4 00000000 		.4byte	0
 3333              	.LLST22:
 3334 03d8 00000000 		.4byte	.LVL43
 3335 03dc 0F000000 		.4byte	.LVL47-1
 3336 03e0 0100     		.2byte	0x1
 3337 03e2 52       		.byte	0x52
 3338 03e3 0F000000 		.4byte	.LVL47-1
 3339 03e7 3C000000 		.4byte	.LFE12
 3340 03eb 0400     		.2byte	0x4
 3341 03ed F3       		.byte	0xf3
 3342 03ee 01       		.uleb128 0x1
 3343 03ef 52       		.byte	0x52
 3344 03f0 9F       		.byte	0x9f
 3345 03f1 00000000 		.4byte	0
 3346 03f5 00000000 		.4byte	0
 3347              	.LLST23:
 3348 03f9 08000000 		.4byte	.LVL44
 3349 03fd 0F000000 		.4byte	.LVL47-1
 3350 0401 0100     		.2byte	0x1
 3351 0403 52       		.byte	0x52
 3352 0404 0F000000 		.4byte	.LVL47-1
 3353 0408 14000000 		.4byte	.LVL49
 3354 040c 0400     		.2byte	0x4
 3355 040e F3       		.byte	0xf3
 3356 040f 01       		.uleb128 0x1
 3357 0410 52       		.byte	0x52
 3358 0411 9F       		.byte	0x9f
 3359 0412 1A000000 		.4byte	.LVL52
 3360 0416 3C000000 		.4byte	.LFE12
 3361 041a 0400     		.2byte	0x4
 3362 041c F3       		.byte	0xf3
 3363 041d 01       		.uleb128 0x1
ARM GAS  /tmp/ccx90MpO.s 			page 60


 3364 041e 52       		.byte	0x52
 3365 041f 9F       		.byte	0x9f
 3366 0420 00000000 		.4byte	0
 3367 0424 00000000 		.4byte	0
 3368              	.LLST24:
 3369 0428 08000000 		.4byte	.LVL44
 3370 042c 0C000000 		.4byte	.LVL46
 3371 0430 0100     		.2byte	0x1
 3372 0432 51       		.byte	0x51
 3373 0433 0C000000 		.4byte	.LVL46
 3374 0437 14000000 		.4byte	.LVL49
 3375 043b 0100     		.2byte	0x1
 3376 043d 56       		.byte	0x56
 3377 043e 1A000000 		.4byte	.LVL52
 3378 0442 3C000000 		.4byte	.LFE12
 3379 0446 0100     		.2byte	0x1
 3380 0448 56       		.byte	0x56
 3381 0449 00000000 		.4byte	0
 3382 044d 00000000 		.4byte	0
 3383              	.LLST25:
 3384 0451 08000000 		.4byte	.LVL44
 3385 0455 0A000000 		.4byte	.LVL45
 3386 0459 0100     		.2byte	0x1
 3387 045b 50       		.byte	0x50
 3388 045c 0A000000 		.4byte	.LVL45
 3389 0460 14000000 		.4byte	.LVL49
 3390 0464 0100     		.2byte	0x1
 3391 0466 54       		.byte	0x54
 3392 0467 1A000000 		.4byte	.LVL52
 3393 046b 3C000000 		.4byte	.LFE12
 3394 046f 0100     		.2byte	0x1
 3395 0471 54       		.byte	0x54
 3396 0472 00000000 		.4byte	0
 3397 0476 00000000 		.4byte	0
 3398              	.LLST26:
 3399 047a 12000000 		.4byte	.LVL48
 3400 047e 14000000 		.4byte	.LVL49
 3401 0482 0100     		.2byte	0x1
 3402 0484 50       		.byte	0x50
 3403 0485 1A000000 		.4byte	.LVL52
 3404 0489 2E000000 		.4byte	.LVL53
 3405 048d 0100     		.2byte	0x1
 3406 048f 50       		.byte	0x50
 3407 0490 2E000000 		.4byte	.LVL53
 3408 0494 3C000000 		.4byte	.LFE12
 3409 0498 0100     		.2byte	0x1
 3410 049a 55       		.byte	0x55
 3411 049b 00000000 		.4byte	0
 3412 049f 00000000 		.4byte	0
 3413              	.LLST27:
 3414 04a3 00000000 		.4byte	.LVL56
 3415 04a7 08000000 		.4byte	.LVL57
 3416 04ab 0100     		.2byte	0x1
 3417 04ad 50       		.byte	0x50
 3418 04ae 08000000 		.4byte	.LVL57
 3419 04b2 2E000000 		.4byte	.LVL65
 3420 04b6 0100     		.2byte	0x1
ARM GAS  /tmp/ccx90MpO.s 			page 61


 3421 04b8 54       		.byte	0x54
 3422 04b9 2E000000 		.4byte	.LVL65
 3423 04bd 30000000 		.4byte	.LVL68
 3424 04c1 0400     		.2byte	0x4
 3425 04c3 F3       		.byte	0xf3
 3426 04c4 01       		.uleb128 0x1
 3427 04c5 50       		.byte	0x50
 3428 04c6 9F       		.byte	0x9f
 3429 04c7 30000000 		.4byte	.LVL68
 3430 04cb 38000000 		.4byte	.LFE13
 3431 04cf 0100     		.2byte	0x1
 3432 04d1 54       		.byte	0x54
 3433 04d2 00000000 		.4byte	0
 3434 04d6 00000000 		.4byte	0
 3435              	.LLST28:
 3436 04da 00000000 		.4byte	.LVL56
 3437 04de 0A000000 		.4byte	.LVL58
 3438 04e2 0100     		.2byte	0x1
 3439 04e4 51       		.byte	0x51
 3440 04e5 0A000000 		.4byte	.LVL58
 3441 04e9 2E000000 		.4byte	.LVL67
 3442 04ed 0100     		.2byte	0x1
 3443 04ef 56       		.byte	0x56
 3444 04f0 2E000000 		.4byte	.LVL67
 3445 04f4 30000000 		.4byte	.LVL68
 3446 04f8 0400     		.2byte	0x4
 3447 04fa F3       		.byte	0xf3
 3448 04fb 01       		.uleb128 0x1
 3449 04fc 51       		.byte	0x51
 3450 04fd 9F       		.byte	0x9f
 3451 04fe 30000000 		.4byte	.LVL68
 3452 0502 38000000 		.4byte	.LFE13
 3453 0506 0100     		.2byte	0x1
 3454 0508 56       		.byte	0x56
 3455 0509 00000000 		.4byte	0
 3456 050d 00000000 		.4byte	0
 3457              	.LLST29:
 3458 0511 00000000 		.4byte	.LVL56
 3459 0515 0D000000 		.4byte	.LVL59-1
 3460 0519 0100     		.2byte	0x1
 3461 051b 52       		.byte	0x52
 3462 051c 0D000000 		.4byte	.LVL59-1
 3463 0520 38000000 		.4byte	.LFE13
 3464 0524 0400     		.2byte	0x4
 3465 0526 F3       		.byte	0xf3
 3466 0527 01       		.uleb128 0x1
 3467 0528 52       		.byte	0x52
 3468 0529 9F       		.byte	0x9f
 3469 052a 00000000 		.4byte	0
 3470 052e 00000000 		.4byte	0
 3471              	.LLST30:
 3472 0532 10000000 		.4byte	.LVL60
 3473 0536 20000000 		.4byte	.LVL62
 3474 053a 0100     		.2byte	0x1
 3475 053c 50       		.byte	0x50
 3476 053d 20000000 		.4byte	.LVL62
 3477 0541 2E000000 		.4byte	.LVL66
ARM GAS  /tmp/ccx90MpO.s 			page 62


 3478 0545 0100     		.2byte	0x1
 3479 0547 55       		.byte	0x55
 3480 0548 2E000000 		.4byte	.LVL66
 3481 054c 38000000 		.4byte	.LFE13
 3482 0550 0100     		.2byte	0x1
 3483 0552 50       		.byte	0x50
 3484 0553 00000000 		.4byte	0
 3485 0557 00000000 		.4byte	0
 3486              	.LLST31:
 3487 055b 12000000 		.4byte	.LVL61
 3488 055f 2C000000 		.4byte	.LVL64
 3489 0563 0400     		.2byte	0x4
 3490 0565 F3       		.byte	0xf3
 3491 0566 01       		.uleb128 0x1
 3492 0567 52       		.byte	0x52
 3493 0568 9F       		.byte	0x9f
 3494 0569 30000000 		.4byte	.LVL68
 3495 056d 38000000 		.4byte	.LFE13
 3496 0571 0400     		.2byte	0x4
 3497 0573 F3       		.byte	0xf3
 3498 0574 01       		.uleb128 0x1
 3499 0575 52       		.byte	0x52
 3500 0576 9F       		.byte	0x9f
 3501 0577 00000000 		.4byte	0
 3502 057b 00000000 		.4byte	0
 3503              	.LLST32:
 3504 057f 12000000 		.4byte	.LVL61
 3505 0583 2C000000 		.4byte	.LVL64
 3506 0587 0100     		.2byte	0x1
 3507 0589 56       		.byte	0x56
 3508 058a 30000000 		.4byte	.LVL68
 3509 058e 38000000 		.4byte	.LFE13
 3510 0592 0100     		.2byte	0x1
 3511 0594 56       		.byte	0x56
 3512 0595 00000000 		.4byte	0
 3513 0599 00000000 		.4byte	0
 3514              	.LLST33:
 3515 059d 12000000 		.4byte	.LVL61
 3516 05a1 2C000000 		.4byte	.LVL64
 3517 05a5 0100     		.2byte	0x1
 3518 05a7 54       		.byte	0x54
 3519 05a8 30000000 		.4byte	.LVL68
 3520 05ac 38000000 		.4byte	.LFE13
 3521 05b0 0100     		.2byte	0x1
 3522 05b2 54       		.byte	0x54
 3523 05b3 00000000 		.4byte	0
 3524 05b7 00000000 		.4byte	0
 3525              	.LLST34:
 3526 05bb 00000000 		.4byte	.LVL69
 3527 05bf 1A000000 		.4byte	.LVL70
 3528 05c3 0100     		.2byte	0x1
 3529 05c5 50       		.byte	0x50
 3530 05c6 1A000000 		.4byte	.LVL70
 3531 05ca 1F000000 		.4byte	.LVL71-1
 3532 05ce 0300     		.2byte	0x3
 3533 05d0 70       		.byte	0x70
 3534 05d1 70       		.sleb128 -16
ARM GAS  /tmp/ccx90MpO.s 			page 63


 3535 05d2 9F       		.byte	0x9f
 3536 05d3 1F000000 		.4byte	.LVL71-1
 3537 05d7 24000000 		.4byte	.LVL72
 3538 05db 0400     		.2byte	0x4
 3539 05dd F3       		.byte	0xf3
 3540 05de 01       		.uleb128 0x1
 3541 05df 50       		.byte	0x50
 3542 05e0 9F       		.byte	0x9f
 3543 05e1 24000000 		.4byte	.LVL72
 3544 05e5 2E000000 		.4byte	.LVL73
 3545 05e9 0100     		.2byte	0x1
 3546 05eb 50       		.byte	0x50
 3547 05ec 2E000000 		.4byte	.LVL73
 3548 05f0 32000000 		.4byte	.LFE14
 3549 05f4 0400     		.2byte	0x4
 3550 05f6 F3       		.byte	0xf3
 3551 05f7 01       		.uleb128 0x1
 3552 05f8 50       		.byte	0x50
 3553 05f9 9F       		.byte	0x9f
 3554 05fa 00000000 		.4byte	0
 3555 05fe 00000000 		.4byte	0
 3556              	.LLST35:
 3557 0602 00000000 		.4byte	.LVL69
 3558 0606 1F000000 		.4byte	.LVL71-1
 3559 060a 0100     		.2byte	0x1
 3560 060c 51       		.byte	0x51
 3561 060d 1F000000 		.4byte	.LVL71-1
 3562 0611 24000000 		.4byte	.LVL72
 3563 0615 0400     		.2byte	0x4
 3564 0617 F3       		.byte	0xf3
 3565 0618 01       		.uleb128 0x1
 3566 0619 51       		.byte	0x51
 3567 061a 9F       		.byte	0x9f
 3568 061b 24000000 		.4byte	.LVL72
 3569 061f 32000000 		.4byte	.LFE14
 3570 0623 0100     		.2byte	0x1
 3571 0625 51       		.byte	0x51
 3572 0626 00000000 		.4byte	0
 3573 062a 00000000 		.4byte	0
 3574              	.LLST36:
 3575 062e 00000000 		.4byte	.LVL74
 3576 0632 0A000000 		.4byte	.LVL76
 3577 0636 0100     		.2byte	0x1
 3578 0638 50       		.byte	0x50
 3579 0639 0A000000 		.4byte	.LVL76
 3580 063d 18000000 		.4byte	.LVL81
 3581 0641 0100     		.2byte	0x1
 3582 0643 54       		.byte	0x54
 3583 0644 18000000 		.4byte	.LVL81
 3584 0648 1A000000 		.4byte	.LVL83
 3585 064c 0400     		.2byte	0x4
 3586 064e F3       		.byte	0xf3
 3587 064f 01       		.uleb128 0x1
 3588 0650 50       		.byte	0x50
 3589 0651 9F       		.byte	0x9f
 3590 0652 1A000000 		.4byte	.LVL83
 3591 0656 3C000000 		.4byte	.LFE15
ARM GAS  /tmp/ccx90MpO.s 			page 64


 3592 065a 0100     		.2byte	0x1
 3593 065c 54       		.byte	0x54
 3594 065d 00000000 		.4byte	0
 3595 0661 00000000 		.4byte	0
 3596              	.LLST37:
 3597 0665 00000000 		.4byte	.LVL74
 3598 0669 0C000000 		.4byte	.LVL77
 3599 066d 0100     		.2byte	0x1
 3600 066f 51       		.byte	0x51
 3601 0670 0C000000 		.4byte	.LVL77
 3602 0674 18000000 		.4byte	.LVL82
 3603 0678 0100     		.2byte	0x1
 3604 067a 56       		.byte	0x56
 3605 067b 18000000 		.4byte	.LVL82
 3606 067f 1A000000 		.4byte	.LVL83
 3607 0683 0400     		.2byte	0x4
 3608 0685 F3       		.byte	0xf3
 3609 0686 01       		.uleb128 0x1
 3610 0687 51       		.byte	0x51
 3611 0688 9F       		.byte	0x9f
 3612 0689 1A000000 		.4byte	.LVL83
 3613 068d 3C000000 		.4byte	.LFE15
 3614 0691 0100     		.2byte	0x1
 3615 0693 56       		.byte	0x56
 3616 0694 00000000 		.4byte	0
 3617 0698 00000000 		.4byte	0
 3618              	.LLST38:
 3619 069c 00000000 		.4byte	.LVL74
 3620 06a0 0F000000 		.4byte	.LVL78-1
 3621 06a4 0100     		.2byte	0x1
 3622 06a6 52       		.byte	0x52
 3623 06a7 0F000000 		.4byte	.LVL78-1
 3624 06ab 3C000000 		.4byte	.LFE15
 3625 06af 0400     		.2byte	0x4
 3626 06b1 F3       		.byte	0xf3
 3627 06b2 01       		.uleb128 0x1
 3628 06b3 52       		.byte	0x52
 3629 06b4 9F       		.byte	0x9f
 3630 06b5 00000000 		.4byte	0
 3631 06b9 00000000 		.4byte	0
 3632              	.LLST39:
 3633 06bd 08000000 		.4byte	.LVL75
 3634 06c1 0F000000 		.4byte	.LVL78-1
 3635 06c5 0100     		.2byte	0x1
 3636 06c7 52       		.byte	0x52
 3637 06c8 0F000000 		.4byte	.LVL78-1
 3638 06cc 14000000 		.4byte	.LVL80
 3639 06d0 0400     		.2byte	0x4
 3640 06d2 F3       		.byte	0xf3
 3641 06d3 01       		.uleb128 0x1
 3642 06d4 52       		.byte	0x52
 3643 06d5 9F       		.byte	0x9f
 3644 06d6 1A000000 		.4byte	.LVL83
 3645 06da 3C000000 		.4byte	.LFE15
 3646 06de 0400     		.2byte	0x4
 3647 06e0 F3       		.byte	0xf3
 3648 06e1 01       		.uleb128 0x1
ARM GAS  /tmp/ccx90MpO.s 			page 65


 3649 06e2 52       		.byte	0x52
 3650 06e3 9F       		.byte	0x9f
 3651 06e4 00000000 		.4byte	0
 3652 06e8 00000000 		.4byte	0
 3653              	.LLST40:
 3654 06ec 08000000 		.4byte	.LVL75
 3655 06f0 0C000000 		.4byte	.LVL77
 3656 06f4 0100     		.2byte	0x1
 3657 06f6 51       		.byte	0x51
 3658 06f7 0C000000 		.4byte	.LVL77
 3659 06fb 14000000 		.4byte	.LVL80
 3660 06ff 0100     		.2byte	0x1
 3661 0701 56       		.byte	0x56
 3662 0702 1A000000 		.4byte	.LVL83
 3663 0706 3C000000 		.4byte	.LFE15
 3664 070a 0100     		.2byte	0x1
 3665 070c 56       		.byte	0x56
 3666 070d 00000000 		.4byte	0
 3667 0711 00000000 		.4byte	0
 3668              	.LLST41:
 3669 0715 08000000 		.4byte	.LVL75
 3670 0719 0A000000 		.4byte	.LVL76
 3671 071d 0100     		.2byte	0x1
 3672 071f 50       		.byte	0x50
 3673 0720 0A000000 		.4byte	.LVL76
 3674 0724 14000000 		.4byte	.LVL80
 3675 0728 0100     		.2byte	0x1
 3676 072a 54       		.byte	0x54
 3677 072b 1A000000 		.4byte	.LVL83
 3678 072f 3C000000 		.4byte	.LFE15
 3679 0733 0100     		.2byte	0x1
 3680 0735 54       		.byte	0x54
 3681 0736 00000000 		.4byte	0
 3682 073a 00000000 		.4byte	0
 3683              	.LLST42:
 3684 073e 12000000 		.4byte	.LVL79
 3685 0742 14000000 		.4byte	.LVL80
 3686 0746 0100     		.2byte	0x1
 3687 0748 50       		.byte	0x50
 3688 0749 1A000000 		.4byte	.LVL83
 3689 074d 30000000 		.4byte	.LVL84
 3690 0751 0100     		.2byte	0x1
 3691 0753 50       		.byte	0x50
 3692 0754 30000000 		.4byte	.LVL84
 3693 0758 3C000000 		.4byte	.LFE15
 3694 075c 0100     		.2byte	0x1
 3695 075e 55       		.byte	0x55
 3696 075f 00000000 		.4byte	0
 3697 0763 00000000 		.4byte	0
 3698              	.LLST43:
 3699 0767 00000000 		.4byte	.LVL87
 3700 076b 08000000 		.4byte	.LVL88
 3701 076f 0100     		.2byte	0x1
 3702 0771 50       		.byte	0x50
 3703 0772 08000000 		.4byte	.LVL88
 3704 0776 30000000 		.4byte	.LVL96
 3705 077a 0100     		.2byte	0x1
ARM GAS  /tmp/ccx90MpO.s 			page 66


 3706 077c 54       		.byte	0x54
 3707 077d 30000000 		.4byte	.LVL96
 3708 0781 32000000 		.4byte	.LVL99
 3709 0785 0400     		.2byte	0x4
 3710 0787 F3       		.byte	0xf3
 3711 0788 01       		.uleb128 0x1
 3712 0789 50       		.byte	0x50
 3713 078a 9F       		.byte	0x9f
 3714 078b 32000000 		.4byte	.LVL99
 3715 078f 38000000 		.4byte	.LFE16
 3716 0793 0100     		.2byte	0x1
 3717 0795 54       		.byte	0x54
 3718 0796 00000000 		.4byte	0
 3719 079a 00000000 		.4byte	0
 3720              	.LLST44:
 3721 079e 00000000 		.4byte	.LVL87
 3722 07a2 0A000000 		.4byte	.LVL89
 3723 07a6 0100     		.2byte	0x1
 3724 07a8 51       		.byte	0x51
 3725 07a9 0A000000 		.4byte	.LVL89
 3726 07ad 30000000 		.4byte	.LVL98
 3727 07b1 0100     		.2byte	0x1
 3728 07b3 56       		.byte	0x56
 3729 07b4 30000000 		.4byte	.LVL98
 3730 07b8 32000000 		.4byte	.LVL99
 3731 07bc 0400     		.2byte	0x4
 3732 07be F3       		.byte	0xf3
 3733 07bf 01       		.uleb128 0x1
 3734 07c0 51       		.byte	0x51
 3735 07c1 9F       		.byte	0x9f
 3736 07c2 32000000 		.4byte	.LVL99
 3737 07c6 38000000 		.4byte	.LFE16
 3738 07ca 0100     		.2byte	0x1
 3739 07cc 56       		.byte	0x56
 3740 07cd 00000000 		.4byte	0
 3741 07d1 00000000 		.4byte	0
 3742              	.LLST45:
 3743 07d5 00000000 		.4byte	.LVL87
 3744 07d9 0D000000 		.4byte	.LVL90-1
 3745 07dd 0100     		.2byte	0x1
 3746 07df 52       		.byte	0x52
 3747 07e0 0D000000 		.4byte	.LVL90-1
 3748 07e4 38000000 		.4byte	.LFE16
 3749 07e8 0400     		.2byte	0x4
 3750 07ea F3       		.byte	0xf3
 3751 07eb 01       		.uleb128 0x1
 3752 07ec 52       		.byte	0x52
 3753 07ed 9F       		.byte	0x9f
 3754 07ee 00000000 		.4byte	0
 3755 07f2 00000000 		.4byte	0
 3756              	.LLST46:
 3757 07f6 10000000 		.4byte	.LVL91
 3758 07fa 24000000 		.4byte	.LVL93
 3759 07fe 0100     		.2byte	0x1
 3760 0800 50       		.byte	0x50
 3761 0801 24000000 		.4byte	.LVL93
 3762 0805 30000000 		.4byte	.LVL97
ARM GAS  /tmp/ccx90MpO.s 			page 67


 3763 0809 0100     		.2byte	0x1
 3764 080b 55       		.byte	0x55
 3765 080c 30000000 		.4byte	.LVL97
 3766 0810 38000000 		.4byte	.LFE16
 3767 0814 0100     		.2byte	0x1
 3768 0816 50       		.byte	0x50
 3769 0817 00000000 		.4byte	0
 3770 081b 00000000 		.4byte	0
 3771              	.LLST47:
 3772 081f 12000000 		.4byte	.LVL92
 3773 0823 2E000000 		.4byte	.LVL95
 3774 0827 0400     		.2byte	0x4
 3775 0829 F3       		.byte	0xf3
 3776 082a 01       		.uleb128 0x1
 3777 082b 52       		.byte	0x52
 3778 082c 9F       		.byte	0x9f
 3779 082d 32000000 		.4byte	.LVL99
 3780 0831 38000000 		.4byte	.LFE16
 3781 0835 0400     		.2byte	0x4
 3782 0837 F3       		.byte	0xf3
 3783 0838 01       		.uleb128 0x1
 3784 0839 52       		.byte	0x52
 3785 083a 9F       		.byte	0x9f
 3786 083b 00000000 		.4byte	0
 3787 083f 00000000 		.4byte	0
 3788              	.LLST48:
 3789 0843 12000000 		.4byte	.LVL92
 3790 0847 2E000000 		.4byte	.LVL95
 3791 084b 0100     		.2byte	0x1
 3792 084d 56       		.byte	0x56
 3793 084e 32000000 		.4byte	.LVL99
 3794 0852 38000000 		.4byte	.LFE16
 3795 0856 0100     		.2byte	0x1
 3796 0858 56       		.byte	0x56
 3797 0859 00000000 		.4byte	0
 3798 085d 00000000 		.4byte	0
 3799              	.LLST49:
 3800 0861 12000000 		.4byte	.LVL92
 3801 0865 2E000000 		.4byte	.LVL95
 3802 0869 0100     		.2byte	0x1
 3803 086b 54       		.byte	0x54
 3804 086c 32000000 		.4byte	.LVL99
 3805 0870 38000000 		.4byte	.LFE16
 3806 0874 0100     		.2byte	0x1
 3807 0876 54       		.byte	0x54
 3808 0877 00000000 		.4byte	0
 3809 087b 00000000 		.4byte	0
 3810              	.LLST50:
 3811 087f 00000000 		.4byte	.LVL100
 3812 0883 1E000000 		.4byte	.LVL101
 3813 0887 0100     		.2byte	0x1
 3814 0889 50       		.byte	0x50
 3815 088a 1E000000 		.4byte	.LVL101
 3816 088e 21000000 		.4byte	.LVL102-1
 3817 0892 0300     		.2byte	0x3
 3818 0894 70       		.byte	0x70
 3819 0895 64       		.sleb128 -28
ARM GAS  /tmp/ccx90MpO.s 			page 68


 3820 0896 9F       		.byte	0x9f
 3821 0897 21000000 		.4byte	.LVL102-1
 3822 089b 26000000 		.4byte	.LVL103
 3823 089f 0400     		.2byte	0x4
 3824 08a1 F3       		.byte	0xf3
 3825 08a2 01       		.uleb128 0x1
 3826 08a3 50       		.byte	0x50
 3827 08a4 9F       		.byte	0x9f
 3828 08a5 26000000 		.4byte	.LVL103
 3829 08a9 2E000000 		.4byte	.LVL104
 3830 08ad 0100     		.2byte	0x1
 3831 08af 50       		.byte	0x50
 3832 08b0 2E000000 		.4byte	.LVL104
 3833 08b4 32000000 		.4byte	.LFE17
 3834 08b8 0400     		.2byte	0x4
 3835 08ba F3       		.byte	0xf3
 3836 08bb 01       		.uleb128 0x1
 3837 08bc 50       		.byte	0x50
 3838 08bd 9F       		.byte	0x9f
 3839 08be 00000000 		.4byte	0
 3840 08c2 00000000 		.4byte	0
 3841              	.LLST51:
 3842 08c6 00000000 		.4byte	.LVL100
 3843 08ca 21000000 		.4byte	.LVL102-1
 3844 08ce 0100     		.2byte	0x1
 3845 08d0 51       		.byte	0x51
 3846 08d1 21000000 		.4byte	.LVL102-1
 3847 08d5 26000000 		.4byte	.LVL103
 3848 08d9 0400     		.2byte	0x4
 3849 08db F3       		.byte	0xf3
 3850 08dc 01       		.uleb128 0x1
 3851 08dd 51       		.byte	0x51
 3852 08de 9F       		.byte	0x9f
 3853 08df 26000000 		.4byte	.LVL103
 3854 08e3 32000000 		.4byte	.LFE17
 3855 08e7 0100     		.2byte	0x1
 3856 08e9 51       		.byte	0x51
 3857 08ea 00000000 		.4byte	0
 3858 08ee 00000000 		.4byte	0
 3859              		.section	.debug_aranges,"",%progbits
 3860 0000 6C000000 		.4byte	0x6c
 3861 0004 0200     		.2byte	0x2
 3862 0006 00000000 		.4byte	.Ldebug_info0
 3863 000a 04       		.byte	0x4
 3864 000b 00       		.byte	0
 3865 000c 0000     		.2byte	0
 3866 000e 0000     		.2byte	0
 3867 0010 00000000 		.4byte	.LFB7
 3868 0014 26000000 		.4byte	.LFE7-.LFB7
 3869 0018 00000000 		.4byte	.LFB8
 3870 001c 2A000000 		.4byte	.LFE8-.LFB8
 3871 0020 00000000 		.4byte	.LFB9
 3872 0024 3A000000 		.4byte	.LFE9-.LFB9
 3873 0028 00000000 		.4byte	.LFB10
 3874 002c 36000000 		.4byte	.LFE10-.LFB10
 3875 0030 00000000 		.4byte	.LFB11
 3876 0034 30000000 		.4byte	.LFE11-.LFB11
ARM GAS  /tmp/ccx90MpO.s 			page 69


 3877 0038 00000000 		.4byte	.LFB12
 3878 003c 3C000000 		.4byte	.LFE12-.LFB12
 3879 0040 00000000 		.4byte	.LFB13
 3880 0044 38000000 		.4byte	.LFE13-.LFB13
 3881 0048 00000000 		.4byte	.LFB14
 3882 004c 32000000 		.4byte	.LFE14-.LFB14
 3883 0050 00000000 		.4byte	.LFB15
 3884 0054 3C000000 		.4byte	.LFE15-.LFB15
 3885 0058 00000000 		.4byte	.LFB16
 3886 005c 38000000 		.4byte	.LFE16-.LFB16
 3887 0060 00000000 		.4byte	.LFB17
 3888 0064 32000000 		.4byte	.LFE17-.LFB17
 3889 0068 00000000 		.4byte	0
 3890 006c 00000000 		.4byte	0
 3891              		.section	.debug_ranges,"",%progbits
 3892              	.Ldebug_ranges0:
 3893 0000 08000000 		.4byte	.LBB12
 3894 0004 14000000 		.4byte	.LBE12
 3895 0008 1A000000 		.4byte	.LBB17
 3896 000c 3A000000 		.4byte	.LBE17
 3897 0010 00000000 		.4byte	0
 3898 0014 00000000 		.4byte	0
 3899 0018 12000000 		.4byte	.LBB20
 3900 001c 2C000000 		.4byte	.LBE20
 3901 0020 30000000 		.4byte	.LBB23
 3902 0024 36000000 		.4byte	.LBE23
 3903 0028 00000000 		.4byte	0
 3904 002c 00000000 		.4byte	0
 3905 0030 08000000 		.4byte	.LBB28
 3906 0034 14000000 		.4byte	.LBE28
 3907 0038 1A000000 		.4byte	.LBB33
 3908 003c 3C000000 		.4byte	.LBE33
 3909 0040 00000000 		.4byte	0
 3910 0044 00000000 		.4byte	0
 3911 0048 12000000 		.4byte	.LBB36
 3912 004c 2C000000 		.4byte	.LBE36
 3913 0050 30000000 		.4byte	.LBB39
 3914 0054 38000000 		.4byte	.LBE39
 3915 0058 00000000 		.4byte	0
 3916 005c 00000000 		.4byte	0
 3917 0060 08000000 		.4byte	.LBB44
 3918 0064 14000000 		.4byte	.LBE44
 3919 0068 1A000000 		.4byte	.LBB49
 3920 006c 3C000000 		.4byte	.LBE49
 3921 0070 00000000 		.4byte	0
 3922 0074 00000000 		.4byte	0
 3923 0078 12000000 		.4byte	.LBB52
 3924 007c 2E000000 		.4byte	.LBE52
 3925 0080 32000000 		.4byte	.LBB55
 3926 0084 38000000 		.4byte	.LBE55
 3927 0088 00000000 		.4byte	0
 3928 008c 00000000 		.4byte	0
 3929 0090 00000000 		.4byte	.LFB7
 3930 0094 26000000 		.4byte	.LFE7
 3931 0098 00000000 		.4byte	.LFB8
 3932 009c 2A000000 		.4byte	.LFE8
 3933 00a0 00000000 		.4byte	.LFB9
ARM GAS  /tmp/ccx90MpO.s 			page 70


 3934 00a4 3A000000 		.4byte	.LFE9
 3935 00a8 00000000 		.4byte	.LFB10
 3936 00ac 36000000 		.4byte	.LFE10
 3937 00b0 00000000 		.4byte	.LFB11
 3938 00b4 30000000 		.4byte	.LFE11
 3939 00b8 00000000 		.4byte	.LFB12
 3940 00bc 3C000000 		.4byte	.LFE12
 3941 00c0 00000000 		.4byte	.LFB13
 3942 00c4 38000000 		.4byte	.LFE13
 3943 00c8 00000000 		.4byte	.LFB14
 3944 00cc 32000000 		.4byte	.LFE14
 3945 00d0 00000000 		.4byte	.LFB15
 3946 00d4 3C000000 		.4byte	.LFE15
 3947 00d8 00000000 		.4byte	.LFB16
 3948 00dc 38000000 		.4byte	.LFE16
 3949 00e0 00000000 		.4byte	.LFB17
 3950 00e4 32000000 		.4byte	.LFE17
 3951 00e8 00000000 		.4byte	0
 3952 00ec 00000000 		.4byte	0
 3953              		.section	.debug_line,"",%progbits
 3954              	.Ldebug_line0:
 3955 0000 D0020000 		.section	.debug_str,"MS",%progbits,1
 3955      02009301 
 3955      00000201 
 3955      FB0E0D00 
 3955      01010101 
 3956              	.LASF41:
 3957 0000 705F6D73 		.ascii	"p_msg\000"
 3957      6700
 3958              	.LASF87:
 3959 0006 63685365 		.ascii	"chSemSignalI\000"
 3959      6D536967 
 3959      6E616C49 
 3959      00
 3960              	.LASF66:
 3961 0013 7264796D 		.ascii	"rdymsg\000"
 3961      736700
 3962              	.LASF62:
 3963 001a 6D625F72 		.ascii	"mb_rdptr\000"
 3963      64707472 
 3963      00
 3964              	.LASF7:
 3965 0023 5F5F7569 		.ascii	"__uint8_t\000"
 3965      6E74385F 
 3965      7400
 3966              	.LASF79:
 3967 002d 63684D42 		.ascii	"chMBPostI\000"
 3967      506F7374 
 3967      4900
 3968              	.LASF72:
 3969 0037 63684D42 		.ascii	"chMBPostS\000"
 3969      506F7374 
 3969      5300
 3970              	.LASF65:
 3971 0041 4D61696C 		.ascii	"Mailbox\000"
 3971      626F7800 
 3972              	.LASF81:
ARM GAS  /tmp/ccx90MpO.s 			page 71


 3973 0049 63684D42 		.ascii	"chMBPostAheadI\000"
 3973      506F7374 
 3973      41686561 
 3973      644900
 3974              	.LASF12:
 3975 0058 6C6F6E67 		.ascii	"long long unsigned int\000"
 3975      206C6F6E 
 3975      6720756E 
 3975      7369676E 
 3975      65642069 
 3976              	.LASF67:
 3977 006f 65786974 		.ascii	"exitcode\000"
 3977      636F6465 
 3977      00
 3978              	.LASF73:
 3979 0078 63684D42 		.ascii	"chMBPostAheadS\000"
 3979      506F7374 
 3979      41686561 
 3979      645300
 3980              	.LASF61:
 3981 0087 6D625F77 		.ascii	"mb_wrptr\000"
 3981      72707472 
 3981      00
 3982              	.LASF29:
 3983 0090 705F7072 		.ascii	"p_prio\000"
 3983      696F00
 3984              	.LASF1:
 3985 0097 6C6F6E67 		.ascii	"long long int\000"
 3985      206C6F6E 
 3985      6720696E 
 3985      7400
 3986              	.LASF3:
 3987 00a5 7369676E 		.ascii	"signed char\000"
 3987      65642063 
 3987      68617200 
 3988              	.LASF45:
 3989 00b1 705F6D70 		.ascii	"p_mpool\000"
 3989      6F6F6C00 
 3990              	.LASF56:
 3991 00b9 6D5F7175 		.ascii	"m_queue\000"
 3991      65756500 
 3992              	.LASF20:
 3993 00c1 74736C69 		.ascii	"tslices_t\000"
 3993      6365735F 
 3993      7400
 3994              	.LASF9:
 3995 00cb 6C6F6E67 		.ascii	"long int\000"
 3995      20696E74 
 3995      00
 3996              	.LASF18:
 3997 00d4 74737461 		.ascii	"tstate_t\000"
 3997      74655F74 
 3997      00
 3998              	.LASF36:
 3999 00dd 705F7265 		.ascii	"p_refs\000"
 3999      667300
 4000              	.LASF31:
ARM GAS  /tmp/ccx90MpO.s 			page 72


 4001 00e4 705F6E65 		.ascii	"p_newer\000"
 4001      77657200 
 4002              	.LASF53:
 4003 00ec 735F7175 		.ascii	"s_queue\000"
 4003      65756500 
 4004              	.LASF90:
 4005 00f4 2E2E2F2E 		.ascii	"../../os/kernel/src/chmboxes.c\000"
 4005      2E2F6F73 
 4005      2F6B6572 
 4005      6E656C2F 
 4005      7372632F 
 4006              	.LASF86:
 4007 0113 63685363 		.ascii	"chSchRescheduleS\000"
 4007      68526573 
 4007      63686564 
 4007      756C6553 
 4007      00
 4008              	.LASF10:
 4009 0124 5F5F7569 		.ascii	"__uint32_t\000"
 4009      6E743332 
 4009      5F7400
 4010              	.LASF48:
 4011 012f 72656761 		.ascii	"regarm_t\000"
 4011      726D5F74 
 4011      00
 4012              	.LASF25:
 4013 0138 636E745F 		.ascii	"cnt_t\000"
 4013      7400
 4014              	.LASF0:
 4015 013e 756E7369 		.ascii	"unsigned int\000"
 4015      676E6564 
 4015      20696E74 
 4015      00
 4016              	.LASF76:
 4017 014b 63684D42 		.ascii	"chMBInit\000"
 4017      496E6974 
 4017      00
 4018              	.LASF11:
 4019 0154 6C6F6E67 		.ascii	"long unsigned int\000"
 4019      20756E73 
 4019      69676E65 
 4019      6420696E 
 4019      7400
 4020              	.LASF64:
 4021 0166 6D625F65 		.ascii	"mb_emptysem\000"
 4021      6D707479 
 4021      73656D00 
 4022              	.LASF54:
 4023 0172 735F636E 		.ascii	"s_cnt\000"
 4023      7400
 4024              	.LASF50:
 4025 0178 636F6E74 		.ascii	"context\000"
 4025      65787400 
 4026              	.LASF6:
 4027 0180 73686F72 		.ascii	"short unsigned int\000"
 4027      7420756E 
 4027      7369676E 
ARM GAS  /tmp/ccx90MpO.s 			page 73


 4027      65642069 
 4027      6E7400
 4028              	.LASF83:
 4029 0193 63684D42 		.ascii	"chMBFetchI\000"
 4029      46657463 
 4029      684900
 4030              	.LASF22:
 4031 019e 6D73675F 		.ascii	"msg_t\000"
 4031      7400
 4032              	.LASF74:
 4033 01a4 63684D42 		.ascii	"chMBFetchS\000"
 4033      46657463 
 4033      685300
 4034              	.LASF17:
 4035 01af 746D6F64 		.ascii	"tmode_t\000"
 4035      655F7400 
 4036              	.LASF47:
 4037 01b7 54687265 		.ascii	"ThreadsList\000"
 4037      6164734C 
 4037      69737400 
 4038              	.LASF23:
 4039 01c3 6576656E 		.ascii	"eventmask_t\000"
 4039      746D6173 
 4039      6B5F7400 
 4040              	.LASF55:
 4041 01cf 4D757465 		.ascii	"Mutex\000"
 4041      7800
 4042              	.LASF75:
 4043 01d5 6D736770 		.ascii	"msgp\000"
 4043      00
 4044              	.LASF91:
 4045 01da 2F686F6D 		.ascii	"/home/lithium/Documentos/BikeTracker/ChibiOS_2.6.8/"
 4045      652F6C69 
 4045      74686975 
 4045      6D2F446F 
 4045      63756D65 
 4046 020d 64656D6F 		.ascii	"demos/BikeTracker\000"
 4046      732F4269 
 4046      6B655472 
 4046      61636B65 
 4046      7200
 4047              	.LASF51:
 4048 021f 73697A65 		.ascii	"sizetype\000"
 4048      74797065 
 4048      00
 4049              	.LASF2:
 4050 0228 6C6F6E67 		.ascii	"long double\000"
 4050      20646F75 
 4050      626C6500 
 4051              	.LASF77:
 4052 0234 63684D42 		.ascii	"chMBReset\000"
 4052      52657365 
 4052      7400
 4053              	.LASF32:
 4054 023e 705F6F6C 		.ascii	"p_older\000"
 4054      64657200 
 4055              	.LASF46:
ARM GAS  /tmp/ccx90MpO.s 			page 74


 4056 0246 54687265 		.ascii	"ThreadsQueue\000"
 4056      61647351 
 4056      75657565 
 4056      00
 4057              	.LASF59:
 4058 0253 6D625F62 		.ascii	"mb_buffer\000"
 4058      75666665 
 4058      7200
 4059              	.LASF71:
 4060 025d 74696D65 		.ascii	"time\000"
 4060      00
 4061              	.LASF19:
 4062 0262 74726566 		.ascii	"trefs_t\000"
 4062      735F7400 
 4063              	.LASF28:
 4064 026a 705F7072 		.ascii	"p_prev\000"
 4064      657600
 4065              	.LASF21:
 4066 0271 74707269 		.ascii	"tprio_t\000"
 4066      6F5F7400 
 4067              	.LASF16:
 4068 0279 5F426F6F 		.ascii	"_Bool\000"
 4068      6C00
 4069              	.LASF14:
 4070 027f 696E7433 		.ascii	"int32_t\000"
 4070      325F7400 
 4071              	.LASF4:
 4072 0287 756E7369 		.ascii	"unsigned char\000"
 4072      676E6564 
 4072      20636861 
 4072      7200
 4073              	.LASF60:
 4074 0295 6D625F74 		.ascii	"mb_top\000"
 4074      6F7000
 4075              	.LASF43:
 4076 029c 705F6D74 		.ascii	"p_mtxlist\000"
 4076      786C6973 
 4076      7400
 4077              	.LASF5:
 4078 02a6 73686F72 		.ascii	"short int\000"
 4078      7420696E 
 4078      7400
 4079              	.LASF34:
 4080 02b0 705F7374 		.ascii	"p_state\000"
 4080      61746500 
 4081              	.LASF37:
 4082 02b8 705F7072 		.ascii	"p_preempt\000"
 4082      65656D70 
 4082      7400
 4083              	.LASF69:
 4084 02c2 65776D61 		.ascii	"ewmask\000"
 4084      736B00
 4085              	.LASF27:
 4086 02c9 705F6E65 		.ascii	"p_next\000"
 4086      787400
 4087              	.LASF35:
 4088 02d0 705F666C 		.ascii	"p_flags\000"
ARM GAS  /tmp/ccx90MpO.s 			page 75


 4088      61677300 
 4089              	.LASF78:
 4090 02d8 63684D42 		.ascii	"chMBPost\000"
 4090      506F7374 
 4090      00
 4091              	.LASF26:
 4092 02e1 54687265 		.ascii	"Thread\000"
 4092      616400
 4093              	.LASF42:
 4094 02e8 705F6570 		.ascii	"p_epending\000"
 4094      656E6469 
 4094      6E6700
 4095              	.LASF15:
 4096 02f3 75696E74 		.ascii	"uint32_t\000"
 4096      33325F74 
 4096      00
 4097              	.LASF70:
 4098 02fc 63686172 		.ascii	"char\000"
 4098      00
 4099              	.LASF88:
 4100 0301 63685365 		.ascii	"chSemWaitTimeoutS\000"
 4100      6D576169 
 4100      7454696D 
 4100      656F7574 
 4100      5300
 4101              	.LASF58:
 4102 0313 6D5F6E65 		.ascii	"m_next\000"
 4102      787400
 4103              	.LASF24:
 4104 031a 73797374 		.ascii	"systime_t\000"
 4104      696D655F 
 4104      7400
 4105              	.LASF44:
 4106 0324 705F7265 		.ascii	"p_realprio\000"
 4106      616C7072 
 4106      696F00
 4107              	.LASF8:
 4108 032f 5F5F696E 		.ascii	"__int32_t\000"
 4108      7433325F 
 4108      7400
 4109              	.LASF38:
 4110 0339 705F7469 		.ascii	"p_time\000"
 4110      6D6500
 4111              	.LASF80:
 4112 0340 63684D42 		.ascii	"chMBPostAhead\000"
 4112      506F7374 
 4112      41686561 
 4112      6400
 4113              	.LASF49:
 4114 034e 696E7463 		.ascii	"intctx\000"
 4114      747800
 4115              	.LASF40:
 4116 0355 705F6D73 		.ascii	"p_msgqueue\000"
 4116      67717565 
 4116      756500
 4117              	.LASF82:
 4118 0360 63684D42 		.ascii	"chMBFetch\000"
ARM GAS  /tmp/ccx90MpO.s 			page 76


 4118      46657463 
 4118      6800
 4119              	.LASF52:
 4120 036a 53656D61 		.ascii	"Semaphore\000"
 4120      70686F72 
 4120      6500
 4121              	.LASF63:
 4122 0374 6D625F66 		.ascii	"mb_fullsem\000"
 4122      756C6C73 
 4122      656D00
 4123              	.LASF89:
 4124 037f 474E5520 		.ascii	"GNU C11 5.3.1 20160307 (release) [ARM/embedded-5-br"
 4124      43313120 
 4124      352E332E 
 4124      31203230 
 4124      31363033 
 4125 03b2 616E6368 		.ascii	"anch revision 234589] -mcpu=cortex-m0 -mno-thumb-in"
 4125      20726576 
 4125      6973696F 
 4125      6E203233 
 4125      34353839 
 4126 03e5 74657277 		.ascii	"terwork -mthumb -ggdb -O2 -fomit-frame-pointer -fal"
 4126      6F726B20 
 4126      2D6D7468 
 4126      756D6220 
 4126      2D676764 
 4127 0418 69676E2D 		.ascii	"ign-functions=16 -ffunction-sections -fdata-section"
 4127      66756E63 
 4127      74696F6E 
 4127      733D3136 
 4127      202D6666 
 4128 044b 73202D66 		.ascii	"s -fno-common\000"
 4128      6E6F2D63 
 4128      6F6D6D6F 
 4128      6E00
 4129              	.LASF85:
 4130 0459 63685365 		.ascii	"chSemResetI\000"
 4130      6D526573 
 4130      65744900 
 4131              	.LASF13:
 4132 0465 75696E74 		.ascii	"uint8_t\000"
 4132      385F7400 
 4133              	.LASF68:
 4134 046d 77746F62 		.ascii	"wtobjp\000"
 4134      6A7000
 4135              	.LASF33:
 4136 0474 705F6E61 		.ascii	"p_name\000"
 4136      6D6500
 4137              	.LASF57:
 4138 047b 6D5F6F77 		.ascii	"m_owner\000"
 4138      6E657200 
 4139              	.LASF30:
 4140 0483 705F6374 		.ascii	"p_ctx\000"
 4140      7800
 4141              	.LASF39:
 4142 0489 705F7761 		.ascii	"p_waiting\000"
 4142      6974696E 
ARM GAS  /tmp/ccx90MpO.s 			page 77


 4142      6700
 4143              	.LASF84:
 4144 0493 63685365 		.ascii	"chSemInit\000"
 4144      6D496E69 
 4144      7400
 4145              		.ident	"GCC: (GNU Tools for ARM Embedded Processors) 5.3.1 20160307 (release) [ARM/embedded-5-bran
ARM GAS  /tmp/ccx90MpO.s 			page 78


DEFINED SYMBOLS
                            *ABS*:00000000 chmboxes.c
     /tmp/ccx90MpO.s:20     .text.chMBInit:00000000 $t
     /tmp/ccx90MpO.s:26     .text.chMBInit:00000000 chMBInit
     /tmp/ccx90MpO.s:72     .text.chMBReset:00000000 $t
     /tmp/ccx90MpO.s:78     .text.chMBReset:00000000 chMBReset
     /tmp/ccx90MpO.s:135    .text.chMBPost:00000000 $t
     /tmp/ccx90MpO.s:141    .text.chMBPost:00000000 chMBPost
     /tmp/ccx90MpO.s:232    .text.chMBPostS:00000000 $t
     /tmp/ccx90MpO.s:238    .text.chMBPostS:00000000 chMBPostS
     /tmp/ccx90MpO.s:311    .text.chMBPostI:00000000 $t
     /tmp/ccx90MpO.s:317    .text.chMBPostI:00000000 chMBPostI
     /tmp/ccx90MpO.s:375    .text.chMBPostAhead:00000000 $t
     /tmp/ccx90MpO.s:381    .text.chMBPostAhead:00000000 chMBPostAhead
     /tmp/ccx90MpO.s:474    .text.chMBPostAheadS:00000000 $t
     /tmp/ccx90MpO.s:480    .text.chMBPostAheadS:00000000 chMBPostAheadS
     /tmp/ccx90MpO.s:555    .text.chMBPostAheadI:00000000 $t
     /tmp/ccx90MpO.s:561    .text.chMBPostAheadI:00000000 chMBPostAheadI
     /tmp/ccx90MpO.s:620    .text.chMBFetch:00000000 $t
     /tmp/ccx90MpO.s:626    .text.chMBFetch:00000000 chMBFetch
     /tmp/ccx90MpO.s:718    .text.chMBFetchS:00000000 $t
     /tmp/ccx90MpO.s:724    .text.chMBFetchS:00000000 chMBFetchS
     /tmp/ccx90MpO.s:798    .text.chMBFetchI:00000000 $t
     /tmp/ccx90MpO.s:804    .text.chMBFetchI:00000000 chMBFetchI
                     .debug_frame:00000010 $d

UNDEFINED SYMBOLS
chSemInit
chSemResetI
chSchRescheduleS
chSemWaitTimeoutS
chSemSignalI
