ARM GAS  /tmp/ccx90MpO.s 			page 1


   1              		.syntax unified
   2              		.cpu cortex-m0
   3              		.fpu softvfp
   4              		.eabi_attribute 20, 1
   5              		.eabi_attribute 21, 1
   6              		.eabi_attribute 23, 3
   7              		.eabi_attribute 24, 1
   8              		.eabi_attribute 25, 1
   9              		.eabi_attribute 26, 1
  10              		.eabi_attribute 30, 2
  11              		.eabi_attribute 34, 0
  12              		.eabi_attribute 18, 4
  13              		.thumb
  14              		.syntax unified
  15              		.file	"chmboxes.c"
  16              		.text
  17              	.Ltext0:
  18              		.cfi_sections	.debug_frame
  19              		.section	.text.chMBInit,"ax",%progbits
  20              		.align	2
  21              		.p2align 4,,15
  22              		.global	chMBInit
  23              		.code	16
  24              		.thumb_func
  25              		.type	chMBInit, %function
  26              	chMBInit:
  27              	.LFB7:
  28              		.file 1 "../../os/kernel/src/chmboxes.c"
  29              		.loc 1 72 0
  30              		.cfi_startproc
  31              		@ args = 0, pretend = 0, frame = 0
  32              		@ frame_needed = 0, uses_anonymous_args = 0
  33              	.LVL0:
  34 0000 10B5     		push	{r4, lr}
  35              		.cfi_def_cfa_offset 8
  36              		.cfi_offset 4, -8
  37              		.cfi_offset 14, -4
  38              		.loc 1 72 0
  39 0002 0400     		movs	r4, r0
  40              		.loc 1 76 0
  41 0004 C160     		str	r1, [r0, #12]
  42 0006 8160     		str	r1, [r0, #8]
  43 0008 0160     		str	r1, [r0]
  44              		.loc 1 77 0
  45 000a 9000     		lsls	r0, r2, #2
  46              	.LVL1:
  47 000c 0B18     		adds	r3, r1, r0
  48              		.loc 1 78 0
  49 000e 2000     		movs	r0, r4
  50 0010 1100     		movs	r1, r2
  51              	.LVL2:
  52              		.loc 1 77 0
  53 0012 6360     		str	r3, [r4, #4]
  54              		.loc 1 78 0
  55 0014 1C30     		adds	r0, r0, #28
  56 0016 FFF7FEFF 		bl	chSemInit
  57              	.LVL3:
ARM GAS  /tmp/ccx90MpO.s 			page 2


  58              		.loc 1 79 0
  59 001a 2000     		movs	r0, r4
  60 001c 0021     		movs	r1, #0
  61 001e 1030     		adds	r0, r0, #16
  62 0020 FFF7FEFF 		bl	chSemInit
  63              	.LVL4:
  64              		.loc 1 80 0
  65              		@ sp needed
  66              	.LVL5:
  67 0024 10BD     		pop	{r4, pc}
  68              		.cfi_endproc
  69              	.LFE7:
  70              		.size	chMBInit, .-chMBInit
  71 0026 C046     		.section	.text.chMBReset,"ax",%progbits
  72              		.align	2
  73              		.p2align 4,,15
  74              		.global	chMBReset
  75              		.code	16
  76              		.thumb_func
  77              		.type	chMBReset, %function
  78              	chMBReset:
  79              	.LFB8:
  80              		.loc 1 91 0
  81              		.cfi_startproc
  82              		@ args = 0, pretend = 0, frame = 0
  83              		@ frame_needed = 0, uses_anonymous_args = 0
  84              	.LVL6:
  85 0000 10B5     		push	{r4, lr}
  86              		.cfi_def_cfa_offset 8
  87              		.cfi_offset 4, -8
  88              		.cfi_offset 14, -4
  89              		.loc 1 91 0
  90 0002 0400     		movs	r4, r0
  91              		.loc 1 95 0
  92              		.syntax divided
  93              	@ 95 "../../os/kernel/src/chmboxes.c" 1
  94 0004 72B6     		cpsid   i
  95              	@ 0 "" 2
  96              		.loc 1 97 0
  97              		.thumb
  98              		.syntax unified
  99 0006 4368     		ldr	r3, [r0, #4]
 100              		.loc 1 96 0
 101 0008 0168     		ldr	r1, [r0]
 102 000a C160     		str	r1, [r0, #12]
 103 000c 8160     		str	r1, [r0, #8]
 104              		.loc 1 97 0
 105 000e 591A     		subs	r1, r3, r1
 106 0010 8910     		asrs	r1, r1, #2
 107 0012 1C30     		adds	r0, r0, #28
 108              	.LVL7:
 109 0014 FFF7FEFF 		bl	chSemResetI
 110              	.LVL8:
 111              		.loc 1 98 0
 112 0018 2000     		movs	r0, r4
 113 001a 0021     		movs	r1, #0
 114 001c 1030     		adds	r0, r0, #16
ARM GAS  /tmp/ccx90MpO.s 			page 3


 115 001e FFF7FEFF 		bl	chSemResetI
 116              	.LVL9:
 117              		.loc 1 99 0
 118 0022 FFF7FEFF 		bl	chSchRescheduleS
 119              	.LVL10:
 120              		.loc 1 100 0
 121              		.syntax divided
 122              	@ 100 "../../os/kernel/src/chmboxes.c" 1
 123 0026 62B6     		cpsie   i
 124              	@ 0 "" 2
 125              		.loc 1 101 0
 126              		.thumb
 127              		.syntax unified
 128              		@ sp needed
 129              	.LVL11:
 130 0028 10BD     		pop	{r4, pc}
 131              		.cfi_endproc
 132              	.LFE8:
 133              		.size	chMBReset, .-chMBReset
 134 002a C046     		.section	.text.chMBPost,"ax",%progbits
 135              		.align	2
 136              		.p2align 4,,15
 137              		.global	chMBPost
 138              		.code	16
 139              		.thumb_func
 140              		.type	chMBPost, %function
 141              	chMBPost:
 142              	.LFB9:
 143              		.loc 1 122 0
 144              		.cfi_startproc
 145              		@ args = 0, pretend = 0, frame = 0
 146              		@ frame_needed = 0, uses_anonymous_args = 0
 147              	.LVL12:
 148 0000 70B5     		push	{r4, r5, r6, lr}
 149              		.cfi_def_cfa_offset 16
 150              		.cfi_offset 4, -16
 151              		.cfi_offset 5, -12
 152              		.cfi_offset 6, -8
 153              		.cfi_offset 14, -4
 154              		.loc 1 122 0
 155 0002 0400     		movs	r4, r0
 156 0004 0E00     		movs	r6, r1
 157              		.loc 1 125 0
 158              		.syntax divided
 159              	@ 125 "../../os/kernel/src/chmboxes.c" 1
 160 0006 72B6     		cpsid   i
 161              	@ 0 "" 2
 162              	.LVL13:
 163              		.thumb
 164              		.syntax unified
 165              	.LBB12:
 166              	.LBB13:
 167              		.loc 1 156 0
 168 0008 1C30     		adds	r0, r0, #28
 169              	.LVL14:
 170 000a 1100     		movs	r1, r2
 171              	.LVL15:
ARM GAS  /tmp/ccx90MpO.s 			page 4


 172 000c FFF7FEFF 		bl	chSemWaitTimeoutS
 173              	.LVL16:
 174 0010 051E     		subs	r5, r0, #0
 175              	.LVL17:
 176              		.loc 1 157 0
 177 0012 02D0     		beq	.L7
 178              	.LVL18:
 179              	.L4:
 180              	.LBE13:
 181              	.LBE12:
 182              		.loc 1 127 0
 183              		.syntax divided
 184              	@ 127 "../../os/kernel/src/chmboxes.c" 1
 185 0014 62B6     		cpsie   i
 186              	@ 0 "" 2
 187              		.loc 1 129 0
 188              		.thumb
 189              		.syntax unified
 190 0016 2800     		movs	r0, r5
 191              		@ sp needed
 192              	.LVL19:
 193              	.LVL20:
 194 0018 70BD     		pop	{r4, r5, r6, pc}
 195              	.LVL21:
 196              	.L7:
 197              	.LBB17:
 198              	.LBB16:
 199              	.LBB14:
 200              	.LBB15:
 201              		.loc 1 158 0
 202 001a A268     		ldr	r2, [r4, #8]
 203 001c 131D     		adds	r3, r2, #4
 204 001e A360     		str	r3, [r4, #8]
 205 0020 1660     		str	r6, [r2]
 206              		.loc 1 159 0
 207 0022 6268     		ldr	r2, [r4, #4]
 208 0024 9342     		cmp	r3, r2
 209 0026 01D3     		bcc	.L5
 210              		.loc 1 160 0
 211 0028 2368     		ldr	r3, [r4]
 212 002a A360     		str	r3, [r4, #8]
 213              	.L5:
 214              		.loc 1 161 0
 215 002c 2000     		movs	r0, r4
 216              	.LVL22:
 217 002e 1030     		adds	r0, r0, #16
 218 0030 FFF7FEFF 		bl	chSemSignalI
 219              	.LVL23:
 220              		.loc 1 162 0
 221 0034 FFF7FEFF 		bl	chSchRescheduleS
 222              	.LVL24:
 223 0038 ECE7     		b	.L4
 224              	.LBE15:
 225              	.LBE14:
 226              	.LBE16:
 227              	.LBE17:
 228              		.cfi_endproc
ARM GAS  /tmp/ccx90MpO.s 			page 5


 229              	.LFE9:
 230              		.size	chMBPost, .-chMBPost
 231 003a C046     		.section	.text.chMBPostS,"ax",%progbits
 232              		.align	2
 233              		.p2align 4,,15
 234              		.global	chMBPostS
 235              		.code	16
 236              		.thumb_func
 237              		.type	chMBPostS, %function
 238              	chMBPostS:
 239              	.LFB10:
 240              		.loc 1 150 0
 241              		.cfi_startproc
 242              		@ args = 0, pretend = 0, frame = 0
 243              		@ frame_needed = 0, uses_anonymous_args = 0
 244              	.LVL25:
 245 0000 70B5     		push	{r4, r5, r6, lr}
 246              		.cfi_def_cfa_offset 16
 247              		.cfi_offset 4, -16
 248              		.cfi_offset 5, -12
 249              		.cfi_offset 6, -8
 250              		.cfi_offset 14, -4
 251              		.loc 1 150 0
 252 0002 0400     		movs	r4, r0
 253 0004 0E00     		movs	r6, r1
 254              		.loc 1 156 0
 255 0006 1C30     		adds	r0, r0, #28
 256              	.LVL26:
 257 0008 1100     		movs	r1, r2
 258              	.LVL27:
 259 000a FFF7FEFF 		bl	chSemWaitTimeoutS
 260              	.LVL28:
 261 000e 051E     		subs	r5, r0, #0
 262              	.LVL29:
 263              		.loc 1 157 0
 264 0010 0CD1     		bne	.L9
 265              	.LVL30:
 266              	.LBB20:
 267              	.LBB21:
 268              		.loc 1 158 0
 269 0012 A268     		ldr	r2, [r4, #8]
 270 0014 131D     		adds	r3, r2, #4
 271 0016 A360     		str	r3, [r4, #8]
 272 0018 1660     		str	r6, [r2]
 273              		.loc 1 159 0
 274 001a 6268     		ldr	r2, [r4, #4]
 275 001c 9342     		cmp	r3, r2
 276 001e 07D2     		bcs	.L11
 277              	.L10:
 278              		.loc 1 161 0
 279 0020 2000     		movs	r0, r4
 280              	.LVL31:
 281 0022 1030     		adds	r0, r0, #16
 282 0024 FFF7FEFF 		bl	chSemSignalI
 283              	.LVL32:
 284              		.loc 1 162 0
 285 0028 FFF7FEFF 		bl	chSchRescheduleS
ARM GAS  /tmp/ccx90MpO.s 			page 6


 286              	.LVL33:
 287              	.L9:
 288              	.LBE21:
 289              	.LBE20:
 290              		.loc 1 165 0
 291 002c 2800     		movs	r0, r5
 292              		@ sp needed
 293              	.LVL34:
 294              	.LVL35:
 295              	.LVL36:
 296 002e 70BD     		pop	{r4, r5, r6, pc}
 297              	.LVL37:
 298              	.L11:
 299              	.LBB23:
 300              	.LBB22:
 301              		.loc 1 160 0
 302 0030 2368     		ldr	r3, [r4]
 303 0032 A360     		str	r3, [r4, #8]
 304 0034 F4E7     		b	.L10
 305              	.LBE22:
 306              	.LBE23:
 307              		.cfi_endproc
 308              	.LFE10:
 309              		.size	chMBPostS, .-chMBPostS
 310 0036 C046     		.section	.text.chMBPostI,"ax",%progbits
 311              		.align	2
 312              		.p2align 4,,15
 313              		.global	chMBPostI
 314              		.code	16
 315              		.thumb_func
 316              		.type	chMBPostI, %function
 317              	chMBPostI:
 318              	.LFB11:
 319              		.loc 1 181 0
 320              		.cfi_startproc
 321              		@ args = 0, pretend = 0, frame = 0
 322              		@ frame_needed = 0, uses_anonymous_args = 0
 323              	.LVL38:
 324              		.loc 1 186 0
 325 0000 436A     		ldr	r3, [r0, #36]
 326              		.loc 1 181 0
 327 0002 10B5     		push	{r4, lr}
 328              		.cfi_def_cfa_offset 8
 329              		.cfi_offset 4, -8
 330              		.cfi_offset 14, -4
 331              		.loc 1 186 0
 332 0004 002B     		cmp	r3, #0
 333 0006 10DD     		ble	.L15
 334              		.loc 1 189 0
 335 0008 8268     		ldr	r2, [r0, #8]
 336              		.loc 1 188 0
 337 000a 013B     		subs	r3, r3, #1
 338 000c 4362     		str	r3, [r0, #36]
 339              		.loc 1 189 0
 340 000e 131D     		adds	r3, r2, #4
 341 0010 8360     		str	r3, [r0, #8]
 342 0012 1160     		str	r1, [r2]
ARM GAS  /tmp/ccx90MpO.s 			page 7


 343              		.loc 1 190 0
 344 0014 4268     		ldr	r2, [r0, #4]
 345 0016 9342     		cmp	r3, r2
 346 0018 04D2     		bcs	.L16
 347              	.L14:
 348              		.loc 1 192 0
 349 001a 1030     		adds	r0, r0, #16
 350              	.LVL39:
 351 001c FFF7FEFF 		bl	chSemSignalI
 352              	.LVL40:
 353              		.loc 1 193 0
 354 0020 0020     		movs	r0, #0
 355              	.L13:
 356              		.loc 1 194 0
 357              		@ sp needed
 358 0022 10BD     		pop	{r4, pc}
 359              	.LVL41:
 360              	.L16:
 361              		.loc 1 191 0
 362 0024 0368     		ldr	r3, [r0]
 363 0026 8360     		str	r3, [r0, #8]
 364 0028 F7E7     		b	.L14
 365              	.L15:
 366              		.loc 1 187 0
 367 002a 0120     		movs	r0, #1
 368              	.LVL42:
 369 002c 4042     		rsbs	r0, r0, #0
 370 002e F8E7     		b	.L13
 371              		.cfi_endproc
 372              	.LFE11:
 373              		.size	chMBPostI, .-chMBPostI
 374              		.section	.text.chMBPostAhead,"ax",%progbits
 375              		.align	2
 376              		.p2align 4,,15
 377              		.global	chMBPostAhead
 378              		.code	16
 379              		.thumb_func
 380              		.type	chMBPostAhead, %function
 381              	chMBPostAhead:
 382              	.LFB12:
 383              		.loc 1 215 0
 384              		.cfi_startproc
 385              		@ args = 0, pretend = 0, frame = 0
 386              		@ frame_needed = 0, uses_anonymous_args = 0
 387              	.LVL43:
 388 0000 70B5     		push	{r4, r5, r6, lr}
 389              		.cfi_def_cfa_offset 16
 390              		.cfi_offset 4, -16
 391              		.cfi_offset 5, -12
 392              		.cfi_offset 6, -8
 393              		.cfi_offset 14, -4
 394              		.loc 1 215 0
 395 0002 0400     		movs	r4, r0
 396 0004 0E00     		movs	r6, r1
 397              		.loc 1 218 0
 398              		.syntax divided
 399              	@ 218 "../../os/kernel/src/chmboxes.c" 1
ARM GAS  /tmp/ccx90MpO.s 			page 8


 400 0006 72B6     		cpsid   i
 401              	@ 0 "" 2
 402              	.LVL44:
 403              		.thumb
 404              		.syntax unified
 405              	.LBB28:
 406              	.LBB29:
 407              		.loc 1 249 0
 408 0008 1C30     		adds	r0, r0, #28
 409              	.LVL45:
 410 000a 1100     		movs	r1, r2
 411              	.LVL46:
 412 000c FFF7FEFF 		bl	chSemWaitTimeoutS
 413              	.LVL47:
 414 0010 051E     		subs	r5, r0, #0
 415              	.LVL48:
 416              		.loc 1 250 0
 417 0012 02D0     		beq	.L20
 418              	.LVL49:
 419              	.L18:
 420              	.LBE29:
 421              	.LBE28:
 422              		.loc 1 220 0
 423              		.syntax divided
 424              	@ 220 "../../os/kernel/src/chmboxes.c" 1
 425 0014 62B6     		cpsie   i
 426              	@ 0 "" 2
 427              		.loc 1 222 0
 428              		.thumb
 429              		.syntax unified
 430 0016 2800     		movs	r0, r5
 431              		@ sp needed
 432              	.LVL50:
 433              	.LVL51:
 434 0018 70BD     		pop	{r4, r5, r6, pc}
 435              	.LVL52:
 436              	.L20:
 437              	.LBB33:
 438              	.LBB32:
 439              	.LBB30:
 440              	.LBB31:
 441              		.loc 1 251 0
 442 001a E368     		ldr	r3, [r4, #12]
 443 001c 2268     		ldr	r2, [r4]
 444 001e 043B     		subs	r3, r3, #4
 445 0020 E360     		str	r3, [r4, #12]
 446 0022 9342     		cmp	r3, r2
 447 0024 02D2     		bcs	.L19
 448              		.loc 1 252 0
 449 0026 6368     		ldr	r3, [r4, #4]
 450 0028 043B     		subs	r3, r3, #4
 451 002a E360     		str	r3, [r4, #12]
 452              	.L19:
 453              		.loc 1 254 0
 454 002c 2000     		movs	r0, r4
 455              	.LVL53:
 456              		.loc 1 253 0
ARM GAS  /tmp/ccx90MpO.s 			page 9


 457 002e 1E60     		str	r6, [r3]
 458              		.loc 1 254 0
 459 0030 1030     		adds	r0, r0, #16
 460 0032 FFF7FEFF 		bl	chSemSignalI
 461              	.LVL54:
 462              		.loc 1 255 0
 463 0036 FFF7FEFF 		bl	chSchRescheduleS
 464              	.LVL55:
 465 003a EBE7     		b	.L18
 466              	.LBE31:
 467              	.LBE30:
 468              	.LBE32:
 469              	.LBE33:
 470              		.cfi_endproc
 471              	.LFE12:
 472              		.size	chMBPostAhead, .-chMBPostAhead
 473              		.section	.text.chMBPostAheadS,"ax",%progbits
 474              		.align	2
 475              		.p2align 4,,15
 476              		.global	chMBPostAheadS
 477              		.code	16
 478              		.thumb_func
 479              		.type	chMBPostAheadS, %function
 480              	chMBPostAheadS:
 481              	.LFB13:
 482              		.loc 1 243 0
 483              		.cfi_startproc
 484              		@ args = 0, pretend = 0, frame = 0
 485              		@ frame_needed = 0, uses_anonymous_args = 0
 486              	.LVL56:
 487 0000 70B5     		push	{r4, r5, r6, lr}
 488              		.cfi_def_cfa_offset 16
 489              		.cfi_offset 4, -16
 490              		.cfi_offset 5, -12
 491              		.cfi_offset 6, -8
 492              		.cfi_offset 14, -4
 493              		.loc 1 243 0
 494 0002 0400     		movs	r4, r0
 495 0004 0E00     		movs	r6, r1
 496              		.loc 1 249 0
 497 0006 1C30     		adds	r0, r0, #28
 498              	.LVL57:
 499 0008 1100     		movs	r1, r2
 500              	.LVL58:
 501 000a FFF7FEFF 		bl	chSemWaitTimeoutS
 502              	.LVL59:
 503 000e 051E     		subs	r5, r0, #0
 504              	.LVL60:
 505              		.loc 1 250 0
 506 0010 0CD1     		bne	.L22
 507              	.LVL61:
 508              	.LBB36:
 509              	.LBB37:
 510              		.loc 1 251 0
 511 0012 E368     		ldr	r3, [r4, #12]
 512 0014 2268     		ldr	r2, [r4]
 513 0016 043B     		subs	r3, r3, #4
ARM GAS  /tmp/ccx90MpO.s 			page 10


 514 0018 E360     		str	r3, [r4, #12]
 515 001a 9342     		cmp	r3, r2
 516 001c 08D3     		bcc	.L24
 517              	.L23:
 518              		.loc 1 254 0
 519 001e 2000     		movs	r0, r4
 520              	.LVL62:
 521              		.loc 1 253 0
 522 0020 1E60     		str	r6, [r3]
 523              		.loc 1 254 0
 524 0022 1030     		adds	r0, r0, #16
 525 0024 FFF7FEFF 		bl	chSemSignalI
 526              	.LVL63:
 527              		.loc 1 255 0
 528 0028 FFF7FEFF 		bl	chSchRescheduleS
 529              	.LVL64:
 530              	.L22:
 531              	.LBE37:
 532              	.LBE36:
 533              		.loc 1 258 0
 534 002c 2800     		movs	r0, r5
 535              		@ sp needed
 536              	.LVL65:
 537              	.LVL66:
 538              	.LVL67:
 539 002e 70BD     		pop	{r4, r5, r6, pc}
 540              	.LVL68:
 541              	.L24:
 542              	.LBB39:
 543              	.LBB38:
 544              		.loc 1 252 0
 545 0030 6368     		ldr	r3, [r4, #4]
 546 0032 043B     		subs	r3, r3, #4
 547 0034 E360     		str	r3, [r4, #12]
 548 0036 F2E7     		b	.L23
 549              	.LBE38:
 550              	.LBE39:
 551              		.cfi_endproc
 552              	.LFE13:
 553              		.size	chMBPostAheadS, .-chMBPostAheadS
 554              		.section	.text.chMBPostAheadI,"ax",%progbits
 555              		.align	2
 556              		.p2align 4,,15
 557              		.global	chMBPostAheadI
 558              		.code	16
 559              		.thumb_func
 560              		.type	chMBPostAheadI, %function
 561              	chMBPostAheadI:
 562              	.LFB14:
 563              		.loc 1 274 0
 564              		.cfi_startproc
 565              		@ args = 0, pretend = 0, frame = 0
 566              		@ frame_needed = 0, uses_anonymous_args = 0
 567              	.LVL69:
 568              		.loc 1 279 0
 569 0000 436A     		ldr	r3, [r0, #36]
 570              		.loc 1 274 0
ARM GAS  /tmp/ccx90MpO.s 			page 11


 571 0002 10B5     		push	{r4, lr}
 572              		.cfi_def_cfa_offset 8
 573              		.cfi_offset 4, -8
 574              		.cfi_offset 14, -4
 575              		.loc 1 279 0
 576 0004 002B     		cmp	r3, #0
 577 0006 11DD     		ble	.L28
 578              		.loc 1 281 0
 579 0008 013B     		subs	r3, r3, #1
 580 000a 4362     		str	r3, [r0, #36]
 581              		.loc 1 282 0
 582 000c C368     		ldr	r3, [r0, #12]
 583 000e 0268     		ldr	r2, [r0]
 584 0010 043B     		subs	r3, r3, #4
 585 0012 C360     		str	r3, [r0, #12]
 586 0014 9342     		cmp	r3, r2
 587 0016 05D3     		bcc	.L29
 588              	.L27:
 589              		.loc 1 285 0
 590 0018 1030     		adds	r0, r0, #16
 591              	.LVL70:
 592              		.loc 1 284 0
 593 001a 1960     		str	r1, [r3]
 594              		.loc 1 285 0
 595 001c FFF7FEFF 		bl	chSemSignalI
 596              	.LVL71:
 597              		.loc 1 286 0
 598 0020 0020     		movs	r0, #0
 599              	.L26:
 600              		.loc 1 287 0
 601              		@ sp needed
 602 0022 10BD     		pop	{r4, pc}
 603              	.LVL72:
 604              	.L29:
 605              		.loc 1 283 0
 606 0024 4368     		ldr	r3, [r0, #4]
 607 0026 043B     		subs	r3, r3, #4
 608 0028 C360     		str	r3, [r0, #12]
 609 002a F5E7     		b	.L27
 610              	.L28:
 611              		.loc 1 280 0
 612 002c 0120     		movs	r0, #1
 613              	.LVL73:
 614 002e 4042     		rsbs	r0, r0, #0
 615 0030 F7E7     		b	.L26
 616              		.cfi_endproc
 617              	.LFE14:
 618              		.size	chMBPostAheadI, .-chMBPostAheadI
 619 0032 C046     		.section	.text.chMBFetch,"ax",%progbits
 620              		.align	2
 621              		.p2align 4,,15
 622              		.global	chMBFetch
 623              		.code	16
 624              		.thumb_func
 625              		.type	chMBFetch, %function
 626              	chMBFetch:
 627              	.LFB15:
ARM GAS  /tmp/ccx90MpO.s 			page 12


 628              		.loc 1 308 0
 629              		.cfi_startproc
 630              		@ args = 0, pretend = 0, frame = 0
 631              		@ frame_needed = 0, uses_anonymous_args = 0
 632              	.LVL74:
 633 0000 70B5     		push	{r4, r5, r6, lr}
 634              		.cfi_def_cfa_offset 16
 635              		.cfi_offset 4, -16
 636              		.cfi_offset 5, -12
 637              		.cfi_offset 6, -8
 638              		.cfi_offset 14, -4
 639              		.loc 1 308 0
 640 0002 0400     		movs	r4, r0
 641 0004 0E00     		movs	r6, r1
 642              		.loc 1 311 0
 643              		.syntax divided
 644              	@ 311 "../../os/kernel/src/chmboxes.c" 1
 645 0006 72B6     		cpsid   i
 646              	@ 0 "" 2
 647              	.LVL75:
 648              		.thumb
 649              		.syntax unified
 650              	.LBB44:
 651              	.LBB45:
 652              		.loc 1 342 0
 653 0008 1030     		adds	r0, r0, #16
 654              	.LVL76:
 655 000a 1100     		movs	r1, r2
 656              	.LVL77:
 657 000c FFF7FEFF 		bl	chSemWaitTimeoutS
 658              	.LVL78:
 659 0010 051E     		subs	r5, r0, #0
 660              	.LVL79:
 661              		.loc 1 343 0
 662 0012 02D0     		beq	.L33
 663              	.LVL80:
 664              	.L31:
 665              	.LBE45:
 666              	.LBE44:
 667              		.loc 1 313 0
 668              		.syntax divided
 669              	@ 313 "../../os/kernel/src/chmboxes.c" 1
 670 0014 62B6     		cpsie   i
 671              	@ 0 "" 2
 672              		.loc 1 315 0
 673              		.thumb
 674              		.syntax unified
 675 0016 2800     		movs	r0, r5
 676              		@ sp needed
 677              	.LVL81:
 678              	.LVL82:
 679 0018 70BD     		pop	{r4, r5, r6, pc}
 680              	.LVL83:
 681              	.L33:
 682              	.LBB49:
 683              	.LBB48:
 684              	.LBB46:
ARM GAS  /tmp/ccx90MpO.s 			page 13


 685              	.LBB47:
 686              		.loc 1 344 0
 687 001a E268     		ldr	r2, [r4, #12]
 688 001c 131D     		adds	r3, r2, #4
 689 001e 1268     		ldr	r2, [r2]
 690 0020 E360     		str	r3, [r4, #12]
 691 0022 3260     		str	r2, [r6]
 692              		.loc 1 345 0
 693 0024 6268     		ldr	r2, [r4, #4]
 694 0026 9342     		cmp	r3, r2
 695 0028 01D3     		bcc	.L32
 696              		.loc 1 346 0
 697 002a 2368     		ldr	r3, [r4]
 698 002c E360     		str	r3, [r4, #12]
 699              	.L32:
 700              		.loc 1 347 0
 701 002e 2000     		movs	r0, r4
 702              	.LVL84:
 703 0030 1C30     		adds	r0, r0, #28
 704 0032 FFF7FEFF 		bl	chSemSignalI
 705              	.LVL85:
 706              		.loc 1 348 0
 707 0036 FFF7FEFF 		bl	chSchRescheduleS
 708              	.LVL86:
 709 003a EBE7     		b	.L31
 710              	.LBE47:
 711              	.LBE46:
 712              	.LBE48:
 713              	.LBE49:
 714              		.cfi_endproc
 715              	.LFE15:
 716              		.size	chMBFetch, .-chMBFetch
 717              		.section	.text.chMBFetchS,"ax",%progbits
 718              		.align	2
 719              		.p2align 4,,15
 720              		.global	chMBFetchS
 721              		.code	16
 722              		.thumb_func
 723              		.type	chMBFetchS, %function
 724              	chMBFetchS:
 725              	.LFB16:
 726              		.loc 1 336 0
 727              		.cfi_startproc
 728              		@ args = 0, pretend = 0, frame = 0
 729              		@ frame_needed = 0, uses_anonymous_args = 0
 730              	.LVL87:
 731 0000 70B5     		push	{r4, r5, r6, lr}
 732              		.cfi_def_cfa_offset 16
 733              		.cfi_offset 4, -16
 734              		.cfi_offset 5, -12
 735              		.cfi_offset 6, -8
 736              		.cfi_offset 14, -4
 737              		.loc 1 336 0
 738 0002 0400     		movs	r4, r0
 739 0004 0E00     		movs	r6, r1
 740              		.loc 1 342 0
 741 0006 1030     		adds	r0, r0, #16
ARM GAS  /tmp/ccx90MpO.s 			page 14


 742              	.LVL88:
 743 0008 1100     		movs	r1, r2
 744              	.LVL89:
 745 000a FFF7FEFF 		bl	chSemWaitTimeoutS
 746              	.LVL90:
 747 000e 051E     		subs	r5, r0, #0
 748              	.LVL91:
 749              		.loc 1 343 0
 750 0010 0DD1     		bne	.L35
 751              	.LVL92:
 752              	.LBB52:
 753              	.LBB53:
 754              		.loc 1 344 0
 755 0012 E268     		ldr	r2, [r4, #12]
 756 0014 131D     		adds	r3, r2, #4
 757 0016 1268     		ldr	r2, [r2]
 758 0018 E360     		str	r3, [r4, #12]
 759 001a 3260     		str	r2, [r6]
 760              		.loc 1 345 0
 761 001c 6268     		ldr	r2, [r4, #4]
 762 001e 9342     		cmp	r3, r2
 763 0020 07D2     		bcs	.L37
 764              	.L36:
 765              		.loc 1 347 0
 766 0022 2000     		movs	r0, r4
 767              	.LVL93:
 768 0024 1C30     		adds	r0, r0, #28
 769 0026 FFF7FEFF 		bl	chSemSignalI
 770              	.LVL94:
 771              		.loc 1 348 0
 772 002a FFF7FEFF 		bl	chSchRescheduleS
 773              	.LVL95:
 774              	.L35:
 775              	.LBE53:
 776              	.LBE52:
 777              		.loc 1 351 0
 778 002e 2800     		movs	r0, r5
 779              		@ sp needed
 780              	.LVL96:
 781              	.LVL97:
 782              	.LVL98:
 783 0030 70BD     		pop	{r4, r5, r6, pc}
 784              	.LVL99:
 785              	.L37:
 786              	.LBB55:
 787              	.LBB54:
 788              		.loc 1 346 0
 789 0032 2368     		ldr	r3, [r4]
 790 0034 E360     		str	r3, [r4, #12]
 791 0036 F4E7     		b	.L36
 792              	.LBE54:
 793              	.LBE55:
 794              		.cfi_endproc
 795              	.LFE16:
 796              		.size	chMBFetchS, .-chMBFetchS
 797              		.section	.text.chMBFetchI,"ax",%progbits
 798              		.align	2
ARM GAS  /tmp/ccx90MpO.s 			page 15


 799              		.p2align 4,,15
 800              		.global	chMBFetchI
 801              		.code	16
 802              		.thumb_func
 803              		.type	chMBFetchI, %function
 804              	chMBFetchI:
 805              	.LFB17:
 806              		.loc 1 367 0
 807              		.cfi_startproc
 808              		@ args = 0, pretend = 0, frame = 0
 809              		@ frame_needed = 0, uses_anonymous_args = 0
 810              	.LVL100:
 811              		.loc 1 372 0
 812 0000 8369     		ldr	r3, [r0, #24]
 813              		.loc 1 367 0
 814 0002 10B5     		push	{r4, lr}
 815              		.cfi_def_cfa_offset 8
 816              		.cfi_offset 4, -8
 817              		.cfi_offset 14, -4
 818              		.loc 1 372 0
 819 0004 002B     		cmp	r3, #0
 820 0006 11DD     		ble	.L41
 821              		.loc 1 375 0
 822 0008 C268     		ldr	r2, [r0, #12]
 823              		.loc 1 374 0
 824 000a 013B     		subs	r3, r3, #1
 825 000c 8361     		str	r3, [r0, #24]
 826              		.loc 1 375 0
 827 000e 131D     		adds	r3, r2, #4
 828 0010 1268     		ldr	r2, [r2]
 829 0012 C360     		str	r3, [r0, #12]
 830 0014 0A60     		str	r2, [r1]
 831              		.loc 1 376 0
 832 0016 4268     		ldr	r2, [r0, #4]
 833 0018 9342     		cmp	r3, r2
 834 001a 04D2     		bcs	.L42
 835              	.L40:
 836              		.loc 1 378 0
 837 001c 1C30     		adds	r0, r0, #28
 838              	.LVL101:
 839 001e FFF7FEFF 		bl	chSemSignalI
 840              	.LVL102:
 841              		.loc 1 379 0
 842 0022 0020     		movs	r0, #0
 843              	.L39:
 844              		.loc 1 380 0
 845              		@ sp needed
 846 0024 10BD     		pop	{r4, pc}
 847              	.LVL103:
 848              	.L42:
 849              		.loc 1 377 0
 850 0026 0368     		ldr	r3, [r0]
 851 0028 C360     		str	r3, [r0, #12]
 852 002a F7E7     		b	.L40
 853              	.L41:
 854              		.loc 1 373 0
 855 002c 0120     		movs	r0, #1
ARM GAS  /tmp/ccx90MpO.s 			page 16


 856              	.LVL104:
 857 002e 4042     		rsbs	r0, r0, #0
 858 0030 F8E7     		b	.L39
 859              		.cfi_endproc
 860              	.LFE17:
 861              		.size	chMBFetchI, .-chMBFetchI
 862 0032 C046     		.text
 863              	.Letext0:
 864              		.file 2 "/home/lithium/Descargas/gcc-arm-none-eabi-5_3-2016q1/arm-none-eabi/include/machine/_defau
 865              		.file 3 "/home/lithium/Descargas/gcc-arm-none-eabi-5_3-2016q1/arm-none-eabi/include/sys/_stdint.h"
 866              		.file 4 "../../os/ports/GCC/ARMCMx/chtypes.h"
 867              		.file 5 "../../os/kernel/include/chlists.h"
 868              		.file 6 "../../os/kernel/include/chthreads.h"
 869              		.file 7 "../../os/ports/GCC/ARMCMx/chcore_v6m.h"
 870              		.file 8 "../../os/kernel/include/chsem.h"
 871              		.file 9 "../../os/kernel/include/chmtx.h"
 872              		.file 10 "../../os/kernel/include/chmboxes.h"
 873              		.file 11 "../../os/kernel/include/chschd.h"