ARM GAS  /tmp/ccZ9FzDd.s 			page 1


   1              		.syntax unified
   2              		.cpu cortex-m0
   3              		.fpu softvfp
   4              		.eabi_attribute 20, 1
   5              		.eabi_attribute 21, 1
   6              		.eabi_attribute 23, 3
   7              		.eabi_attribute 24, 1
   8              		.eabi_attribute 25, 1
   9              		.eabi_attribute 26, 1
  10              		.eabi_attribute 30, 2
  11              		.eabi_attribute 34, 0
  12              		.eabi_attribute 18, 4
  13              		.thumb
  14              		.syntax unified
  15              		.file	"chmempools.c"
  16              		.text
  17              	.Ltext0:
  18              		.cfi_sections	.debug_frame
  19              		.section	.text.chPoolInit,"ax",%progbits
  20              		.align	2
  21              		.p2align 4,,15
  22              		.global	chPoolInit
  23              		.code	16
  24              		.thumb_func
  25              		.type	chPoolInit, %function
  26              	chPoolInit:
  27              	.LFB7:
  28              		.file 1 "../../os/kernel/src/chmempools.c"
  29              		.loc 1 62 0
  30              		.cfi_startproc
  31              		@ args = 0, pretend = 0, frame = 0
  32              		@ frame_needed = 0, uses_anonymous_args = 0
  33              		@ link register save eliminated.
  34              	.LVL0:
  35              		.loc 1 66 0
  36 0000 0023     		movs	r3, #0
  37              		.loc 1 67 0
  38 0002 4160     		str	r1, [r0, #4]
  39              		.loc 1 66 0
  40 0004 0360     		str	r3, [r0]
  41              		.loc 1 68 0
  42 0006 8260     		str	r2, [r0, #8]
  43              		.loc 1 69 0
  44              		@ sp needed
  45 0008 7047     		bx	lr
  46              		.cfi_endproc
  47              	.LFE7:
  48              		.size	chPoolInit, .-chPoolInit
  49 000a C046     		.section	.text.chPoolLoadArray,"ax",%progbits
  50              		.align	2
  51              		.p2align 4,,15
  52              		.global	chPoolLoadArray
  53              		.code	16
  54              		.thumb_func
  55              		.type	chPoolLoadArray, %function
  56              	chPoolLoadArray:
  57              	.LFB8:
ARM GAS  /tmp/ccZ9FzDd.s 			page 2


  58              		.loc 1 84 0
  59              		.cfi_startproc
  60              		@ args = 0, pretend = 0, frame = 0
  61              		@ frame_needed = 0, uses_anonymous_args = 0
  62              		@ link register save eliminated.
  63              	.LVL1:
  64 0000 08E0     		b	.L8
  65              	.L6:
  66              	.LVL2:
  67              	.LBB10:
  68              	.LBB11:
  69              		.loc 1 173 0
  70              		.syntax divided
  71              	@ 173 "../../os/kernel/src/chmempools.c" 1
  72 0002 72B6     		cpsid   i
  73              	@ 0 "" 2
  74              	.LVL3:
  75              		.thumb
  76              		.syntax unified
  77              	.LBB12:
  78              	.LBB13:
  79              		.loc 1 155 0
  80 0004 0368     		ldr	r3, [r0]
  81 0006 0B60     		str	r3, [r1]
  82              		.loc 1 156 0
  83 0008 0160     		str	r1, [r0]
  84              	.LVL4:
  85              	.LBE13:
  86              	.LBE12:
  87              		.loc 1 175 0
  88              		.syntax divided
  89              	@ 175 "../../os/kernel/src/chmempools.c" 1
  90 000a 62B6     		cpsie   i
  91              	@ 0 "" 2
  92              	.LVL5:
  93              		.thumb
  94              		.syntax unified
  95              	.LBE11:
  96              	.LBE10:
  97              		.loc 1 90 0
  98 000c 4368     		ldr	r3, [r0, #4]
  99              		.loc 1 91 0
 100 000e 013A     		subs	r2, r2, #1
 101              	.LVL6:
 102              		.loc 1 90 0
 103 0010 9C46     		mov	ip, r3
 104 0012 6144     		add	r1, r1, ip
 105              	.LVL7:
 106              	.L8:
 107              		.loc 1 88 0
 108 0014 002A     		cmp	r2, #0
 109 0016 F4D1     		bne	.L6
 110              		.loc 1 93 0
 111              		@ sp needed
 112 0018 7047     		bx	lr
 113              		.cfi_endproc
 114              	.LFE8:
ARM GAS  /tmp/ccZ9FzDd.s 			page 3


 115              		.size	chPoolLoadArray, .-chPoolLoadArray
 116 001a C046     		.section	.text.chPoolAllocI,"ax",%progbits
 117              		.align	2
 118              		.p2align 4,,15
 119              		.global	chPoolAllocI
 120              		.code	16
 121              		.thumb_func
 122              		.type	chPoolAllocI, %function
 123              	chPoolAllocI:
 124              	.LFB9:
 125              		.loc 1 105 0
 126              		.cfi_startproc
 127              		@ args = 0, pretend = 0, frame = 0
 128              		@ frame_needed = 0, uses_anonymous_args = 0
 129              	.LVL8:
 130 0000 0300     		movs	r3, r0
 131              		.loc 1 111 0
 132 0002 0068     		ldr	r0, [r0]
 133              	.LVL9:
 134              		.loc 1 105 0
 135 0004 10B5     		push	{r4, lr}
 136              		.cfi_def_cfa_offset 8
 137              		.cfi_offset 4, -8
 138              		.cfi_offset 14, -4
 139              		.loc 1 111 0
 140 0006 0028     		cmp	r0, #0
 141 0008 02D0     		beq	.L11
 142              		.loc 1 112 0
 143 000a 0268     		ldr	r2, [r0]
 144 000c 1A60     		str	r2, [r3]
 145              	.LVL10:
 146              	.L12:
 147              		.loc 1 116 0
 148              		@ sp needed
 149 000e 10BD     		pop	{r4, pc}
 150              	.LVL11:
 151              	.L11:
 152              		.loc 1 113 0
 153 0010 9A68     		ldr	r2, [r3, #8]
 154 0012 002A     		cmp	r2, #0
 155 0014 FBD0     		beq	.L12
 156              		.loc 1 114 0
 157 0016 5868     		ldr	r0, [r3, #4]
 158              	.LVL12:
 159 0018 9047     		blx	r2
 160              	.LVL13:
 161 001a F8E7     		b	.L12
 162              		.cfi_endproc
 163              	.LFE9:
 164              		.size	chPoolAllocI, .-chPoolAllocI
 165              		.section	.text.chPoolAlloc,"ax",%progbits
 166              		.align	2
 167              		.p2align 4,,15
 168              		.global	chPoolAlloc
 169              		.code	16
 170              		.thumb_func
 171              		.type	chPoolAlloc, %function
ARM GAS  /tmp/ccZ9FzDd.s 			page 4


 172              	chPoolAlloc:
 173              	.LFB10:
 174              		.loc 1 128 0
 175              		.cfi_startproc
 176              		@ args = 0, pretend = 0, frame = 0
 177              		@ frame_needed = 0, uses_anonymous_args = 0
 178              	.LVL14:
 179 0000 10B5     		push	{r4, lr}
 180              		.cfi_def_cfa_offset 8
 181              		.cfi_offset 4, -8
 182              		.cfi_offset 14, -4
 183              		.loc 1 128 0
 184 0002 0300     		movs	r3, r0
 185              		.loc 1 131 0
 186              		.syntax divided
 187              	@ 131 "../../os/kernel/src/chmempools.c" 1
 188 0004 72B6     		cpsid   i
 189              	@ 0 "" 2
 190              	.LVL15:
 191              		.thumb
 192              		.syntax unified
 193              	.LBB14:
 194              	.LBB15:
 195              		.loc 1 111 0
 196 0006 0068     		ldr	r0, [r0]
 197              	.LVL16:
 198 0008 0028     		cmp	r0, #0
 199 000a 03D0     		beq	.L17
 200              		.loc 1 112 0
 201 000c 0268     		ldr	r2, [r0]
 202 000e 1A60     		str	r2, [r3]
 203              	.LVL17:
 204              	.L18:
 205              	.LBE15:
 206              	.LBE14:
 207              		.loc 1 133 0
 208              		.syntax divided
 209              	@ 133 "../../os/kernel/src/chmempools.c" 1
 210 0010 62B6     		cpsie   i
 211              	@ 0 "" 2
 212              		.loc 1 135 0
 213              		.thumb
 214              		.syntax unified
 215              		@ sp needed
 216 0012 10BD     		pop	{r4, pc}
 217              	.LVL18:
 218              	.L17:
 219              	.LBB17:
 220              	.LBB16:
 221              		.loc 1 113 0
 222 0014 9A68     		ldr	r2, [r3, #8]
 223 0016 002A     		cmp	r2, #0
 224 0018 FAD0     		beq	.L18
 225              		.loc 1 114 0
 226 001a 5868     		ldr	r0, [r3, #4]
 227              	.LVL19:
 228 001c 9047     		blx	r2
ARM GAS  /tmp/ccZ9FzDd.s 			page 5


 229              	.LVL20:
 230 001e F7E7     		b	.L18
 231              	.LBE16:
 232              	.LBE17:
 233              		.cfi_endproc
 234              	.LFE10:
 235              		.size	chPoolAlloc, .-chPoolAlloc
 236              		.section	.text.chPoolFreeI,"ax",%progbits
 237              		.align	2
 238              		.p2align 4,,15
 239              		.global	chPoolFreeI
 240              		.code	16
 241              		.thumb_func
 242              		.type	chPoolFreeI, %function
 243              	chPoolFreeI:
 244              	.LFB11:
 245              		.loc 1 149 0
 246              		.cfi_startproc
 247              		@ args = 0, pretend = 0, frame = 0
 248              		@ frame_needed = 0, uses_anonymous_args = 0
 249              		@ link register save eliminated.
 250              	.LVL21:
 251              		.loc 1 155 0
 252 0000 0368     		ldr	r3, [r0]
 253              		.loc 1 157 0
 254              		@ sp needed
 255              		.loc 1 155 0
 256 0002 0B60     		str	r3, [r1]
 257              		.loc 1 156 0
 258 0004 0160     		str	r1, [r0]
 259              		.loc 1 157 0
 260 0006 7047     		bx	lr
 261              		.cfi_endproc
 262              	.LFE11:
 263              		.size	chPoolFreeI, .-chPoolFreeI
 264              		.section	.text.chPoolFree,"ax",%progbits
 265              		.align	2
 266              		.p2align 4,,15
 267              		.global	chPoolFree
 268              		.code	16
 269              		.thumb_func
 270              		.type	chPoolFree, %function
 271              	chPoolFree:
 272              	.LFB12:
 273              		.loc 1 171 0
 274              		.cfi_startproc
 275              		@ args = 0, pretend = 0, frame = 0
 276              		@ frame_needed = 0, uses_anonymous_args = 0
 277              		@ link register save eliminated.
 278              	.LVL22:
 279              		.loc 1 173 0
 280              		.syntax divided
 281              	@ 173 "../../os/kernel/src/chmempools.c" 1
 282 0000 72B6     		cpsid   i
 283              	@ 0 "" 2
 284              	.LVL23:
 285              		.thumb
ARM GAS  /tmp/ccZ9FzDd.s 			page 6


 286              		.syntax unified
 287              	.LBB18:
 288              	.LBB19:
 289              		.loc 1 155 0
 290 0002 0368     		ldr	r3, [r0]
 291 0004 0B60     		str	r3, [r1]
 292              		.loc 1 156 0
 293 0006 0160     		str	r1, [r0]
 294              	.LVL24:
 295              	.LBE19:
 296              	.LBE18:
 297              		.loc 1 175 0
 298              		.syntax divided
 299              	@ 175 "../../os/kernel/src/chmempools.c" 1
 300 0008 62B6     		cpsie   i
 301              	@ 0 "" 2
 302              		.loc 1 176 0
 303              		.thumb
 304              		.syntax unified
 305              		@ sp needed
 306 000a 7047     		bx	lr
 307              		.cfi_endproc
 308              	.LFE12:
 309              		.size	chPoolFree, .-chPoolFree
 310              		.text
 311              	.Letext0:
 312              		.file 2 "/home/lithium/Descargas/gcc-arm-none-eabi-5_3-2016q1/lib/gcc/arm-none-eabi/5.3.1/include/
 313              		.file 3 "/home/lithium/Descargas/gcc-arm-none-eabi-5_3-2016q1/arm-none-eabi/include/machine/_defau
 314              		.file 4 "/home/lithium/Descargas/gcc-arm-none-eabi-5_3-2016q1/arm-none-eabi/include/sys/_stdint.h"
 315              		.file 5 "../../os/kernel/include/chmemcore.h"
 316              		.file 6 "../../os/kernel/include/chmempools.h"