ARM GAS  /tmp/ccVjQ072.s 			page 1


   1              		.syntax unified
   2              		.cpu cortex-m0
   3              		.fpu softvfp
   4              		.eabi_attribute 20, 1
   5              		.eabi_attribute 21, 1
   6              		.eabi_attribute 23, 3
   7              		.eabi_attribute 24, 1
   8              		.eabi_attribute 25, 1
   9              		.eabi_attribute 26, 1
  10              		.eabi_attribute 30, 2
  11              		.eabi_attribute 34, 0
  12              		.eabi_attribute 18, 4
  13              		.thumb
  14              		.syntax unified
  15              		.file	"chmemcore.c"
  16              		.text
  17              	.Ltext0:
  18              		.cfi_sections	.debug_frame
  19              		.section	.text._core_init,"ax",%progbits
  20              		.align	2
  21              		.p2align 4,,15
  22              		.global	_core_init
  23              		.code	16
  24              		.thumb_func
  25              		.type	_core_init, %function
  26              	_core_init:
  27              	.LFB7:
  28              		.file 1 "../../os/kernel/src/chmemcore.c"
  29              		.loc 1 66 0
  30              		.cfi_startproc
  31              		@ args = 0, pretend = 0, frame = 0
  32              		@ frame_needed = 0, uses_anonymous_args = 0
  33              		@ link register save eliminated.
  34              		.loc 1 70 0
  35 0000 0722     		movs	r2, #7
  36 0002 054B     		ldr	r3, .L2
  37 0004 0549     		ldr	r1, .L2+4
  38 0006 0733     		adds	r3, r3, #7
  39 0008 9343     		bics	r3, r2
  40 000a 0B60     		str	r3, [r1]
  41              		.loc 1 71 0
  42 000c 044B     		ldr	r3, .L2+8
  43              		.loc 1 77 0
  44              		@ sp needed
  45              		.loc 1 71 0
  46 000e 9343     		bics	r3, r2
  47 0010 044A     		ldr	r2, .L2+12
  48 0012 1360     		str	r3, [r2]
  49              		.loc 1 77 0
  50 0014 7047     		bx	lr
  51              	.L3:
  52 0016 C046     		.align	2
  53              	.L2:
  54 0018 00000000 		.word	__heap_base__
  55 001c 00000000 		.word	.LANCHOR0
  56 0020 00000000 		.word	__heap_end__
  57 0024 00000000 		.word	.LANCHOR1
ARM GAS  /tmp/ccVjQ072.s 			page 2


  58              		.cfi_endproc
  59              	.LFE7:
  60              		.size	_core_init, .-_core_init
  61              		.section	.text.chCoreAlloc,"ax",%progbits
  62              		.align	2
  63              		.p2align 4,,15
  64              		.global	chCoreAlloc
  65              		.code	16
  66              		.thumb_func
  67              		.type	chCoreAlloc, %function
  68              	chCoreAlloc:
  69              	.LFB8:
  70              		.loc 1 91 0
  71              		.cfi_startproc
  72              		@ args = 0, pretend = 0, frame = 0
  73              		@ frame_needed = 0, uses_anonymous_args = 0
  74              		@ link register save eliminated.
  75              	.LVL0:
  76              		.loc 1 94 0
  77              		.syntax divided
  78              	@ 94 "../../os/kernel/src/chmemcore.c" 1
  79 0000 72B6     		cpsid   i
  80              	@ 0 "" 2
  81              	.LVL1:
  82              		.thumb
  83              		.syntax unified
  84              	.LBB4:
  85              	.LBB5:
  86              		.loc 1 117 0
  87 0002 0722     		movs	r2, #7
  88 0004 C31D     		adds	r3, r0, #7
  89 0006 9343     		bics	r3, r2
  90              	.LVL2:
  91              		.loc 1 118 0
  92 0008 0649     		ldr	r1, .L8
  93 000a 074A     		ldr	r2, .L8+4
  94 000c 0868     		ldr	r0, [r1]
  95              	.LVL3:
  96 000e 1268     		ldr	r2, [r2]
  97 0010 121A     		subs	r2, r2, r0
  98 0012 9342     		cmp	r3, r2
  99 0014 03D8     		bhi	.L6
 100              	.LVL4:
 101              		.loc 1 121 0
 102 0016 C318     		adds	r3, r0, r3
 103              	.LVL5:
 104 0018 0B60     		str	r3, [r1]
 105              	.LVL6:
 106              	.L5:
 107              	.LBE5:
 108              	.LBE4:
 109              		.loc 1 96 0
 110              		.syntax divided
 111              	@ 96 "../../os/kernel/src/chmemcore.c" 1
 112 001a 62B6     		cpsie   i
 113              	@ 0 "" 2
 114              		.loc 1 98 0
ARM GAS  /tmp/ccVjQ072.s 			page 3


 115              		.thumb
 116              		.syntax unified
 117              		@ sp needed
 118 001c 7047     		bx	lr
 119              	.LVL7:
 120              	.L6:
 121              	.LBB7:
 122              	.LBB6:
 123              		.loc 1 119 0
 124 001e 0020     		movs	r0, #0
 125 0020 FBE7     		b	.L5
 126              	.L9:
 127 0022 C046     		.align	2
 128              	.L8:
 129 0024 00000000 		.word	.LANCHOR0
 130 0028 00000000 		.word	.LANCHOR1
 131              	.LBE6:
 132              	.LBE7:
 133              		.cfi_endproc
 134              	.LFE8:
 135              		.size	chCoreAlloc, .-chCoreAlloc
 136              		.section	.text.chCoreAllocI,"ax",%progbits
 137              		.align	2
 138              		.p2align 4,,15
 139              		.global	chCoreAllocI
 140              		.code	16
 141              		.thumb_func
 142              		.type	chCoreAllocI, %function
 143              	chCoreAllocI:
 144              	.LFB9:
 145              		.loc 1 112 0
 146              		.cfi_startproc
 147              		@ args = 0, pretend = 0, frame = 0
 148              		@ frame_needed = 0, uses_anonymous_args = 0
 149              		@ link register save eliminated.
 150              	.LVL8:
 151              		.loc 1 117 0
 152 0000 0722     		movs	r2, #7
 153 0002 C31D     		adds	r3, r0, #7
 154 0004 9343     		bics	r3, r2
 155              	.LVL9:
 156              		.loc 1 118 0
 157 0006 0649     		ldr	r1, .L13
 158 0008 064A     		ldr	r2, .L13+4
 159 000a 0868     		ldr	r0, [r1]
 160 000c 1268     		ldr	r2, [r2]
 161 000e 121A     		subs	r2, r2, r0
 162 0010 9342     		cmp	r3, r2
 163 0012 02D8     		bhi	.L12
 164              	.LVL10:
 165              		.loc 1 121 0
 166 0014 C318     		adds	r3, r0, r3
 167              	.LVL11:
 168 0016 0B60     		str	r3, [r1]
 169              	.LVL12:
 170              	.L11:
 171              		.loc 1 123 0
ARM GAS  /tmp/ccVjQ072.s 			page 4


 172              		@ sp needed
 173 0018 7047     		bx	lr
 174              	.LVL13:
 175              	.L12:
 176              		.loc 1 119 0
 177 001a 0020     		movs	r0, #0
 178 001c FCE7     		b	.L11
 179              	.L14:
 180 001e C046     		.align	2
 181              	.L13:
 182 0020 00000000 		.word	.LANCHOR0
 183 0024 00000000 		.word	.LANCHOR1
 184              		.cfi_endproc
 185              	.LFE9:
 186              		.size	chCoreAllocI, .-chCoreAllocI
 187              		.section	.text.chCoreStatus,"ax",%progbits
 188              		.align	2
 189              		.p2align 4,,15
 190              		.global	chCoreStatus
 191              		.code	16
 192              		.thumb_func
 193              		.type	chCoreStatus, %function
 194              	chCoreStatus:
 195              	.LFB10:
 196              		.loc 1 132 0
 197              		.cfi_startproc
 198              		@ args = 0, pretend = 0, frame = 0
 199              		@ frame_needed = 0, uses_anonymous_args = 0
 200              		@ link register save eliminated.
 201              		.loc 1 134 0
 202 0000 024B     		ldr	r3, .L16
 203 0002 034A     		ldr	r2, .L16+4
 204 0004 1B68     		ldr	r3, [r3]
 205 0006 1068     		ldr	r0, [r2]
 206              		.loc 1 135 0
 207              		@ sp needed
 208              		.loc 1 134 0
 209 0008 181A     		subs	r0, r3, r0
 210              		.loc 1 135 0
 211 000a 7047     		bx	lr
 212              	.L17:
 213              		.align	2
 214              	.L16:
 215 000c 00000000 		.word	.LANCHOR1
 216 0010 00000000 		.word	.LANCHOR0
 217              		.cfi_endproc
 218              	.LFE10:
 219              		.size	chCoreStatus, .-chCoreStatus
 220              		.section	.bss.endmem,"aw",%nobits
 221              		.align	2
 222              		.set	.LANCHOR1,. + 0
 223              		.type	endmem, %object
 224              		.size	endmem, 4
 225              	endmem:
 226 0000 00000000 		.space	4
 227              		.section	.bss.nextmem,"aw",%nobits
 228              		.align	2
ARM GAS  /tmp/ccVjQ072.s 			page 5


 229              		.set	.LANCHOR0,. + 0
 230              		.type	nextmem, %object
 231              		.size	nextmem, 4
 232              	nextmem:
 233 0000 00000000 		.space	4
 234              		.text
 235              	.Letext0:
 236              		.file 2 "/home/lithium/Descargas/gcc-arm-none-eabi-5_3-2016q1/lib/gcc/arm-none-eabi/5.3.1/include/
 237              		.file 3 "/home/lithium/Descargas/gcc-arm-none-eabi-5_3-2016q1/arm-none-eabi/include/machine/_defau
 238              		.file 4 "/home/lithium/Descargas/gcc-arm-none-eabi-5_3-2016q1/arm-none-eabi/include/sys/_stdint.h"