ARM GAS  /tmp/ccfsNE3q.s 			page 1


   1              		.syntax unified
   2              		.cpu cortex-m0
   3              		.fpu softvfp
   4              		.eabi_attribute 20, 1
   5              		.eabi_attribute 21, 1
   6              		.eabi_attribute 23, 3
   7              		.eabi_attribute 24, 1
   8              		.eabi_attribute 25, 1
   9              		.eabi_attribute 26, 1
  10              		.eabi_attribute 30, 2
  11              		.eabi_attribute 34, 0
  12              		.eabi_attribute 18, 4
  13              		.thumb
  14              		.syntax unified
  15              		.file	"chmtx.c"
  16              		.text
  17              	.Ltext0:
  18              		.cfi_sections	.debug_frame
  19              		.section	.text.chMtxInit,"ax",%progbits
  20              		.align	2
  21              		.p2align 4,,15
  22              		.global	chMtxInit
  23              		.code	16
  24              		.thumb_func
  25              		.type	chMtxInit, %function
  26              	chMtxInit:
  27              	.LFB7:
  28              		.file 1 "../../os/kernel/src/chmtx.c"
  29              		.loc 1 86 0
  30              		.cfi_startproc
  31              		@ args = 0, pretend = 0, frame = 0
  32              		@ frame_needed = 0, uses_anonymous_args = 0
  33              		@ link register save eliminated.
  34              	.LVL0:
  35              		.loc 1 91 0
  36 0000 0023     		movs	r3, #0
  37              		.loc 1 90 0
  38 0002 4060     		str	r0, [r0, #4]
  39 0004 0060     		str	r0, [r0]
  40              		.loc 1 91 0
  41 0006 8360     		str	r3, [r0, #8]
  42              		.loc 1 92 0
  43              		@ sp needed
  44 0008 7047     		bx	lr
  45              		.cfi_endproc
  46              	.LFE7:
  47              		.size	chMtxInit, .-chMtxInit
  48 000a C046     		.section	.text.chMtxLockS,"ax",%progbits
  49              		.align	2
  50              		.p2align 4,,15
  51              		.global	chMtxLockS
  52              		.code	16
  53              		.thumb_func
  54              		.type	chMtxLockS, %function
  55              	chMtxLockS:
  56              	.LFB9:
  57              		.loc 1 121 0
ARM GAS  /tmp/ccfsNE3q.s 			page 2


  58              		.cfi_startproc
  59              		@ args = 0, pretend = 0, frame = 0
  60              		@ frame_needed = 0, uses_anonymous_args = 0
  61              	.LVL1:
  62 0000 70B5     		push	{r4, r5, r6, lr}
  63              		.cfi_def_cfa_offset 16
  64              		.cfi_offset 4, -16
  65              		.cfi_offset 5, -12
  66              		.cfi_offset 6, -8
  67              		.cfi_offset 14, -4
  68              		.loc 1 122 0
  69 0002 2F4B     		ldr	r3, .L29
  70              		.loc 1 121 0
  71 0004 0500     		movs	r5, r0
  72              		.loc 1 128 0
  73 0006 8068     		ldr	r0, [r0, #8]
  74              	.LVL2:
  75              		.loc 1 122 0
  76 0008 9C69     		ldr	r4, [r3, #24]
  77              	.LVL3:
  78              		.loc 1 128 0
  79 000a 0028     		cmp	r0, #0
  80 000c 53D0     		beq	.L3
  81              	.LVL4:
  82              	.LBB27:
  83              		.loc 1 135 0
  84 000e A268     		ldr	r2, [r4, #8]
  85 0010 8368     		ldr	r3, [r0, #8]
  86 0012 9A42     		cmp	r2, r3
  87 0014 07D9     		bls	.L5
  88              	.L21:
  89              		.loc 1 139 0
  90 0016 037F     		ldrb	r3, [r0, #28]
  91              		.loc 1 137 0
  92 0018 8260     		str	r2, [r0, #8]
  93              		.loc 1 139 0
  94 001a 042B     		cmp	r3, #4
  95 001c 32D0     		beq	.L6
  96 001e 052B     		cmp	r3, #5
  97 0020 1CD0     		beq	.L7
  98 0022 002B     		cmp	r3, #0
  99 0024 12D0     		beq	.L28
 100              	.LVL5:
 101              	.L5:
 102              	.LBB28:
 103              	.LBB29:
 104              		.file 2 "../../os/kernel/include/chinline.h"
 105              		.loc 2 43 0
 106 0026 2B00     		movs	r3, r5
 107 0028 03E0     		b	.L19
 108              	.LVL6:
 109              	.L17:
 110              		.loc 2 46 0
 111 002a 9A68     		ldr	r2, [r3, #8]
 112 002c A168     		ldr	r1, [r4, #8]
 113 002e 8A42     		cmp	r2, r1
 114 0030 02D3     		bcc	.L20
ARM GAS  /tmp/ccfsNE3q.s 			page 3


 115              	.L19:
 116              		.loc 2 45 0
 117 0032 1B68     		ldr	r3, [r3]
 118              	.LVL7:
 119              		.loc 2 46 0
 120 0034 9D42     		cmp	r5, r3
 121 0036 F8D1     		bne	.L17
 122              	.L20:
 123              		.loc 2 48 0
 124 0038 5A68     		ldr	r2, [r3, #4]
 125              		.loc 2 47 0
 126 003a 2360     		str	r3, [r4]
 127              		.loc 2 48 0
 128 003c 6260     		str	r2, [r4, #4]
 129              	.LBE29:
 130              	.LBE28:
 131              		.loc 1 175 0
 132 003e 0420     		movs	r0, #4
 133              	.LBB31:
 134              	.LBB30:
 135              		.loc 2 49 0
 136 0040 5C60     		str	r4, [r3, #4]
 137 0042 1460     		str	r4, [r2]
 138              	.LVL8:
 139              	.LBE30:
 140              	.LBE31:
 141              		.loc 1 174 0
 142 0044 6562     		str	r5, [r4, #36]
 143              		.loc 1 175 0
 144 0046 FFF7FEFF 		bl	chSchGoSleepS
 145              	.LVL9:
 146              	.L2:
 147              	.LBE27:
 148              		.loc 1 187 0
 149              		@ sp needed
 150              	.LVL10:
 151              	.LVL11:
 152 004a 70BD     		pop	{r4, r5, r6, pc}
 153              	.LVL12:
 154              	.L28:
 155              	.LBB42:
 156              	.LBB32:
 157              	.LBB33:
 158              		.loc 2 75 0
 159 004c 4368     		ldr	r3, [r0, #4]
 160 004e 0268     		ldr	r2, [r0]
 161 0050 1A60     		str	r2, [r3]
 162              		.loc 2 76 0
 163 0052 0268     		ldr	r2, [r0]
 164 0054 5360     		str	r3, [r2, #4]
 165              	.LVL13:
 166              	.LBE33:
 167              	.LBE32:
 168              		.loc 1 167 0
 169 0056 FFF7FEFF 		bl	chSchReadyI
 170              	.LVL14:
 171              		.loc 1 168 0
ARM GAS  /tmp/ccfsNE3q.s 			page 4


 172 005a E4E7     		b	.L5
 173              	.LVL15:
 174              	.L7:
 175              	.LBB34:
 176              	.LBB35:
 177              		.loc 2 75 0
 178 005c 4368     		ldr	r3, [r0, #4]
 179 005e 0168     		ldr	r1, [r0]
 180 0060 1960     		str	r1, [r3]
 181              		.loc 2 76 0
 182 0062 0168     		ldr	r1, [r0]
 183 0064 4B60     		str	r3, [r1, #4]
 184              	.LVL16:
 185              	.LBE35:
 186              	.LBE34:
 187              		.loc 1 158 0
 188 0066 416A     		ldr	r1, [r0, #36]
 189              	.LVL17:
 190              	.LBB36:
 191              	.LBB37:
 192              		.loc 2 43 0
 193 0068 0B00     		movs	r3, r1
 194 006a 02E0     		b	.L15
 195              	.LVL18:
 196              	.L14:
 197              		.loc 2 46 0
 198 006c 9E68     		ldr	r6, [r3, #8]
 199 006e 9642     		cmp	r6, r2
 200 0070 02D3     		bcc	.L16
 201              	.LVL19:
 202              	.L15:
 203              		.loc 2 45 0
 204 0072 1B68     		ldr	r3, [r3]
 205              	.LVL20:
 206              		.loc 2 46 0
 207 0074 9942     		cmp	r1, r3
 208 0076 F9D1     		bne	.L14
 209              	.L16:
 210              		.loc 2 48 0
 211 0078 5A68     		ldr	r2, [r3, #4]
 212              		.loc 2 47 0
 213 007a 0360     		str	r3, [r0]
 214              		.loc 2 48 0
 215 007c 4260     		str	r2, [r0, #4]
 216              		.loc 2 49 0
 217 007e 5860     		str	r0, [r3, #4]
 218 0080 1060     		str	r0, [r2]
 219 0082 D0E7     		b	.L5
 220              	.LVL21:
 221              	.L6:
 222              	.LBE37:
 223              	.LBE36:
 224              	.LBB38:
 225              	.LBB39:
 226              		.loc 2 75 0
 227 0084 4368     		ldr	r3, [r0, #4]
 228 0086 0168     		ldr	r1, [r0]
ARM GAS  /tmp/ccfsNE3q.s 			page 5


 229 0088 1960     		str	r1, [r3]
 230              		.loc 2 76 0
 231 008a 0168     		ldr	r1, [r0]
 232 008c 4B60     		str	r3, [r1, #4]
 233              	.LVL22:
 234              	.LBE39:
 235              	.LBE38:
 236              		.loc 1 142 0
 237 008e 416A     		ldr	r1, [r0, #36]
 238              	.LVL23:
 239 0090 0B00     		movs	r3, r1
 240 0092 02E0     		b	.L12
 241              	.LVL24:
 242              	.L9:
 243              	.LBB40:
 244              	.LBB41:
 245              		.loc 2 46 0
 246 0094 9E68     		ldr	r6, [r3, #8]
 247 0096 9642     		cmp	r6, r2
 248 0098 02D3     		bcc	.L13
 249              	.LVL25:
 250              	.L12:
 251              		.loc 2 45 0
 252 009a 1B68     		ldr	r3, [r3]
 253              	.LVL26:
 254              		.loc 2 46 0
 255 009c 9942     		cmp	r1, r3
 256 009e F9D1     		bne	.L9
 257              	.L13:
 258              		.loc 2 48 0
 259 00a0 5A68     		ldr	r2, [r3, #4]
 260              		.loc 2 47 0
 261 00a2 0360     		str	r3, [r0]
 262              		.loc 2 48 0
 263 00a4 4260     		str	r2, [r0, #4]
 264              		.loc 2 49 0
 265 00a6 5860     		str	r0, [r3, #4]
 266 00a8 1060     		str	r0, [r2]
 267              	.LVL27:
 268              	.LBE41:
 269              	.LBE40:
 270              		.loc 1 143 0
 271 00aa 8868     		ldr	r0, [r1, #8]
 272              	.LVL28:
 273              		.loc 1 135 0
 274 00ac A268     		ldr	r2, [r4, #8]
 275 00ae 8368     		ldr	r3, [r0, #8]
 276              	.LVL29:
 277 00b0 9342     		cmp	r3, r2
 278 00b2 B0D3     		bcc	.L21
 279 00b4 B7E7     		b	.L5
 280              	.LVL30:
 281              	.L3:
 282              	.LBE42:
 283              		.loc 1 184 0
 284 00b6 E36B     		ldr	r3, [r4, #60]
 285              		.loc 1 183 0
ARM GAS  /tmp/ccfsNE3q.s 			page 6


 286 00b8 AC60     		str	r4, [r5, #8]
 287              		.loc 1 184 0
 288 00ba EB60     		str	r3, [r5, #12]
 289              		.loc 1 185 0
 290 00bc E563     		str	r5, [r4, #60]
 291              		.loc 1 187 0
 292 00be C4E7     		b	.L2
 293              	.L30:
 294              		.align	2
 295              	.L29:
 296 00c0 00000000 		.word	rlist
 297              		.cfi_endproc
 298              	.LFE9:
 299              		.size	chMtxLockS, .-chMtxLockS
 300              		.section	.text.chMtxLock,"ax",%progbits
 301              		.align	2
 302              		.p2align 4,,15
 303              		.global	chMtxLock
 304              		.code	16
 305              		.thumb_func
 306              		.type	chMtxLock, %function
 307              	chMtxLock:
 308              	.LFB8:
 309              		.loc 1 103 0
 310              		.cfi_startproc
 311              		@ args = 0, pretend = 0, frame = 0
 312              		@ frame_needed = 0, uses_anonymous_args = 0
 313              	.LVL31:
 314 0000 10B5     		push	{r4, lr}
 315              		.cfi_def_cfa_offset 8
 316              		.cfi_offset 4, -8
 317              		.cfi_offset 14, -4
 318              		.loc 1 105 0
 319              		.syntax divided
 320              	@ 105 "../../os/kernel/src/chmtx.c" 1
 321 0002 72B6     		cpsid   i
 322              	@ 0 "" 2
 323              		.loc 1 107 0
 324              		.thumb
 325              		.syntax unified
 326 0004 FFF7FEFF 		bl	chMtxLockS
 327              	.LVL32:
 328              		.loc 1 109 0
 329              		.syntax divided
 330              	@ 109 "../../os/kernel/src/chmtx.c" 1
 331 0008 62B6     		cpsie   i
 332              	@ 0 "" 2
 333              		.loc 1 110 0
 334              		.thumb
 335              		.syntax unified
 336              		@ sp needed
 337 000a 10BD     		pop	{r4, pc}
 338              		.cfi_endproc
 339              	.LFE8:
 340              		.size	chMtxLock, .-chMtxLock
 341              		.section	.text.chMtxTryLock,"ax",%progbits
 342              		.align	2
ARM GAS  /tmp/ccfsNE3q.s 			page 7


 343              		.p2align 4,,15
 344              		.global	chMtxTryLock
 345              		.code	16
 346              		.thumb_func
 347              		.type	chMtxTryLock, %function
 348              	chMtxTryLock:
 349              	.LFB10:
 350              		.loc 1 206 0
 351              		.cfi_startproc
 352              		@ args = 0, pretend = 0, frame = 0
 353              		@ frame_needed = 0, uses_anonymous_args = 0
 354              		@ link register save eliminated.
 355              	.LVL33:
 356              		.loc 1 206 0
 357 0000 0300     		movs	r3, r0
 358              		.loc 1 209 0
 359              		.syntax divided
 360              	@ 209 "../../os/kernel/src/chmtx.c" 1
 361 0002 72B6     		cpsid   i
 362              	@ 0 "" 2
 363              	.LVL34:
 364              		.thumb
 365              		.syntax unified
 366              	.LBB47:
 367              	.LBB48:
 368              		.loc 1 239 0
 369 0004 9A68     		ldr	r2, [r3, #8]
 370              		.loc 1 240 0
 371 0006 0020     		movs	r0, #0
 372              	.LVL35:
 373              		.loc 1 239 0
 374 0008 002A     		cmp	r2, #0
 375 000a 01D0     		beq	.L35
 376              	.L33:
 377              	.LVL36:
 378              	.LBE48:
 379              	.LBE47:
 380              		.loc 1 213 0
 381              		.syntax divided
 382              	@ 213 "../../os/kernel/src/chmtx.c" 1
 383 000c 62B6     		cpsie   i
 384              	@ 0 "" 2
 385              		.loc 1 215 0
 386              		.thumb
 387              		.syntax unified
 388              		@ sp needed
 389 000e 7047     		bx	lr
 390              	.LVL37:
 391              	.L35:
 392              	.LBB52:
 393              	.LBB51:
 394              	.LBB49:
 395              	.LBB50:
 396              		.loc 1 241 0
 397 0010 034A     		ldr	r2, .L36
 398              		.loc 1 243 0
 399 0012 0130     		adds	r0, r0, #1
ARM GAS  /tmp/ccfsNE3q.s 			page 8


 400              		.loc 1 241 0
 401 0014 9269     		ldr	r2, [r2, #24]
 402              		.loc 1 242 0
 403 0016 D16B     		ldr	r1, [r2, #60]
 404              		.loc 1 241 0
 405 0018 9A60     		str	r2, [r3, #8]
 406              		.loc 1 242 0
 407 001a D960     		str	r1, [r3, #12]
 408              		.loc 1 243 0
 409 001c D363     		str	r3, [r2, #60]
 410              	.LVL38:
 411 001e F5E7     		b	.L33
 412              	.L37:
 413              		.align	2
 414              	.L36:
 415 0020 00000000 		.word	rlist
 416              	.LBE50:
 417              	.LBE49:
 418              	.LBE51:
 419              	.LBE52:
 420              		.cfi_endproc
 421              	.LFE10:
 422              		.size	chMtxTryLock, .-chMtxTryLock
 423              		.section	.text.chMtxTryLockS,"ax",%progbits
 424              		.align	2
 425              		.p2align 4,,15
 426              		.global	chMtxTryLockS
 427              		.code	16
 428              		.thumb_func
 429              		.type	chMtxTryLockS, %function
 430              	chMtxTryLockS:
 431              	.LFB11:
 432              		.loc 1 234 0
 433              		.cfi_startproc
 434              		@ args = 0, pretend = 0, frame = 0
 435              		@ frame_needed = 0, uses_anonymous_args = 0
 436              		@ link register save eliminated.
 437              	.LVL39:
 438              		.loc 1 234 0
 439 0000 0300     		movs	r3, r0
 440              		.loc 1 239 0
 441 0002 9A68     		ldr	r2, [r3, #8]
 442              		.loc 1 240 0
 443 0004 0020     		movs	r0, #0
 444              	.LVL40:
 445              		.loc 1 239 0
 446 0006 002A     		cmp	r2, #0
 447 0008 00D0     		beq	.L41
 448              	.L39:
 449              		.loc 1 245 0
 450              		@ sp needed
 451 000a 7047     		bx	lr
 452              	.L41:
 453              	.LVL41:
 454              	.LBB55:
 455              	.LBB56:
 456              		.loc 1 241 0
ARM GAS  /tmp/ccfsNE3q.s 			page 9


 457 000c 034A     		ldr	r2, .L42
 458              		.loc 1 243 0
 459 000e 0130     		adds	r0, r0, #1
 460              		.loc 1 241 0
 461 0010 9269     		ldr	r2, [r2, #24]
 462              		.loc 1 242 0
 463 0012 D16B     		ldr	r1, [r2, #60]
 464              		.loc 1 241 0
 465 0014 9A60     		str	r2, [r3, #8]
 466              		.loc 1 242 0
 467 0016 D960     		str	r1, [r3, #12]
 468              		.loc 1 243 0
 469 0018 D363     		str	r3, [r2, #60]
 470              	.LVL42:
 471 001a F6E7     		b	.L39
 472              	.L43:
 473              		.align	2
 474              	.L42:
 475 001c 00000000 		.word	rlist
 476              	.LBE56:
 477              	.LBE55:
 478              		.cfi_endproc
 479              	.LFE11:
 480              		.size	chMtxTryLockS, .-chMtxTryLockS
 481              		.section	.text.chMtxUnlock,"ax",%progbits
 482              		.align	2
 483              		.p2align 4,,15
 484              		.global	chMtxUnlock
 485              		.code	16
 486              		.thumb_func
 487              		.type	chMtxUnlock, %function
 488              	chMtxUnlock:
 489              	.LFB12:
 490              		.loc 1 257 0
 491              		.cfi_startproc
 492              		@ args = 0, pretend = 0, frame = 0
 493              		@ frame_needed = 0, uses_anonymous_args = 0
 494              		.loc 1 258 0
 495 0000 134B     		ldr	r3, .L55
 496              		.loc 1 257 0
 497 0002 70B5     		push	{r4, r5, r6, lr}
 498              		.cfi_def_cfa_offset 16
 499              		.cfi_offset 4, -16
 500              		.cfi_offset 5, -12
 501              		.cfi_offset 6, -8
 502              		.cfi_offset 14, -4
 503              		.loc 1 258 0
 504 0004 9D69     		ldr	r5, [r3, #24]
 505              	.LVL43:
 506              		.loc 1 261 0
 507              		.syntax divided
 508              	@ 261 "../../os/kernel/src/chmtx.c" 1
 509 0006 72B6     		cpsid   i
 510              	@ 0 "" 2
 511              		.loc 1 265 0
 512              		.thumb
 513              		.syntax unified
ARM GAS  /tmp/ccfsNE3q.s 			page 10


 514 0008 EC6B     		ldr	r4, [r5, #60]
 515              	.LVL44:
 516              		.loc 1 271 0
 517 000a E368     		ldr	r3, [r4, #12]
 518              		.loc 1 273 0
 519 000c 2068     		ldr	r0, [r4]
 520              		.loc 1 271 0
 521 000e EB63     		str	r3, [r5, #60]
 522              		.loc 1 273 0
 523 0010 A042     		cmp	r0, r4
 524 0012 1AD0     		beq	.L45
 525              	.LBB57:
 526              		.loc 1 278 0
 527 0014 296C     		ldr	r1, [r5, #64]
 528              	.LVL45:
 529              		.loc 1 280 0
 530 0016 002B     		cmp	r3, #0
 531 0018 09D0     		beq	.L46
 532              	.L49:
 533              		.loc 1 284 0
 534 001a 1A68     		ldr	r2, [r3]
 535 001c 9A42     		cmp	r2, r3
 536 001e 03D0     		beq	.L47
 537              		.loc 1 284 0 is_stmt 0 discriminator 1
 538 0020 9268     		ldr	r2, [r2, #8]
 539 0022 9142     		cmp	r1, r2
 540 0024 00D2     		bcs	.L47
 541 0026 1100     		movs	r1, r2
 542              	.LVL46:
 543              	.L47:
 544              		.loc 1 286 0 is_stmt 1
 545 0028 DB68     		ldr	r3, [r3, #12]
 546              	.LVL47:
 547              		.loc 1 280 0
 548 002a 002B     		cmp	r3, #0
 549 002c F5D1     		bne	.L49
 550              	.L46:
 551              	.LBB58:
 552              	.LBB59:
 553              		.loc 2 62 0
 554 002e 0368     		ldr	r3, [r0]
 555              	.LVL48:
 556              	.LBE59:
 557              	.LBE58:
 558              		.loc 1 290 0
 559 0030 A960     		str	r1, [r5, #8]
 560              	.LVL49:
 561              	.LBB61:
 562              	.LBB60:
 563              		.loc 2 62 0
 564 0032 2360     		str	r3, [r4]
 565 0034 5C60     		str	r4, [r3, #4]
 566              	.LVL50:
 567              	.LBE60:
 568              	.LBE61:
 569              		.loc 1 295 0
 570 0036 C36B     		ldr	r3, [r0, #60]
ARM GAS  /tmp/ccfsNE3q.s 			page 11


 571              		.loc 1 294 0
 572 0038 A060     		str	r0, [r4, #8]
 573              		.loc 1 295 0
 574 003a E360     		str	r3, [r4, #12]
 575              		.loc 1 297 0
 576 003c 0021     		movs	r1, #0
 577              	.LVL51:
 578              		.loc 1 296 0
 579 003e C463     		str	r4, [r0, #60]
 580              		.loc 1 297 0
 581 0040 FFF7FEFF 		bl	chSchWakeupS
 582              	.LVL52:
 583              	.L50:
 584              	.LBE57:
 585              		.loc 1 301 0
 586              		.syntax divided
 587              	@ 301 "../../os/kernel/src/chmtx.c" 1
 588 0044 62B6     		cpsie   i
 589              	@ 0 "" 2
 590              		.loc 1 303 0
 591              		.thumb
 592              		.syntax unified
 593 0046 2000     		movs	r0, r4
 594              		@ sp needed
 595              	.LVL53:
 596              	.LVL54:
 597 0048 70BD     		pop	{r4, r5, r6, pc}
 598              	.LVL55:
 599              	.L45:
 600              		.loc 1 300 0
 601 004a 0023     		movs	r3, #0
 602 004c A360     		str	r3, [r4, #8]
 603 004e F9E7     		b	.L50
 604              	.L56:
 605              		.align	2
 606              	.L55:
 607 0050 00000000 		.word	rlist
 608              		.cfi_endproc
 609              	.LFE12:
 610              		.size	chMtxUnlock, .-chMtxUnlock
 611              		.section	.text.chMtxUnlockS,"ax",%progbits
 612              		.align	2
 613              		.p2align 4,,15
 614              		.global	chMtxUnlockS
 615              		.code	16
 616              		.thumb_func
 617              		.type	chMtxUnlockS, %function
 618              	chMtxUnlockS:
 619              	.LFB13:
 620              		.loc 1 317 0
 621              		.cfi_startproc
 622              		@ args = 0, pretend = 0, frame = 0
 623              		@ frame_needed = 0, uses_anonymous_args = 0
 624              		.loc 1 318 0
 625 0000 124B     		ldr	r3, .L68
 626              		.loc 1 317 0
 627 0002 70B5     		push	{r4, r5, r6, lr}
ARM GAS  /tmp/ccfsNE3q.s 			page 12


 628              		.cfi_def_cfa_offset 16
 629              		.cfi_offset 4, -16
 630              		.cfi_offset 5, -12
 631              		.cfi_offset 6, -8
 632              		.cfi_offset 14, -4
 633              		.loc 1 318 0
 634 0004 9D69     		ldr	r5, [r3, #24]
 635              	.LVL56:
 636              		.loc 1 325 0
 637 0006 EC6B     		ldr	r4, [r5, #60]
 638              	.LVL57:
 639              		.loc 1 332 0
 640 0008 E368     		ldr	r3, [r4, #12]
 641              		.loc 1 334 0
 642 000a 2068     		ldr	r0, [r4]
 643              		.loc 1 332 0
 644 000c EB63     		str	r3, [r5, #60]
 645              		.loc 1 334 0
 646 000e A042     		cmp	r0, r4
 647 0010 18D0     		beq	.L58
 648              	.LBB62:
 649              		.loc 1 339 0
 650 0012 296C     		ldr	r1, [r5, #64]
 651              	.LVL58:
 652              		.loc 1 341 0
 653 0014 002B     		cmp	r3, #0
 654 0016 09D0     		beq	.L59
 655              	.L62:
 656              		.loc 1 345 0
 657 0018 1A68     		ldr	r2, [r3]
 658 001a 9A42     		cmp	r2, r3
 659 001c 03D0     		beq	.L60
 660              		.loc 1 345 0 is_stmt 0 discriminator 1
 661 001e 9268     		ldr	r2, [r2, #8]
 662 0020 9142     		cmp	r1, r2
 663 0022 00D2     		bcs	.L60
 664 0024 1100     		movs	r1, r2
 665              	.LVL59:
 666              	.L60:
 667              		.loc 1 347 0 is_stmt 1
 668 0026 DB68     		ldr	r3, [r3, #12]
 669              	.LVL60:
 670              		.loc 1 341 0
 671 0028 002B     		cmp	r3, #0
 672 002a F5D1     		bne	.L62
 673              	.L59:
 674              	.LBB63:
 675              	.LBB64:
 676              		.loc 2 62 0
 677 002c 0368     		ldr	r3, [r0]
 678              	.LVL61:
 679              	.LBE64:
 680              	.LBE63:
 681              		.loc 1 349 0
 682 002e A960     		str	r1, [r5, #8]
 683              	.LVL62:
 684              	.LBB66:
ARM GAS  /tmp/ccfsNE3q.s 			page 13


 685              	.LBB65:
 686              		.loc 2 62 0
 687 0030 2360     		str	r3, [r4]
 688 0032 5C60     		str	r4, [r3, #4]
 689              	.LVL63:
 690              	.LBE65:
 691              	.LBE66:
 692              		.loc 1 354 0
 693 0034 C36B     		ldr	r3, [r0, #60]
 694              		.loc 1 353 0
 695 0036 A060     		str	r0, [r4, #8]
 696              		.loc 1 354 0
 697 0038 E360     		str	r3, [r4, #12]
 698              		.loc 1 355 0
 699 003a C463     		str	r4, [r0, #60]
 700              		.loc 1 356 0
 701 003c FFF7FEFF 		bl	chSchReadyI
 702              	.LVL64:
 703              	.L63:
 704              	.LBE62:
 705              		.loc 1 361 0
 706 0040 2000     		movs	r0, r4
 707              		@ sp needed
 708              	.LVL65:
 709              	.LVL66:
 710 0042 70BD     		pop	{r4, r5, r6, pc}
 711              	.LVL67:
 712              	.L58:
 713              		.loc 1 359 0
 714 0044 0023     		movs	r3, #0
 715 0046 A360     		str	r3, [r4, #8]
 716 0048 FAE7     		b	.L63
 717              	.L69:
 718 004a C046     		.align	2
 719              	.L68:
 720 004c 00000000 		.word	rlist
 721              		.cfi_endproc
 722              	.LFE13:
 723              		.size	chMtxUnlockS, .-chMtxUnlockS
 724              		.section	.text.chMtxUnlockAll,"ax",%progbits
 725              		.align	2
 726              		.p2align 4,,15
 727              		.global	chMtxUnlockAll
 728              		.code	16
 729              		.thumb_func
 730              		.type	chMtxUnlockAll, %function
 731              	chMtxUnlockAll:
 732              	.LFB14:
 733              		.loc 1 374 0
 734              		.cfi_startproc
 735              		@ args = 0, pretend = 0, frame = 0
 736              		@ frame_needed = 0, uses_anonymous_args = 0
 737              		.loc 1 375 0
 738 0000 114B     		ldr	r3, .L81
 739              		.loc 1 374 0
 740 0002 70B5     		push	{r4, r5, r6, lr}
 741              		.cfi_def_cfa_offset 16
ARM GAS  /tmp/ccfsNE3q.s 			page 14


 742              		.cfi_offset 4, -16
 743              		.cfi_offset 5, -12
 744              		.cfi_offset 6, -8
 745              		.cfi_offset 14, -4
 746              		.loc 1 375 0
 747 0004 9C69     		ldr	r4, [r3, #24]
 748              	.LVL68:
 749              		.loc 1 377 0
 750              		.syntax divided
 751              	@ 377 "../../os/kernel/src/chmtx.c" 1
 752 0006 72B6     		cpsid   i
 753              	@ 0 "" 2
 754              		.loc 1 378 0
 755              		.thumb
 756              		.syntax unified
 757 0008 E36B     		ldr	r3, [r4, #60]
 758 000a 002B     		cmp	r3, #0
 759 000c 1AD0     		beq	.L71
 760              	.LBB67:
 761              		.loc 1 390 0
 762 000e 0025     		movs	r5, #0
 763 0010 0BE0     		b	.L74
 764              	.LVL69:
 765              	.L80:
 766              	.LBB68:
 767              	.LBB69:
 768              	.LBB70:
 769              		.loc 2 62 0
 770 0012 0268     		ldr	r2, [r0]
 771 0014 1A60     		str	r2, [r3]
 772 0016 5360     		str	r3, [r2, #4]
 773              	.LVL70:
 774              	.LBE70:
 775              	.LBE69:
 776              		.loc 1 385 0
 777 0018 C26B     		ldr	r2, [r0, #60]
 778              		.loc 1 384 0
 779 001a 9860     		str	r0, [r3, #8]
 780              		.loc 1 385 0
 781 001c DA60     		str	r2, [r3, #12]
 782              		.loc 1 386 0
 783 001e C363     		str	r3, [r0, #60]
 784              		.loc 1 387 0
 785 0020 FFF7FEFF 		bl	chSchReadyI
 786              	.LVL71:
 787              	.LBE68:
 788              	.LBE67:
 789              		.loc 1 391 0
 790 0024 E36B     		ldr	r3, [r4, #60]
 791 0026 002B     		cmp	r3, #0
 792 0028 08D0     		beq	.L79
 793              	.L74:
 794              	.LVL72:
 795              	.LBB71:
 796              		.loc 1 381 0
 797 002a DA68     		ldr	r2, [r3, #12]
 798              		.loc 1 382 0
ARM GAS  /tmp/ccfsNE3q.s 			page 15


 799 002c 1868     		ldr	r0, [r3]
 800              		.loc 1 381 0
 801 002e E263     		str	r2, [r4, #60]
 802              	.LVL73:
 803              		.loc 1 382 0
 804 0030 9842     		cmp	r0, r3
 805 0032 EED1     		bne	.L80
 806              		.loc 1 390 0
 807 0034 9D60     		str	r5, [r3, #8]
 808              	.LBE71:
 809              		.loc 1 391 0
 810 0036 E36B     		ldr	r3, [r4, #60]
 811 0038 002B     		cmp	r3, #0
 812 003a F6D1     		bne	.L74
 813              	.L79:
 814              		.loc 1 392 0
 815 003c 236C     		ldr	r3, [r4, #64]
 816 003e A360     		str	r3, [r4, #8]
 817              		.loc 1 393 0
 818 0040 FFF7FEFF 		bl	chSchRescheduleS
 819              	.LVL74:
 820              	.L71:
 821              		.loc 1 395 0
 822              		.syntax divided
 823              	@ 395 "../../os/kernel/src/chmtx.c" 1
 824 0044 62B6     		cpsie   i
 825              	@ 0 "" 2
 826              		.loc 1 396 0
 827              		.thumb
 828              		.syntax unified
 829              		@ sp needed
 830              	.LVL75:
 831 0046 70BD     		pop	{r4, r5, r6, pc}
 832              	.L82:
 833              		.align	2
 834              	.L81:
 835 0048 00000000 		.word	rlist
 836              		.cfi_endproc
 837              	.LFE14:
 838              		.size	chMtxUnlockAll, .-chMtxUnlockAll
 839              		.text
 840              	.Letext0:
 841              		.file 3 "/home/lithium/Descargas/gcc-arm-none-eabi-5_3-2016q1/arm-none-eabi/include/machine/_defau
 842              		.file 4 "/home/lithium/Descargas/gcc-arm-none-eabi-5_3-2016q1/arm-none-eabi/include/sys/_stdint.h"
 843              		.file 5 "../../os/ports/GCC/ARMCMx/chtypes.h"
 844              		.file 6 "../../os/kernel/include/chlists.h"
 845              		.file 7 "../../os/kernel/include/chthreads.h"
 846              		.file 8 "../../os/ports/GCC/ARMCMx/chcore_v6m.h"
 847              		.file 9 "../../os/kernel/include/chschd.h"
 848              		.file 10 "../../os/kernel/include/chmtx.h"