ARM GAS  /tmp/ccOnDVUd.s 			page 1


   1              		.syntax unified
   2              		.cpu cortex-m0
   3              		.fpu softvfp
   4              		.eabi_attribute 20, 1
   5              		.eabi_attribute 21, 1
   6              		.eabi_attribute 23, 3
   7              		.eabi_attribute 24, 1
   8              		.eabi_attribute 25, 1
   9              		.eabi_attribute 26, 1
  10              		.eabi_attribute 30, 2
  11              		.eabi_attribute 34, 0
  12              		.eabi_attribute 18, 4
  13              		.thumb
  14              		.syntax unified
  15              		.file	"chprintf.c"
  16              		.text
  17              	.Ltext0:
  18              		.cfi_sections	.debug_frame
  19              		.global	__aeabi_uidivmod
  20              		.global	__aeabi_uidiv
  21              		.section	.text.ltoa,"ax",%progbits
  22              		.align	2
  23              		.p2align 4,,15
  24              		.code	16
  25              		.thumb_func
  26              		.type	ltoa, %function
  27              	ltoa:
  28              	.LFB9:
  29              		.file 1 "../../os/various/chprintf.c"
  30              		.loc 1 70 0
  31              		.cfi_startproc
  32              		@ args = 0, pretend = 0, frame = 0
  33              		@ frame_needed = 0, uses_anonymous_args = 0
  34              	.LVL0:
  35 0000 F0B5     		push	{r4, r5, r6, r7, lr}
  36              		.cfi_def_cfa_offset 20
  37              		.cfi_offset 4, -20
  38              		.cfi_offset 5, -16
  39              		.cfi_offset 6, -12
  40              		.cfi_offset 7, -8
  41              		.cfi_offset 14, -4
  42              	.LBB4:
  43              	.LBB5:
  44              		.loc 1 52 0
  45 0002 0B23     		movs	r3, #11
  46              	.LBE5:
  47              	.LBE4:
  48              		.loc 1 70 0
  49 0004 4546     		mov	r5, r8
  50 0006 8046     		mov	r8, r0
  51 0008 5746     		mov	r7, r10
  52 000a 4E46     		mov	r6, r9
  53              	.LBB8:
  54              	.LBB6:
  55              		.loc 1 52 0
  56 000c 4344     		add	r3, r3, r8
  57              	.LBE6:
ARM GAS  /tmp/ccOnDVUd.s 			page 2


  58              	.LBE8:
  59              		.loc 1 70 0
  60 000e E0B4     		push	{r5, r6, r7}
  61              		.cfi_def_cfa_offset 32
  62              		.cfi_offset 8, -32
  63              		.cfi_offset 9, -28
  64              		.cfi_offset 10, -24
  65              		.loc 1 70 0
  66 0010 9246     		mov	r10, r2
  67              	.LVL1:
  68 0012 0F00     		movs	r7, r1
  69              	.LBB9:
  70              	.LBB7:
  71              		.loc 1 52 0
  72 0014 9946     		mov	r9, r3
  73              	.LVL2:
  74 0016 0E00     		movs	r6, r1
  75 0018 1D00     		movs	r5, r3
  76              	.LVL3:
  77              	.L3:
  78              		.loc 1 54 0
  79 001a 5146     		mov	r1, r10
  80 001c 3800     		movs	r0, r7
  81 001e FFF7FEFF 		bl	__aeabi_uidivmod
  82              	.LVL4:
  83              		.loc 1 55 0
  84 0022 0C00     		movs	r4, r1
  85 0024 3034     		adds	r4, r4, #48
  86              	.LVL5:
  87              		.loc 1 56 0
  88 0026 392C     		cmp	r4, #57
  89 0028 01DD     		ble	.L2
  90              		.loc 1 57 0
  91 002a 3731     		adds	r1, r1, #55
  92 002c 0C00     		movs	r4, r1
  93              	.LVL6:
  94              	.L2:
  95              		.loc 1 58 0
  96 002e 013D     		subs	r5, r5, #1
  97              	.LVL7:
  98 0030 E4B2     		uxtb	r4, r4
  99              	.LVL8:
 100              		.loc 1 59 0
 101 0032 5146     		mov	r1, r10
 102 0034 3800     		movs	r0, r7
 103              		.loc 1 58 0
 104 0036 2C70     		strb	r4, [r5]
 105              		.loc 1 59 0
 106 0038 FFF7FEFF 		bl	__aeabi_uidiv
 107              	.LVL9:
 108              		.loc 1 60 0
 109 003c 5146     		mov	r1, r10
 110              		.loc 1 59 0
 111 003e 0700     		movs	r7, r0
 112              	.LVL10:
 113              		.loc 1 60 0
 114 0040 3000     		movs	r0, r6
ARM GAS  /tmp/ccOnDVUd.s 			page 3


 115              	.LVL11:
 116 0042 FFF7FEFF 		bl	__aeabi_uidiv
 117              	.LVL12:
 118 0046 061E     		subs	r6, r0, #0
 119              	.LVL13:
 120 0048 E7D1     		bne	.L3
 121              	.LVL14:
 122 004a 4A46     		mov	r2, r9
 123 004c 4346     		mov	r3, r8
 124 004e 501B     		subs	r0, r2, r5
 125              	.LVL15:
 126 0050 1818     		adds	r0, r3, r0
 127              	.LVL16:
 128 0052 00E0     		b	.L5
 129              	.LVL17:
 130              	.L8:
 131 0054 2C78     		ldrb	r4, [r5]
 132              	.LVL18:
 133              	.L5:
 134              		.loc 1 64 0
 135 0056 1C70     		strb	r4, [r3]
 136 0058 0133     		adds	r3, r3, #1
 137              	.LVL19:
 138 005a 0135     		adds	r5, r5, #1
 139              	.LVL20:
 140              		.loc 1 65 0
 141 005c 9842     		cmp	r0, r3
 142 005e F9D1     		bne	.L8
 143              	.LVL21:
 144              	.LBE7:
 145              	.LBE9:
 146              		.loc 1 73 0
 147              		@ sp needed
 148              	.LVL22:
 149              	.LVL23:
 150              	.LVL24:
 151              	.LVL25:
 152 0060 1CBC     		pop	{r2, r3, r4}
 153 0062 9046     		mov	r8, r2
 154 0064 9946     		mov	r9, r3
 155 0066 A246     		mov	r10, r4
 156 0068 F0BD     		pop	{r4, r5, r6, r7, pc}
 157              		.cfi_endproc
 158              	.LFE9:
 159              		.size	ltoa, .-ltoa
 160 006a C046     		.section	.text.chvprintf,"ax",%progbits
 161              		.align	2
 162              		.p2align 4,,15
 163              		.global	chvprintf
 164              		.code	16
 165              		.thumb_func
 166              		.type	chvprintf, %function
 167              	chvprintf:
 168              	.LFB10:
 169              		.loc 1 112 0
 170              		.cfi_startproc
 171              		@ args = 0, pretend = 0, frame = 24
ARM GAS  /tmp/ccOnDVUd.s 			page 4


 172              		@ frame_needed = 0, uses_anonymous_args = 0
 173              	.LVL26:
 174 0000 F0B5     		push	{r4, r5, r6, r7, lr}
 175              		.cfi_def_cfa_offset 20
 176              		.cfi_offset 4, -20
 177              		.cfi_offset 5, -16
 178              		.cfi_offset 6, -12
 179              		.cfi_offset 7, -8
 180              		.cfi_offset 14, -4
 181 0002 5F46     		mov	r7, fp
 182 0004 5646     		mov	r6, r10
 183 0006 4D46     		mov	r5, r9
 184 0008 4446     		mov	r4, r8
 185 000a 8B46     		mov	fp, r1
 186 000c F0B4     		push	{r4, r5, r6, r7}
 187              		.cfi_def_cfa_offset 36
 188              		.cfi_offset 8, -36
 189              		.cfi_offset 9, -32
 190              		.cfi_offset 10, -28
 191              		.cfi_offset 11, -24
 192 000e 0600     		movs	r6, r0
 193 0010 87B0     		sub	sp, sp, #28
 194              		.cfi_def_cfa_offset 64
 195 0012 02AB     		add	r3, sp, #8
 196              		.loc 1 112 0
 197 0014 1700     		movs	r7, r2
 198 0016 0533     		adds	r3, r3, #5
 199 0018 03AA     		add	r2, sp, #12
 200              	.LVL27:
 201 001a 9B1A     		subs	r3, r3, r2
 202 001c 0193     		str	r3, [sp, #4]
 203              	.LVL28:
 204              	.L10:
 205              		.loc 1 125 0
 206 001e 5B46     		mov	r3, fp
 207 0020 1978     		ldrb	r1, [r3]
 208 0022 5D1C     		adds	r5, r3, #1
 209              	.LVL29:
 210              		.loc 1 126 0
 211 0024 0029     		cmp	r1, #0
 212 0026 0BD0     		beq	.L9
 213              	.L92:
 214              		.loc 1 128 0
 215 0028 2529     		cmp	r1, #37
 216 002a 10D0     		beq	.L12
 217              		.loc 1 125 0
 218 002c AB46     		mov	fp, r5
 219              		.loc 1 129 0
 220 002e 3368     		ldr	r3, [r6]
 221 0030 3000     		movs	r0, r6
 222 0032 9B68     		ldr	r3, [r3, #8]
 223 0034 9847     		blx	r3
 224              	.LVL30:
 225              		.loc 1 125 0
 226 0036 5B46     		mov	r3, fp
 227 0038 1978     		ldrb	r1, [r3]
 228 003a 5D1C     		adds	r5, r3, #1
ARM GAS  /tmp/ccOnDVUd.s 			page 5


 229              	.LVL31:
 230              		.loc 1 126 0
 231 003c 0029     		cmp	r1, #0
 232 003e F3D1     		bne	.L92
 233              	.L9:
 234              		.loc 1 261 0
 235 0040 07B0     		add	sp, sp, #28
 236              		@ sp needed
 237              	.LVL32:
 238              	.LVL33:
 239 0042 3CBC     		pop	{r2, r3, r4, r5}
 240 0044 9046     		mov	r8, r2
 241 0046 9946     		mov	r9, r3
 242 0048 A246     		mov	r10, r4
 243 004a AB46     		mov	fp, r5
 244 004c F0BD     		pop	{r4, r5, r6, r7, pc}
 245              	.LVL34:
 246              	.L12:
 247              		.loc 1 135 0
 248 004e 5B46     		mov	r3, fp
 249 0050 5B78     		ldrb	r3, [r3, #1]
 250 0052 2D2B     		cmp	r3, #45
 251 0054 00D1     		bne	.LCB259
 252 0056 E7E0     		b	.L93	@long jump
 253              	.LCB259:
 254              		.loc 1 134 0
 255 0058 0022     		movs	r2, #0
 256 005a 0092     		str	r2, [sp]
 257              	.LVL35:
 258              	.L14:
 259              		.loc 1 139 0
 260 005c 2022     		movs	r2, #32
 261 005e 9246     		mov	r10, r2
 262              		.loc 1 140 0
 263 0060 1A00     		movs	r2, r3
 264 0062 FD21     		movs	r1, #253
 265              	.LVL36:
 266 0064 2E3A     		subs	r2, r2, #46
 267 0066 0A42     		tst	r2, r1
 268 0068 24D0     		beq	.L94
 269              	.LVL37:
 270              	.L15:
 271              		.loc 1 144 0
 272 006a 0024     		movs	r4, #0
 273 006c 06E0     		b	.L18
 274              	.LVL38:
 275              	.L95:
 276              		.loc 1 150 0
 277 006e 3A78     		ldrb	r2, [r7]
 278              	.LVL39:
 279 0070 0437     		adds	r7, r7, #4
 280              	.LVL40:
 281              	.L16:
 282              		.loc 1 153 0
 283 0072 A300     		lsls	r3, r4, #2
 284 0074 1C19     		adds	r4, r3, r4
 285              	.LVL41:
ARM GAS  /tmp/ccOnDVUd.s 			page 6


 286 0076 6400     		lsls	r4, r4, #1
 287 0078 2B78     		ldrb	r3, [r5]
 288 007a 1419     		adds	r4, r2, r4
 289              	.LVL42:
 290              	.L18:
 291              		.loc 1 147 0
 292 007c 1A00     		movs	r2, r3
 293 007e 303A     		subs	r2, r2, #48
 294 0080 D2B2     		uxtb	r2, r2
 295              		.loc 1 146 0
 296 0082 0135     		adds	r5, r5, #1
 297              	.LVL43:
 298              		.loc 1 147 0
 299 0084 092A     		cmp	r2, #9
 300 0086 F4D9     		bls	.L16
 301              		.loc 1 149 0
 302 0088 2A2B     		cmp	r3, #42
 303 008a F0D0     		beq	.L95
 304              	.LVL44:
 305              		.loc 1 155 0
 306 008c 0022     		movs	r2, #0
 307 008e 9146     		mov	r9, r2
 308              		.loc 1 156 0
 309 0090 2E2B     		cmp	r3, #46
 310 0092 00D1     		bne	.LCB331
 311 0094 B4E0     		b	.L96	@long jump
 312              	.LCB331:
 313              	.LVL45:
 314              	.L19:
 315              		.loc 1 170 0
 316 0096 DF22     		movs	r2, #223
 317 0098 1A40     		ands	r2, r3
 318 009a 4C2A     		cmp	r2, #76
 319 009c 00D1     		bne	.LCB343
 320 009e A2E0     		b	.L97	@long jump
 321              	.LCB343:
 322              	.LVL46:
 323              		.loc 1 179 0
 324 00a0 1A00     		movs	r2, r3
 325 00a2 443A     		subs	r2, r2, #68
 326 00a4 D2B2     		uxtb	r2, r2
 327 00a6 342A     		cmp	r2, #52
 328 00a8 00D9     		bls	.LCB352
 329 00aa 92E0     		b	.L24	@long jump
 330              	.LCB352:
 331 00ac 7D48     		ldr	r0, .L104
 332 00ae 9200     		lsls	r2, r2, #2
 333 00b0 8258     		ldr	r2, [r0, r2]
 334 00b2 9746     		mov	pc, r2
 335              		.section	.rodata.chvprintf,"a",%progbits
 336              		.align	2
 337              	.L33:
 338 0000 C0010000 		.word	.L41
 339 0004 D2010000 		.word	.L24
 340 0008 D2010000 		.word	.L24
 341 000c D2010000 		.word	.L24
 342 0010 D2010000 		.word	.L24
ARM GAS  /tmp/ccOnDVUd.s 			page 7


 343 0014 C0010000 		.word	.L41
 344 0018 D2010000 		.word	.L24
 345 001c D2010000 		.word	.L24
 346 0020 D2010000 		.word	.L24
 347 0024 D2010000 		.word	.L24
 348 0028 D2010000 		.word	.L24
 349 002c BA010000 		.word	.L27
 350 0030 D2010000 		.word	.L24
 351 0034 D2010000 		.word	.L24
 352 0038 D2010000 		.word	.L24
 353 003c D2010000 		.word	.L24
 354 0040 D2010000 		.word	.L24
 355 0044 B4010000 		.word	.L28
 356 0048 D2010000 		.word	.L24
 357 004c D2010000 		.word	.L24
 358 0050 BE000000 		.word	.L66
 359 0054 D2010000 		.word	.L24
 360 0058 D2010000 		.word	.L24
 361 005c D2010000 		.word	.L24
 362 0060 D2010000 		.word	.L24
 363 0064 D2010000 		.word	.L24
 364 0068 D2010000 		.word	.L24
 365 006c D2010000 		.word	.L24
 366 0070 D2010000 		.word	.L24
 367 0074 D2010000 		.word	.L24
 368 0078 D2010000 		.word	.L24
 369 007c 48010000 		.word	.L30
 370 0080 C0010000 		.word	.L41
 371 0084 D2010000 		.word	.L24
 372 0088 D2010000 		.word	.L24
 373 008c D2010000 		.word	.L24
 374 0090 D2010000 		.word	.L24
 375 0094 C0010000 		.word	.L41
 376 0098 D2010000 		.word	.L24
 377 009c D2010000 		.word	.L24
 378 00a0 D2010000 		.word	.L24
 379 00a4 D2010000 		.word	.L24
 380 00a8 D2010000 		.word	.L24
 381 00ac BA010000 		.word	.L27
 382 00b0 D2010000 		.word	.L24
 383 00b4 D2010000 		.word	.L24
 384 00b8 D2010000 		.word	.L24
 385 00bc 78010000 		.word	.L31
 386 00c0 D2010000 		.word	.L24
 387 00c4 B4010000 		.word	.L28
 388 00c8 D2010000 		.word	.L24
 389 00cc D2010000 		.word	.L24
 390 00d0 BE000000 		.word	.L66
 391              		.section	.text.chvprintf
 392              	.LVL47:
 393              	.L94:
 394              		.loc 1 142 0
 395 00b4 3022     		movs	r2, #48
 396 00b6 6B78     		ldrb	r3, [r5, #1]
 397 00b8 9246     		mov	r10, r2
 398              		.loc 1 141 0
 399 00ba 0135     		adds	r5, r5, #1
ARM GAS  /tmp/ccOnDVUd.s 			page 8


 400              	.LVL48:
 401 00bc D5E7     		b	.L15
 402              	.L34:
 403              	.LVL49:
 404              	.L66:
 405              		.loc 1 173 0
 406 00be AB46     		mov	fp, r5
 407              		.loc 1 179 0
 408 00c0 1022     		movs	r2, #16
 409              	.L44:
 410              		.loc 1 232 0
 411 00c2 3968     		ldr	r1, [r7]
 412              	.LVL50:
 413              		.loc 1 233 0
 414 00c4 03A8     		add	r0, sp, #12
 415              	.LVL51:
 416              		.loc 1 232 0
 417 00c6 0437     		adds	r7, r7, #4
 418              	.LVL52:
 419              	.L89:
 420              		.loc 1 233 0
 421 00c8 FFF7FEFF 		bl	ltoa
 422              	.LVL53:
 423 00cc 03AB     		add	r3, sp, #12
 424              	.LVL54:
 425 00ce C21A     		subs	r2, r0, r3
 426 00d0 531E     		subs	r3, r2, #1
 427              	.LVL55:
 428 00d2 9946     		mov	r9, r3
 429              	.LVL56:
 430              		.loc 1 133 0
 431 00d4 03AB     		add	r3, sp, #12
 432              	.LVL57:
 433 00d6 9846     		mov	r8, r3
 434              	.LVL58:
 435              	.L35:
 436              		.loc 1 240 0
 437 00d8 A41A     		subs	r4, r4, r2
 438              	.LVL59:
 439 00da E343     		mvns	r3, r4
 440 00dc DB17     		asrs	r3, r3, #31
 441 00de 1C40     		ands	r4, r3
 442              	.LVL60:
 443              		.loc 1 242 0
 444 00e0 009B     		ldr	r3, [sp]
 445 00e2 002B     		cmp	r3, #0
 446 00e4 44D1     		bne	.L47
 447              	.LVL61:
 448              	.L59:
 449              		.loc 1 243 0
 450 00e6 6442     		rsbs	r4, r4, #0
 451              	.LVL62:
 452              		.loc 1 244 0
 453 00e8 002C     		cmp	r4, #0
 454 00ea 00D1     		bne	.LCB453
 455 00ec A2E0     		b	.L48	@long jump
 456              	.LCB453:
ARM GAS  /tmp/ccOnDVUd.s 			page 9


 457              		.loc 1 245 0
 458 00ee 4346     		mov	r3, r8
 459 00f0 1B78     		ldrb	r3, [r3]
 460 00f2 2D2B     		cmp	r3, #45
 461 00f4 00D1     		bne	.LCB457
 462 00f6 A2E0     		b	.L98	@long jump
 463              	.LCB457:
 464              	.L86:
 465 00f8 5546     		mov	r5, r10
 466              	.LVL63:
 467              	.L50:
 468              		.loc 1 250 0 discriminator 1
 469 00fa 3368     		ldr	r3, [r6]
 470 00fc 2900     		movs	r1, r5
 471 00fe 9B68     		ldr	r3, [r3, #8]
 472 0100 3000     		movs	r0, r6
 473              		.loc 1 251 0 discriminator 1
 474 0102 0134     		adds	r4, r4, #1
 475              	.LVL64:
 476              		.loc 1 250 0 discriminator 1
 477 0104 9847     		blx	r3
 478              	.LVL65:
 479              		.loc 1 251 0 discriminator 1
 480 0106 002C     		cmp	r4, #0
 481 0108 F7D1     		bne	.L50
 482              		.loc 1 253 0
 483 010a 4B46     		mov	r3, r9
 484 010c AA46     		mov	r10, r5
 485              	.LVL66:
 486 010e 002B     		cmp	r3, #0
 487 0110 00DA     		bge	.LCB486
 488 0112 84E7     		b	.L10	@long jump
 489              	.LCB486:
 490              	.LVL67:
 491              	.L57:
 492 0114 4546     		mov	r5, r8
 493 0116 A046     		mov	r8, r4
 494              	.LVL68:
 495 0118 2C00     		movs	r4, r5
 496 011a 4D46     		mov	r5, r9
 497              	.LVL69:
 498              	.L53:
 499              		.loc 1 254 0
 500 011c 3368     		ldr	r3, [r6]
 501 011e 2178     		ldrb	r1, [r4]
 502 0120 9B68     		ldr	r3, [r3, #8]
 503 0122 3000     		movs	r0, r6
 504 0124 9847     		blx	r3
 505              	.LVL70:
 506 0126 0134     		adds	r4, r4, #1
 507              	.LVL71:
 508              		.loc 1 253 0
 509 0128 013D     		subs	r5, r5, #1
 510 012a F7D2     		bcs	.L53
 511              	.LVL72:
 512 012c 4446     		mov	r4, r8
 513              	.LVL73:
ARM GAS  /tmp/ccOnDVUd.s 			page 10


 514              	.L52:
 515              		.loc 1 256 0
 516 012e 002C     		cmp	r4, #0
 517 0130 00D1     		bne	.LCB530
 518 0132 74E7     		b	.L10	@long jump
 519              	.LCB530:
 520 0134 5546     		mov	r5, r10
 521              	.L54:
 522              		.loc 1 257 0
 523 0136 3368     		ldr	r3, [r6]
 524 0138 2900     		movs	r1, r5
 525 013a 9B68     		ldr	r3, [r3, #8]
 526 013c 3000     		movs	r0, r6
 527              		.loc 1 258 0
 528 013e 013C     		subs	r4, r4, #1
 529              	.LVL74:
 530              		.loc 1 257 0
 531 0140 9847     		blx	r3
 532              	.LVL75:
 533              		.loc 1 256 0
 534 0142 002C     		cmp	r4, #0
 535 0144 F7D1     		bne	.L54
 536 0146 6AE7     		b	.L10
 537              	.LVL76:
 538              	.L30:
 539              		.loc 1 182 0
 540 0148 3A78     		ldrb	r2, [r7]
 541 014a 02AB     		add	r3, sp, #8
 542 014c 1A71     		strb	r2, [r3, #4]
 543 014e 019B     		ldr	r3, [sp, #4]
 544 0150 0437     		adds	r7, r7, #4
 545 0152 1A00     		movs	r2, r3
 546 0154 013B     		subs	r3, r3, #1
 547 0156 9946     		mov	r9, r3
 548              	.LVL77:
 549              		.loc 1 181 0
 550 0158 2023     		movs	r3, #32
 551              		.loc 1 240 0
 552 015a A41A     		subs	r4, r4, r2
 553              	.LVL78:
 554              		.loc 1 181 0
 555 015c 9A46     		mov	r10, r3
 556              		.loc 1 133 0
 557 015e 03AB     		add	r3, sp, #12
 558              	.LVL79:
 559 0160 9846     		mov	r8, r3
 560              	.LVL80:
 561 0162 E343     		mvns	r3, r4
 562              	.LVL81:
 563 0164 DB17     		asrs	r3, r3, #31
 564 0166 1C40     		ands	r4, r3
 565              	.LVL82:
 566              		.loc 1 242 0
 567 0168 009B     		ldr	r3, [sp]
 568              		.loc 1 183 0
 569 016a AB46     		mov	fp, r5
 570              		.loc 1 242 0
ARM GAS  /tmp/ccOnDVUd.s 			page 11


 571 016c 002B     		cmp	r3, #0
 572 016e BAD0     		beq	.L59
 573              	.L47:
 574              		.loc 1 253 0
 575 0170 4B46     		mov	r3, r9
 576 0172 002B     		cmp	r3, #0
 577 0174 CEDA     		bge	.L57
 578 0176 DAE7     		b	.L52
 579              	.LVL83:
 580              	.L31:
 581              		.loc 1 186 0
 582 0178 3B68     		ldr	r3, [r7]
 583 017a 391D     		adds	r1, r7, #4
 584 017c 9846     		mov	r8, r3
 585              	.LVL84:
 586 017e 002B     		cmp	r3, #0
 587 0180 7DD0     		beq	.L99
 588              	.LVL85:
 589              	.L36:
 590              		.loc 1 188 0
 591 0182 4B46     		mov	r3, r9
 592 0184 002B     		cmp	r3, #0
 593 0186 6CD1     		bne	.L100
 594              	.LVL86:
 595              		.loc 1 190 0
 596 0188 4346     		mov	r3, r8
 597 018a 1B78     		ldrb	r3, [r3]
 598 018c 002B     		cmp	r3, #0
 599 018e 79D0     		beq	.L38
 600 0190 454B     		ldr	r3, .L104+4
 601              	.LVL87:
 602              	.L56:
 603              		.loc 1 190 0 is_stmt 0 discriminator 4
 604 0192 4246     		mov	r2, r8
 605 0194 01E0     		b	.L40
 606              	.LVL88:
 607              	.L101:
 608              		.loc 1 190 0 discriminator 3
 609 0196 013B     		subs	r3, r3, #1
 610 0198 03D3     		bcc	.L88
 611              	.LVL89:
 612              	.L40:
 613              		.loc 1 190 0 discriminator 4
 614 019a 0132     		adds	r2, r2, #1
 615              	.LVL90:
 616 019c 1078     		ldrb	r0, [r2]
 617 019e 0028     		cmp	r0, #0
 618 01a0 F9D1     		bne	.L101
 619              	.L88:
 620 01a2 4346     		mov	r3, r8
 621              	.LVL91:
 622 01a4 D21A     		subs	r2, r2, r3
 623              	.LVL92:
 624 01a6 531E     		subs	r3, r2, #1
 625 01a8 9946     		mov	r9, r3
 626              		.loc 1 185 0 is_stmt 1
 627 01aa 2023     		movs	r3, #32
ARM GAS  /tmp/ccOnDVUd.s 			page 12


 628              		.loc 1 186 0
 629 01ac 0F00     		movs	r7, r1
 630              		.loc 1 190 0
 631 01ae AB46     		mov	fp, r5
 632              		.loc 1 185 0
 633 01b0 9A46     		mov	r10, r3
 634 01b2 91E7     		b	.L35
 635              	.LVL93:
 636              	.L28:
 637              		.loc 1 224 0
 638 01b4 AB46     		mov	fp, r5
 639 01b6 0A22     		movs	r2, #10
 640 01b8 83E7     		b	.L44
 641              	.LVL94:
 642              	.L27:
 643 01ba AB46     		mov	fp, r5
 644 01bc 0822     		movs	r2, #8
 645 01be 80E7     		b	.L44
 646              	.LVL95:
 647              	.L41:
 648              		.loc 1 200 0
 649 01c0 3968     		ldr	r1, [r7]
 650              	.LVL96:
 651 01c2 AB46     		mov	fp, r5
 652 01c4 0437     		adds	r7, r7, #4
 653              		.loc 1 132 0
 654 01c6 03A8     		add	r0, sp, #12
 655              	.LVL97:
 656              		.loc 1 201 0
 657 01c8 0029     		cmp	r1, #0
 658 01ca 51DB     		blt	.L102
 659              		.loc 1 205 0
 660 01cc 0A22     		movs	r2, #10
 661 01ce 7BE7     		b	.L89
 662              	.LVL98:
 663              	.L63:
 664              		.loc 1 179 0
 665 01d0 1300     		movs	r3, r2
 666              	.LVL99:
 667              	.L24:
 668              		.loc 1 236 0
 669 01d2 02AA     		add	r2, sp, #8
 670 01d4 1371     		strb	r3, [r2, #4]
 671 01d6 019B     		ldr	r3, [sp, #4]
 672              		.loc 1 237 0
 673 01d8 AB46     		mov	fp, r5
 674 01da 1A00     		movs	r2, r3
 675 01dc 013B     		subs	r3, r3, #1
 676 01de 9946     		mov	r9, r3
 677              	.LVL100:
 678              		.loc 1 133 0
 679 01e0 03AB     		add	r3, sp, #12
 680              	.LVL101:
 681 01e2 9846     		mov	r8, r3
 682              		.loc 1 237 0
 683 01e4 78E7     		b	.L35
 684              	.LVL102:
ARM GAS  /tmp/ccOnDVUd.s 			page 13


 685              	.L97:
 686              		.loc 1 172 0
 687 01e6 2A78     		ldrb	r2, [r5]
 688 01e8 002A     		cmp	r2, #0
 689 01ea F2D0     		beq	.L24
 690              		.loc 1 179 0
 691 01ec 1300     		movs	r3, r2
 692              	.LVL103:
 693 01ee 443B     		subs	r3, r3, #68
 694 01f0 DBB2     		uxtb	r3, r3
 695              		.loc 1 173 0
 696 01f2 0135     		adds	r5, r5, #1
 697              	.LVL104:
 698              		.loc 1 179 0
 699 01f4 342B     		cmp	r3, #52
 700 01f6 EBD8     		bhi	.L63
 701 01f8 2C49     		ldr	r1, .L104+8
 702 01fa 9B00     		lsls	r3, r3, #2
 703 01fc CB58     		ldr	r3, [r1, r3]
 704 01fe 9F46     		mov	pc, r3
 705              		.section	.rodata.chvprintf
 706              		.align	2
 707              	.L26:
 708 00d4 C0010000 		.word	.L41
 709 00d8 D0010000 		.word	.L63
 710 00dc D0010000 		.word	.L63
 711 00e0 D0010000 		.word	.L63
 712 00e4 D0010000 		.word	.L63
 713 00e8 C0010000 		.word	.L41
 714 00ec D0010000 		.word	.L63
 715 00f0 D0010000 		.word	.L63
 716 00f4 D0010000 		.word	.L63
 717 00f8 D0010000 		.word	.L63
 718 00fc D0010000 		.word	.L63
 719 0100 BA010000 		.word	.L27
 720 0104 D0010000 		.word	.L63
 721 0108 D0010000 		.word	.L63
 722 010c D0010000 		.word	.L63
 723 0110 D0010000 		.word	.L63
 724 0114 D0010000 		.word	.L63
 725 0118 B4010000 		.word	.L28
 726 011c D0010000 		.word	.L63
 727 0120 D0010000 		.word	.L63
 728 0124 BE000000 		.word	.L66
 729 0128 D0010000 		.word	.L63
 730 012c D0010000 		.word	.L63
 731 0130 D0010000 		.word	.L63
 732 0134 D0010000 		.word	.L63
 733 0138 D0010000 		.word	.L63
 734 013c D0010000 		.word	.L63
 735 0140 D0010000 		.word	.L63
 736 0144 D0010000 		.word	.L63
 737 0148 D0010000 		.word	.L63
 738 014c D0010000 		.word	.L63
 739 0150 48010000 		.word	.L30
 740 0154 C0010000 		.word	.L41
 741 0158 D0010000 		.word	.L63
ARM GAS  /tmp/ccOnDVUd.s 			page 14


 742 015c D0010000 		.word	.L63
 743 0160 D0010000 		.word	.L63
 744 0164 D0010000 		.word	.L63
 745 0168 C0010000 		.word	.L41
 746 016c D0010000 		.word	.L63
 747 0170 D0010000 		.word	.L63
 748 0174 D0010000 		.word	.L63
 749 0178 D0010000 		.word	.L63
 750 017c D0010000 		.word	.L63
 751 0180 BA010000 		.word	.L27
 752 0184 D0010000 		.word	.L63
 753 0188 D0010000 		.word	.L63
 754 018c D0010000 		.word	.L63
 755 0190 78010000 		.word	.L31
 756 0194 D0010000 		.word	.L63
 757 0198 B4010000 		.word	.L28
 758 019c D0010000 		.word	.L63
 759 01a0 D0010000 		.word	.L63
 760 01a4 BE000000 		.word	.L66
 761              		.section	.text.chvprintf
 762              	.LVL105:
 763              	.L96:
 764 0200 1000     		movs	r0, r2
 765 0202 05E0     		b	.L21
 766              	.LVL106:
 767              	.L103:
 768              		.loc 1 162 0
 769 0204 3A78     		ldrb	r2, [r7]
 770              	.LVL107:
 771 0206 0437     		adds	r7, r7, #4
 772              	.LVL108:
 773              	.L20:
 774              		.loc 1 165 0
 775 0208 8300     		lsls	r3, r0, #2
 776 020a 1818     		adds	r0, r3, r0
 777              	.LVL109:
 778 020c 4000     		lsls	r0, r0, #1
 779              	.LVL110:
 780              		.loc 1 166 0
 781 020e 1018     		adds	r0, r2, r0
 782              	.LVL111:
 783              	.L21:
 784              		.loc 1 158 0
 785 0210 0135     		adds	r5, r5, #1
 786              	.LVL112:
 787 0212 6B1E     		subs	r3, r5, #1
 788 0214 1B78     		ldrb	r3, [r3]
 789              	.LVL113:
 790              		.loc 1 159 0
 791 0216 1A00     		movs	r2, r3
 792 0218 303A     		subs	r2, r2, #48
 793 021a D2B2     		uxtb	r2, r2
 794 021c 092A     		cmp	r2, #9
 795 021e F3D9     		bls	.L20
 796              		.loc 1 161 0
 797 0220 2A2B     		cmp	r3, #42
 798 0222 EFD0     		beq	.L103
ARM GAS  /tmp/ccOnDVUd.s 			page 15


 799 0224 8146     		mov	r9, r0
 800 0226 36E7     		b	.L19
 801              	.LVL114:
 802              	.L93:
 803              		.loc 1 136 0
 804 0228 5B46     		mov	r3, fp
 805              		.loc 1 137 0
 806 022a 0122     		movs	r2, #1
 807              		.loc 1 136 0
 808 022c 9D1C     		adds	r5, r3, #2
 809              	.LVL115:
 810              		.loc 1 137 0
 811 022e 0092     		str	r2, [sp]
 812 0230 9B78     		ldrb	r3, [r3, #2]
 813 0232 13E7     		b	.L14
 814              	.LVL116:
 815              	.L48:
 816              		.loc 1 253 0
 817 0234 4B46     		mov	r3, r9
 818 0236 002B     		cmp	r3, #0
 819 0238 00DB     		blt	.LCB869
 820 023a 6BE7     		b	.L57	@long jump
 821              	.LCB869:
 822 023c EFE6     		b	.L10
 823              	.LVL117:
 824              	.L98:
 825              		.loc 1 245 0 discriminator 1
 826 023e 5346     		mov	r3, r10
 827 0240 302B     		cmp	r3, #48
 828 0242 00D0     		beq	.LCB880
 829 0244 58E7     		b	.L86	@long jump
 830              	.LCB880:
 831              		.loc 1 246 0
 832 0246 2F3B     		subs	r3, r3, #47
 833 0248 9C46     		mov	ip, r3
 834 024a 3368     		ldr	r3, [r6]
 835 024c 2D21     		movs	r1, #45
 836 024e 9B68     		ldr	r3, [r3, #8]
 837 0250 3000     		movs	r0, r6
 838 0252 E044     		add	r8, r8, ip
 839              	.LVL118:
 840 0254 9847     		blx	r3
 841              	.LVL119:
 842 0256 0123     		movs	r3, #1
 843 0258 5B42     		rsbs	r3, r3, #0
 844 025a 9C46     		mov	ip, r3
 845 025c 5546     		mov	r5, r10
 846              	.LVL120:
 847 025e E144     		add	r9, r9, ip
 848 0260 4BE7     		b	.L50
 849              	.LVL121:
 850              	.L100:
 851              		.loc 1 190 0 discriminator 1
 852 0262 4346     		mov	r3, r8
 853              	.LVL122:
 854 0264 1B78     		ldrb	r3, [r3]
 855 0266 002B     		cmp	r3, #0
ARM GAS  /tmp/ccOnDVUd.s 			page 16


 856 0268 0CD0     		beq	.L38
 857              		.loc 1 190 0 is_stmt 0
 858 026a 4B46     		mov	r3, r9
 859 026c 013B     		subs	r3, r3, #1
 860              	.LVL123:
 861 026e 90E7     		b	.L56
 862              	.LVL124:
 863              	.L102:
 864              		.loc 1 202 0 is_stmt 1
 865 0270 2D23     		movs	r3, #45
 866 0272 02AA     		add	r2, sp, #8
 867 0274 1371     		strb	r3, [r2, #4]
 868 0276 501D     		adds	r0, r2, #5
 869              	.LVL125:
 870              		.loc 1 203 0
 871 0278 4942     		rsbs	r1, r1, #0
 872              	.LVL126:
 873              		.loc 1 205 0
 874 027a 0A22     		movs	r2, #10
 875 027c 24E7     		b	.L89
 876              	.LVL127:
 877              	.L99:
 878              		.loc 1 187 0
 879 027e 0C4B     		ldr	r3, .L104+12
 880              	.LVL128:
 881 0280 9846     		mov	r8, r3
 882              	.LVL129:
 883 0282 7EE7     		b	.L36
 884              	.LVL130:
 885              	.L38:
 886 0284 E343     		mvns	r3, r4
 887 0286 DB17     		asrs	r3, r3, #31
 888 0288 1C40     		ands	r4, r3
 889              	.LVL131:
 890              		.loc 1 242 0
 891 028a 009B     		ldr	r3, [sp]
 892 028c AB46     		mov	fp, r5
 893 028e 0F00     		movs	r7, r1
 894 0290 002B     		cmp	r3, #0
 895 0292 04D1     		bne	.L71
 896 0294 013B     		subs	r3, r3, #1
 897 0296 9946     		mov	r9, r3
 898 0298 2133     		adds	r3, r3, #33
 899 029a 9A46     		mov	r10, r3
 900 029c 23E7     		b	.L59
 901              	.L71:
 902 029e 2023     		movs	r3, #32
 903 02a0 9A46     		mov	r10, r3
 904 02a2 44E7     		b	.L52
 905              	.L105:
 906              		.align	2
 907              	.L104:
 908 02a4 00000000 		.word	.L33
 909 02a8 FE7F0000 		.word	32766
 910 02ac D4000000 		.word	.L26
 911 02b0 00000000 		.word	.LC2
 912              		.cfi_endproc
ARM GAS  /tmp/ccOnDVUd.s 			page 17


 913              	.LFE10:
 914              		.size	chvprintf, .-chvprintf
 915              		.section	.text.chsnprintf,"ax",%progbits
 916              		.align	2
 917              		.p2align 4,,15
 918              		.global	chsnprintf
 919              		.code	16
 920              		.thumb_func
 921              		.type	chsnprintf, %function
 922              	chsnprintf:
 923              	.LFB11:
 924              		.loc 1 288 0
 925              		.cfi_startproc
 926              		@ args = 4, pretend = 8, frame = 24
 927              		@ frame_needed = 0, uses_anonymous_args = 1
 928              	.LVL132:
 929 0000 0CB4     		push	{r2, r3}
 930              		.cfi_def_cfa_offset 8
 931 0002 70B5     		push	{r4, r5, r6, lr}
 932              		.cfi_def_cfa_offset 24
 933              		.cfi_offset 4, -24
 934              		.cfi_offset 5, -20
 935              		.cfi_offset 6, -16
 936              		.cfi_offset 14, -12
 937 0004 86B0     		sub	sp, sp, #24
 938              		.cfi_def_cfa_offset 48
 939              		.loc 1 288 0
 940 0006 0AAC     		add	r4, sp, #40
 941 0008 40CC     		ldmia	r4!, {r6}
 942 000a 0500     		movs	r5, r0
 943              		.loc 1 295 0
 944 000c 4A1E     		subs	r2, r1, #1
 945 000e 0023     		movs	r3, #0
 946 0010 0100     		movs	r1, r0
 947              	.LVL133:
 948 0012 01A8     		add	r0, sp, #4
 949              	.LVL134:
 950 0014 FFF7FEFF 		bl	msObjectInit
 951              	.LVL135:
 952              		.loc 1 300 0
 953 0018 01A8     		add	r0, sp, #4
 954              	.LVL136:
 955 001a 2200     		movs	r2, r4
 956 001c 3100     		movs	r1, r6
 957              		.loc 1 299 0
 958 001e 0094     		str	r4, [sp]
 959              		.loc 1 300 0
 960 0020 FFF7FEFF 		bl	chvprintf
 961              	.LVL137:
 962              		.loc 1 304 0
 963 0024 0023     		movs	r3, #0
 964 0026 0498     		ldr	r0, [sp, #16]
 965 0028 2B54     		strb	r3, [r5, r0]
 966              		.loc 1 306 0
 967 002a 06B0     		add	sp, sp, #24
 968              		@ sp needed
 969              	.LVL138:
ARM GAS  /tmp/ccOnDVUd.s 			page 18


 970 002c 70BC     		pop	{r4, r5, r6}
 971 002e 08BC     		pop	{r3}
 972 0030 02B0     		add	sp, sp, #8
 973 0032 1847     		bx	r3
 974              		.cfi_endproc
 975              	.LFE11:
 976              		.size	chsnprintf, .-chsnprintf
 977              		.section	.rodata.str1.4,"aMS",%progbits,1
 978              		.align	2
 979              	.LC2:
 980 0000 286E756C 		.ascii	"(null)\000"
 980      6C2900
 981              		.text
 982              	.Letext0:
 983              		.file 2 "/home/lithium/Descargas/gcc-arm-none-eabi-5_3-2016q1/lib/gcc/arm-none-eabi/5.3.1/include/
 984              		.file 3 "/home/lithium/Descargas/gcc-arm-none-eabi-5_3-2016q1/arm-none-eabi/include/machine/_defau
 985              		.file 4 "/home/lithium/Descargas/gcc-arm-none-eabi-5_3-2016q1/arm-none-eabi/include/sys/_stdint.h"
 986              		.file 5 "../../os/ports/GCC/ARMCMx/chtypes.h"
 987              		.file 6 "../../os/kernel/include/chstreams.h"
 988              		.file 7 "/home/lithium/Descargas/gcc-arm-none-eabi-5_3-2016q1/lib/gcc/arm-none-eabi/5.3.1/include/
 989              		.file 8 "<built-in>"
 990              		.file 9 "../../os/various/memstreams.h"
 991              		.section	.debug_info,"",%progbits
 992              	.Ldebug_info0:
 993 0000 BC050000 		.4byte	0x5bc
 994 0004 0400     		.2byte	0x4
 995 0006 00000000 		.4byte	.Ldebug_abbrev0
 996 000a 04       		.byte	0x4
 997 000b 01       		.uleb128 0x1
 998 000c 27020000 		.4byte	.LASF40
 999 0010 0C       		.byte	0xc
 1000 0011 76000000 		.4byte	.LASF41
 1001 0015 23010000 		.4byte	.LASF42
 1002 0019 20000000 		.4byte	.Ldebug_ranges0+0x20
 1003 001d 00000000 		.4byte	0
 1004 0021 00000000 		.4byte	.Ldebug_line0
 1005 0025 02       		.uleb128 0x2
 1006 0026 04       		.byte	0x4
 1007 0027 05       		.byte	0x5
 1008 0028 696E7400 		.ascii	"int\000"
 1009 002c 03       		.uleb128 0x3
 1010 002d 00000000 		.4byte	.LASF4
 1011 0031 02       		.byte	0x2
 1012 0032 D8       		.byte	0xd8
 1013 0033 37000000 		.4byte	0x37
 1014 0037 04       		.uleb128 0x4
 1015 0038 04       		.byte	0x4
 1016 0039 07       		.byte	0x7
 1017 003a BD000000 		.4byte	.LASF0
 1018 003e 04       		.uleb128 0x4
 1019 003f 08       		.byte	0x8
 1020 0040 05       		.byte	0x5
 1021 0041 30000000 		.4byte	.LASF1
 1022 0045 04       		.uleb128 0x4
 1023 0046 08       		.byte	0x8
 1024 0047 04       		.byte	0x4
 1025 0048 71010000 		.4byte	.LASF2
ARM GAS  /tmp/ccOnDVUd.s 			page 19


 1026 004c 04       		.uleb128 0x4
 1027 004d 01       		.byte	0x1
 1028 004e 06       		.byte	0x6
 1029 004f 3E000000 		.4byte	.LASF3
 1030 0053 03       		.uleb128 0x3
 1031 0054 07000000 		.4byte	.LASF5
 1032 0058 03       		.byte	0x3
 1033 0059 1D       		.byte	0x1d
 1034 005a 5E000000 		.4byte	0x5e
 1035 005e 04       		.uleb128 0x4
 1036 005f 01       		.byte	0x1
 1037 0060 08       		.byte	0x8
 1038 0061 CC010000 		.4byte	.LASF6
 1039 0065 04       		.uleb128 0x4
 1040 0066 02       		.byte	0x2
 1041 0067 05       		.byte	0x5
 1042 0068 DA010000 		.4byte	.LASF7
 1043 006c 04       		.uleb128 0x4
 1044 006d 02       		.byte	0x2
 1045 006e 07       		.byte	0x7
 1046 006f F2000000 		.4byte	.LASF8
 1047 0073 03       		.uleb128 0x3
 1048 0074 11020000 		.4byte	.LASF9
 1049 0078 03       		.byte	0x3
 1050 0079 3F       		.byte	0x3f
 1051 007a 7E000000 		.4byte	0x7e
 1052 007e 04       		.uleb128 0x4
 1053 007f 04       		.byte	0x4
 1054 0080 05       		.byte	0x5
 1055 0081 58000000 		.4byte	.LASF10
 1056 0085 04       		.uleb128 0x4
 1057 0086 04       		.byte	0x4
 1058 0087 07       		.byte	0x7
 1059 0088 CA000000 		.4byte	.LASF11
 1060 008c 04       		.uleb128 0x4
 1061 008d 08       		.byte	0x8
 1062 008e 07       		.byte	0x7
 1063 008f 19000000 		.4byte	.LASF12
 1064 0093 03       		.uleb128 0x3
 1065 0094 01030000 		.4byte	.LASF13
 1066 0098 04       		.byte	0x4
 1067 0099 14       		.byte	0x14
 1068 009a 53000000 		.4byte	0x53
 1069 009e 03       		.uleb128 0x3
 1070 009f C4010000 		.4byte	.LASF14
 1071 00a3 04       		.byte	0x4
 1072 00a4 1F       		.byte	0x1f
 1073 00a5 73000000 		.4byte	0x73
 1074 00a9 03       		.uleb128 0x3
 1075 00aa 4A000000 		.4byte	.LASF15
 1076 00ae 05       		.byte	0x5
 1077 00af 2B       		.byte	0x2b
 1078 00b0 B4000000 		.4byte	0xb4
 1079 00b4 04       		.uleb128 0x4
 1080 00b5 01       		.byte	0x1
 1081 00b6 02       		.byte	0x2
 1082 00b7 BE010000 		.4byte	.LASF16
ARM GAS  /tmp/ccOnDVUd.s 			page 20


 1083 00bb 03       		.uleb128 0x3
 1084 00bc 05010000 		.4byte	.LASF17
 1085 00c0 05       		.byte	0x5
 1086 00c1 31       		.byte	0x31
 1087 00c2 9E000000 		.4byte	0x9e
 1088 00c6 05       		.uleb128 0x5
 1089 00c7 04       		.byte	0x4
 1090 00c8 04       		.uleb128 0x4
 1091 00c9 04       		.byte	0x4
 1092 00ca 07       		.byte	0x7
 1093 00cb 68010000 		.4byte	.LASF18
 1094 00cf 06       		.uleb128 0x6
 1095 00d0 04       		.byte	0x4
 1096 00d1 DC000000 		.4byte	0xdc
 1097 00d5 04       		.uleb128 0x4
 1098 00d6 01       		.byte	0x1
 1099 00d7 08       		.byte	0x8
 1100 00d8 02020000 		.4byte	.LASF19
 1101 00dc 07       		.uleb128 0x7
 1102 00dd D5000000 		.4byte	0xd5
 1103 00e1 06       		.uleb128 0x6
 1104 00e2 04       		.byte	0x4
 1105 00e3 E7000000 		.4byte	0xe7
 1106 00e7 08       		.uleb128 0x8
 1107 00e8 BB000000 		.4byte	0xbb
 1108 00ec F6000000 		.4byte	0xf6
 1109 00f0 09       		.uleb128 0x9
 1110 00f1 C6000000 		.4byte	0xc6
 1111 00f5 00       		.byte	0
 1112 00f6 06       		.uleb128 0x6
 1113 00f7 04       		.byte	0x4
 1114 00f8 93000000 		.4byte	0x93
 1115 00fc 0A       		.uleb128 0xa
 1116 00fd E4010000 		.4byte	.LASF24
 1117 0101 10       		.byte	0x10
 1118 0102 06       		.byte	0x6
 1119 0103 48       		.byte	0x48
 1120 0104 39010000 		.4byte	0x139
 1121 0108 0B       		.uleb128 0xb
 1122 0109 1D010000 		.4byte	.LASF20
 1123 010d 06       		.byte	0x6
 1124 010e 49       		.byte	0x49
 1125 010f 5D010000 		.4byte	0x15d
 1126 0113 00       		.byte	0
 1127 0114 0B       		.uleb128 0xb
 1128 0115 13030000 		.4byte	.LASF21
 1129 0119 06       		.byte	0x6
 1130 011a 49       		.byte	0x49
 1131 011b 7C010000 		.4byte	0x17c
 1132 011f 04       		.byte	0x4
 1133 0120 0C       		.uleb128 0xc
 1134 0121 70757400 		.ascii	"put\000"
 1135 0125 06       		.byte	0x6
 1136 0126 49       		.byte	0x49
 1137 0127 96010000 		.4byte	0x196
 1138 012b 08       		.byte	0x8
 1139 012c 0C       		.uleb128 0xc
ARM GAS  /tmp/ccOnDVUd.s 			page 21


 1140 012d 67657400 		.ascii	"get\000"
 1141 0131 06       		.byte	0x6
 1142 0132 49       		.byte	0x49
 1143 0133 E1000000 		.4byte	0xe1
 1144 0137 0C       		.byte	0xc
 1145 0138 00       		.byte	0
 1146 0139 08       		.uleb128 0x8
 1147 013a 2C000000 		.4byte	0x2c
 1148 013e 52010000 		.4byte	0x152
 1149 0142 09       		.uleb128 0x9
 1150 0143 C6000000 		.4byte	0xc6
 1151 0147 09       		.uleb128 0x9
 1152 0148 52010000 		.4byte	0x152
 1153 014c 09       		.uleb128 0x9
 1154 014d 2C000000 		.4byte	0x2c
 1155 0151 00       		.byte	0
 1156 0152 06       		.uleb128 0x6
 1157 0153 04       		.byte	0x4
 1158 0154 58010000 		.4byte	0x158
 1159 0158 07       		.uleb128 0x7
 1160 0159 93000000 		.4byte	0x93
 1161 015d 06       		.uleb128 0x6
 1162 015e 04       		.byte	0x4
 1163 015f 39010000 		.4byte	0x139
 1164 0163 08       		.uleb128 0x8
 1165 0164 2C000000 		.4byte	0x2c
 1166 0168 7C010000 		.4byte	0x17c
 1167 016c 09       		.uleb128 0x9
 1168 016d C6000000 		.4byte	0xc6
 1169 0171 09       		.uleb128 0x9
 1170 0172 F6000000 		.4byte	0xf6
 1171 0176 09       		.uleb128 0x9
 1172 0177 2C000000 		.4byte	0x2c
 1173 017b 00       		.byte	0
 1174 017c 06       		.uleb128 0x6
 1175 017d 04       		.byte	0x4
 1176 017e 63010000 		.4byte	0x163
 1177 0182 08       		.uleb128 0x8
 1178 0183 BB000000 		.4byte	0xbb
 1179 0187 96010000 		.4byte	0x196
 1180 018b 09       		.uleb128 0x9
 1181 018c C6000000 		.4byte	0xc6
 1182 0190 09       		.uleb128 0x9
 1183 0191 93000000 		.4byte	0x93
 1184 0195 00       		.byte	0
 1185 0196 06       		.uleb128 0x6
 1186 0197 04       		.byte	0x4
 1187 0198 82010000 		.4byte	0x182
 1188 019c 0D       		.uleb128 0xd
 1189 019d 04       		.byte	0x4
 1190 019e 06       		.byte	0x6
 1191 019f 51       		.byte	0x51
 1192 01a0 B1010000 		.4byte	0x1b1
 1193 01a4 0C       		.uleb128 0xc
 1194 01a5 766D7400 		.ascii	"vmt\000"
 1195 01a9 06       		.byte	0x6
 1196 01aa 53       		.byte	0x53
ARM GAS  /tmp/ccOnDVUd.s 			page 22


 1197 01ab B1010000 		.4byte	0x1b1
 1198 01af 00       		.byte	0
 1199 01b0 00       		.byte	0
 1200 01b1 06       		.uleb128 0x6
 1201 01b2 04       		.byte	0x4
 1202 01b3 B7010000 		.4byte	0x1b7
 1203 01b7 07       		.uleb128 0x7
 1204 01b8 FC000000 		.4byte	0xfc
 1205 01bc 03       		.uleb128 0x3
 1206 01bd A8000000 		.4byte	.LASF22
 1207 01c1 06       		.byte	0x6
 1208 01c2 55       		.byte	0x55
 1209 01c3 9C010000 		.4byte	0x19c
 1210 01c7 03       		.uleb128 0x3
 1211 01c8 95010000 		.4byte	.LASF23
 1212 01cc 07       		.byte	0x7
 1213 01cd 28       		.byte	0x28
 1214 01ce D2010000 		.4byte	0x1d2
 1215 01d2 0A       		.uleb128 0xa
 1216 01d3 6C000000 		.4byte	.LASF25
 1217 01d7 04       		.byte	0x4
 1218 01d8 08       		.byte	0x8
 1219 01d9 00       		.byte	0
 1220 01da E9010000 		.4byte	0x1e9
 1221 01de 0E       		.uleb128 0xe
 1222 01df 22020000 		.4byte	.LASF43
 1223 01e3 C6000000 		.4byte	0xc6
 1224 01e7 00       		.byte	0
 1225 01e8 00       		.byte	0
 1226 01e9 03       		.uleb128 0x3
 1227 01ea 11000000 		.4byte	.LASF26
 1228 01ee 07       		.byte	0x7
 1229 01ef 62       		.byte	0x62
 1230 01f0 C7010000 		.4byte	0x1c7
 1231 01f4 0A       		.uleb128 0xa
 1232 01f5 A4010000 		.4byte	.LASF27
 1233 01f9 10       		.byte	0x10
 1234 01fa 09       		.byte	0x9
 1235 01fb 3D       		.byte	0x3d
 1236 01fc 31020000 		.4byte	0x231
 1237 0200 0B       		.uleb128 0xb
 1238 0201 1D010000 		.4byte	.LASF20
 1239 0205 09       		.byte	0x9
 1240 0206 3E       		.byte	0x3e
 1241 0207 5D010000 		.4byte	0x15d
 1242 020b 00       		.byte	0
 1243 020c 0B       		.uleb128 0xb
 1244 020d 13030000 		.4byte	.LASF21
 1245 0211 09       		.byte	0x9
 1246 0212 3E       		.byte	0x3e
 1247 0213 7C010000 		.4byte	0x17c
 1248 0217 04       		.byte	0x4
 1249 0218 0C       		.uleb128 0xc
 1250 0219 70757400 		.ascii	"put\000"
 1251 021d 09       		.byte	0x9
 1252 021e 3E       		.byte	0x3e
 1253 021f 96010000 		.4byte	0x196
ARM GAS  /tmp/ccOnDVUd.s 			page 23


 1254 0223 08       		.byte	0x8
 1255 0224 0C       		.uleb128 0xc
 1256 0225 67657400 		.ascii	"get\000"
 1257 0229 09       		.byte	0x9
 1258 022a 3E       		.byte	0x3e
 1259 022b E1000000 		.4byte	0xe1
 1260 022f 0C       		.byte	0xc
 1261 0230 00       		.byte	0
 1262 0231 0D       		.uleb128 0xd
 1263 0232 14       		.byte	0x14
 1264 0233 09       		.byte	0x9
 1265 0234 46       		.byte	0x46
 1266 0235 76020000 		.4byte	0x276
 1267 0239 0C       		.uleb128 0xc
 1268 023a 766D7400 		.ascii	"vmt\000"
 1269 023e 09       		.byte	0x9
 1270 023f 48       		.byte	0x48
 1271 0240 76020000 		.4byte	0x276
 1272 0244 00       		.byte	0
 1273 0245 0B       		.uleb128 0xb
 1274 0246 92000000 		.4byte	.LASF28
 1275 024a 09       		.byte	0x9
 1276 024b 49       		.byte	0x49
 1277 024c F6000000 		.4byte	0xf6
 1278 0250 04       		.byte	0x4
 1279 0251 0B       		.uleb128 0xb
 1280 0252 ED000000 		.4byte	.LASF29
 1281 0256 09       		.byte	0x9
 1282 0257 49       		.byte	0x49
 1283 0258 2C000000 		.4byte	0x2c
 1284 025c 08       		.byte	0x8
 1285 025d 0C       		.uleb128 0xc
 1286 025e 656F7300 		.ascii	"eos\000"
 1287 0262 09       		.byte	0x9
 1288 0263 49       		.byte	0x49
 1289 0264 2C000000 		.4byte	0x2c
 1290 0268 0C       		.byte	0xc
 1291 0269 0B       		.uleb128 0xb
 1292 026a 1B020000 		.4byte	.LASF30
 1293 026e 09       		.byte	0x9
 1294 026f 49       		.byte	0x49
 1295 0270 2C000000 		.4byte	0x2c
 1296 0274 10       		.byte	0x10
 1297 0275 00       		.byte	0
 1298 0276 06       		.uleb128 0x6
 1299 0277 04       		.byte	0x4
 1300 0278 7C020000 		.4byte	0x27c
 1301 027c 07       		.uleb128 0x7
 1302 027d F4010000 		.4byte	0x1f4
 1303 0281 03       		.uleb128 0x3
 1304 0282 B1010000 		.4byte	.LASF31
 1305 0286 09       		.byte	0x9
 1306 0287 4A       		.byte	0x4a
 1307 0288 31020000 		.4byte	0x231
 1308 028c 0F       		.uleb128 0xf
 1309 028d 18030000 		.4byte	.LASF44
 1310 0291 01       		.byte	0x1
ARM GAS  /tmp/ccOnDVUd.s 			page 24


 1311 0292 25       		.byte	0x25
 1312 0293 EC020000 		.4byte	0x2ec
 1313 0297 01       		.byte	0x1
 1314 0298 EC020000 		.4byte	0x2ec
 1315 029c 10       		.uleb128 0x10
 1316 029d 7000     		.ascii	"p\000"
 1317 029f 01       		.byte	0x1
 1318 02a0 25       		.byte	0x25
 1319 02a1 EC020000 		.4byte	0x2ec
 1320 02a5 10       		.uleb128 0x10
 1321 02a6 6E756D00 		.ascii	"num\000"
 1322 02aa 01       		.byte	0x1
 1323 02ab 26       		.byte	0x26
 1324 02ac 7E000000 		.4byte	0x7e
 1325 02b0 11       		.uleb128 0x11
 1326 02b1 FC010000 		.4byte	.LASF32
 1327 02b5 01       		.byte	0x1
 1328 02b6 27       		.byte	0x27
 1329 02b7 37000000 		.4byte	0x37
 1330 02bb 11       		.uleb128 0x11
 1331 02bc 8D010000 		.4byte	.LASF33
 1332 02c0 01       		.byte	0x1
 1333 02c1 28       		.byte	0x28
 1334 02c2 7E000000 		.4byte	0x7e
 1335 02c6 12       		.uleb128 0x12
 1336 02c7 6900     		.ascii	"i\000"
 1337 02c9 01       		.byte	0x1
 1338 02ca 29       		.byte	0x29
 1339 02cb 25000000 		.4byte	0x25
 1340 02cf 12       		.uleb128 0x12
 1341 02d0 7100     		.ascii	"q\000"
 1342 02d2 01       		.byte	0x1
 1343 02d3 2A       		.byte	0x2a
 1344 02d4 EC020000 		.4byte	0x2ec
 1345 02d8 12       		.uleb128 0x12
 1346 02d9 6C00     		.ascii	"l\000"
 1347 02db 01       		.byte	0x1
 1348 02dc 2B       		.byte	0x2b
 1349 02dd 7E000000 		.4byte	0x7e
 1350 02e1 12       		.uleb128 0x12
 1351 02e2 6C6C00   		.ascii	"ll\000"
 1352 02e5 01       		.byte	0x1
 1353 02e6 2B       		.byte	0x2b
 1354 02e7 7E000000 		.4byte	0x7e
 1355 02eb 00       		.byte	0
 1356 02ec 06       		.uleb128 0x6
 1357 02ed 04       		.byte	0x4
 1358 02ee D5000000 		.4byte	0xd5
 1359 02f2 13       		.uleb128 0x13
 1360 02f3 0B010000 		.4byte	.LASF45
 1361 02f7 01       		.byte	0x1
 1362 02f8 46       		.byte	0x46
 1363 02f9 EC020000 		.4byte	0x2ec
 1364 02fd 00000000 		.4byte	.LFB9
 1365 0301 6A000000 		.4byte	.LFE9-.LFB9
 1366 0305 01       		.uleb128 0x1
 1367 0306 9C       		.byte	0x9c
ARM GAS  /tmp/ccOnDVUd.s 			page 25


 1368 0307 95030000 		.4byte	0x395
 1369 030b 14       		.uleb128 0x14
 1370 030c 7000     		.ascii	"p\000"
 1371 030e 01       		.byte	0x1
 1372 030f 46       		.byte	0x46
 1373 0310 EC020000 		.4byte	0x2ec
 1374 0314 00000000 		.4byte	.LLST0
 1375 0318 14       		.uleb128 0x14
 1376 0319 6E756D00 		.ascii	"num\000"
 1377 031d 01       		.byte	0x1
 1378 031e 46       		.byte	0x46
 1379 031f 7E000000 		.4byte	0x7e
 1380 0323 2C000000 		.4byte	.LLST1
 1381 0327 15       		.uleb128 0x15
 1382 0328 FC010000 		.4byte	.LASF32
 1383 032c 01       		.byte	0x1
 1384 032d 46       		.byte	0x46
 1385 032e 37000000 		.4byte	0x37
 1386 0332 4D000000 		.4byte	.LLST2
 1387 0336 16       		.uleb128 0x16
 1388 0337 8C020000 		.4byte	0x28c
 1389 033b 02000000 		.4byte	.LBB4
 1390 033f 00000000 		.4byte	.Ldebug_ranges0+0
 1391 0343 01       		.byte	0x1
 1392 0344 48       		.byte	0x48
 1393 0345 17       		.uleb128 0x17
 1394 0346 BB020000 		.4byte	0x2bb
 1395 034a 79000000 		.4byte	.LLST3
 1396 034e 17       		.uleb128 0x17
 1397 034f B0020000 		.4byte	0x2b0
 1398 0353 8D000000 		.4byte	.LLST4
 1399 0357 17       		.uleb128 0x17
 1400 0358 A5020000 		.4byte	0x2a5
 1401 035c AB000000 		.4byte	.LLST5
 1402 0360 17       		.uleb128 0x17
 1403 0361 9C020000 		.4byte	0x29c
 1404 0365 CC000000 		.4byte	.LLST6
 1405 0369 18       		.uleb128 0x18
 1406 036a 00000000 		.4byte	.Ldebug_ranges0+0
 1407 036e 19       		.uleb128 0x19
 1408 036f C6020000 		.4byte	0x2c6
 1409 0373 0D010000 		.4byte	.LLST7
 1410 0377 19       		.uleb128 0x19
 1411 0378 CF020000 		.4byte	0x2cf
 1412 037c 56010000 		.4byte	.LLST8
 1413 0380 19       		.uleb128 0x19
 1414 0381 D8020000 		.4byte	0x2d8
 1415 0385 74010000 		.4byte	.LLST9
 1416 0389 19       		.uleb128 0x19
 1417 038a E1020000 		.4byte	0x2e1
 1418 038e A8010000 		.4byte	.LLST10
 1419 0392 00       		.byte	0
 1420 0393 00       		.byte	0
 1421 0394 00       		.byte	0
 1422 0395 1A       		.uleb128 0x1a
 1423 0396 09030000 		.4byte	.LASF46
 1424 039a 01       		.byte	0x1
ARM GAS  /tmp/ccOnDVUd.s 			page 26


 1425 039b 70       		.byte	0x70
 1426 039c 00000000 		.4byte	.LFB10
 1427 03a0 B4020000 		.4byte	.LFE10-.LFB10
 1428 03a4 01       		.uleb128 0x1
 1429 03a5 9C       		.byte	0x9c
 1430 03a6 E3040000 		.4byte	0x4e3
 1431 03aa 14       		.uleb128 0x14
 1432 03ab 63687000 		.ascii	"chp\000"
 1433 03af 01       		.byte	0x1
 1434 03b0 70       		.byte	0x70
 1435 03b1 E3040000 		.4byte	0x4e3
 1436 03b5 DC010000 		.4byte	.LLST11
 1437 03b9 14       		.uleb128 0x14
 1438 03ba 666D7400 		.ascii	"fmt\000"
 1439 03be 01       		.byte	0x1
 1440 03bf 70       		.byte	0x70
 1441 03c0 CF000000 		.4byte	0xcf
 1442 03c4 13020000 		.4byte	.LLST12
 1443 03c8 14       		.uleb128 0x14
 1444 03c9 617000   		.ascii	"ap\000"
 1445 03cc 01       		.byte	0x1
 1446 03cd 70       		.byte	0x70
 1447 03ce E9010000 		.4byte	0x1e9
 1448 03d2 A1020000 		.4byte	.LLST13
 1449 03d6 1B       		.uleb128 0x1b
 1450 03d7 7000     		.ascii	"p\000"
 1451 03d9 01       		.byte	0x1
 1452 03da 71       		.byte	0x71
 1453 03db EC020000 		.4byte	0x2ec
 1454 03df B4020000 		.4byte	.LLST14
 1455 03e3 1B       		.uleb128 0x1b
 1456 03e4 7300     		.ascii	"s\000"
 1457 03e6 01       		.byte	0x1
 1458 03e7 71       		.byte	0x71
 1459 03e8 EC020000 		.4byte	0x2ec
 1460 03ec 7E030000 		.4byte	.LLST15
 1461 03f0 1B       		.uleb128 0x1b
 1462 03f1 6300     		.ascii	"c\000"
 1463 03f3 01       		.byte	0x1
 1464 03f4 71       		.byte	0x71
 1465 03f5 D5000000 		.4byte	0xd5
 1466 03f9 CF040000 		.4byte	.LLST16
 1467 03fd 1C       		.uleb128 0x1c
 1468 03fe 99000000 		.4byte	.LASF34
 1469 0402 01       		.byte	0x1
 1470 0403 71       		.byte	0x71
 1471 0404 D5000000 		.4byte	0xd5
 1472 0408 8C050000 		.4byte	.LLST17
 1473 040c 1B       		.uleb128 0x1b
 1474 040d 6900     		.ascii	"i\000"
 1475 040f 01       		.byte	0x1
 1476 0410 72       		.byte	0x72
 1477 0411 25000000 		.4byte	0x25
 1478 0415 19060000 		.4byte	.LLST18
 1479 0419 1C       		.uleb128 0x1c
 1480 041a 07020000 		.4byte	.LASF35
 1481 041e 01       		.byte	0x1
ARM GAS  /tmp/ccOnDVUd.s 			page 27


 1482 041f 72       		.byte	0x72
 1483 0420 25000000 		.4byte	0x25
 1484 0424 44060000 		.4byte	.LLST19
 1485 0428 1C       		.uleb128 0x1c
 1486 0429 E7000000 		.4byte	.LASF36
 1487 042d 01       		.byte	0x1
 1488 042e 72       		.byte	0x72
 1489 042f 25000000 		.4byte	0x25
 1490 0433 19070000 		.4byte	.LLST20
 1491 0437 1C       		.uleb128 0x1c
 1492 0438 A0000000 		.4byte	.LASF37
 1493 043c 01       		.byte	0x1
 1494 043d 73       		.byte	0x73
 1495 043e A9000000 		.4byte	0xa9
 1496 0442 CD070000 		.4byte	.LLST21
 1497 0446 1C       		.uleb128 0x1c
 1498 0447 DC000000 		.4byte	.LASF38
 1499 044b 01       		.byte	0x1
 1500 044c 73       		.byte	0x73
 1501 044d A9000000 		.4byte	0xa9
 1502 0451 08080000 		.4byte	.LLST22
 1503 0455 1B       		.uleb128 0x1b
 1504 0456 6C00     		.ascii	"l\000"
 1505 0458 01       		.byte	0x1
 1506 0459 74       		.byte	0x74
 1507 045a 7E000000 		.4byte	0x7e
 1508 045e 4C080000 		.4byte	.LLST23
 1509 0462 1D       		.uleb128 0x1d
 1510 0463 51000000 		.4byte	.LASF39
 1511 0467 01       		.byte	0x1
 1512 0468 79       		.byte	0x79
 1513 0469 E9040000 		.4byte	0x4e9
 1514 046d 02       		.uleb128 0x2
 1515 046e 91       		.byte	0x91
 1516 046f 4C       		.sleb128 -52
 1517 0470 1E       		.uleb128 0x1e
 1518 0471 7D010000 		.4byte	.LASF47
 1519 0475 01       		.byte	0x1
 1520 0476 E4       		.byte	0xe4
 1521 0477 BE000000 		.4byte	.L34
 1522 047b 1F       		.uleb128 0x1f
 1523 047c 36000000 		.4byte	.LVL30
 1524 0480 8B040000 		.4byte	0x48b
 1525 0484 20       		.uleb128 0x20
 1526 0485 01       		.uleb128 0x1
 1527 0486 50       		.byte	0x50
 1528 0487 02       		.uleb128 0x2
 1529 0488 76       		.byte	0x76
 1530 0489 00       		.sleb128 0
 1531 048a 00       		.byte	0
 1532 048b 21       		.uleb128 0x21
 1533 048c CC000000 		.4byte	.LVL53
 1534 0490 F2020000 		.4byte	0x2f2
 1535 0494 1F       		.uleb128 0x1f
 1536 0495 06010000 		.4byte	.LVL65
 1537 0499 AA040000 		.4byte	0x4aa
 1538 049d 20       		.uleb128 0x20
ARM GAS  /tmp/ccOnDVUd.s 			page 28


 1539 049e 01       		.uleb128 0x1
 1540 049f 50       		.byte	0x50
 1541 04a0 02       		.uleb128 0x2
 1542 04a1 76       		.byte	0x76
 1543 04a2 00       		.sleb128 0
 1544 04a3 20       		.uleb128 0x20
 1545 04a4 01       		.uleb128 0x1
 1546 04a5 51       		.byte	0x51
 1547 04a6 02       		.uleb128 0x2
 1548 04a7 75       		.byte	0x75
 1549 04a8 00       		.sleb128 0
 1550 04a9 00       		.byte	0
 1551 04aa 1F       		.uleb128 0x1f
 1552 04ab 26010000 		.4byte	.LVL70
 1553 04af BA040000 		.4byte	0x4ba
 1554 04b3 20       		.uleb128 0x20
 1555 04b4 01       		.uleb128 0x1
 1556 04b5 50       		.byte	0x50
 1557 04b6 02       		.uleb128 0x2
 1558 04b7 76       		.byte	0x76
 1559 04b8 00       		.sleb128 0
 1560 04b9 00       		.byte	0
 1561 04ba 1F       		.uleb128 0x1f
 1562 04bb 42010000 		.4byte	.LVL75
 1563 04bf D0040000 		.4byte	0x4d0
 1564 04c3 20       		.uleb128 0x20
 1565 04c4 01       		.uleb128 0x1
 1566 04c5 50       		.byte	0x50
 1567 04c6 02       		.uleb128 0x2
 1568 04c7 76       		.byte	0x76
 1569 04c8 00       		.sleb128 0
 1570 04c9 20       		.uleb128 0x20
 1571 04ca 01       		.uleb128 0x1
 1572 04cb 51       		.byte	0x51
 1573 04cc 02       		.uleb128 0x2
 1574 04cd 75       		.byte	0x75
 1575 04ce 00       		.sleb128 0
 1576 04cf 00       		.byte	0
 1577 04d0 22       		.uleb128 0x22
 1578 04d1 56020000 		.4byte	.LVL119
 1579 04d5 20       		.uleb128 0x20
 1580 04d6 01       		.uleb128 0x1
 1581 04d7 50       		.byte	0x50
 1582 04d8 02       		.uleb128 0x2
 1583 04d9 76       		.byte	0x76
 1584 04da 00       		.sleb128 0
 1585 04db 20       		.uleb128 0x20
 1586 04dc 01       		.uleb128 0x1
 1587 04dd 51       		.byte	0x51
 1588 04de 02       		.uleb128 0x2
 1589 04df 08       		.byte	0x8
 1590 04e0 2D       		.byte	0x2d
 1591 04e1 00       		.byte	0
 1592 04e2 00       		.byte	0
 1593 04e3 06       		.uleb128 0x6
 1594 04e4 04       		.byte	0x4
 1595 04e5 BC010000 		.4byte	0x1bc
ARM GAS  /tmp/ccOnDVUd.s 			page 29


 1596 04e9 23       		.uleb128 0x23
 1597 04ea D5000000 		.4byte	0xd5
 1598 04ee F9040000 		.4byte	0x4f9
 1599 04f2 24       		.uleb128 0x24
 1600 04f3 C8000000 		.4byte	0xc8
 1601 04f7 0B       		.byte	0xb
 1602 04f8 00       		.byte	0
 1603 04f9 25       		.uleb128 0x25
 1604 04fa 61000000 		.4byte	.LASF48
 1605 04fe 01       		.byte	0x1
 1606 04ff 2001     		.2byte	0x120
 1607 0501 25000000 		.4byte	0x25
 1608 0505 00000000 		.4byte	.LFB11
 1609 0509 34000000 		.4byte	.LFE11-.LFB11
 1610 050d 01       		.uleb128 0x1
 1611 050e 9C       		.byte	0x9c
 1612 050f B4050000 		.4byte	0x5b4
 1613 0513 26       		.uleb128 0x26
 1614 0514 73747200 		.ascii	"str\000"
 1615 0518 01       		.byte	0x1
 1616 0519 2001     		.2byte	0x120
 1617 051b EC020000 		.4byte	0x2ec
 1618 051f 75080000 		.4byte	.LLST24
 1619 0523 27       		.uleb128 0x27
 1620 0524 ED000000 		.4byte	.LASF29
 1621 0528 01       		.byte	0x1
 1622 0529 2001     		.2byte	0x120
 1623 052b 2C000000 		.4byte	0x2c
 1624 052f AC080000 		.4byte	.LLST25
 1625 0533 28       		.uleb128 0x28
 1626 0534 666D7400 		.ascii	"fmt\000"
 1627 0538 01       		.byte	0x1
 1628 0539 2001     		.2byte	0x120
 1629 053b CF000000 		.4byte	0xcf
 1630 053f 02       		.uleb128 0x2
 1631 0540 91       		.byte	0x91
 1632 0541 78       		.sleb128 -8
 1633 0542 29       		.uleb128 0x29
 1634 0543 2A       		.uleb128 0x2a
 1635 0544 617000   		.ascii	"ap\000"
 1636 0547 01       		.byte	0x1
 1637 0548 2101     		.2byte	0x121
 1638 054a E9010000 		.4byte	0x1e9
 1639 054e 02       		.uleb128 0x2
 1640 054f 91       		.byte	0x91
 1641 0550 50       		.sleb128 -48
 1642 0551 2A       		.uleb128 0x2a
 1643 0552 6D7300   		.ascii	"ms\000"
 1644 0555 01       		.byte	0x1
 1645 0556 2201     		.2byte	0x122
 1646 0558 81020000 		.4byte	0x281
 1647 055c 02       		.uleb128 0x2
 1648 055d 91       		.byte	0x91
 1649 055e 54       		.sleb128 -44
 1650 055f 2B       		.uleb128 0x2b
 1651 0560 63687000 		.ascii	"chp\000"
 1652 0564 01       		.byte	0x1
ARM GAS  /tmp/ccOnDVUd.s 			page 30


 1653 0565 2301     		.2byte	0x123
 1654 0567 E3040000 		.4byte	0x4e3
 1655 056b DA080000 		.4byte	.LLST26
 1656 056f 2C       		.uleb128 0x2c
 1657 0570 18000000 		.4byte	.LVL135
 1658 0574 B4050000 		.4byte	0x5b4
 1659 0578 97050000 		.4byte	0x597
 1660 057c 20       		.uleb128 0x20
 1661 057d 01       		.uleb128 0x1
 1662 057e 50       		.byte	0x50
 1663 057f 02       		.uleb128 0x2
 1664 0580 91       		.byte	0x91
 1665 0581 44       		.sleb128 -60
 1666 0582 20       		.uleb128 0x20
 1667 0583 01       		.uleb128 0x1
 1668 0584 51       		.byte	0x51
 1669 0585 02       		.uleb128 0x2
 1670 0586 75       		.byte	0x75
 1671 0587 00       		.sleb128 0
 1672 0588 20       		.uleb128 0x20
 1673 0589 01       		.uleb128 0x1
 1674 058a 52       		.byte	0x52
 1675 058b 05       		.uleb128 0x5
 1676 058c F3       		.byte	0xf3
 1677 058d 01       		.uleb128 0x1
 1678 058e 51       		.byte	0x51
 1679 058f 31       		.byte	0x31
 1680 0590 1C       		.byte	0x1c
 1681 0591 20       		.uleb128 0x20
 1682 0592 01       		.uleb128 0x1
 1683 0593 53       		.byte	0x53
 1684 0594 01       		.uleb128 0x1
 1685 0595 30       		.byte	0x30
 1686 0596 00       		.byte	0
 1687 0597 2D       		.uleb128 0x2d
 1688 0598 24000000 		.4byte	.LVL137
 1689 059c 95030000 		.4byte	0x395
 1690 05a0 20       		.uleb128 0x20
 1691 05a1 01       		.uleb128 0x1
 1692 05a2 50       		.byte	0x50
 1693 05a3 02       		.uleb128 0x2
 1694 05a4 91       		.byte	0x91
 1695 05a5 44       		.sleb128 -60
 1696 05a6 20       		.uleb128 0x20
 1697 05a7 01       		.uleb128 0x1
 1698 05a8 51       		.byte	0x51
 1699 05a9 02       		.uleb128 0x2
 1700 05aa 76       		.byte	0x76
 1701 05ab 00       		.sleb128 0
 1702 05ac 20       		.uleb128 0x20
 1703 05ad 01       		.uleb128 0x1
 1704 05ae 52       		.byte	0x52
 1705 05af 02       		.uleb128 0x2
 1706 05b0 74       		.byte	0x74
 1707 05b1 00       		.sleb128 0
 1708 05b2 00       		.byte	0
 1709 05b3 00       		.byte	0
ARM GAS  /tmp/ccOnDVUd.s 			page 31


 1710 05b4 2E       		.uleb128 0x2e
 1711 05b5 10010000 		.4byte	.LASF49
 1712 05b9 10010000 		.4byte	.LASF49
 1713 05bd 09       		.byte	0x9
 1714 05be 57       		.byte	0x57
 1715 05bf 00       		.byte	0
 1716              		.section	.debug_abbrev,"",%progbits
 1717              	.Ldebug_abbrev0:
 1718 0000 01       		.uleb128 0x1
 1719 0001 11       		.uleb128 0x11
 1720 0002 01       		.byte	0x1
 1721 0003 25       		.uleb128 0x25
 1722 0004 0E       		.uleb128 0xe
 1723 0005 13       		.uleb128 0x13
 1724 0006 0B       		.uleb128 0xb
 1725 0007 03       		.uleb128 0x3
 1726 0008 0E       		.uleb128 0xe
 1727 0009 1B       		.uleb128 0x1b
 1728 000a 0E       		.uleb128 0xe
 1729 000b 55       		.uleb128 0x55
 1730 000c 17       		.uleb128 0x17
 1731 000d 11       		.uleb128 0x11
 1732 000e 01       		.uleb128 0x1
 1733 000f 10       		.uleb128 0x10
 1734 0010 17       		.uleb128 0x17
 1735 0011 00       		.byte	0
 1736 0012 00       		.byte	0
 1737 0013 02       		.uleb128 0x2
 1738 0014 24       		.uleb128 0x24
 1739 0015 00       		.byte	0
 1740 0016 0B       		.uleb128 0xb
 1741 0017 0B       		.uleb128 0xb
 1742 0018 3E       		.uleb128 0x3e
 1743 0019 0B       		.uleb128 0xb
 1744 001a 03       		.uleb128 0x3
 1745 001b 08       		.uleb128 0x8
 1746 001c 00       		.byte	0
 1747 001d 00       		.byte	0
 1748 001e 03       		.uleb128 0x3
 1749 001f 16       		.uleb128 0x16
 1750 0020 00       		.byte	0
 1751 0021 03       		.uleb128 0x3
 1752 0022 0E       		.uleb128 0xe
 1753 0023 3A       		.uleb128 0x3a
 1754 0024 0B       		.uleb128 0xb
 1755 0025 3B       		.uleb128 0x3b
 1756 0026 0B       		.uleb128 0xb
 1757 0027 49       		.uleb128 0x49
 1758 0028 13       		.uleb128 0x13
 1759 0029 00       		.byte	0
 1760 002a 00       		.byte	0
 1761 002b 04       		.uleb128 0x4
 1762 002c 24       		.uleb128 0x24
 1763 002d 00       		.byte	0
 1764 002e 0B       		.uleb128 0xb
 1765 002f 0B       		.uleb128 0xb
 1766 0030 3E       		.uleb128 0x3e
ARM GAS  /tmp/ccOnDVUd.s 			page 32


 1767 0031 0B       		.uleb128 0xb
 1768 0032 03       		.uleb128 0x3
 1769 0033 0E       		.uleb128 0xe
 1770 0034 00       		.byte	0
 1771 0035 00       		.byte	0
 1772 0036 05       		.uleb128 0x5
 1773 0037 0F       		.uleb128 0xf
 1774 0038 00       		.byte	0
 1775 0039 0B       		.uleb128 0xb
 1776 003a 0B       		.uleb128 0xb
 1777 003b 00       		.byte	0
 1778 003c 00       		.byte	0
 1779 003d 06       		.uleb128 0x6
 1780 003e 0F       		.uleb128 0xf
 1781 003f 00       		.byte	0
 1782 0040 0B       		.uleb128 0xb
 1783 0041 0B       		.uleb128 0xb
 1784 0042 49       		.uleb128 0x49
 1785 0043 13       		.uleb128 0x13
 1786 0044 00       		.byte	0
 1787 0045 00       		.byte	0
 1788 0046 07       		.uleb128 0x7
 1789 0047 26       		.uleb128 0x26
 1790 0048 00       		.byte	0
 1791 0049 49       		.uleb128 0x49
 1792 004a 13       		.uleb128 0x13
 1793 004b 00       		.byte	0
 1794 004c 00       		.byte	0
 1795 004d 08       		.uleb128 0x8
 1796 004e 15       		.uleb128 0x15
 1797 004f 01       		.byte	0x1
 1798 0050 27       		.uleb128 0x27
 1799 0051 19       		.uleb128 0x19
 1800 0052 49       		.uleb128 0x49
 1801 0053 13       		.uleb128 0x13
 1802 0054 01       		.uleb128 0x1
 1803 0055 13       		.uleb128 0x13
 1804 0056 00       		.byte	0
 1805 0057 00       		.byte	0
 1806 0058 09       		.uleb128 0x9
 1807 0059 05       		.uleb128 0x5
 1808 005a 00       		.byte	0
 1809 005b 49       		.uleb128 0x49
 1810 005c 13       		.uleb128 0x13
 1811 005d 00       		.byte	0
 1812 005e 00       		.byte	0
 1813 005f 0A       		.uleb128 0xa
 1814 0060 13       		.uleb128 0x13
 1815 0061 01       		.byte	0x1
 1816 0062 03       		.uleb128 0x3
 1817 0063 0E       		.uleb128 0xe
 1818 0064 0B       		.uleb128 0xb
 1819 0065 0B       		.uleb128 0xb
 1820 0066 3A       		.uleb128 0x3a
 1821 0067 0B       		.uleb128 0xb
 1822 0068 3B       		.uleb128 0x3b
 1823 0069 0B       		.uleb128 0xb
ARM GAS  /tmp/ccOnDVUd.s 			page 33


 1824 006a 01       		.uleb128 0x1
 1825 006b 13       		.uleb128 0x13
 1826 006c 00       		.byte	0
 1827 006d 00       		.byte	0
 1828 006e 0B       		.uleb128 0xb
 1829 006f 0D       		.uleb128 0xd
 1830 0070 00       		.byte	0
 1831 0071 03       		.uleb128 0x3
 1832 0072 0E       		.uleb128 0xe
 1833 0073 3A       		.uleb128 0x3a
 1834 0074 0B       		.uleb128 0xb
 1835 0075 3B       		.uleb128 0x3b
 1836 0076 0B       		.uleb128 0xb
 1837 0077 49       		.uleb128 0x49
 1838 0078 13       		.uleb128 0x13
 1839 0079 38       		.uleb128 0x38
 1840 007a 0B       		.uleb128 0xb
 1841 007b 00       		.byte	0
 1842 007c 00       		.byte	0
 1843 007d 0C       		.uleb128 0xc
 1844 007e 0D       		.uleb128 0xd
 1845 007f 00       		.byte	0
 1846 0080 03       		.uleb128 0x3
 1847 0081 08       		.uleb128 0x8
 1848 0082 3A       		.uleb128 0x3a
 1849 0083 0B       		.uleb128 0xb
 1850 0084 3B       		.uleb128 0x3b
 1851 0085 0B       		.uleb128 0xb
 1852 0086 49       		.uleb128 0x49
 1853 0087 13       		.uleb128 0x13
 1854 0088 38       		.uleb128 0x38
 1855 0089 0B       		.uleb128 0xb
 1856 008a 00       		.byte	0
 1857 008b 00       		.byte	0
 1858 008c 0D       		.uleb128 0xd
 1859 008d 13       		.uleb128 0x13
 1860 008e 01       		.byte	0x1
 1861 008f 0B       		.uleb128 0xb
 1862 0090 0B       		.uleb128 0xb
 1863 0091 3A       		.uleb128 0x3a
 1864 0092 0B       		.uleb128 0xb
 1865 0093 3B       		.uleb128 0x3b
 1866 0094 0B       		.uleb128 0xb
 1867 0095 01       		.uleb128 0x1
 1868 0096 13       		.uleb128 0x13
 1869 0097 00       		.byte	0
 1870 0098 00       		.byte	0
 1871 0099 0E       		.uleb128 0xe
 1872 009a 0D       		.uleb128 0xd
 1873 009b 00       		.byte	0
 1874 009c 03       		.uleb128 0x3
 1875 009d 0E       		.uleb128 0xe
 1876 009e 49       		.uleb128 0x49
 1877 009f 13       		.uleb128 0x13
 1878 00a0 38       		.uleb128 0x38
 1879 00a1 0B       		.uleb128 0xb
 1880 00a2 34       		.uleb128 0x34
ARM GAS  /tmp/ccOnDVUd.s 			page 34


 1881 00a3 19       		.uleb128 0x19
 1882 00a4 00       		.byte	0
 1883 00a5 00       		.byte	0
 1884 00a6 0F       		.uleb128 0xf
 1885 00a7 2E       		.uleb128 0x2e
 1886 00a8 01       		.byte	0x1
 1887 00a9 03       		.uleb128 0x3
 1888 00aa 0E       		.uleb128 0xe
 1889 00ab 3A       		.uleb128 0x3a
 1890 00ac 0B       		.uleb128 0xb
 1891 00ad 3B       		.uleb128 0x3b
 1892 00ae 0B       		.uleb128 0xb
 1893 00af 27       		.uleb128 0x27
 1894 00b0 19       		.uleb128 0x19
 1895 00b1 49       		.uleb128 0x49
 1896 00b2 13       		.uleb128 0x13
 1897 00b3 20       		.uleb128 0x20
 1898 00b4 0B       		.uleb128 0xb
 1899 00b5 01       		.uleb128 0x1
 1900 00b6 13       		.uleb128 0x13
 1901 00b7 00       		.byte	0
 1902 00b8 00       		.byte	0
 1903 00b9 10       		.uleb128 0x10
 1904 00ba 05       		.uleb128 0x5
 1905 00bb 00       		.byte	0
 1906 00bc 03       		.uleb128 0x3
 1907 00bd 08       		.uleb128 0x8
 1908 00be 3A       		.uleb128 0x3a
 1909 00bf 0B       		.uleb128 0xb
 1910 00c0 3B       		.uleb128 0x3b
 1911 00c1 0B       		.uleb128 0xb
 1912 00c2 49       		.uleb128 0x49
 1913 00c3 13       		.uleb128 0x13
 1914 00c4 00       		.byte	0
 1915 00c5 00       		.byte	0
 1916 00c6 11       		.uleb128 0x11
 1917 00c7 05       		.uleb128 0x5
 1918 00c8 00       		.byte	0
 1919 00c9 03       		.uleb128 0x3
 1920 00ca 0E       		.uleb128 0xe
 1921 00cb 3A       		.uleb128 0x3a
 1922 00cc 0B       		.uleb128 0xb
 1923 00cd 3B       		.uleb128 0x3b
 1924 00ce 0B       		.uleb128 0xb
 1925 00cf 49       		.uleb128 0x49
 1926 00d0 13       		.uleb128 0x13
 1927 00d1 00       		.byte	0
 1928 00d2 00       		.byte	0
 1929 00d3 12       		.uleb128 0x12
 1930 00d4 34       		.uleb128 0x34
 1931 00d5 00       		.byte	0
 1932 00d6 03       		.uleb128 0x3
 1933 00d7 08       		.uleb128 0x8
 1934 00d8 3A       		.uleb128 0x3a
 1935 00d9 0B       		.uleb128 0xb
 1936 00da 3B       		.uleb128 0x3b
 1937 00db 0B       		.uleb128 0xb
ARM GAS  /tmp/ccOnDVUd.s 			page 35


 1938 00dc 49       		.uleb128 0x49
 1939 00dd 13       		.uleb128 0x13
 1940 00de 00       		.byte	0
 1941 00df 00       		.byte	0
 1942 00e0 13       		.uleb128 0x13
 1943 00e1 2E       		.uleb128 0x2e
 1944 00e2 01       		.byte	0x1
 1945 00e3 03       		.uleb128 0x3
 1946 00e4 0E       		.uleb128 0xe
 1947 00e5 3A       		.uleb128 0x3a
 1948 00e6 0B       		.uleb128 0xb
 1949 00e7 3B       		.uleb128 0x3b
 1950 00e8 0B       		.uleb128 0xb
 1951 00e9 27       		.uleb128 0x27
 1952 00ea 19       		.uleb128 0x19
 1953 00eb 49       		.uleb128 0x49
 1954 00ec 13       		.uleb128 0x13
 1955 00ed 11       		.uleb128 0x11
 1956 00ee 01       		.uleb128 0x1
 1957 00ef 12       		.uleb128 0x12
 1958 00f0 06       		.uleb128 0x6
 1959 00f1 40       		.uleb128 0x40
 1960 00f2 18       		.uleb128 0x18
 1961 00f3 9642     		.uleb128 0x2116
 1962 00f5 19       		.uleb128 0x19
 1963 00f6 01       		.uleb128 0x1
 1964 00f7 13       		.uleb128 0x13
 1965 00f8 00       		.byte	0
 1966 00f9 00       		.byte	0
 1967 00fa 14       		.uleb128 0x14
 1968 00fb 05       		.uleb128 0x5
 1969 00fc 00       		.byte	0
 1970 00fd 03       		.uleb128 0x3
 1971 00fe 08       		.uleb128 0x8
 1972 00ff 3A       		.uleb128 0x3a
 1973 0100 0B       		.uleb128 0xb
 1974 0101 3B       		.uleb128 0x3b
 1975 0102 0B       		.uleb128 0xb
 1976 0103 49       		.uleb128 0x49
 1977 0104 13       		.uleb128 0x13
 1978 0105 02       		.uleb128 0x2
 1979 0106 17       		.uleb128 0x17
 1980 0107 00       		.byte	0
 1981 0108 00       		.byte	0
 1982 0109 15       		.uleb128 0x15
 1983 010a 05       		.uleb128 0x5
 1984 010b 00       		.byte	0
 1985 010c 03       		.uleb128 0x3
 1986 010d 0E       		.uleb128 0xe
 1987 010e 3A       		.uleb128 0x3a
 1988 010f 0B       		.uleb128 0xb
 1989 0110 3B       		.uleb128 0x3b
 1990 0111 0B       		.uleb128 0xb
 1991 0112 49       		.uleb128 0x49
 1992 0113 13       		.uleb128 0x13
 1993 0114 02       		.uleb128 0x2
 1994 0115 17       		.uleb128 0x17
ARM GAS  /tmp/ccOnDVUd.s 			page 36


 1995 0116 00       		.byte	0
 1996 0117 00       		.byte	0
 1997 0118 16       		.uleb128 0x16
 1998 0119 1D       		.uleb128 0x1d
 1999 011a 01       		.byte	0x1
 2000 011b 31       		.uleb128 0x31
 2001 011c 13       		.uleb128 0x13
 2002 011d 52       		.uleb128 0x52
 2003 011e 01       		.uleb128 0x1
 2004 011f 55       		.uleb128 0x55
 2005 0120 17       		.uleb128 0x17
 2006 0121 58       		.uleb128 0x58
 2007 0122 0B       		.uleb128 0xb
 2008 0123 59       		.uleb128 0x59
 2009 0124 0B       		.uleb128 0xb
 2010 0125 00       		.byte	0
 2011 0126 00       		.byte	0
 2012 0127 17       		.uleb128 0x17
 2013 0128 05       		.uleb128 0x5
 2014 0129 00       		.byte	0
 2015 012a 31       		.uleb128 0x31
 2016 012b 13       		.uleb128 0x13
 2017 012c 02       		.uleb128 0x2
 2018 012d 17       		.uleb128 0x17
 2019 012e 00       		.byte	0
 2020 012f 00       		.byte	0
 2021 0130 18       		.uleb128 0x18
 2022 0131 0B       		.uleb128 0xb
 2023 0132 01       		.byte	0x1
 2024 0133 55       		.uleb128 0x55
 2025 0134 17       		.uleb128 0x17
 2026 0135 00       		.byte	0
 2027 0136 00       		.byte	0
 2028 0137 19       		.uleb128 0x19
 2029 0138 34       		.uleb128 0x34
 2030 0139 00       		.byte	0
 2031 013a 31       		.uleb128 0x31
 2032 013b 13       		.uleb128 0x13
 2033 013c 02       		.uleb128 0x2
 2034 013d 17       		.uleb128 0x17
 2035 013e 00       		.byte	0
 2036 013f 00       		.byte	0
 2037 0140 1A       		.uleb128 0x1a
 2038 0141 2E       		.uleb128 0x2e
 2039 0142 01       		.byte	0x1
 2040 0143 3F       		.uleb128 0x3f
 2041 0144 19       		.uleb128 0x19
 2042 0145 03       		.uleb128 0x3
 2043 0146 0E       		.uleb128 0xe
 2044 0147 3A       		.uleb128 0x3a
 2045 0148 0B       		.uleb128 0xb
 2046 0149 3B       		.uleb128 0x3b
 2047 014a 0B       		.uleb128 0xb
 2048 014b 27       		.uleb128 0x27
 2049 014c 19       		.uleb128 0x19
 2050 014d 11       		.uleb128 0x11
 2051 014e 01       		.uleb128 0x1
ARM GAS  /tmp/ccOnDVUd.s 			page 37


 2052 014f 12       		.uleb128 0x12
 2053 0150 06       		.uleb128 0x6
 2054 0151 40       		.uleb128 0x40
 2055 0152 18       		.uleb128 0x18
 2056 0153 9742     		.uleb128 0x2117
 2057 0155 19       		.uleb128 0x19
 2058 0156 01       		.uleb128 0x1
 2059 0157 13       		.uleb128 0x13
 2060 0158 00       		.byte	0
 2061 0159 00       		.byte	0
 2062 015a 1B       		.uleb128 0x1b
 2063 015b 34       		.uleb128 0x34
 2064 015c 00       		.byte	0
 2065 015d 03       		.uleb128 0x3
 2066 015e 08       		.uleb128 0x8
 2067 015f 3A       		.uleb128 0x3a
 2068 0160 0B       		.uleb128 0xb
 2069 0161 3B       		.uleb128 0x3b
 2070 0162 0B       		.uleb128 0xb
 2071 0163 49       		.uleb128 0x49
 2072 0164 13       		.uleb128 0x13
 2073 0165 02       		.uleb128 0x2
 2074 0166 17       		.uleb128 0x17
 2075 0167 00       		.byte	0
 2076 0168 00       		.byte	0
 2077 0169 1C       		.uleb128 0x1c
 2078 016a 34       		.uleb128 0x34
 2079 016b 00       		.byte	0
 2080 016c 03       		.uleb128 0x3
 2081 016d 0E       		.uleb128 0xe
 2082 016e 3A       		.uleb128 0x3a
 2083 016f 0B       		.uleb128 0xb
 2084 0170 3B       		.uleb128 0x3b
 2085 0171 0B       		.uleb128 0xb
 2086 0172 49       		.uleb128 0x49
 2087 0173 13       		.uleb128 0x13
 2088 0174 02       		.uleb128 0x2
 2089 0175 17       		.uleb128 0x17
 2090 0176 00       		.byte	0
 2091 0177 00       		.byte	0
 2092 0178 1D       		.uleb128 0x1d
 2093 0179 34       		.uleb128 0x34
 2094 017a 00       		.byte	0
 2095 017b 03       		.uleb128 0x3
 2096 017c 0E       		.uleb128 0xe
 2097 017d 3A       		.uleb128 0x3a
 2098 017e 0B       		.uleb128 0xb
 2099 017f 3B       		.uleb128 0x3b
 2100 0180 0B       		.uleb128 0xb
 2101 0181 49       		.uleb128 0x49
 2102 0182 13       		.uleb128 0x13
 2103 0183 02       		.uleb128 0x2
 2104 0184 18       		.uleb128 0x18
 2105 0185 00       		.byte	0
 2106 0186 00       		.byte	0
 2107 0187 1E       		.uleb128 0x1e
 2108 0188 0A       		.uleb128 0xa
ARM GAS  /tmp/ccOnDVUd.s 			page 38


 2109 0189 00       		.byte	0
 2110 018a 03       		.uleb128 0x3
 2111 018b 0E       		.uleb128 0xe
 2112 018c 3A       		.uleb128 0x3a
 2113 018d 0B       		.uleb128 0xb
 2114 018e 3B       		.uleb128 0x3b
 2115 018f 0B       		.uleb128 0xb
 2116 0190 11       		.uleb128 0x11
 2117 0191 01       		.uleb128 0x1
 2118 0192 00       		.byte	0
 2119 0193 00       		.byte	0
 2120 0194 1F       		.uleb128 0x1f
 2121 0195 898201   		.uleb128 0x4109
 2122 0198 01       		.byte	0x1
 2123 0199 11       		.uleb128 0x11
 2124 019a 01       		.uleb128 0x1
 2125 019b 01       		.uleb128 0x1
 2126 019c 13       		.uleb128 0x13
 2127 019d 00       		.byte	0
 2128 019e 00       		.byte	0
 2129 019f 20       		.uleb128 0x20
 2130 01a0 8A8201   		.uleb128 0x410a
 2131 01a3 00       		.byte	0
 2132 01a4 02       		.uleb128 0x2
 2133 01a5 18       		.uleb128 0x18
 2134 01a6 9142     		.uleb128 0x2111
 2135 01a8 18       		.uleb128 0x18
 2136 01a9 00       		.byte	0
 2137 01aa 00       		.byte	0
 2138 01ab 21       		.uleb128 0x21
 2139 01ac 898201   		.uleb128 0x4109
 2140 01af 00       		.byte	0
 2141 01b0 11       		.uleb128 0x11
 2142 01b1 01       		.uleb128 0x1
 2143 01b2 31       		.uleb128 0x31
 2144 01b3 13       		.uleb128 0x13
 2145 01b4 00       		.byte	0
 2146 01b5 00       		.byte	0
 2147 01b6 22       		.uleb128 0x22
 2148 01b7 898201   		.uleb128 0x4109
 2149 01ba 01       		.byte	0x1
 2150 01bb 11       		.uleb128 0x11
 2151 01bc 01       		.uleb128 0x1
 2152 01bd 00       		.byte	0
 2153 01be 00       		.byte	0
 2154 01bf 23       		.uleb128 0x23
 2155 01c0 01       		.uleb128 0x1
 2156 01c1 01       		.byte	0x1
 2157 01c2 49       		.uleb128 0x49
 2158 01c3 13       		.uleb128 0x13
 2159 01c4 01       		.uleb128 0x1
 2160 01c5 13       		.uleb128 0x13
 2161 01c6 00       		.byte	0
 2162 01c7 00       		.byte	0
 2163 01c8 24       		.uleb128 0x24
 2164 01c9 21       		.uleb128 0x21
 2165 01ca 00       		.byte	0
ARM GAS  /tmp/ccOnDVUd.s 			page 39


 2166 01cb 49       		.uleb128 0x49
 2167 01cc 13       		.uleb128 0x13
 2168 01cd 2F       		.uleb128 0x2f
 2169 01ce 0B       		.uleb128 0xb
 2170 01cf 00       		.byte	0
 2171 01d0 00       		.byte	0
 2172 01d1 25       		.uleb128 0x25
 2173 01d2 2E       		.uleb128 0x2e
 2174 01d3 01       		.byte	0x1
 2175 01d4 3F       		.uleb128 0x3f
 2176 01d5 19       		.uleb128 0x19
 2177 01d6 03       		.uleb128 0x3
 2178 01d7 0E       		.uleb128 0xe
 2179 01d8 3A       		.uleb128 0x3a
 2180 01d9 0B       		.uleb128 0xb
 2181 01da 3B       		.uleb128 0x3b
 2182 01db 05       		.uleb128 0x5
 2183 01dc 27       		.uleb128 0x27
 2184 01dd 19       		.uleb128 0x19
 2185 01de 49       		.uleb128 0x49
 2186 01df 13       		.uleb128 0x13
 2187 01e0 11       		.uleb128 0x11
 2188 01e1 01       		.uleb128 0x1
 2189 01e2 12       		.uleb128 0x12
 2190 01e3 06       		.uleb128 0x6
 2191 01e4 40       		.uleb128 0x40
 2192 01e5 18       		.uleb128 0x18
 2193 01e6 9742     		.uleb128 0x2117
 2194 01e8 19       		.uleb128 0x19
 2195 01e9 01       		.uleb128 0x1
 2196 01ea 13       		.uleb128 0x13
 2197 01eb 00       		.byte	0
 2198 01ec 00       		.byte	0
 2199 01ed 26       		.uleb128 0x26
 2200 01ee 05       		.uleb128 0x5
 2201 01ef 00       		.byte	0
 2202 01f0 03       		.uleb128 0x3
 2203 01f1 08       		.uleb128 0x8
 2204 01f2 3A       		.uleb128 0x3a
 2205 01f3 0B       		.uleb128 0xb
 2206 01f4 3B       		.uleb128 0x3b
 2207 01f5 05       		.uleb128 0x5
 2208 01f6 49       		.uleb128 0x49
 2209 01f7 13       		.uleb128 0x13
 2210 01f8 02       		.uleb128 0x2
 2211 01f9 17       		.uleb128 0x17
 2212 01fa 00       		.byte	0
 2213 01fb 00       		.byte	0
 2214 01fc 27       		.uleb128 0x27
 2215 01fd 05       		.uleb128 0x5
 2216 01fe 00       		.byte	0
 2217 01ff 03       		.uleb128 0x3
 2218 0200 0E       		.uleb128 0xe
 2219 0201 3A       		.uleb128 0x3a
 2220 0202 0B       		.uleb128 0xb
 2221 0203 3B       		.uleb128 0x3b
 2222 0204 05       		.uleb128 0x5
ARM GAS  /tmp/ccOnDVUd.s 			page 40


 2223 0205 49       		.uleb128 0x49
 2224 0206 13       		.uleb128 0x13
 2225 0207 02       		.uleb128 0x2
 2226 0208 17       		.uleb128 0x17
 2227 0209 00       		.byte	0
 2228 020a 00       		.byte	0
 2229 020b 28       		.uleb128 0x28
 2230 020c 05       		.uleb128 0x5
 2231 020d 00       		.byte	0
 2232 020e 03       		.uleb128 0x3
 2233 020f 08       		.uleb128 0x8
 2234 0210 3A       		.uleb128 0x3a
 2235 0211 0B       		.uleb128 0xb
 2236 0212 3B       		.uleb128 0x3b
 2237 0213 05       		.uleb128 0x5
 2238 0214 49       		.uleb128 0x49
 2239 0215 13       		.uleb128 0x13
 2240 0216 02       		.uleb128 0x2
 2241 0217 18       		.uleb128 0x18
 2242 0218 00       		.byte	0
 2243 0219 00       		.byte	0
 2244 021a 29       		.uleb128 0x29
 2245 021b 18       		.uleb128 0x18
 2246 021c 00       		.byte	0
 2247 021d 00       		.byte	0
 2248 021e 00       		.byte	0
 2249 021f 2A       		.uleb128 0x2a
 2250 0220 34       		.uleb128 0x34
 2251 0221 00       		.byte	0
 2252 0222 03       		.uleb128 0x3
 2253 0223 08       		.uleb128 0x8
 2254 0224 3A       		.uleb128 0x3a
 2255 0225 0B       		.uleb128 0xb
 2256 0226 3B       		.uleb128 0x3b
 2257 0227 05       		.uleb128 0x5
 2258 0228 49       		.uleb128 0x49
 2259 0229 13       		.uleb128 0x13
 2260 022a 02       		.uleb128 0x2
 2261 022b 18       		.uleb128 0x18
 2262 022c 00       		.byte	0
 2263 022d 00       		.byte	0
 2264 022e 2B       		.uleb128 0x2b
 2265 022f 34       		.uleb128 0x34
 2266 0230 00       		.byte	0
 2267 0231 03       		.uleb128 0x3
 2268 0232 08       		.uleb128 0x8
 2269 0233 3A       		.uleb128 0x3a
 2270 0234 0B       		.uleb128 0xb
 2271 0235 3B       		.uleb128 0x3b
 2272 0236 05       		.uleb128 0x5
 2273 0237 49       		.uleb128 0x49
 2274 0238 13       		.uleb128 0x13
 2275 0239 02       		.uleb128 0x2
 2276 023a 17       		.uleb128 0x17
 2277 023b 00       		.byte	0
 2278 023c 00       		.byte	0
 2279 023d 2C       		.uleb128 0x2c
ARM GAS  /tmp/ccOnDVUd.s 			page 41


 2280 023e 898201   		.uleb128 0x4109
 2281 0241 01       		.byte	0x1
 2282 0242 11       		.uleb128 0x11
 2283 0243 01       		.uleb128 0x1
 2284 0244 31       		.uleb128 0x31
 2285 0245 13       		.uleb128 0x13
 2286 0246 01       		.uleb128 0x1
 2287 0247 13       		.uleb128 0x13
 2288 0248 00       		.byte	0
 2289 0249 00       		.byte	0
 2290 024a 2D       		.uleb128 0x2d
 2291 024b 898201   		.uleb128 0x4109
 2292 024e 01       		.byte	0x1
 2293 024f 11       		.uleb128 0x11
 2294 0250 01       		.uleb128 0x1
 2295 0251 31       		.uleb128 0x31
 2296 0252 13       		.uleb128 0x13
 2297 0253 00       		.byte	0
 2298 0254 00       		.byte	0
 2299 0255 2E       		.uleb128 0x2e
 2300 0256 2E       		.uleb128 0x2e
 2301 0257 00       		.byte	0
 2302 0258 3F       		.uleb128 0x3f
 2303 0259 19       		.uleb128 0x19
 2304 025a 3C       		.uleb128 0x3c
 2305 025b 19       		.uleb128 0x19
 2306 025c 6E       		.uleb128 0x6e
 2307 025d 0E       		.uleb128 0xe
 2308 025e 03       		.uleb128 0x3
 2309 025f 0E       		.uleb128 0xe
 2310 0260 3A       		.uleb128 0x3a
 2311 0261 0B       		.uleb128 0xb
 2312 0262 3B       		.uleb128 0x3b
 2313 0263 0B       		.uleb128 0xb
 2314 0264 00       		.byte	0
 2315 0265 00       		.byte	0
 2316 0266 00       		.byte	0
 2317              		.section	.debug_loc,"",%progbits
 2318              	.Ldebug_loc0:
 2319              	.LLST0:
 2320 0000 00000000 		.4byte	.LVL0
 2321 0004 1A000000 		.4byte	.LVL3
 2322 0008 0100     		.2byte	0x1
 2323 000a 50       		.byte	0x50
 2324 000b 1A000000 		.4byte	.LVL3
 2325 000f 60000000 		.4byte	.LVL24
 2326 0013 0100     		.2byte	0x1
 2327 0015 58       		.byte	0x58
 2328 0016 60000000 		.4byte	.LVL24
 2329 001a 6A000000 		.4byte	.LFE9
 2330 001e 0400     		.2byte	0x4
 2331 0020 F3       		.byte	0xf3
 2332 0021 01       		.uleb128 0x1
 2333 0022 50       		.byte	0x50
 2334 0023 9F       		.byte	0x9f
 2335 0024 00000000 		.4byte	0
 2336 0028 00000000 		.4byte	0
ARM GAS  /tmp/ccOnDVUd.s 			page 42


 2337              	.LLST1:
 2338 002c 00000000 		.4byte	.LVL0
 2339 0030 1A000000 		.4byte	.LVL3
 2340 0034 0100     		.2byte	0x1
 2341 0036 51       		.byte	0x51
 2342 0037 1A000000 		.4byte	.LVL3
 2343 003b 6A000000 		.4byte	.LFE9
 2344 003f 0400     		.2byte	0x4
 2345 0041 F3       		.byte	0xf3
 2346 0042 01       		.uleb128 0x1
 2347 0043 51       		.byte	0x51
 2348 0044 9F       		.byte	0x9f
 2349 0045 00000000 		.4byte	0
 2350 0049 00000000 		.4byte	0
 2351              	.LLST2:
 2352 004d 00000000 		.4byte	.LVL0
 2353 0051 1A000000 		.4byte	.LVL3
 2354 0055 0100     		.2byte	0x1
 2355 0057 52       		.byte	0x52
 2356 0058 1A000000 		.4byte	.LVL3
 2357 005c 60000000 		.4byte	.LVL25
 2358 0060 0100     		.2byte	0x1
 2359 0062 5A       		.byte	0x5a
 2360 0063 60000000 		.4byte	.LVL25
 2361 0067 6A000000 		.4byte	.LFE9
 2362 006b 0400     		.2byte	0x4
 2363 006d F3       		.byte	0xf3
 2364 006e 01       		.uleb128 0x1
 2365 006f 52       		.byte	0x52
 2366 0070 9F       		.byte	0x9f
 2367 0071 00000000 		.4byte	0
 2368 0075 00000000 		.4byte	0
 2369              	.LLST3:
 2370 0079 12000000 		.4byte	.LVL1
 2371 007d 60000000 		.4byte	.LVL21
 2372 0081 0200     		.2byte	0x2
 2373 0083 30       		.byte	0x30
 2374 0084 9F       		.byte	0x9f
 2375 0085 00000000 		.4byte	0
 2376 0089 00000000 		.4byte	0
 2377              	.LLST4:
 2378 008d 12000000 		.4byte	.LVL1
 2379 0091 1A000000 		.4byte	.LVL3
 2380 0095 0100     		.2byte	0x1
 2381 0097 52       		.byte	0x52
 2382 0098 1A000000 		.4byte	.LVL3
 2383 009c 60000000 		.4byte	.LVL21
 2384 00a0 0100     		.2byte	0x1
 2385 00a2 5A       		.byte	0x5a
 2386 00a3 00000000 		.4byte	0
 2387 00a7 00000000 		.4byte	0
 2388              	.LLST5:
 2389 00ab 00000000 		.4byte	.LVL0
 2390 00af 1A000000 		.4byte	.LVL3
 2391 00b3 0100     		.2byte	0x1
 2392 00b5 51       		.byte	0x51
 2393 00b6 1A000000 		.4byte	.LVL3
ARM GAS  /tmp/ccOnDVUd.s 			page 43


 2394 00ba 60000000 		.4byte	.LVL21
 2395 00be 0400     		.2byte	0x4
 2396 00c0 F3       		.byte	0xf3
 2397 00c1 01       		.uleb128 0x1
 2398 00c2 51       		.byte	0x51
 2399 00c3 9F       		.byte	0x9f
 2400 00c4 00000000 		.4byte	0
 2401 00c8 00000000 		.4byte	0
 2402              	.LLST6:
 2403 00cc 00000000 		.4byte	.LVL0
 2404 00d0 1A000000 		.4byte	.LVL3
 2405 00d4 0100     		.2byte	0x1
 2406 00d6 50       		.byte	0x50
 2407 00d7 1A000000 		.4byte	.LVL3
 2408 00db 54000000 		.4byte	.LVL17
 2409 00df 0100     		.2byte	0x1
 2410 00e1 58       		.byte	0x58
 2411 00e2 54000000 		.4byte	.LVL17
 2412 00e6 56000000 		.4byte	.LVL18
 2413 00ea 0100     		.2byte	0x1
 2414 00ec 53       		.byte	0x53
 2415 00ed 56000000 		.4byte	.LVL18
 2416 00f1 5A000000 		.4byte	.LVL19
 2417 00f5 0300     		.2byte	0x3
 2418 00f7 73       		.byte	0x73
 2419 00f8 01       		.sleb128 1
 2420 00f9 9F       		.byte	0x9f
 2421 00fa 5A000000 		.4byte	.LVL19
 2422 00fe 60000000 		.4byte	.LVL21
 2423 0102 0100     		.2byte	0x1
 2424 0104 53       		.byte	0x53
 2425 0105 00000000 		.4byte	0
 2426 0109 00000000 		.4byte	0
 2427              	.LLST7:
 2428 010d 22000000 		.4byte	.LVL4
 2429 0111 26000000 		.4byte	.LVL5
 2430 0115 0100     		.2byte	0x1
 2431 0117 51       		.byte	0x51
 2432 0118 26000000 		.4byte	.LVL5
 2433 011c 32000000 		.4byte	.LVL8
 2434 0120 0100     		.2byte	0x1
 2435 0122 54       		.byte	0x54
 2436 0123 4A000000 		.4byte	.LVL14
 2437 0127 50000000 		.4byte	.LVL15
 2438 012b 0600     		.2byte	0x6
 2439 012d 79       		.byte	0x79
 2440 012e 00       		.sleb128 0
 2441 012f 75       		.byte	0x75
 2442 0130 00       		.sleb128 0
 2443 0131 1C       		.byte	0x1c
 2444 0132 9F       		.byte	0x9f
 2445 0133 50000000 		.4byte	.LVL15
 2446 0137 52000000 		.4byte	.LVL16
 2447 013b 0100     		.2byte	0x1
 2448 013d 50       		.byte	0x50
 2449 013e 52000000 		.4byte	.LVL16
 2450 0142 54000000 		.4byte	.LVL17
ARM GAS  /tmp/ccOnDVUd.s 			page 44


 2451 0146 0600     		.2byte	0x6
 2452 0148 79       		.byte	0x79
 2453 0149 00       		.sleb128 0
 2454 014a 75       		.byte	0x75
 2455 014b 00       		.sleb128 0
 2456 014c 1C       		.byte	0x1c
 2457 014d 9F       		.byte	0x9f
 2458 014e 00000000 		.4byte	0
 2459 0152 00000000 		.4byte	0
 2460              	.LLST8:
 2461 0156 16000000 		.4byte	.LVL2
 2462 015a 1A000000 		.4byte	.LVL3
 2463 015e 0100     		.2byte	0x1
 2464 0160 53       		.byte	0x53
 2465 0161 1A000000 		.4byte	.LVL3
 2466 0165 60000000 		.4byte	.LVL21
 2467 0169 0100     		.2byte	0x1
 2468 016b 55       		.byte	0x55
 2469 016c 00000000 		.4byte	0
 2470 0170 00000000 		.4byte	0
 2471              	.LLST9:
 2472 0174 12000000 		.4byte	.LVL1
 2473 0178 1A000000 		.4byte	.LVL3
 2474 017c 0100     		.2byte	0x1
 2475 017e 51       		.byte	0x51
 2476 017f 1A000000 		.4byte	.LVL3
 2477 0183 40000000 		.4byte	.LVL10
 2478 0187 0100     		.2byte	0x1
 2479 0189 57       		.byte	0x57
 2480 018a 40000000 		.4byte	.LVL10
 2481 018e 42000000 		.4byte	.LVL11
 2482 0192 0100     		.2byte	0x1
 2483 0194 50       		.byte	0x50
 2484 0195 42000000 		.4byte	.LVL11
 2485 0199 60000000 		.4byte	.LVL23
 2486 019d 0100     		.2byte	0x1
 2487 019f 57       		.byte	0x57
 2488 01a0 00000000 		.4byte	0
 2489 01a4 00000000 		.4byte	0
 2490              	.LLST10:
 2491 01a8 12000000 		.4byte	.LVL1
 2492 01ac 1A000000 		.4byte	.LVL3
 2493 01b0 0100     		.2byte	0x1
 2494 01b2 51       		.byte	0x51
 2495 01b3 1A000000 		.4byte	.LVL3
 2496 01b7 48000000 		.4byte	.LVL13
 2497 01bb 0100     		.2byte	0x1
 2498 01bd 56       		.byte	0x56
 2499 01be 48000000 		.4byte	.LVL13
 2500 01c2 50000000 		.4byte	.LVL15
 2501 01c6 0100     		.2byte	0x1
 2502 01c8 50       		.byte	0x50
 2503 01c9 50000000 		.4byte	.LVL15
 2504 01cd 60000000 		.4byte	.LVL22
 2505 01d1 0100     		.2byte	0x1
 2506 01d3 56       		.byte	0x56
 2507 01d4 00000000 		.4byte	0
ARM GAS  /tmp/ccOnDVUd.s 			page 45


 2508 01d8 00000000 		.4byte	0
 2509              	.LLST11:
 2510 01dc 00000000 		.4byte	.LVL26
 2511 01e0 1E000000 		.4byte	.LVL28
 2512 01e4 0100     		.2byte	0x1
 2513 01e6 50       		.byte	0x50
 2514 01e7 1E000000 		.4byte	.LVL28
 2515 01eb 42000000 		.4byte	.LVL33
 2516 01ef 0100     		.2byte	0x1
 2517 01f1 56       		.byte	0x56
 2518 01f2 42000000 		.4byte	.LVL33
 2519 01f6 4E000000 		.4byte	.LVL34
 2520 01fa 0400     		.2byte	0x4
 2521 01fc F3       		.byte	0xf3
 2522 01fd 01       		.uleb128 0x1
 2523 01fe 50       		.byte	0x50
 2524 01ff 9F       		.byte	0x9f
 2525 0200 4E000000 		.4byte	.LVL34
 2526 0204 B4020000 		.4byte	.LFE10
 2527 0208 0100     		.2byte	0x1
 2528 020a 56       		.byte	0x56
 2529 020b 00000000 		.4byte	0
 2530 020f 00000000 		.4byte	0
 2531              	.LLST12:
 2532 0213 00000000 		.4byte	.LVL26
 2533 0217 1E000000 		.4byte	.LVL28
 2534 021b 0100     		.2byte	0x1
 2535 021d 51       		.byte	0x51
 2536 021e 1E000000 		.4byte	.LVL28
 2537 0222 24000000 		.4byte	.LVL29
 2538 0226 0100     		.2byte	0x1
 2539 0228 5B       		.byte	0x5b
 2540 0229 24000000 		.4byte	.LVL29
 2541 022d 36000000 		.4byte	.LVL30
 2542 0231 0100     		.2byte	0x1
 2543 0233 55       		.byte	0x55
 2544 0234 36000000 		.4byte	.LVL30
 2545 0238 3C000000 		.4byte	.LVL31
 2546 023c 0100     		.2byte	0x1
 2547 023e 5B       		.byte	0x5b
 2548 023f 3C000000 		.4byte	.LVL31
 2549 0243 42000000 		.4byte	.LVL32
 2550 0247 0100     		.2byte	0x1
 2551 0249 55       		.byte	0x55
 2552 024a 4E000000 		.4byte	.LVL34
 2553 024e B4000000 		.4byte	.LVL47
 2554 0252 0100     		.2byte	0x1
 2555 0254 55       		.byte	0x55
 2556 0255 B4000000 		.4byte	.LVL47
 2557 0259 BC000000 		.4byte	.LVL48
 2558 025d 0300     		.2byte	0x3
 2559 025f 75       		.byte	0x75
 2560 0260 01       		.sleb128 1
 2561 0261 9F       		.byte	0x9f
 2562 0262 BC000000 		.4byte	.LVL48
 2563 0266 FA000000 		.4byte	.LVL63
 2564 026a 0100     		.2byte	0x1
ARM GAS  /tmp/ccOnDVUd.s 			page 46


 2565 026c 55       		.byte	0x55
 2566 026d FA000000 		.4byte	.LVL63
 2567 0271 48010000 		.4byte	.LVL76
 2568 0275 0100     		.2byte	0x1
 2569 0277 5B       		.byte	0x5b
 2570 0278 48010000 		.4byte	.LVL76
 2571 027c 5E020000 		.4byte	.LVL120
 2572 0280 0100     		.2byte	0x1
 2573 0282 55       		.byte	0x55
 2574 0283 5E020000 		.4byte	.LVL120
 2575 0287 62020000 		.4byte	.LVL121
 2576 028b 0100     		.2byte	0x1
 2577 028d 5B       		.byte	0x5b
 2578 028e 62020000 		.4byte	.LVL121
 2579 0292 B4020000 		.4byte	.LFE10
 2580 0296 0100     		.2byte	0x1
 2581 0298 55       		.byte	0x55
 2582 0299 00000000 		.4byte	0
 2583 029d 00000000 		.4byte	0
 2584              	.LLST13:
 2585 02a1 00000000 		.4byte	.LVL26
 2586 02a5 1A000000 		.4byte	.LVL27
 2587 02a9 0100     		.2byte	0x1
 2588 02ab 52       		.byte	0x52
 2589 02ac 00000000 		.4byte	0
 2590 02b0 00000000 		.4byte	0
 2591              	.LLST14:
 2592 02b4 4E000000 		.4byte	.LVL34
 2593 02b8 C6000000 		.4byte	.LVL51
 2594 02bc 0300     		.2byte	0x3
 2595 02be 91       		.byte	0x91
 2596 02bf 4C       		.sleb128 -52
 2597 02c0 9F       		.byte	0x9f
 2598 02c1 C6000000 		.4byte	.LVL51
 2599 02c5 CB000000 		.4byte	.LVL53-1
 2600 02c9 0100     		.2byte	0x1
 2601 02cb 50       		.byte	0x50
 2602 02cc CC000000 		.4byte	.LVL53
 2603 02d0 D8000000 		.4byte	.LVL58
 2604 02d4 0100     		.2byte	0x1
 2605 02d6 50       		.byte	0x50
 2606 02d7 48010000 		.4byte	.LVL76
 2607 02db 62010000 		.4byte	.LVL80
 2608 02df 0300     		.2byte	0x3
 2609 02e1 91       		.byte	0x91
 2610 02e2 4D       		.sleb128 -51
 2611 02e3 9F       		.byte	0x9f
 2612 02e4 78010000 		.4byte	.LVL83
 2613 02e8 88010000 		.4byte	.LVL86
 2614 02ec 0300     		.2byte	0x3
 2615 02ee 91       		.byte	0x91
 2616 02ef 4C       		.sleb128 -52
 2617 02f0 9F       		.byte	0x9f
 2618 02f1 88010000 		.4byte	.LVL86
 2619 02f5 96010000 		.4byte	.LVL88
 2620 02f9 0100     		.2byte	0x1
 2621 02fb 58       		.byte	0x58
ARM GAS  /tmp/ccOnDVUd.s 			page 47


 2622 02fc 96010000 		.4byte	.LVL88
 2623 0300 A6010000 		.4byte	.LVL92
 2624 0304 0100     		.2byte	0x1
 2625 0306 52       		.byte	0x52
 2626 0307 B4010000 		.4byte	.LVL93
 2627 030b C8010000 		.4byte	.LVL97
 2628 030f 0300     		.2byte	0x3
 2629 0311 91       		.byte	0x91
 2630 0312 4C       		.sleb128 -52
 2631 0313 9F       		.byte	0x9f
 2632 0314 C8010000 		.4byte	.LVL97
 2633 0318 D0010000 		.4byte	.LVL98
 2634 031c 0100     		.2byte	0x1
 2635 031e 50       		.byte	0x50
 2636 031f D0010000 		.4byte	.LVL98
 2637 0323 D2010000 		.4byte	.LVL99
 2638 0327 0300     		.2byte	0x3
 2639 0329 91       		.byte	0x91
 2640 032a 4C       		.sleb128 -52
 2641 032b 9F       		.byte	0x9f
 2642 032c D2010000 		.4byte	.LVL99
 2643 0330 E6010000 		.4byte	.LVL102
 2644 0334 0300     		.2byte	0x3
 2645 0336 91       		.byte	0x91
 2646 0337 4D       		.sleb128 -51
 2647 0338 9F       		.byte	0x9f
 2648 0339 E6010000 		.4byte	.LVL102
 2649 033d 34020000 		.4byte	.LVL116
 2650 0341 0300     		.2byte	0x3
 2651 0343 91       		.byte	0x91
 2652 0344 4C       		.sleb128 -52
 2653 0345 9F       		.byte	0x9f
 2654 0346 62020000 		.4byte	.LVL121
 2655 034a 70020000 		.4byte	.LVL124
 2656 034e 0100     		.2byte	0x1
 2657 0350 58       		.byte	0x58
 2658 0351 70020000 		.4byte	.LVL124
 2659 0355 7A020000 		.4byte	.LVL126
 2660 0359 0300     		.2byte	0x3
 2661 035b 91       		.byte	0x91
 2662 035c 4D       		.sleb128 -51
 2663 035d 9F       		.byte	0x9f
 2664 035e 7A020000 		.4byte	.LVL126
 2665 0362 7E020000 		.4byte	.LVL127
 2666 0366 0100     		.2byte	0x1
 2667 0368 50       		.byte	0x50
 2668 0369 7E020000 		.4byte	.LVL127
 2669 036d 84020000 		.4byte	.LVL130
 2670 0371 0300     		.2byte	0x3
 2671 0373 91       		.byte	0x91
 2672 0374 4C       		.sleb128 -52
 2673 0375 9F       		.byte	0x9f
 2674 0376 00000000 		.4byte	0
 2675 037a 00000000 		.4byte	0
 2676              	.LLST15:
 2677 037e 4E000000 		.4byte	.LVL34
 2678 0382 C6000000 		.4byte	.LVL51
ARM GAS  /tmp/ccOnDVUd.s 			page 48


 2679 0386 0300     		.2byte	0x3
 2680 0388 91       		.byte	0x91
 2681 0389 4C       		.sleb128 -52
 2682 038a 9F       		.byte	0x9f
 2683 038b C6000000 		.4byte	.LVL51
 2684 038f C8000000 		.4byte	.LVL52
 2685 0393 0100     		.2byte	0x1
 2686 0395 50       		.byte	0x50
 2687 0396 C8000000 		.4byte	.LVL52
 2688 039a CE000000 		.4byte	.LVL54
 2689 039e 0300     		.2byte	0x3
 2690 03a0 91       		.byte	0x91
 2691 03a1 4C       		.sleb128 -52
 2692 03a2 9F       		.byte	0x9f
 2693 03a3 CE000000 		.4byte	.LVL54
 2694 03a7 D2000000 		.4byte	.LVL55
 2695 03ab 0100     		.2byte	0x1
 2696 03ad 53       		.byte	0x53
 2697 03ae D2000000 		.4byte	.LVL55
 2698 03b2 D6000000 		.4byte	.LVL57
 2699 03b6 0300     		.2byte	0x3
 2700 03b8 91       		.byte	0x91
 2701 03b9 4C       		.sleb128 -52
 2702 03ba 9F       		.byte	0x9f
 2703 03bb D6000000 		.4byte	.LVL57
 2704 03bf D8000000 		.4byte	.LVL58
 2705 03c3 0100     		.2byte	0x1
 2706 03c5 53       		.byte	0x53
 2707 03c6 D8000000 		.4byte	.LVL58
 2708 03ca 18010000 		.4byte	.LVL68
 2709 03ce 0100     		.2byte	0x1
 2710 03d0 58       		.byte	0x58
 2711 03d1 18010000 		.4byte	.LVL68
 2712 03d5 1C010000 		.4byte	.LVL69
 2713 03d9 0100     		.2byte	0x1
 2714 03db 55       		.byte	0x55
 2715 03dc 1C010000 		.4byte	.LVL69
 2716 03e0 28010000 		.4byte	.LVL71
 2717 03e4 0300     		.2byte	0x3
 2718 03e6 74       		.byte	0x74
 2719 03e7 01       		.sleb128 1
 2720 03e8 9F       		.byte	0x9f
 2721 03e9 28010000 		.4byte	.LVL71
 2722 03ed 2E010000 		.4byte	.LVL73
 2723 03f1 0100     		.2byte	0x1
 2724 03f3 54       		.byte	0x54
 2725 03f4 48010000 		.4byte	.LVL76
 2726 03f8 60010000 		.4byte	.LVL79
 2727 03fc 0300     		.2byte	0x3
 2728 03fe 91       		.byte	0x91
 2729 03ff 4C       		.sleb128 -52
 2730 0400 9F       		.byte	0x9f
 2731 0401 60010000 		.4byte	.LVL79
 2732 0405 64010000 		.4byte	.LVL81
 2733 0409 0100     		.2byte	0x1
 2734 040b 53       		.byte	0x53
 2735 040c 64010000 		.4byte	.LVL81
ARM GAS  /tmp/ccOnDVUd.s 			page 49


 2736 0410 78010000 		.4byte	.LVL83
 2737 0414 0100     		.2byte	0x1
 2738 0416 58       		.byte	0x58
 2739 0417 78010000 		.4byte	.LVL83
 2740 041b 7E010000 		.4byte	.LVL84
 2741 041f 0300     		.2byte	0x3
 2742 0421 91       		.byte	0x91
 2743 0422 4C       		.sleb128 -52
 2744 0423 9F       		.byte	0x9f
 2745 0424 7E010000 		.4byte	.LVL84
 2746 0428 82010000 		.4byte	.LVL85
 2747 042c 0100     		.2byte	0x1
 2748 042e 53       		.byte	0x53
 2749 042f 82010000 		.4byte	.LVL85
 2750 0433 B4010000 		.4byte	.LVL93
 2751 0437 0100     		.2byte	0x1
 2752 0439 58       		.byte	0x58
 2753 043a B4010000 		.4byte	.LVL93
 2754 043e C8010000 		.4byte	.LVL97
 2755 0442 0300     		.2byte	0x3
 2756 0444 91       		.byte	0x91
 2757 0445 4C       		.sleb128 -52
 2758 0446 9F       		.byte	0x9f
 2759 0447 C8010000 		.4byte	.LVL97
 2760 044b D0010000 		.4byte	.LVL98
 2761 044f 0100     		.2byte	0x1
 2762 0451 50       		.byte	0x50
 2763 0452 D0010000 		.4byte	.LVL98
 2764 0456 E2010000 		.4byte	.LVL101
 2765 045a 0300     		.2byte	0x3
 2766 045c 91       		.byte	0x91
 2767 045d 4C       		.sleb128 -52
 2768 045e 9F       		.byte	0x9f
 2769 045f E2010000 		.4byte	.LVL101
 2770 0463 E6010000 		.4byte	.LVL102
 2771 0467 0100     		.2byte	0x1
 2772 0469 53       		.byte	0x53
 2773 046a E6010000 		.4byte	.LVL102
 2774 046e 34020000 		.4byte	.LVL116
 2775 0472 0300     		.2byte	0x3
 2776 0474 91       		.byte	0x91
 2777 0475 4C       		.sleb128 -52
 2778 0476 9F       		.byte	0x9f
 2779 0477 34020000 		.4byte	.LVL116
 2780 047b 70020000 		.4byte	.LVL124
 2781 047f 0100     		.2byte	0x1
 2782 0481 58       		.byte	0x58
 2783 0482 70020000 		.4byte	.LVL124
 2784 0486 78020000 		.4byte	.LVL125
 2785 048a 0100     		.2byte	0x1
 2786 048c 50       		.byte	0x50
 2787 048d 78020000 		.4byte	.LVL125
 2788 0491 7E020000 		.4byte	.LVL127
 2789 0495 0300     		.2byte	0x3
 2790 0497 91       		.byte	0x91
 2791 0498 4C       		.sleb128 -52
 2792 0499 9F       		.byte	0x9f
ARM GAS  /tmp/ccOnDVUd.s 			page 50


 2793 049a 7E020000 		.4byte	.LVL127
 2794 049e 80020000 		.4byte	.LVL128
 2795 04a2 0100     		.2byte	0x1
 2796 04a4 53       		.byte	0x53
 2797 04a5 80020000 		.4byte	.LVL128
 2798 04a9 82020000 		.4byte	.LVL129
 2799 04ad 0100     		.2byte	0x1
 2800 04af 58       		.byte	0x58
 2801 04b0 82020000 		.4byte	.LVL129
 2802 04b4 84020000 		.4byte	.LVL130
 2803 04b8 0200     		.2byte	0x2
 2804 04ba 77       		.byte	0x77
 2805 04bb 00       		.sleb128 0
 2806 04bc 84020000 		.4byte	.LVL130
 2807 04c0 B4020000 		.4byte	.LFE10
 2808 04c4 0100     		.2byte	0x1
 2809 04c6 58       		.byte	0x58
 2810 04c7 00000000 		.4byte	0
 2811 04cb 00000000 		.4byte	0
 2812              	.LLST16:
 2813 04cf 24000000 		.4byte	.LVL29
 2814 04d3 35000000 		.4byte	.LVL30-1
 2815 04d7 0100     		.2byte	0x1
 2816 04d9 51       		.byte	0x51
 2817 04da 3C000000 		.4byte	.LVL31
 2818 04de 64000000 		.4byte	.LVL36
 2819 04e2 0100     		.2byte	0x1
 2820 04e4 51       		.byte	0x51
 2821 04e5 6E000000 		.4byte	.LVL38
 2822 04e9 70000000 		.4byte	.LVL39
 2823 04ed 0200     		.2byte	0x2
 2824 04ef 75       		.byte	0x75
 2825 04f0 00       		.sleb128 0
 2826 04f1 70000000 		.4byte	.LVL39
 2827 04f5 7C000000 		.4byte	.LVL42
 2828 04f9 0100     		.2byte	0x1
 2829 04fb 52       		.byte	0x52
 2830 04fc 84000000 		.4byte	.LVL43
 2831 0500 96000000 		.4byte	.LVL45
 2832 0504 0200     		.2byte	0x2
 2833 0506 75       		.byte	0x75
 2834 0507 00       		.sleb128 0
 2835 0508 96000000 		.4byte	.LVL45
 2836 050c B4000000 		.4byte	.LVL47
 2837 0510 0100     		.2byte	0x1
 2838 0512 53       		.byte	0x53
 2839 0513 B4010000 		.4byte	.LVL93
 2840 0517 BA010000 		.4byte	.LVL94
 2841 051b 0200     		.2byte	0x2
 2842 051d 3A       		.byte	0x3a
 2843 051e 9F       		.byte	0x9f
 2844 051f BA010000 		.4byte	.LVL94
 2845 0523 C0010000 		.4byte	.LVL95
 2846 0527 0200     		.2byte	0x2
 2847 0529 38       		.byte	0x38
 2848 052a 9F       		.byte	0x9f
 2849 052b D0010000 		.4byte	.LVL98
ARM GAS  /tmp/ccOnDVUd.s 			page 51


 2850 052f D2010000 		.4byte	.LVL99
 2851 0533 0100     		.2byte	0x1
 2852 0535 52       		.byte	0x52
 2853 0536 E6010000 		.4byte	.LVL102
 2854 053a EE010000 		.4byte	.LVL103
 2855 053e 0100     		.2byte	0x1
 2856 0540 53       		.byte	0x53
 2857 0541 F4010000 		.4byte	.LVL104
 2858 0545 00020000 		.4byte	.LVL105
 2859 0549 0100     		.2byte	0x1
 2860 054b 52       		.byte	0x52
 2861 054c 00020000 		.4byte	.LVL105
 2862 0550 04020000 		.4byte	.LVL106
 2863 0554 0200     		.2byte	0x2
 2864 0556 75       		.byte	0x75
 2865 0557 00       		.sleb128 0
 2866 0558 04020000 		.4byte	.LVL106
 2867 055c 06020000 		.4byte	.LVL107
 2868 0560 0100     		.2byte	0x1
 2869 0562 53       		.byte	0x53
 2870 0563 06020000 		.4byte	.LVL107
 2871 0567 10020000 		.4byte	.LVL111
 2872 056b 0100     		.2byte	0x1
 2873 056d 52       		.byte	0x52
 2874 056e 16020000 		.4byte	.LVL113
 2875 0572 28020000 		.4byte	.LVL114
 2876 0576 0100     		.2byte	0x1
 2877 0578 53       		.byte	0x53
 2878 0579 28020000 		.4byte	.LVL114
 2879 057d 34020000 		.4byte	.LVL116
 2880 0581 0100     		.2byte	0x1
 2881 0583 51       		.byte	0x51
 2882 0584 00000000 		.4byte	0
 2883 0588 00000000 		.4byte	0
 2884              	.LLST17:
 2885 058c 5C000000 		.4byte	.LVL35
 2886 0590 6A000000 		.4byte	.LVL37
 2887 0594 0300     		.2byte	0x3
 2888 0596 08       		.byte	0x8
 2889 0597 20       		.byte	0x20
 2890 0598 9F       		.byte	0x9f
 2891 0599 6A000000 		.4byte	.LVL37
 2892 059d B4000000 		.4byte	.LVL47
 2893 05a1 0100     		.2byte	0x1
 2894 05a3 5A       		.byte	0x5a
 2895 05a4 B4000000 		.4byte	.LVL47
 2896 05a8 BE000000 		.4byte	.LVL49
 2897 05ac 0300     		.2byte	0x3
 2898 05ae 08       		.byte	0x8
 2899 05af 30       		.byte	0x30
 2900 05b0 9F       		.byte	0x9f
 2901 05b1 BE000000 		.4byte	.LVL49
 2902 05b5 E6000000 		.4byte	.LVL61
 2903 05b9 0100     		.2byte	0x1
 2904 05bb 5A       		.byte	0x5a
 2905 05bc 48010000 		.4byte	.LVL76
 2906 05c0 62010000 		.4byte	.LVL80
ARM GAS  /tmp/ccOnDVUd.s 			page 52


 2907 05c4 0300     		.2byte	0x3
 2908 05c6 08       		.byte	0x8
 2909 05c7 20       		.byte	0x20
 2910 05c8 9F       		.byte	0x9f
 2911 05c9 62010000 		.4byte	.LVL80
 2912 05cd 78010000 		.4byte	.LVL83
 2913 05d1 0100     		.2byte	0x1
 2914 05d3 5A       		.byte	0x5a
 2915 05d4 78010000 		.4byte	.LVL83
 2916 05d8 B4010000 		.4byte	.LVL93
 2917 05dc 0300     		.2byte	0x3
 2918 05de 08       		.byte	0x8
 2919 05df 20       		.byte	0x20
 2920 05e0 9F       		.byte	0x9f
 2921 05e1 B4010000 		.4byte	.LVL93
 2922 05e5 28020000 		.4byte	.LVL114
 2923 05e9 0100     		.2byte	0x1
 2924 05eb 5A       		.byte	0x5a
 2925 05ec 62020000 		.4byte	.LVL121
 2926 05f0 70020000 		.4byte	.LVL124
 2927 05f4 0300     		.2byte	0x3
 2928 05f6 08       		.byte	0x8
 2929 05f7 20       		.byte	0x20
 2930 05f8 9F       		.byte	0x9f
 2931 05f9 70020000 		.4byte	.LVL124
 2932 05fd 7E020000 		.4byte	.LVL127
 2933 0601 0100     		.2byte	0x1
 2934 0603 5A       		.byte	0x5a
 2935 0604 7E020000 		.4byte	.LVL127
 2936 0608 B4020000 		.4byte	.LFE10
 2937 060c 0300     		.2byte	0x3
 2938 060e 08       		.byte	0x8
 2939 060f 20       		.byte	0x20
 2940 0610 9F       		.byte	0x9f
 2941 0611 00000000 		.4byte	0
 2942 0615 00000000 		.4byte	0
 2943              	.LLST18:
 2944 0619 1C010000 		.4byte	.LVL69
 2945 061d 26010000 		.4byte	.LVL70
 2946 0621 0100     		.2byte	0x1
 2947 0623 55       		.byte	0x55
 2948 0624 26010000 		.4byte	.LVL70
 2949 0628 2C010000 		.4byte	.LVL72
 2950 062c 0300     		.2byte	0x3
 2951 062e 75       		.byte	0x75
 2952 062f 7F       		.sleb128 -1
 2953 0630 9F       		.byte	0x9f
 2954 0631 2C010000 		.4byte	.LVL72
 2955 0635 2E010000 		.4byte	.LVL73
 2956 0639 0100     		.2byte	0x1
 2957 063b 55       		.byte	0x55
 2958 063c 00000000 		.4byte	0
 2959 0640 00000000 		.4byte	0
 2960              	.LLST19:
 2961 0644 8C000000 		.4byte	.LVL44
 2962 0648 96000000 		.4byte	.LVL45
 2963 064c 0200     		.2byte	0x2
ARM GAS  /tmp/ccOnDVUd.s 			page 53


 2964 064e 30       		.byte	0x30
 2965 064f 9F       		.byte	0x9f
 2966 0650 96000000 		.4byte	.LVL45
 2967 0654 B4000000 		.4byte	.LVL47
 2968 0658 0100     		.2byte	0x1
 2969 065a 59       		.byte	0x59
 2970 065b BE000000 		.4byte	.LVL49
 2971 065f D4000000 		.4byte	.LVL56
 2972 0663 0100     		.2byte	0x1
 2973 0665 59       		.byte	0x59
 2974 0666 48010000 		.4byte	.LVL76
 2975 066a 58010000 		.4byte	.LVL77
 2976 066e 0100     		.2byte	0x1
 2977 0670 59       		.byte	0x59
 2978 0671 78010000 		.4byte	.LVL83
 2979 0675 88010000 		.4byte	.LVL86
 2980 0679 0100     		.2byte	0x1
 2981 067b 59       		.byte	0x59
 2982 067c 88010000 		.4byte	.LVL86
 2983 0680 92010000 		.4byte	.LVL87
 2984 0684 0400     		.2byte	0x4
 2985 0686 0A       		.byte	0xa
 2986 0687 FF7F     		.2byte	0x7fff
 2987 0689 9F       		.byte	0x9f
 2988 068a 92010000 		.4byte	.LVL87
 2989 068e 96010000 		.4byte	.LVL88
 2990 0692 0100     		.2byte	0x1
 2991 0694 53       		.byte	0x53
 2992 0695 96010000 		.4byte	.LVL88
 2993 0699 9A010000 		.4byte	.LVL89
 2994 069d 0300     		.2byte	0x3
 2995 069f 73       		.byte	0x73
 2996 06a0 7F       		.sleb128 -1
 2997 06a1 9F       		.byte	0x9f
 2998 06a2 9A010000 		.4byte	.LVL89
 2999 06a6 A4010000 		.4byte	.LVL91
 3000 06aa 0100     		.2byte	0x1
 3001 06ac 53       		.byte	0x53
 3002 06ad B4010000 		.4byte	.LVL93
 3003 06b1 E0010000 		.4byte	.LVL100
 3004 06b5 0100     		.2byte	0x1
 3005 06b7 59       		.byte	0x59
 3006 06b8 E6010000 		.4byte	.LVL102
 3007 06bc 00020000 		.4byte	.LVL105
 3008 06c0 0100     		.2byte	0x1
 3009 06c2 59       		.byte	0x59
 3010 06c3 00020000 		.4byte	.LVL105
 3011 06c7 04020000 		.4byte	.LVL106
 3012 06cb 0200     		.2byte	0x2
 3013 06cd 30       		.byte	0x30
 3014 06ce 9F       		.byte	0x9f
 3015 06cf 04020000 		.4byte	.LVL106
 3016 06d3 0C020000 		.4byte	.LVL109
 3017 06d7 0100     		.2byte	0x1
 3018 06d9 50       		.byte	0x50
 3019 06da 0E020000 		.4byte	.LVL110
 3020 06de 28020000 		.4byte	.LVL114
ARM GAS  /tmp/ccOnDVUd.s 			page 54


 3021 06e2 0100     		.2byte	0x1
 3022 06e4 50       		.byte	0x50
 3023 06e5 62020000 		.4byte	.LVL121
 3024 06e9 64020000 		.4byte	.LVL122
 3025 06ed 0100     		.2byte	0x1
 3026 06ef 53       		.byte	0x53
 3027 06f0 64020000 		.4byte	.LVL122
 3028 06f4 6E020000 		.4byte	.LVL123
 3029 06f8 0100     		.2byte	0x1
 3030 06fa 59       		.byte	0x59
 3031 06fb 6E020000 		.4byte	.LVL123
 3032 06ff 70020000 		.4byte	.LVL124
 3033 0703 0100     		.2byte	0x1
 3034 0705 53       		.byte	0x53
 3035 0706 70020000 		.4byte	.LVL124
 3036 070a 84020000 		.4byte	.LVL130
 3037 070e 0100     		.2byte	0x1
 3038 0710 59       		.byte	0x59
 3039 0711 00000000 		.4byte	0
 3040 0715 00000000 		.4byte	0
 3041              	.LLST20:
 3042 0719 6A000000 		.4byte	.LVL37
 3043 071d 6E000000 		.4byte	.LVL38
 3044 0721 0200     		.2byte	0x2
 3045 0723 30       		.byte	0x30
 3046 0724 9F       		.byte	0x9f
 3047 0725 6E000000 		.4byte	.LVL38
 3048 0729 76000000 		.4byte	.LVL41
 3049 072d 0100     		.2byte	0x1
 3050 072f 54       		.byte	0x54
 3051 0730 7C000000 		.4byte	.LVL42
 3052 0734 B4000000 		.4byte	.LVL47
 3053 0738 0100     		.2byte	0x1
 3054 073a 54       		.byte	0x54
 3055 073b BE000000 		.4byte	.LVL49
 3056 073f DA000000 		.4byte	.LVL59
 3057 0743 0100     		.2byte	0x1
 3058 0745 54       		.byte	0x54
 3059 0746 E0000000 		.4byte	.LVL60
 3060 074a 04010000 		.4byte	.LVL64
 3061 074e 0100     		.2byte	0x1
 3062 0750 54       		.byte	0x54
 3063 0751 04010000 		.4byte	.LVL64
 3064 0755 06010000 		.4byte	.LVL65
 3065 0759 0300     		.2byte	0x3
 3066 075b 74       		.byte	0x74
 3067 075c 7F       		.sleb128 -1
 3068 075d 9F       		.byte	0x9f
 3069 075e 06010000 		.4byte	.LVL65
 3070 0762 0E010000 		.4byte	.LVL66
 3071 0766 0100     		.2byte	0x1
 3072 0768 54       		.byte	0x54
 3073 0769 0E010000 		.4byte	.LVL66
 3074 076d 14010000 		.4byte	.LVL67
 3075 0771 0200     		.2byte	0x2
 3076 0773 30       		.byte	0x30
 3077 0774 9F       		.byte	0x9f
ARM GAS  /tmp/ccOnDVUd.s 			page 55


 3078 0775 1C010000 		.4byte	.LVL69
 3079 0779 2E010000 		.4byte	.LVL73
 3080 077d 0100     		.2byte	0x1
 3081 077f 58       		.byte	0x58
 3082 0780 2E010000 		.4byte	.LVL73
 3083 0784 40010000 		.4byte	.LVL74
 3084 0788 0100     		.2byte	0x1
 3085 078a 54       		.byte	0x54
 3086 078b 40010000 		.4byte	.LVL74
 3087 078f 42010000 		.4byte	.LVL75
 3088 0793 0300     		.2byte	0x3
 3089 0795 74       		.byte	0x74
 3090 0796 01       		.sleb128 1
 3091 0797 9F       		.byte	0x9f
 3092 0798 42010000 		.4byte	.LVL75
 3093 079c 5C010000 		.4byte	.LVL78
 3094 07a0 0100     		.2byte	0x1
 3095 07a2 54       		.byte	0x54
 3096 07a3 68010000 		.4byte	.LVL82
 3097 07a7 28020000 		.4byte	.LVL114
 3098 07ab 0100     		.2byte	0x1
 3099 07ad 54       		.byte	0x54
 3100 07ae 34020000 		.4byte	.LVL116
 3101 07b2 3E020000 		.4byte	.LVL117
 3102 07b6 0200     		.2byte	0x2
 3103 07b8 30       		.byte	0x30
 3104 07b9 9F       		.byte	0x9f
 3105 07ba 3E020000 		.4byte	.LVL117
 3106 07be B4020000 		.4byte	.LFE10
 3107 07c2 0100     		.2byte	0x1
 3108 07c4 54       		.byte	0x54
 3109 07c5 00000000 		.4byte	0
 3110 07c9 00000000 		.4byte	0
 3111              	.LLST21:
 3112 07cd A0000000 		.4byte	.LVL46
 3113 07d1 B4000000 		.4byte	.LVL47
 3114 07d5 1100     		.2byte	0x11
 3115 07d7 49       		.byte	0x49
 3116 07d8 40       		.byte	0x40
 3117 07d9 4B       		.byte	0x4b
 3118 07da 24       		.byte	0x24
 3119 07db 22       		.byte	0x22
 3120 07dc 73       		.byte	0x73
 3121 07dd BF7F     		.sleb128 -65
 3122 07df 08       		.byte	0x8
 3123 07e0 FF       		.byte	0xff
 3124 07e1 1A       		.byte	0x1a
 3125 07e2 40       		.byte	0x40
 3126 07e3 4B       		.byte	0x4b
 3127 07e4 24       		.byte	0x24
 3128 07e5 22       		.byte	0x22
 3129 07e6 2A       		.byte	0x2a
 3130 07e7 9F       		.byte	0x9f
 3131 07e8 D0010000 		.4byte	.LVL98
 3132 07ec D2010000 		.4byte	.LVL99
 3133 07f0 0200     		.2byte	0x2
 3134 07f2 31       		.byte	0x31
ARM GAS  /tmp/ccOnDVUd.s 			page 56


 3135 07f3 9F       		.byte	0x9f
 3136 07f4 E6010000 		.4byte	.LVL102
 3137 07f8 00020000 		.4byte	.LVL105
 3138 07fc 0200     		.2byte	0x2
 3139 07fe 31       		.byte	0x31
 3140 07ff 9F       		.byte	0x9f
 3141 0800 00000000 		.4byte	0
 3142 0804 00000000 		.4byte	0
 3143              	.LLST22:
 3144 0808 4E000000 		.4byte	.LVL34
 3145 080c 5C000000 		.4byte	.LVL35
 3146 0810 0200     		.2byte	0x2
 3147 0812 30       		.byte	0x30
 3148 0813 9F       		.byte	0x9f
 3149 0814 5C000000 		.4byte	.LVL35
 3150 0818 28020000 		.4byte	.LVL114
 3151 081c 0200     		.2byte	0x2
 3152 081e 7D       		.byte	0x7d
 3153 081f 00       		.sleb128 0
 3154 0820 28020000 		.4byte	.LVL114
 3155 0824 2E020000 		.4byte	.LVL115
 3156 0828 0200     		.2byte	0x2
 3157 082a 30       		.byte	0x30
 3158 082b 9F       		.byte	0x9f
 3159 082c 2E020000 		.4byte	.LVL115
 3160 0830 34020000 		.4byte	.LVL116
 3161 0834 0200     		.2byte	0x2
 3162 0836 31       		.byte	0x31
 3163 0837 9F       		.byte	0x9f
 3164 0838 34020000 		.4byte	.LVL116
 3165 083c B4020000 		.4byte	.LFE10
 3166 0840 0200     		.2byte	0x2
 3167 0842 7D       		.byte	0x7d
 3168 0843 00       		.sleb128 0
 3169 0844 00000000 		.4byte	0
 3170 0848 00000000 		.4byte	0
 3171              	.LLST23:
 3172 084c C4000000 		.4byte	.LVL50
 3173 0850 CB000000 		.4byte	.LVL53-1
 3174 0854 0100     		.2byte	0x1
 3175 0856 51       		.byte	0x51
 3176 0857 C2010000 		.4byte	.LVL96
 3177 085b D0010000 		.4byte	.LVL98
 3178 085f 0100     		.2byte	0x1
 3179 0861 51       		.byte	0x51
 3180 0862 70020000 		.4byte	.LVL124
 3181 0866 7E020000 		.4byte	.LVL127
 3182 086a 0100     		.2byte	0x1
 3183 086c 51       		.byte	0x51
 3184 086d 00000000 		.4byte	0
 3185 0871 00000000 		.4byte	0
 3186              	.LLST24:
 3187 0875 00000000 		.4byte	.LVL132
 3188 0879 14000000 		.4byte	.LVL134
 3189 087d 0100     		.2byte	0x1
 3190 087f 50       		.byte	0x50
 3191 0880 14000000 		.4byte	.LVL134
ARM GAS  /tmp/ccOnDVUd.s 			page 57


 3192 0884 17000000 		.4byte	.LVL135-1
 3193 0888 0100     		.2byte	0x1
 3194 088a 51       		.byte	0x51
 3195 088b 17000000 		.4byte	.LVL135-1
 3196 088f 2C000000 		.4byte	.LVL138
 3197 0893 0100     		.2byte	0x1
 3198 0895 55       		.byte	0x55
 3199 0896 2C000000 		.4byte	.LVL138
 3200 089a 34000000 		.4byte	.LFE11
 3201 089e 0400     		.2byte	0x4
 3202 08a0 F3       		.byte	0xf3
 3203 08a1 01       		.uleb128 0x1
 3204 08a2 50       		.byte	0x50
 3205 08a3 9F       		.byte	0x9f
 3206 08a4 00000000 		.4byte	0
 3207 08a8 00000000 		.4byte	0
 3208              	.LLST25:
 3209 08ac 00000000 		.4byte	.LVL132
 3210 08b0 12000000 		.4byte	.LVL133
 3211 08b4 0100     		.2byte	0x1
 3212 08b6 51       		.byte	0x51
 3213 08b7 12000000 		.4byte	.LVL133
 3214 08bb 17000000 		.4byte	.LVL135-1
 3215 08bf 0300     		.2byte	0x3
 3216 08c1 72       		.byte	0x72
 3217 08c2 01       		.sleb128 1
 3218 08c3 9F       		.byte	0x9f
 3219 08c4 17000000 		.4byte	.LVL135-1
 3220 08c8 34000000 		.4byte	.LFE11
 3221 08cc 0400     		.2byte	0x4
 3222 08ce F3       		.byte	0xf3
 3223 08cf 01       		.uleb128 0x1
 3224 08d0 51       		.byte	0x51
 3225 08d1 9F       		.byte	0x9f
 3226 08d2 00000000 		.4byte	0
 3227 08d6 00000000 		.4byte	0
 3228              	.LLST26:
 3229 08da 18000000 		.4byte	.LVL135
 3230 08de 1A000000 		.4byte	.LVL136
 3231 08e2 0300     		.2byte	0x3
 3232 08e4 91       		.byte	0x91
 3233 08e5 44       		.sleb128 -60
 3234 08e6 9F       		.byte	0x9f
 3235 08e7 1A000000 		.4byte	.LVL136
 3236 08eb 23000000 		.4byte	.LVL137-1
 3237 08ef 0100     		.2byte	0x1
 3238 08f1 50       		.byte	0x50
 3239 08f2 23000000 		.4byte	.LVL137-1
 3240 08f6 34000000 		.4byte	.LFE11
 3241 08fa 0300     		.2byte	0x3
 3242 08fc 91       		.byte	0x91
 3243 08fd 44       		.sleb128 -60
 3244 08fe 9F       		.byte	0x9f
 3245 08ff 00000000 		.4byte	0
 3246 0903 00000000 		.4byte	0
 3247              		.section	.debug_aranges,"",%progbits
 3248 0000 2C000000 		.4byte	0x2c
ARM GAS  /tmp/ccOnDVUd.s 			page 58


 3249 0004 0200     		.2byte	0x2
 3250 0006 00000000 		.4byte	.Ldebug_info0
 3251 000a 04       		.byte	0x4
 3252 000b 00       		.byte	0
 3253 000c 0000     		.2byte	0
 3254 000e 0000     		.2byte	0
 3255 0010 00000000 		.4byte	.LFB9
 3256 0014 6A000000 		.4byte	.LFE9-.LFB9
 3257 0018 00000000 		.4byte	.LFB10
 3258 001c B4020000 		.4byte	.LFE10-.LFB10
 3259 0020 00000000 		.4byte	.LFB11
 3260 0024 34000000 		.4byte	.LFE11-.LFB11
 3261 0028 00000000 		.4byte	0
 3262 002c 00000000 		.4byte	0
 3263              		.section	.debug_ranges,"",%progbits
 3264              	.Ldebug_ranges0:
 3265 0000 02000000 		.4byte	.LBB4
 3266 0004 04000000 		.4byte	.LBE4
 3267 0008 0C000000 		.4byte	.LBB8
 3268 000c 0E000000 		.4byte	.LBE8
 3269 0010 14000000 		.4byte	.LBB9
 3270 0014 60000000 		.4byte	.LBE9
 3271 0018 00000000 		.4byte	0
 3272 001c 00000000 		.4byte	0
 3273 0020 00000000 		.4byte	.LFB9
 3274 0024 6A000000 		.4byte	.LFE9
 3275 0028 00000000 		.4byte	.LFB10
 3276 002c B4020000 		.4byte	.LFE10
 3277 0030 00000000 		.4byte	.LFB11
 3278 0034 34000000 		.4byte	.LFE11
 3279 0038 00000000 		.4byte	0
 3280 003c 00000000 		.4byte	0
 3281              		.section	.debug_line,"",%progbits
 3282              	.Ldebug_line0:
 3283 0000 17030000 		.section	.debug_str,"MS",%progbits,1
 3283      0200D201 
 3283      00000201 
 3283      FB0E0D00 
 3283      01010101 
 3284              	.LASF4:
 3285 0000 73697A65 		.ascii	"size_t\000"
 3285      5F7400
 3286              	.LASF5:
 3287 0007 5F5F7569 		.ascii	"__uint8_t\000"
 3287      6E74385F 
 3287      7400
 3288              	.LASF26:
 3289 0011 76615F6C 		.ascii	"va_list\000"
 3289      69737400 
 3290              	.LASF12:
 3291 0019 6C6F6E67 		.ascii	"long long unsigned int\000"
 3291      206C6F6E 
 3291      6720756E 
 3291      7369676E 
 3291      65642069 
 3292              	.LASF1:
 3293 0030 6C6F6E67 		.ascii	"long long int\000"
ARM GAS  /tmp/ccOnDVUd.s 			page 59


 3293      206C6F6E 
 3293      6720696E 
 3293      7400
 3294              	.LASF3:
 3295 003e 7369676E 		.ascii	"signed char\000"
 3295      65642063 
 3295      68617200 
 3296              	.LASF15:
 3297 004a 626F6F6C 		.ascii	"bool_t\000"
 3297      5F7400
 3298              	.LASF39:
 3299 0051 746D7062 		.ascii	"tmpbuf\000"
 3299      756600
 3300              	.LASF10:
 3301 0058 6C6F6E67 		.ascii	"long int\000"
 3301      20696E74 
 3301      00
 3302              	.LASF48:
 3303 0061 6368736E 		.ascii	"chsnprintf\000"
 3303      7072696E 
 3303      746600
 3304              	.LASF25:
 3305 006c 5F5F7661 		.ascii	"__va_list\000"
 3305      5F6C6973 
 3305      7400
 3306              	.LASF41:
 3307 0076 2E2E2F2E 		.ascii	"../../os/various/chprintf.c\000"
 3307      2E2F6F73 
 3307      2F766172 
 3307      696F7573 
 3307      2F636870 
 3308              	.LASF28:
 3309 0092 62756666 		.ascii	"buffer\000"
 3309      657200
 3310              	.LASF34:
 3311 0099 66696C6C 		.ascii	"filler\000"
 3311      657200
 3312              	.LASF37:
 3313 00a0 69735F6C 		.ascii	"is_long\000"
 3313      6F6E6700 
 3314              	.LASF22:
 3315 00a8 42617365 		.ascii	"BaseSequentialStream\000"
 3315      53657175 
 3315      656E7469 
 3315      616C5374 
 3315      7265616D 
 3316              	.LASF0:
 3317 00bd 756E7369 		.ascii	"unsigned int\000"
 3317      676E6564 
 3317      20696E74 
 3317      00
 3318              	.LASF11:
 3319 00ca 6C6F6E67 		.ascii	"long unsigned int\000"
 3319      20756E73 
 3319      69676E65 
 3319      6420696E 
 3319      7400
ARM GAS  /tmp/ccOnDVUd.s 			page 60


 3320              	.LASF38:
 3321 00dc 6C656674 		.ascii	"left_align\000"
 3321      5F616C69 
 3321      676E00
 3322              	.LASF36:
 3323 00e7 77696474 		.ascii	"width\000"
 3323      6800
 3324              	.LASF29:
 3325 00ed 73697A65 		.ascii	"size\000"
 3325      00
 3326              	.LASF8:
 3327 00f2 73686F72 		.ascii	"short unsigned int\000"
 3327      7420756E 
 3327      7369676E 
 3327      65642069 
 3327      6E7400
 3328              	.LASF17:
 3329 0105 6D73675F 		.ascii	"msg_t\000"
 3329      7400
 3330              	.LASF45:
 3331 010b 6C746F61 		.ascii	"ltoa\000"
 3331      00
 3332              	.LASF49:
 3333 0110 6D734F62 		.ascii	"msObjectInit\000"
 3333      6A656374 
 3333      496E6974 
 3333      00
 3334              	.LASF20:
 3335 011d 77726974 		.ascii	"write\000"
 3335      6500
 3336              	.LASF42:
 3337 0123 2F686F6D 		.ascii	"/home/lithium/Documentos/BikeTracker/ChibiOS_2.6.8/"
 3337      652F6C69 
 3337      74686975 
 3337      6D2F446F 
 3337      63756D65 
 3338 0156 64656D6F 		.ascii	"demos/BikeTracker\000"
 3338      732F4269 
 3338      6B655472 
 3338      61636B65 
 3338      7200
 3339              	.LASF18:
 3340 0168 73697A65 		.ascii	"sizetype\000"
 3340      74797065 
 3340      00
 3341              	.LASF2:
 3342 0171 6C6F6E67 		.ascii	"long double\000"
 3342      20646F75 
 3342      626C6500 
 3343              	.LASF47:
 3344 017d 756E7369 		.ascii	"unsigned_common\000"
 3344      676E6564 
 3344      5F636F6D 
 3344      6D6F6E00 
 3345              	.LASF33:
 3346 018d 64697669 		.ascii	"divisor\000"
 3346      736F7200 
ARM GAS  /tmp/ccOnDVUd.s 			page 61


 3347              	.LASF23:
 3348 0195 5F5F676E 		.ascii	"__gnuc_va_list\000"
 3348      75635F76 
 3348      615F6C69 
 3348      737400
 3349              	.LASF27:
 3350 01a4 4D656D53 		.ascii	"MemStreamVMT\000"
 3350      74726561 
 3350      6D564D54 
 3350      00
 3351              	.LASF31:
 3352 01b1 4D656D6F 		.ascii	"MemoryStream\000"
 3352      72795374 
 3352      7265616D 
 3352      00
 3353              	.LASF16:
 3354 01be 5F426F6F 		.ascii	"_Bool\000"
 3354      6C00
 3355              	.LASF14:
 3356 01c4 696E7433 		.ascii	"int32_t\000"
 3356      325F7400 
 3357              	.LASF6:
 3358 01cc 756E7369 		.ascii	"unsigned char\000"
 3358      676E6564 
 3358      20636861 
 3358      7200
 3359              	.LASF7:
 3360 01da 73686F72 		.ascii	"short int\000"
 3360      7420696E 
 3360      7400
 3361              	.LASF24:
 3362 01e4 42617365 		.ascii	"BaseSequentialStreamVMT\000"
 3362      53657175 
 3362      656E7469 
 3362      616C5374 
 3362      7265616D 
 3363              	.LASF32:
 3364 01fc 72616469 		.ascii	"radix\000"
 3364      7800
 3365              	.LASF19:
 3366 0202 63686172 		.ascii	"char\000"
 3366      00
 3367              	.LASF35:
 3368 0207 70726563 		.ascii	"precision\000"
 3368      6973696F 
 3368      6E00
 3369              	.LASF9:
 3370 0211 5F5F696E 		.ascii	"__int32_t\000"
 3370      7433325F 
 3370      7400
 3371              	.LASF30:
 3372 021b 6F666673 		.ascii	"offset\000"
 3372      657400
 3373              	.LASF43:
 3374 0222 5F5F6170 		.ascii	"__ap\000"
 3374      00
 3375              	.LASF40:
ARM GAS  /tmp/ccOnDVUd.s 			page 62


 3376 0227 474E5520 		.ascii	"GNU C11 5.3.1 20160307 (release) [ARM/embedded-5-br"
 3376      43313120 
 3376      352E332E 
 3376      31203230 
 3376      31363033 
 3377 025a 616E6368 		.ascii	"anch revision 234589] -mcpu=cortex-m0 -mno-thumb-in"
 3377      20726576 
 3377      6973696F 
 3377      6E203233 
 3377      34353839 
 3378 028d 74657277 		.ascii	"terwork -mthumb -ggdb -O2 -fomit-frame-pointer -fal"
 3378      6F726B20 
 3378      2D6D7468 
 3378      756D6220 
 3378      2D676764 
 3379 02c0 69676E2D 		.ascii	"ign-functions=16 -ffunction-sections -fdata-section"
 3379      66756E63 
 3379      74696F6E 
 3379      733D3136 
 3379      202D6666 
 3380 02f3 73202D66 		.ascii	"s -fno-common\000"
 3380      6E6F2D63 
 3380      6F6D6D6F 
 3380      6E00
 3381              	.LASF13:
 3382 0301 75696E74 		.ascii	"uint8_t\000"
 3382      385F7400 
 3383              	.LASF46:
 3384 0309 63687670 		.ascii	"chvprintf\000"
 3384      72696E74 
 3384      6600
 3385              	.LASF21:
 3386 0313 72656164 		.ascii	"read\000"
 3386      00
 3387              	.LASF44:
 3388 0318 6C6F6E67 		.ascii	"long_to_string_with_divisor\000"
 3388      5F746F5F 
 3388      73747269 
 3388      6E675F77 
 3388      6974685F 
 3389              		.ident	"GCC: (GNU Tools for ARM Embedded Processors) 5.3.1 20160307 (release) [ARM/embedded-5-bran
ARM GAS  /tmp/ccOnDVUd.s 			page 63


DEFINED SYMBOLS
                            *ABS*:00000000 chprintf.c
     /tmp/ccOnDVUd.s:22     .text.ltoa:00000000 $t
     /tmp/ccOnDVUd.s:27     .text.ltoa:00000000 ltoa
     /tmp/ccOnDVUd.s:161    .text.chvprintf:00000000 $t
     /tmp/ccOnDVUd.s:167    .text.chvprintf:00000000 chvprintf
     /tmp/ccOnDVUd.s:336    .rodata.chvprintf:00000000 $d
     /tmp/ccOnDVUd.s:908    .text.chvprintf:000002a4 $d
     /tmp/ccOnDVUd.s:916    .text.chsnprintf:00000000 $t
     /tmp/ccOnDVUd.s:922    .text.chsnprintf:00000000 chsnprintf
     /tmp/ccOnDVUd.s:978    .rodata.str1.4:00000000 $d
                     .debug_frame:00000010 $d

UNDEFINED SYMBOLS
__aeabi_uidivmod
__aeabi_uidiv
msObjectInit
