ARM GAS  /tmp/ccOnDVUd.s 			page 1


   1              		.syntax unified
   2              		.cpu cortex-m0
   3              		.fpu softvfp
   4              		.eabi_attribute 20, 1
   5              		.eabi_attribute 21, 1
   6              		.eabi_attribute 23, 3
   7              		.eabi_attribute 24, 1
   8              		.eabi_attribute 25, 1
   9              		.eabi_attribute 26, 1
  10              		.eabi_attribute 30, 2
  11              		.eabi_attribute 34, 0
  12              		.eabi_attribute 18, 4
  13              		.thumb
  14              		.syntax unified
  15              		.file	"chprintf.c"
  16              		.text
  17              	.Ltext0:
  18              		.cfi_sections	.debug_frame
  19              		.global	__aeabi_uidivmod
  20              		.global	__aeabi_uidiv
  21              		.section	.text.ltoa,"ax",%progbits
  22              		.align	2
  23              		.p2align 4,,15
  24              		.code	16
  25              		.thumb_func
  26              		.type	ltoa, %function
  27              	ltoa:
  28              	.LFB9:
  29              		.file 1 "../../os/various/chprintf.c"
  30              		.loc 1 70 0
  31              		.cfi_startproc
  32              		@ args = 0, pretend = 0, frame = 0
  33              		@ frame_needed = 0, uses_anonymous_args = 0
  34              	.LVL0:
  35 0000 F0B5     		push	{r4, r5, r6, r7, lr}
  36              		.cfi_def_cfa_offset 20
  37              		.cfi_offset 4, -20
  38              		.cfi_offset 5, -16
  39              		.cfi_offset 6, -12
  40              		.cfi_offset 7, -8
  41              		.cfi_offset 14, -4
  42              	.LBB4:
  43              	.LBB5:
  44              		.loc 1 52 0
  45 0002 0B23     		movs	r3, #11
  46              	.LBE5:
  47              	.LBE4:
  48              		.loc 1 70 0
  49 0004 4546     		mov	r5, r8
  50 0006 8046     		mov	r8, r0
  51 0008 5746     		mov	r7, r10
  52 000a 4E46     		mov	r6, r9
  53              	.LBB8:
  54              	.LBB6:
  55              		.loc 1 52 0
  56 000c 4344     		add	r3, r3, r8
  57              	.LBE6:
ARM GAS  /tmp/ccOnDVUd.s 			page 2


  58              	.LBE8:
  59              		.loc 1 70 0
  60 000e E0B4     		push	{r5, r6, r7}
  61              		.cfi_def_cfa_offset 32
  62              		.cfi_offset 8, -32
  63              		.cfi_offset 9, -28
  64              		.cfi_offset 10, -24
  65              		.loc 1 70 0
  66 0010 9246     		mov	r10, r2
  67              	.LVL1:
  68 0012 0F00     		movs	r7, r1
  69              	.LBB9:
  70              	.LBB7:
  71              		.loc 1 52 0
  72 0014 9946     		mov	r9, r3
  73              	.LVL2:
  74 0016 0E00     		movs	r6, r1
  75 0018 1D00     		movs	r5, r3
  76              	.LVL3:
  77              	.L3:
  78              		.loc 1 54 0
  79 001a 5146     		mov	r1, r10
  80 001c 3800     		movs	r0, r7
  81 001e FFF7FEFF 		bl	__aeabi_uidivmod
  82              	.LVL4:
  83              		.loc 1 55 0
  84 0022 0C00     		movs	r4, r1
  85 0024 3034     		adds	r4, r4, #48
  86              	.LVL5:
  87              		.loc 1 56 0
  88 0026 392C     		cmp	r4, #57
  89 0028 01DD     		ble	.L2
  90              		.loc 1 57 0
  91 002a 3731     		adds	r1, r1, #55
  92 002c 0C00     		movs	r4, r1
  93              	.LVL6:
  94              	.L2:
  95              		.loc 1 58 0
  96 002e 013D     		subs	r5, r5, #1
  97              	.LVL7:
  98 0030 E4B2     		uxtb	r4, r4
  99              	.LVL8:
 100              		.loc 1 59 0
 101 0032 5146     		mov	r1, r10
 102 0034 3800     		movs	r0, r7
 103              		.loc 1 58 0
 104 0036 2C70     		strb	r4, [r5]
 105              		.loc 1 59 0
 106 0038 FFF7FEFF 		bl	__aeabi_uidiv
 107              	.LVL9:
 108              		.loc 1 60 0
 109 003c 5146     		mov	r1, r10
 110              		.loc 1 59 0
 111 003e 0700     		movs	r7, r0
 112              	.LVL10:
 113              		.loc 1 60 0
 114 0040 3000     		movs	r0, r6
ARM GAS  /tmp/ccOnDVUd.s 			page 3


 115              	.LVL11:
 116 0042 FFF7FEFF 		bl	__aeabi_uidiv
 117              	.LVL12:
 118 0046 061E     		subs	r6, r0, #0
 119              	.LVL13:
 120 0048 E7D1     		bne	.L3
 121              	.LVL14:
 122 004a 4A46     		mov	r2, r9
 123 004c 4346     		mov	r3, r8
 124 004e 501B     		subs	r0, r2, r5
 125              	.LVL15:
 126 0050 1818     		adds	r0, r3, r0
 127              	.LVL16:
 128 0052 00E0     		b	.L5
 129              	.LVL17:
 130              	.L8:
 131 0054 2C78     		ldrb	r4, [r5]
 132              	.LVL18:
 133              	.L5:
 134              		.loc 1 64 0
 135 0056 1C70     		strb	r4, [r3]
 136 0058 0133     		adds	r3, r3, #1
 137              	.LVL19:
 138 005a 0135     		adds	r5, r5, #1
 139              	.LVL20:
 140              		.loc 1 65 0
 141 005c 9842     		cmp	r0, r3
 142 005e F9D1     		bne	.L8
 143              	.LVL21:
 144              	.LBE7:
 145              	.LBE9:
 146              		.loc 1 73 0
 147              		@ sp needed
 148              	.LVL22:
 149              	.LVL23:
 150              	.LVL24:
 151              	.LVL25:
 152 0060 1CBC     		pop	{r2, r3, r4}
 153 0062 9046     		mov	r8, r2
 154 0064 9946     		mov	r9, r3
 155 0066 A246     		mov	r10, r4
 156 0068 F0BD     		pop	{r4, r5, r6, r7, pc}
 157              		.cfi_endproc
 158              	.LFE9:
 159              		.size	ltoa, .-ltoa
 160 006a C046     		.section	.text.chvprintf,"ax",%progbits
 161              		.align	2
 162              		.p2align 4,,15
 163              		.global	chvprintf
 164              		.code	16
 165              		.thumb_func
 166              		.type	chvprintf, %function
 167              	chvprintf:
 168              	.LFB10:
 169              		.loc 1 112 0
 170              		.cfi_startproc
 171              		@ args = 0, pretend = 0, frame = 24
ARM GAS  /tmp/ccOnDVUd.s 			page 4


 172              		@ frame_needed = 0, uses_anonymous_args = 0
 173              	.LVL26:
 174 0000 F0B5     		push	{r4, r5, r6, r7, lr}
 175              		.cfi_def_cfa_offset 20
 176              		.cfi_offset 4, -20
 177              		.cfi_offset 5, -16
 178              		.cfi_offset 6, -12
 179              		.cfi_offset 7, -8
 180              		.cfi_offset 14, -4
 181 0002 5F46     		mov	r7, fp
 182 0004 5646     		mov	r6, r10
 183 0006 4D46     		mov	r5, r9
 184 0008 4446     		mov	r4, r8
 185 000a 8B46     		mov	fp, r1
 186 000c F0B4     		push	{r4, r5, r6, r7}
 187              		.cfi_def_cfa_offset 36
 188              		.cfi_offset 8, -36
 189              		.cfi_offset 9, -32
 190              		.cfi_offset 10, -28
 191              		.cfi_offset 11, -24
 192 000e 0600     		movs	r6, r0
 193 0010 87B0     		sub	sp, sp, #28
 194              		.cfi_def_cfa_offset 64
 195 0012 02AB     		add	r3, sp, #8
 196              		.loc 1 112 0
 197 0014 1700     		movs	r7, r2
 198 0016 0533     		adds	r3, r3, #5
 199 0018 03AA     		add	r2, sp, #12
 200              	.LVL27:
 201 001a 9B1A     		subs	r3, r3, r2
 202 001c 0193     		str	r3, [sp, #4]
 203              	.LVL28:
 204              	.L10:
 205              		.loc 1 125 0
 206 001e 5B46     		mov	r3, fp
 207 0020 1978     		ldrb	r1, [r3]
 208 0022 5D1C     		adds	r5, r3, #1
 209              	.LVL29:
 210              		.loc 1 126 0
 211 0024 0029     		cmp	r1, #0
 212 0026 0BD0     		beq	.L9
 213              	.L92:
 214              		.loc 1 128 0
 215 0028 2529     		cmp	r1, #37
 216 002a 10D0     		beq	.L12
 217              		.loc 1 125 0
 218 002c AB46     		mov	fp, r5
 219              		.loc 1 129 0
 220 002e 3368     		ldr	r3, [r6]
 221 0030 3000     		movs	r0, r6
 222 0032 9B68     		ldr	r3, [r3, #8]
 223 0034 9847     		blx	r3
 224              	.LVL30:
 225              		.loc 1 125 0
 226 0036 5B46     		mov	r3, fp
 227 0038 1978     		ldrb	r1, [r3]
 228 003a 5D1C     		adds	r5, r3, #1
ARM GAS  /tmp/ccOnDVUd.s 			page 5


 229              	.LVL31:
 230              		.loc 1 126 0
 231 003c 0029     		cmp	r1, #0
 232 003e F3D1     		bne	.L92
 233              	.L9:
 234              		.loc 1 261 0
 235 0040 07B0     		add	sp, sp, #28
 236              		@ sp needed
 237              	.LVL32:
 238              	.LVL33:
 239 0042 3CBC     		pop	{r2, r3, r4, r5}
 240 0044 9046     		mov	r8, r2
 241 0046 9946     		mov	r9, r3
 242 0048 A246     		mov	r10, r4
 243 004a AB46     		mov	fp, r5
 244 004c F0BD     		pop	{r4, r5, r6, r7, pc}
 245              	.LVL34:
 246              	.L12:
 247              		.loc 1 135 0
 248 004e 5B46     		mov	r3, fp
 249 0050 5B78     		ldrb	r3, [r3, #1]
 250 0052 2D2B     		cmp	r3, #45
 251 0054 00D1     		bne	.LCB259
 252 0056 E7E0     		b	.L93	@long jump
 253              	.LCB259:
 254              		.loc 1 134 0
 255 0058 0022     		movs	r2, #0
 256 005a 0092     		str	r2, [sp]
 257              	.LVL35:
 258              	.L14:
 259              		.loc 1 139 0
 260 005c 2022     		movs	r2, #32
 261 005e 9246     		mov	r10, r2
 262              		.loc 1 140 0
 263 0060 1A00     		movs	r2, r3
 264 0062 FD21     		movs	r1, #253
 265              	.LVL36:
 266 0064 2E3A     		subs	r2, r2, #46
 267 0066 0A42     		tst	r2, r1
 268 0068 24D0     		beq	.L94
 269              	.LVL37:
 270              	.L15:
 271              		.loc 1 144 0
 272 006a 0024     		movs	r4, #0
 273 006c 06E0     		b	.L18
 274              	.LVL38:
 275              	.L95:
 276              		.loc 1 150 0
 277 006e 3A78     		ldrb	r2, [r7]
 278              	.LVL39:
 279 0070 0437     		adds	r7, r7, #4
 280              	.LVL40:
 281              	.L16:
 282              		.loc 1 153 0
 283 0072 A300     		lsls	r3, r4, #2
 284 0074 1C19     		adds	r4, r3, r4
 285              	.LVL41:
ARM GAS  /tmp/ccOnDVUd.s 			page 6


 286 0076 6400     		lsls	r4, r4, #1
 287 0078 2B78     		ldrb	r3, [r5]
 288 007a 1419     		adds	r4, r2, r4
 289              	.LVL42:
 290              	.L18:
 291              		.loc 1 147 0
 292 007c 1A00     		movs	r2, r3
 293 007e 303A     		subs	r2, r2, #48
 294 0080 D2B2     		uxtb	r2, r2
 295              		.loc 1 146 0
 296 0082 0135     		adds	r5, r5, #1
 297              	.LVL43:
 298              		.loc 1 147 0
 299 0084 092A     		cmp	r2, #9
 300 0086 F4D9     		bls	.L16
 301              		.loc 1 149 0
 302 0088 2A2B     		cmp	r3, #42
 303 008a F0D0     		beq	.L95
 304              	.LVL44:
 305              		.loc 1 155 0
 306 008c 0022     		movs	r2, #0
 307 008e 9146     		mov	r9, r2
 308              		.loc 1 156 0
 309 0090 2E2B     		cmp	r3, #46
 310 0092 00D1     		bne	.LCB331
 311 0094 B4E0     		b	.L96	@long jump
 312              	.LCB331:
 313              	.LVL45:
 314              	.L19:
 315              		.loc 1 170 0
 316 0096 DF22     		movs	r2, #223
 317 0098 1A40     		ands	r2, r3
 318 009a 4C2A     		cmp	r2, #76
 319 009c 00D1     		bne	.LCB343
 320 009e A2E0     		b	.L97	@long jump
 321              	.LCB343:
 322              	.LVL46:
 323              		.loc 1 179 0
 324 00a0 1A00     		movs	r2, r3
 325 00a2 443A     		subs	r2, r2, #68
 326 00a4 D2B2     		uxtb	r2, r2
 327 00a6 342A     		cmp	r2, #52
 328 00a8 00D9     		bls	.LCB352
 329 00aa 92E0     		b	.L24	@long jump
 330              	.LCB352:
 331 00ac 7D48     		ldr	r0, .L104
 332 00ae 9200     		lsls	r2, r2, #2
 333 00b0 8258     		ldr	r2, [r0, r2]
 334 00b2 9746     		mov	pc, r2
 335              		.section	.rodata.chvprintf,"a",%progbits
 336              		.align	2
 337              	.L33:
 338 0000 C0010000 		.word	.L41
 339 0004 D2010000 		.word	.L24
 340 0008 D2010000 		.word	.L24
 341 000c D2010000 		.word	.L24
 342 0010 D2010000 		.word	.L24
ARM GAS  /tmp/ccOnDVUd.s 			page 7


 343 0014 C0010000 		.word	.L41
 344 0018 D2010000 		.word	.L24
 345 001c D2010000 		.word	.L24
 346 0020 D2010000 		.word	.L24
 347 0024 D2010000 		.word	.L24
 348 0028 D2010000 		.word	.L24
 349 002c BA010000 		.word	.L27
 350 0030 D2010000 		.word	.L24
 351 0034 D2010000 		.word	.L24
 352 0038 D2010000 		.word	.L24
 353 003c D2010000 		.word	.L24
 354 0040 D2010000 		.word	.L24
 355 0044 B4010000 		.word	.L28
 356 0048 D2010000 		.word	.L24
 357 004c D2010000 		.word	.L24
 358 0050 BE000000 		.word	.L66
 359 0054 D2010000 		.word	.L24
 360 0058 D2010000 		.word	.L24
 361 005c D2010000 		.word	.L24
 362 0060 D2010000 		.word	.L24
 363 0064 D2010000 		.word	.L24
 364 0068 D2010000 		.word	.L24
 365 006c D2010000 		.word	.L24
 366 0070 D2010000 		.word	.L24
 367 0074 D2010000 		.word	.L24
 368 0078 D2010000 		.word	.L24
 369 007c 48010000 		.word	.L30
 370 0080 C0010000 		.word	.L41
 371 0084 D2010000 		.word	.L24
 372 0088 D2010000 		.word	.L24
 373 008c D2010000 		.word	.L24
 374 0090 D2010000 		.word	.L24
 375 0094 C0010000 		.word	.L41
 376 0098 D2010000 		.word	.L24
 377 009c D2010000 		.word	.L24
 378 00a0 D2010000 		.word	.L24
 379 00a4 D2010000 		.word	.L24
 380 00a8 D2010000 		.word	.L24
 381 00ac BA010000 		.word	.L27
 382 00b0 D2010000 		.word	.L24
 383 00b4 D2010000 		.word	.L24
 384 00b8 D2010000 		.word	.L24
 385 00bc 78010000 		.word	.L31
 386 00c0 D2010000 		.word	.L24
 387 00c4 B4010000 		.word	.L28
 388 00c8 D2010000 		.word	.L24
 389 00cc D2010000 		.word	.L24
 390 00d0 BE000000 		.word	.L66
 391              		.section	.text.chvprintf
 392              	.LVL47:
 393              	.L94:
 394              		.loc 1 142 0
 395 00b4 3022     		movs	r2, #48
 396 00b6 6B78     		ldrb	r3, [r5, #1]
 397 00b8 9246     		mov	r10, r2
 398              		.loc 1 141 0
 399 00ba 0135     		adds	r5, r5, #1
ARM GAS  /tmp/ccOnDVUd.s 			page 8


 400              	.LVL48:
 401 00bc D5E7     		b	.L15
 402              	.L34:
 403              	.LVL49:
 404              	.L66:
 405              		.loc 1 173 0
 406 00be AB46     		mov	fp, r5
 407              		.loc 1 179 0
 408 00c0 1022     		movs	r2, #16
 409              	.L44:
 410              		.loc 1 232 0
 411 00c2 3968     		ldr	r1, [r7]
 412              	.LVL50:
 413              		.loc 1 233 0
 414 00c4 03A8     		add	r0, sp, #12
 415              	.LVL51:
 416              		.loc 1 232 0
 417 00c6 0437     		adds	r7, r7, #4
 418              	.LVL52:
 419              	.L89:
 420              		.loc 1 233 0
 421 00c8 FFF7FEFF 		bl	ltoa
 422              	.LVL53:
 423 00cc 03AB     		add	r3, sp, #12
 424              	.LVL54:
 425 00ce C21A     		subs	r2, r0, r3
 426 00d0 531E     		subs	r3, r2, #1
 427              	.LVL55:
 428 00d2 9946     		mov	r9, r3
 429              	.LVL56:
 430              		.loc 1 133 0
 431 00d4 03AB     		add	r3, sp, #12
 432              	.LVL57:
 433 00d6 9846     		mov	r8, r3
 434              	.LVL58:
 435              	.L35:
 436              		.loc 1 240 0
 437 00d8 A41A     		subs	r4, r4, r2
 438              	.LVL59:
 439 00da E343     		mvns	r3, r4
 440 00dc DB17     		asrs	r3, r3, #31
 441 00de 1C40     		ands	r4, r3
 442              	.LVL60:
 443              		.loc 1 242 0
 444 00e0 009B     		ldr	r3, [sp]
 445 00e2 002B     		cmp	r3, #0
 446 00e4 44D1     		bne	.L47
 447              	.LVL61:
 448              	.L59:
 449              		.loc 1 243 0
 450 00e6 6442     		rsbs	r4, r4, #0
 451              	.LVL62:
 452              		.loc 1 244 0
 453 00e8 002C     		cmp	r4, #0
 454 00ea 00D1     		bne	.LCB453
 455 00ec A2E0     		b	.L48	@long jump
 456              	.LCB453:
ARM GAS  /tmp/ccOnDVUd.s 			page 9


 457              		.loc 1 245 0
 458 00ee 4346     		mov	r3, r8
 459 00f0 1B78     		ldrb	r3, [r3]
 460 00f2 2D2B     		cmp	r3, #45
 461 00f4 00D1     		bne	.LCB457
 462 00f6 A2E0     		b	.L98	@long jump
 463              	.LCB457:
 464              	.L86:
 465 00f8 5546     		mov	r5, r10
 466              	.LVL63:
 467              	.L50:
 468              		.loc 1 250 0 discriminator 1
 469 00fa 3368     		ldr	r3, [r6]
 470 00fc 2900     		movs	r1, r5
 471 00fe 9B68     		ldr	r3, [r3, #8]
 472 0100 3000     		movs	r0, r6
 473              		.loc 1 251 0 discriminator 1
 474 0102 0134     		adds	r4, r4, #1
 475              	.LVL64:
 476              		.loc 1 250 0 discriminator 1
 477 0104 9847     		blx	r3
 478              	.LVL65:
 479              		.loc 1 251 0 discriminator 1
 480 0106 002C     		cmp	r4, #0
 481 0108 F7D1     		bne	.L50
 482              		.loc 1 253 0
 483 010a 4B46     		mov	r3, r9
 484 010c AA46     		mov	r10, r5
 485              	.LVL66:
 486 010e 002B     		cmp	r3, #0
 487 0110 00DA     		bge	.LCB486
 488 0112 84E7     		b	.L10	@long jump
 489              	.LCB486:
 490              	.LVL67:
 491              	.L57:
 492 0114 4546     		mov	r5, r8
 493 0116 A046     		mov	r8, r4
 494              	.LVL68:
 495 0118 2C00     		movs	r4, r5
 496 011a 4D46     		mov	r5, r9
 497              	.LVL69:
 498              	.L53:
 499              		.loc 1 254 0
 500 011c 3368     		ldr	r3, [r6]
 501 011e 2178     		ldrb	r1, [r4]
 502 0120 9B68     		ldr	r3, [r3, #8]
 503 0122 3000     		movs	r0, r6
 504 0124 9847     		blx	r3
 505              	.LVL70:
 506 0126 0134     		adds	r4, r4, #1
 507              	.LVL71:
 508              		.loc 1 253 0
 509 0128 013D     		subs	r5, r5, #1
 510 012a F7D2     		bcs	.L53
 511              	.LVL72:
 512 012c 4446     		mov	r4, r8
 513              	.LVL73:
ARM GAS  /tmp/ccOnDVUd.s 			page 10


 514              	.L52:
 515              		.loc 1 256 0
 516 012e 002C     		cmp	r4, #0
 517 0130 00D1     		bne	.LCB530
 518 0132 74E7     		b	.L10	@long jump
 519              	.LCB530:
 520 0134 5546     		mov	r5, r10
 521              	.L54:
 522              		.loc 1 257 0
 523 0136 3368     		ldr	r3, [r6]
 524 0138 2900     		movs	r1, r5
 525 013a 9B68     		ldr	r3, [r3, #8]
 526 013c 3000     		movs	r0, r6
 527              		.loc 1 258 0
 528 013e 013C     		subs	r4, r4, #1
 529              	.LVL74:
 530              		.loc 1 257 0
 531 0140 9847     		blx	r3
 532              	.LVL75:
 533              		.loc 1 256 0
 534 0142 002C     		cmp	r4, #0
 535 0144 F7D1     		bne	.L54
 536 0146 6AE7     		b	.L10
 537              	.LVL76:
 538              	.L30:
 539              		.loc 1 182 0
 540 0148 3A78     		ldrb	r2, [r7]
 541 014a 02AB     		add	r3, sp, #8
 542 014c 1A71     		strb	r2, [r3, #4]
 543 014e 019B     		ldr	r3, [sp, #4]
 544 0150 0437     		adds	r7, r7, #4
 545 0152 1A00     		movs	r2, r3
 546 0154 013B     		subs	r3, r3, #1
 547 0156 9946     		mov	r9, r3
 548              	.LVL77:
 549              		.loc 1 181 0
 550 0158 2023     		movs	r3, #32
 551              		.loc 1 240 0
 552 015a A41A     		subs	r4, r4, r2
 553              	.LVL78:
 554              		.loc 1 181 0
 555 015c 9A46     		mov	r10, r3
 556              		.loc 1 133 0
 557 015e 03AB     		add	r3, sp, #12
 558              	.LVL79:
 559 0160 9846     		mov	r8, r3
 560              	.LVL80:
 561 0162 E343     		mvns	r3, r4
 562              	.LVL81:
 563 0164 DB17     		asrs	r3, r3, #31
 564 0166 1C40     		ands	r4, r3
 565              	.LVL82:
 566              		.loc 1 242 0
 567 0168 009B     		ldr	r3, [sp]
 568              		.loc 1 183 0
 569 016a AB46     		mov	fp, r5
 570              		.loc 1 242 0
ARM GAS  /tmp/ccOnDVUd.s 			page 11


 571 016c 002B     		cmp	r3, #0
 572 016e BAD0     		beq	.L59
 573              	.L47:
 574              		.loc 1 253 0
 575 0170 4B46     		mov	r3, r9
 576 0172 002B     		cmp	r3, #0
 577 0174 CEDA     		bge	.L57
 578 0176 DAE7     		b	.L52
 579              	.LVL83:
 580              	.L31:
 581              		.loc 1 186 0
 582 0178 3B68     		ldr	r3, [r7]
 583 017a 391D     		adds	r1, r7, #4
 584 017c 9846     		mov	r8, r3
 585              	.LVL84:
 586 017e 002B     		cmp	r3, #0
 587 0180 7DD0     		beq	.L99
 588              	.LVL85:
 589              	.L36:
 590              		.loc 1 188 0
 591 0182 4B46     		mov	r3, r9
 592 0184 002B     		cmp	r3, #0
 593 0186 6CD1     		bne	.L100
 594              	.LVL86:
 595              		.loc 1 190 0
 596 0188 4346     		mov	r3, r8
 597 018a 1B78     		ldrb	r3, [r3]
 598 018c 002B     		cmp	r3, #0
 599 018e 79D0     		beq	.L38
 600 0190 454B     		ldr	r3, .L104+4
 601              	.LVL87:
 602              	.L56:
 603              		.loc 1 190 0 is_stmt 0 discriminator 4
 604 0192 4246     		mov	r2, r8
 605 0194 01E0     		b	.L40
 606              	.LVL88:
 607              	.L101:
 608              		.loc 1 190 0 discriminator 3
 609 0196 013B     		subs	r3, r3, #1
 610 0198 03D3     		bcc	.L88
 611              	.LVL89:
 612              	.L40:
 613              		.loc 1 190 0 discriminator 4
 614 019a 0132     		adds	r2, r2, #1
 615              	.LVL90:
 616 019c 1078     		ldrb	r0, [r2]
 617 019e 0028     		cmp	r0, #0
 618 01a0 F9D1     		bne	.L101
 619              	.L88:
 620 01a2 4346     		mov	r3, r8
 621              	.LVL91:
 622 01a4 D21A     		subs	r2, r2, r3
 623              	.LVL92:
 624 01a6 531E     		subs	r3, r2, #1
 625 01a8 9946     		mov	r9, r3
 626              		.loc 1 185 0 is_stmt 1
 627 01aa 2023     		movs	r3, #32
ARM GAS  /tmp/ccOnDVUd.s 			page 12


 628              		.loc 1 186 0
 629 01ac 0F00     		movs	r7, r1
 630              		.loc 1 190 0
 631 01ae AB46     		mov	fp, r5
 632              		.loc 1 185 0
 633 01b0 9A46     		mov	r10, r3
 634 01b2 91E7     		b	.L35
 635              	.LVL93:
 636              	.L28:
 637              		.loc 1 224 0
 638 01b4 AB46     		mov	fp, r5
 639 01b6 0A22     		movs	r2, #10
 640 01b8 83E7     		b	.L44
 641              	.LVL94:
 642              	.L27:
 643 01ba AB46     		mov	fp, r5
 644 01bc 0822     		movs	r2, #8
 645 01be 80E7     		b	.L44
 646              	.LVL95:
 647              	.L41:
 648              		.loc 1 200 0
 649 01c0 3968     		ldr	r1, [r7]
 650              	.LVL96:
 651 01c2 AB46     		mov	fp, r5
 652 01c4 0437     		adds	r7, r7, #4
 653              		.loc 1 132 0
 654 01c6 03A8     		add	r0, sp, #12
 655              	.LVL97:
 656              		.loc 1 201 0
 657 01c8 0029     		cmp	r1, #0
 658 01ca 51DB     		blt	.L102
 659              		.loc 1 205 0
 660 01cc 0A22     		movs	r2, #10
 661 01ce 7BE7     		b	.L89
 662              	.LVL98:
 663              	.L63:
 664              		.loc 1 179 0
 665 01d0 1300     		movs	r3, r2
 666              	.LVL99:
 667              	.L24:
 668              		.loc 1 236 0
 669 01d2 02AA     		add	r2, sp, #8
 670 01d4 1371     		strb	r3, [r2, #4]
 671 01d6 019B     		ldr	r3, [sp, #4]
 672              		.loc 1 237 0
 673 01d8 AB46     		mov	fp, r5
 674 01da 1A00     		movs	r2, r3
 675 01dc 013B     		subs	r3, r3, #1
 676 01de 9946     		mov	r9, r3
 677              	.LVL100:
 678              		.loc 1 133 0
 679 01e0 03AB     		add	r3, sp, #12
 680              	.LVL101:
 681 01e2 9846     		mov	r8, r3
 682              		.loc 1 237 0
 683 01e4 78E7     		b	.L35
 684              	.LVL102:
ARM GAS  /tmp/ccOnDVUd.s 			page 13


 685              	.L97:
 686              		.loc 1 172 0
 687 01e6 2A78     		ldrb	r2, [r5]
 688 01e8 002A     		cmp	r2, #0
 689 01ea F2D0     		beq	.L24
 690              		.loc 1 179 0
 691 01ec 1300     		movs	r3, r2
 692              	.LVL103:
 693 01ee 443B     		subs	r3, r3, #68
 694 01f0 DBB2     		uxtb	r3, r3
 695              		.loc 1 173 0
 696 01f2 0135     		adds	r5, r5, #1
 697              	.LVL104:
 698              		.loc 1 179 0
 699 01f4 342B     		cmp	r3, #52
 700 01f6 EBD8     		bhi	.L63
 701 01f8 2C49     		ldr	r1, .L104+8
 702 01fa 9B00     		lsls	r3, r3, #2
 703 01fc CB58     		ldr	r3, [r1, r3]
 704 01fe 9F46     		mov	pc, r3
 705              		.section	.rodata.chvprintf
 706              		.align	2
 707              	.L26:
 708 00d4 C0010000 		.word	.L41
 709 00d8 D0010000 		.word	.L63
 710 00dc D0010000 		.word	.L63
 711 00e0 D0010000 		.word	.L63
 712 00e4 D0010000 		.word	.L63
 713 00e8 C0010000 		.word	.L41
 714 00ec D0010000 		.word	.L63
 715 00f0 D0010000 		.word	.L63
 716 00f4 D0010000 		.word	.L63
 717 00f8 D0010000 		.word	.L63
 718 00fc D0010000 		.word	.L63
 719 0100 BA010000 		.word	.L27
 720 0104 D0010000 		.word	.L63
 721 0108 D0010000 		.word	.L63
 722 010c D0010000 		.word	.L63
 723 0110 D0010000 		.word	.L63
 724 0114 D0010000 		.word	.L63
 725 0118 B4010000 		.word	.L28
 726 011c D0010000 		.word	.L63
 727 0120 D0010000 		.word	.L63
 728 0124 BE000000 		.word	.L66
 729 0128 D0010000 		.word	.L63
 730 012c D0010000 		.word	.L63
 731 0130 D0010000 		.word	.L63
 732 0134 D0010000 		.word	.L63
 733 0138 D0010000 		.word	.L63
 734 013c D0010000 		.word	.L63
 735 0140 D0010000 		.word	.L63
 736 0144 D0010000 		.word	.L63
 737 0148 D0010000 		.word	.L63
 738 014c D0010000 		.word	.L63
 739 0150 48010000 		.word	.L30
 740 0154 C0010000 		.word	.L41
 741 0158 D0010000 		.word	.L63
ARM GAS  /tmp/ccOnDVUd.s 			page 14


 742 015c D0010000 		.word	.L63
 743 0160 D0010000 		.word	.L63
 744 0164 D0010000 		.word	.L63
 745 0168 C0010000 		.word	.L41
 746 016c D0010000 		.word	.L63
 747 0170 D0010000 		.word	.L63
 748 0174 D0010000 		.word	.L63
 749 0178 D0010000 		.word	.L63
 750 017c D0010000 		.word	.L63
 751 0180 BA010000 		.word	.L27
 752 0184 D0010000 		.word	.L63
 753 0188 D0010000 		.word	.L63
 754 018c D0010000 		.word	.L63
 755 0190 78010000 		.word	.L31
 756 0194 D0010000 		.word	.L63
 757 0198 B4010000 		.word	.L28
 758 019c D0010000 		.word	.L63
 759 01a0 D0010000 		.word	.L63
 760 01a4 BE000000 		.word	.L66
 761              		.section	.text.chvprintf
 762              	.LVL105:
 763              	.L96:
 764 0200 1000     		movs	r0, r2
 765 0202 05E0     		b	.L21
 766              	.LVL106:
 767              	.L103:
 768              		.loc 1 162 0
 769 0204 3A78     		ldrb	r2, [r7]
 770              	.LVL107:
 771 0206 0437     		adds	r7, r7, #4
 772              	.LVL108:
 773              	.L20:
 774              		.loc 1 165 0
 775 0208 8300     		lsls	r3, r0, #2
 776 020a 1818     		adds	r0, r3, r0
 777              	.LVL109:
 778 020c 4000     		lsls	r0, r0, #1
 779              	.LVL110:
 780              		.loc 1 166 0
 781 020e 1018     		adds	r0, r2, r0
 782              	.LVL111:
 783              	.L21:
 784              		.loc 1 158 0
 785 0210 0135     		adds	r5, r5, #1
 786              	.LVL112:
 787 0212 6B1E     		subs	r3, r5, #1
 788 0214 1B78     		ldrb	r3, [r3]
 789              	.LVL113:
 790              		.loc 1 159 0
 791 0216 1A00     		movs	r2, r3
 792 0218 303A     		subs	r2, r2, #48
 793 021a D2B2     		uxtb	r2, r2
 794 021c 092A     		cmp	r2, #9
 795 021e F3D9     		bls	.L20
 796              		.loc 1 161 0
 797 0220 2A2B     		cmp	r3, #42
 798 0222 EFD0     		beq	.L103
ARM GAS  /tmp/ccOnDVUd.s 			page 15


 799 0224 8146     		mov	r9, r0
 800 0226 36E7     		b	.L19
 801              	.LVL114:
 802              	.L93:
 803              		.loc 1 136 0
 804 0228 5B46     		mov	r3, fp
 805              		.loc 1 137 0
 806 022a 0122     		movs	r2, #1
 807              		.loc 1 136 0
 808 022c 9D1C     		adds	r5, r3, #2
 809              	.LVL115:
 810              		.loc 1 137 0
 811 022e 0092     		str	r2, [sp]
 812 0230 9B78     		ldrb	r3, [r3, #2]
 813 0232 13E7     		b	.L14
 814              	.LVL116:
 815              	.L48:
 816              		.loc 1 253 0
 817 0234 4B46     		mov	r3, r9
 818 0236 002B     		cmp	r3, #0
 819 0238 00DB     		blt	.LCB869
 820 023a 6BE7     		b	.L57	@long jump
 821              	.LCB869:
 822 023c EFE6     		b	.L10
 823              	.LVL117:
 824              	.L98:
 825              		.loc 1 245 0 discriminator 1
 826 023e 5346     		mov	r3, r10
 827 0240 302B     		cmp	r3, #48
 828 0242 00D0     		beq	.LCB880
 829 0244 58E7     		b	.L86	@long jump
 830              	.LCB880:
 831              		.loc 1 246 0
 832 0246 2F3B     		subs	r3, r3, #47
 833 0248 9C46     		mov	ip, r3
 834 024a 3368     		ldr	r3, [r6]
 835 024c 2D21     		movs	r1, #45
 836 024e 9B68     		ldr	r3, [r3, #8]
 837 0250 3000     		movs	r0, r6
 838 0252 E044     		add	r8, r8, ip
 839              	.LVL118:
 840 0254 9847     		blx	r3
 841              	.LVL119:
 842 0256 0123     		movs	r3, #1
 843 0258 5B42     		rsbs	r3, r3, #0
 844 025a 9C46     		mov	ip, r3
 845 025c 5546     		mov	r5, r10
 846              	.LVL120:
 847 025e E144     		add	r9, r9, ip
 848 0260 4BE7     		b	.L50
 849              	.LVL121:
 850              	.L100:
 851              		.loc 1 190 0 discriminator 1
 852 0262 4346     		mov	r3, r8
 853              	.LVL122:
 854 0264 1B78     		ldrb	r3, [r3]
 855 0266 002B     		cmp	r3, #0
ARM GAS  /tmp/ccOnDVUd.s 			page 16


 856 0268 0CD0     		beq	.L38
 857              		.loc 1 190 0 is_stmt 0
 858 026a 4B46     		mov	r3, r9
 859 026c 013B     		subs	r3, r3, #1
 860              	.LVL123:
 861 026e 90E7     		b	.L56
 862              	.LVL124:
 863              	.L102:
 864              		.loc 1 202 0 is_stmt 1
 865 0270 2D23     		movs	r3, #45
 866 0272 02AA     		add	r2, sp, #8
 867 0274 1371     		strb	r3, [r2, #4]
 868 0276 501D     		adds	r0, r2, #5
 869              	.LVL125:
 870              		.loc 1 203 0
 871 0278 4942     		rsbs	r1, r1, #0
 872              	.LVL126:
 873              		.loc 1 205 0
 874 027a 0A22     		movs	r2, #10
 875 027c 24E7     		b	.L89
 876              	.LVL127:
 877              	.L99:
 878              		.loc 1 187 0
 879 027e 0C4B     		ldr	r3, .L104+12
 880              	.LVL128:
 881 0280 9846     		mov	r8, r3
 882              	.LVL129:
 883 0282 7EE7     		b	.L36
 884              	.LVL130:
 885              	.L38:
 886 0284 E343     		mvns	r3, r4
 887 0286 DB17     		asrs	r3, r3, #31
 888 0288 1C40     		ands	r4, r3
 889              	.LVL131:
 890              		.loc 1 242 0
 891 028a 009B     		ldr	r3, [sp]
 892 028c AB46     		mov	fp, r5
 893 028e 0F00     		movs	r7, r1
 894 0290 002B     		cmp	r3, #0
 895 0292 04D1     		bne	.L71
 896 0294 013B     		subs	r3, r3, #1
 897 0296 9946     		mov	r9, r3
 898 0298 2133     		adds	r3, r3, #33
 899 029a 9A46     		mov	r10, r3
 900 029c 23E7     		b	.L59
 901              	.L71:
 902 029e 2023     		movs	r3, #32
 903 02a0 9A46     		mov	r10, r3
 904 02a2 44E7     		b	.L52
 905              	.L105:
 906              		.align	2
 907              	.L104:
 908 02a4 00000000 		.word	.L33
 909 02a8 FE7F0000 		.word	32766
 910 02ac D4000000 		.word	.L26
 911 02b0 00000000 		.word	.LC2
 912              		.cfi_endproc
ARM GAS  /tmp/ccOnDVUd.s 			page 17


 913              	.LFE10:
 914              		.size	chvprintf, .-chvprintf
 915              		.section	.text.chsnprintf,"ax",%progbits
 916              		.align	2
 917              		.p2align 4,,15
 918              		.global	chsnprintf
 919              		.code	16
 920              		.thumb_func
 921              		.type	chsnprintf, %function
 922              	chsnprintf:
 923              	.LFB11:
 924              		.loc 1 288 0
 925              		.cfi_startproc
 926              		@ args = 4, pretend = 8, frame = 24
 927              		@ frame_needed = 0, uses_anonymous_args = 1
 928              	.LVL132:
 929 0000 0CB4     		push	{r2, r3}
 930              		.cfi_def_cfa_offset 8
 931 0002 70B5     		push	{r4, r5, r6, lr}
 932              		.cfi_def_cfa_offset 24
 933              		.cfi_offset 4, -24
 934              		.cfi_offset 5, -20
 935              		.cfi_offset 6, -16
 936              		.cfi_offset 14, -12
 937 0004 86B0     		sub	sp, sp, #24
 938              		.cfi_def_cfa_offset 48
 939              		.loc 1 288 0
 940 0006 0AAC     		add	r4, sp, #40
 941 0008 40CC     		ldmia	r4!, {r6}
 942 000a 0500     		movs	r5, r0
 943              		.loc 1 295 0
 944 000c 4A1E     		subs	r2, r1, #1
 945 000e 0023     		movs	r3, #0
 946 0010 0100     		movs	r1, r0
 947              	.LVL133:
 948 0012 01A8     		add	r0, sp, #4
 949              	.LVL134:
 950 0014 FFF7FEFF 		bl	msObjectInit
 951              	.LVL135:
 952              		.loc 1 300 0
 953 0018 01A8     		add	r0, sp, #4
 954              	.LVL136:
 955 001a 2200     		movs	r2, r4
 956 001c 3100     		movs	r1, r6
 957              		.loc 1 299 0
 958 001e 0094     		str	r4, [sp]
 959              		.loc 1 300 0
 960 0020 FFF7FEFF 		bl	chvprintf
 961              	.LVL137:
 962              		.loc 1 304 0
 963 0024 0023     		movs	r3, #0
 964 0026 0498     		ldr	r0, [sp, #16]
 965 0028 2B54     		strb	r3, [r5, r0]
 966              		.loc 1 306 0
 967 002a 06B0     		add	sp, sp, #24
 968              		@ sp needed
 969              	.LVL138:
ARM GAS  /tmp/ccOnDVUd.s 			page 18


 970 002c 70BC     		pop	{r4, r5, r6}
 971 002e 08BC     		pop	{r3}
 972 0030 02B0     		add	sp, sp, #8
 973 0032 1847     		bx	r3
 974              		.cfi_endproc
 975              	.LFE11:
 976              		.size	chsnprintf, .-chsnprintf
 977              		.section	.rodata.str1.4,"aMS",%progbits,1
 978              		.align	2
 979              	.LC2:
 980 0000 286E756C 		.ascii	"(null)\000"
 980      6C2900
 981              		.text
 982              	.Letext0:
 983              		.file 2 "/home/lithium/Descargas/gcc-arm-none-eabi-5_3-2016q1/lib/gcc/arm-none-eabi/5.3.1/include/
 984              		.file 3 "/home/lithium/Descargas/gcc-arm-none-eabi-5_3-2016q1/arm-none-eabi/include/machine/_defau
 985              		.file 4 "/home/lithium/Descargas/gcc-arm-none-eabi-5_3-2016q1/arm-none-eabi/include/sys/_stdint.h"
 986              		.file 5 "../../os/ports/GCC/ARMCMx/chtypes.h"
 987              		.file 6 "../../os/kernel/include/chstreams.h"
 988              		.file 7 "/home/lithium/Descargas/gcc-arm-none-eabi-5_3-2016q1/lib/gcc/arm-none-eabi/5.3.1/include/
 989              		.file 8 "<built-in>"
 990              		.file 9 "../../os/various/memstreams.h"