ARM GAS  /tmp/ccU89SE9.s 			page 1


   1              		.syntax unified
   2              		.cpu cortex-m0
   3              		.fpu softvfp
   4              		.eabi_attribute 20, 1
   5              		.eabi_attribute 21, 1
   6              		.eabi_attribute 23, 3
   7              		.eabi_attribute 24, 1
   8              		.eabi_attribute 25, 1
   9              		.eabi_attribute 26, 1
  10              		.eabi_attribute 30, 2
  11              		.eabi_attribute 34, 0
  12              		.eabi_attribute 18, 4
  13              		.thumb
  14              		.syntax unified
  15              		.file	"chschd.c"
  16              		.text
  17              	.Ltext0:
  18              		.cfi_sections	.debug_frame
  19              		.section	.text.wakeup,"ax",%progbits
  20              		.align	2
  21              		.p2align 4,,15
  22              		.code	16
  23              		.thumb_func
  24              		.type	wakeup, %function
  25              	wakeup:
  26              	.LFB10:
  27              		.file 1 "../../os/kernel/src/chschd.c"
  28              		.loc 1 136 0
  29              		.cfi_startproc
  30              		@ args = 0, pretend = 0, frame = 0
  31              		@ frame_needed = 0, uses_anonymous_args = 0
  32              		@ link register save eliminated.
  33              	.LVL0:
  34              		.loc 1 139 0
  35              		.syntax divided
  36              	@ 139 "../../os/kernel/src/chschd.c" 1
  37 0000 72B6     		cpsid   i
  38              	@ 0 "" 2
  39              		.loc 1 140 0
  40              		.thumb
  41              		.syntax unified
  42 0002 037F     		ldrb	r3, [r0, #28]
  43 0004 032B     		cmp	r3, #3
  44 0006 19D0     		beq	.L3
  45 0008 14D9     		bls	.L18
  46 000a 052B     		cmp	r3, #5
  47 000c 1AD0     		beq	.L6
  48 000e 0D2B     		cmp	r3, #13
  49 0010 18D0     		beq	.L6
  50              	.L2:
  51              		.loc 1 163 0
  52 0012 0123     		movs	r3, #1
  53 0014 5B42     		rsbs	r3, r3, #0
  54 0016 4362     		str	r3, [r0, #36]
  55              	.LVL1:
  56              	.LBB33:
  57              	.LBB34:
ARM GAS  /tmp/ccU89SE9.s 			page 2


  58              		.loc 1 92 0
  59 0018 0023     		movs	r3, #0
  60 001a 8268     		ldr	r2, [r0, #8]
  61 001c 0377     		strb	r3, [r0, #28]
  62              	.LVL2:
  63              	.LBE34:
  64              	.LBE33:
  65              	.LBB35:
  66              	.LBB36:
  67              	.LBB37:
  68              	.LBB38:
  69              		.loc 1 93 0
  70 001e 0C4B     		ldr	r3, .L19
  71              	.L8:
  72              	.LVL3:
  73              		.loc 1 95 0
  74 0020 1B68     		ldr	r3, [r3]
  75              	.LVL4:
  76              		.loc 1 96 0
  77 0022 9968     		ldr	r1, [r3, #8]
  78 0024 9142     		cmp	r1, r2
  79 0026 FBD2     		bcs	.L8
  80              		.loc 1 99 0
  81 0028 5A68     		ldr	r2, [r3, #4]
  82              		.loc 1 98 0
  83 002a 0360     		str	r3, [r0]
  84              		.loc 1 99 0
  85 002c 4260     		str	r2, [r0, #4]
  86              		.loc 1 100 0
  87 002e 5860     		str	r0, [r3, #4]
  88 0030 1060     		str	r0, [r2]
  89 0032 01E0     		b	.L16
  90              	.LVL5:
  91              	.L18:
  92              	.LBE38:
  93              	.LBE37:
  94              	.LBE36:
  95              	.LBE35:
  96              		.loc 1 140 0
  97 0034 002B     		cmp	r3, #0
  98 0036 ECD1     		bne	.L2
  99              	.L16:
 100              	.LBB40:
 101              	.LBB39:
 102              		.loc 1 165 0
 103              		.syntax divided
 104              	@ 165 "../../os/kernel/src/chschd.c" 1
 105 0038 62B6     		cpsie   i
 106              	@ 0 "" 2
 107              		.thumb
 108              		.syntax unified
 109              	.LBE39:
 110              	.LBE40:
 111              		.loc 1 166 0
 112              		@ sp needed
 113 003a 7047     		bx	lr
 114              	.L3:
ARM GAS  /tmp/ccU89SE9.s 			page 3


 115              		.loc 1 150 0
 116 003c 426A     		ldr	r2, [r0, #36]
 117 003e 9368     		ldr	r3, [r2, #8]
 118 0040 0133     		adds	r3, r3, #1
 119 0042 9360     		str	r3, [r2, #8]
 120              	.L6:
 121              	.LVL6:
 122              	.LBB41:
 123              	.LBB42:
 124              		.file 2 "../../os/kernel/include/chinline.h"
 125              		.loc 2 75 0
 126 0044 0268     		ldr	r2, [r0]
 127 0046 4368     		ldr	r3, [r0, #4]
 128 0048 1A60     		str	r2, [r3]
 129              		.loc 2 76 0
 130 004a 0268     		ldr	r2, [r0]
 131 004c 5360     		str	r3, [r2, #4]
 132 004e E0E7     		b	.L2
 133              	.L20:
 134              		.align	2
 135              	.L19:
 136 0050 00000000 		.word	.LANCHOR0
 137              	.LBE42:
 138              	.LBE41:
 139              		.cfi_endproc
 140              	.LFE10:
 141              		.size	wakeup, .-wakeup
 142              		.section	.text._scheduler_init,"ax",%progbits
 143              		.align	2
 144              		.p2align 4,,15
 145              		.global	_scheduler_init
 146              		.code	16
 147              		.thumb_func
 148              		.type	_scheduler_init, %function
 149              	_scheduler_init:
 150              	.LFB7:
 151              		.loc 1 55 0
 152              		.cfi_startproc
 153              		@ args = 0, pretend = 0, frame = 0
 154              		@ frame_needed = 0, uses_anonymous_args = 0
 155              		@ link register save eliminated.
 156              		.loc 1 58 0
 157 0000 0022     		movs	r2, #0
 158              		.loc 1 57 0
 159 0002 034B     		ldr	r3, .L22
 160              		.loc 1 62 0
 161              		@ sp needed
 162              		.loc 1 57 0
 163 0004 5B60     		str	r3, [r3, #4]
 164 0006 1B60     		str	r3, [r3]
 165              		.loc 1 58 0
 166 0008 9A60     		str	r2, [r3, #8]
 167              		.loc 1 60 0
 168 000a 5B61     		str	r3, [r3, #20]
 169 000c 1B61     		str	r3, [r3, #16]
 170              		.loc 1 62 0
 171 000e 7047     		bx	lr
ARM GAS  /tmp/ccU89SE9.s 			page 4


 172              	.L23:
 173              		.align	2
 174              	.L22:
 175 0010 00000000 		.word	.LANCHOR0
 176              		.cfi_endproc
 177              	.LFE7:
 178              		.size	_scheduler_init, .-_scheduler_init
 179              		.section	.text.chSchReadyI,"ax",%progbits
 180              		.align	2
 181              		.p2align 4,,15
 182              		.global	chSchReadyI
 183              		.code	16
 184              		.thumb_func
 185              		.type	chSchReadyI, %function
 186              	chSchReadyI:
 187              	.LFB8:
 188              		.loc 1 81 0
 189              		.cfi_startproc
 190              		@ args = 0, pretend = 0, frame = 0
 191              		@ frame_needed = 0, uses_anonymous_args = 0
 192              		@ link register save eliminated.
 193              	.LVL7:
 194              		.loc 1 92 0
 195 0000 0023     		movs	r3, #0
 196 0002 8268     		ldr	r2, [r0, #8]
 197 0004 0377     		strb	r3, [r0, #28]
 198              	.LVL8:
 199              		.loc 1 93 0
 200 0006 054B     		ldr	r3, .L27
 201              	.LVL9:
 202              	.L25:
 203              		.loc 1 95 0 discriminator 1
 204 0008 1B68     		ldr	r3, [r3]
 205              	.LVL10:
 206              		.loc 1 96 0 discriminator 1
 207 000a 9968     		ldr	r1, [r3, #8]
 208 000c 9142     		cmp	r1, r2
 209 000e FBD2     		bcs	.L25
 210              		.loc 1 99 0
 211 0010 5A68     		ldr	r2, [r3, #4]
 212              		.loc 1 98 0
 213 0012 0360     		str	r3, [r0]
 214              		.loc 1 99 0
 215 0014 4260     		str	r2, [r0, #4]
 216              		.loc 1 100 0
 217 0016 5860     		str	r0, [r3, #4]
 218              		.loc 1 102 0
 219              		@ sp needed
 220              		.loc 1 100 0
 221 0018 1060     		str	r0, [r2]
 222              		.loc 1 102 0
 223 001a 7047     		bx	lr
 224              	.L28:
 225              		.align	2
 226              	.L27:
 227 001c 00000000 		.word	.LANCHOR0
 228              		.cfi_endproc
ARM GAS  /tmp/ccU89SE9.s 			page 5


 229              	.LFE8:
 230              		.size	chSchReadyI, .-chSchReadyI
 231              		.section	.text.chSchGoSleepS,"ax",%progbits
 232              		.align	2
 233              		.p2align 4,,15
 234              		.global	chSchGoSleepS
 235              		.code	16
 236              		.thumb_func
 237              		.type	chSchGoSleepS, %function
 238              	chSchGoSleepS:
 239              	.LFB9:
 240              		.loc 1 115 0
 241              		.cfi_startproc
 242              		@ args = 0, pretend = 0, frame = 0
 243              		@ frame_needed = 0, uses_anonymous_args = 0
 244              	.LVL11:
 245              		.loc 1 124 0
 246 0000 1422     		movs	r2, #20
 247              		.loc 1 120 0
 248 0002 074B     		ldr	r3, .L30
 249              		.loc 1 115 0
 250 0004 10B5     		push	{r4, lr}
 251              		.cfi_def_cfa_offset 8
 252              		.cfi_offset 4, -8
 253              		.cfi_offset 14, -4
 254              		.loc 1 120 0
 255 0006 9969     		ldr	r1, [r3, #24]
 256              	.LVL12:
 257              		.loc 1 129 0
 258              		@ sp needed
 259              		.loc 1 120 0
 260 0008 0877     		strb	r0, [r1, #28]
 261              	.LBB43:
 262              	.LBB44:
 263              		.loc 2 60 0
 264 000a 1868     		ldr	r0, [r3]
 265              	.LVL13:
 266              	.LBE44:
 267              	.LBE43:
 268              		.loc 1 124 0
 269 000c CA77     		strb	r2, [r1, #31]
 270              	.LVL14:
 271              	.LBB46:
 272              	.LBB45:
 273              		.loc 2 62 0
 274 000e 0268     		ldr	r2, [r0]
 275 0010 5360     		str	r3, [r2, #4]
 276              	.LVL15:
 277 0012 1A60     		str	r2, [r3]
 278              	.LBE45:
 279              	.LBE46:
 280              		.loc 1 126 0
 281 0014 9861     		str	r0, [r3, #24]
 282              		.loc 1 127 0
 283 0016 0123     		movs	r3, #1
 284 0018 0377     		strb	r3, [r0, #28]
 285              		.loc 1 128 0
ARM GAS  /tmp/ccU89SE9.s 			page 6


 286 001a FFF7FEFF 		bl	_port_switch
 287              	.LVL16:
 288              		.loc 1 129 0
 289 001e 10BD     		pop	{r4, pc}
 290              	.L31:
 291              		.align	2
 292              	.L30:
 293 0020 00000000 		.word	.LANCHOR0
 294              		.cfi_endproc
 295              	.LFE9:
 296              		.size	chSchGoSleepS, .-chSchGoSleepS
 297              		.section	.text.chSchGoSleepTimeoutS,"ax",%progbits
 298              		.align	2
 299              		.p2align 4,,15
 300              		.global	chSchGoSleepTimeoutS
 301              		.code	16
 302              		.thumb_func
 303              		.type	chSchGoSleepTimeoutS, %function
 304              	chSchGoSleepTimeoutS:
 305              	.LFB11:
 306              		.loc 1 189 0
 307              		.cfi_startproc
 308              		@ args = 0, pretend = 0, frame = 32
 309              		@ frame_needed = 0, uses_anonymous_args = 0
 310              	.LVL17:
 311 0000 30B5     		push	{r4, r5, lr}
 312              		.cfi_def_cfa_offset 12
 313              		.cfi_offset 4, -12
 314              		.cfi_offset 5, -8
 315              		.cfi_offset 14, -4
 316 0002 0500     		movs	r5, r0
 317 0004 89B0     		sub	sp, sp, #36
 318              		.cfi_def_cfa_offset 48
 319              		.loc 1 193 0
 320 0006 4B1C     		adds	r3, r1, #1
 321 0008 13D0     		beq	.L33
 322              	.LBB47:
 323              		.loc 1 196 0
 324 000a 0C4C     		ldr	r4, .L39
 325 000c 0C4A     		ldr	r2, .L39+4
 326 000e A369     		ldr	r3, [r4, #24]
 327 0010 03A8     		add	r0, sp, #12
 328              	.LVL18:
 329 0012 FFF7FEFF 		bl	chVTSetI
 330              	.LVL19:
 331              		.loc 1 197 0
 332 0016 2800     		movs	r0, r5
 333 0018 FFF7FEFF 		bl	chSchGoSleepS
 334              	.LVL20:
 335              		.loc 1 198 0
 336 001c 069B     		ldr	r3, [sp, #24]
 337 001e 0193     		str	r3, [sp, #4]
 338 0020 002B     		cmp	r3, #0
 339 0022 02D0     		beq	.L35
 340              		.loc 1 199 0
 341 0024 03A8     		add	r0, sp, #12
 342 0026 FFF7FEFF 		bl	chVTResetI
ARM GAS  /tmp/ccU89SE9.s 			page 7


 343              	.LVL21:
 344              	.L35:
 345              	.LBE47:
 346              		.loc 1 203 0
 347 002a A369     		ldr	r3, [r4, #24]
 348 002c 586A     		ldr	r0, [r3, #36]
 349              		.loc 1 204 0
 350 002e 09B0     		add	sp, sp, #36
 351              		@ sp needed
 352 0030 30BD     		pop	{r4, r5, pc}
 353              	.LVL22:
 354              	.L33:
 355              		.loc 1 202 0
 356 0032 FFF7FEFF 		bl	chSchGoSleepS
 357              	.LVL23:
 358 0036 014C     		ldr	r4, .L39
 359 0038 F7E7     		b	.L35
 360              	.L40:
 361 003a C046     		.align	2
 362              	.L39:
 363 003c 00000000 		.word	.LANCHOR0
 364 0040 00000000 		.word	wakeup
 365              		.cfi_endproc
 366              	.LFE11:
 367              		.size	chSchGoSleepTimeoutS, .-chSchGoSleepTimeoutS
 368              		.section	.text.chSchWakeupS,"ax",%progbits
 369              		.align	2
 370              		.p2align 4,,15
 371              		.global	chSchWakeupS
 372              		.code	16
 373              		.thumb_func
 374              		.type	chSchWakeupS, %function
 375              	chSchWakeupS:
 376              	.LFB12:
 377              		.loc 1 225 0
 378              		.cfi_startproc
 379              		@ args = 0, pretend = 0, frame = 0
 380              		@ frame_needed = 0, uses_anonymous_args = 0
 381              	.LVL24:
 382              		.loc 1 234 0
 383 0000 124B     		ldr	r3, .L48
 384              		.loc 1 229 0
 385 0002 4162     		str	r1, [r0, #36]
 386              		.loc 1 234 0
 387 0004 9969     		ldr	r1, [r3, #24]
 388              	.LVL25:
 389              		.loc 1 225 0
 390 0006 70B5     		push	{r4, r5, r6, lr}
 391              		.cfi_def_cfa_offset 16
 392              		.cfi_offset 4, -16
 393              		.cfi_offset 5, -12
 394              		.cfi_offset 6, -8
 395              		.cfi_offset 14, -4
 396              		.loc 1 234 0
 397 0008 8268     		ldr	r2, [r0, #8]
 398 000a 8C68     		ldr	r4, [r1, #8]
 399 000c A242     		cmp	r2, r4
ARM GAS  /tmp/ccU89SE9.s 			page 8


 400 000e 0BD8     		bhi	.L42
 401              	.LVL26:
 402              	.LBB48:
 403              	.LBB49:
 404              		.loc 1 92 0
 405 0010 0021     		movs	r1, #0
 406 0012 0177     		strb	r1, [r0, #28]
 407              	.LVL27:
 408              	.L43:
 409              		.loc 1 95 0
 410 0014 1B68     		ldr	r3, [r3]
 411              	.LVL28:
 412              		.loc 1 96 0
 413 0016 9968     		ldr	r1, [r3, #8]
 414 0018 8A42     		cmp	r2, r1
 415 001a FBD9     		bls	.L43
 416              		.loc 1 99 0
 417 001c 5A68     		ldr	r2, [r3, #4]
 418              		.loc 1 98 0
 419 001e 0360     		str	r3, [r0]
 420              		.loc 1 99 0
 421 0020 4260     		str	r2, [r0, #4]
 422              		.loc 1 100 0
 423 0022 5860     		str	r0, [r3, #4]
 424              	.LVL29:
 425 0024 1060     		str	r0, [r2]
 426              	.LVL30:
 427              	.L41:
 428              	.LBE49:
 429              	.LBE48:
 430              		.loc 1 242 0
 431              		@ sp needed
 432 0026 70BD     		pop	{r4, r5, r6, pc}
 433              	.LVL31:
 434              	.L42:
 435              	.LBB50:
 436              	.LBB51:
 437              	.LBB52:
 438              		.loc 1 92 0
 439 0028 0022     		movs	r2, #0
 440 002a 0A77     		strb	r2, [r1, #28]
 441              	.LVL32:
 442              		.loc 1 93 0
 443 002c 1A00     		movs	r2, r3
 444              	.LVL33:
 445              	.L45:
 446              		.loc 1 95 0
 447 002e 1268     		ldr	r2, [r2]
 448              	.LVL34:
 449              		.loc 1 96 0
 450 0030 9568     		ldr	r5, [r2, #8]
 451 0032 AC42     		cmp	r4, r5
 452 0034 FBD9     		bls	.L45
 453              		.loc 1 99 0
 454 0036 5468     		ldr	r4, [r2, #4]
 455              		.loc 1 98 0
 456 0038 0A60     		str	r2, [r1]
ARM GAS  /tmp/ccU89SE9.s 			page 9


 457              		.loc 1 99 0
 458 003a 4C60     		str	r4, [r1, #4]
 459              		.loc 1 100 0
 460 003c 5160     		str	r1, [r2, #4]
 461 003e 2160     		str	r1, [r4]
 462              	.LVL35:
 463              	.LBE52:
 464              	.LBE51:
 465              		.loc 1 238 0
 466 0040 9861     		str	r0, [r3, #24]
 467              		.loc 1 239 0
 468 0042 0123     		movs	r3, #1
 469 0044 0377     		strb	r3, [r0, #28]
 470              		.loc 1 240 0
 471 0046 FFF7FEFF 		bl	_port_switch
 472              	.LVL36:
 473              	.LBE50:
 474              		.loc 1 242 0
 475 004a ECE7     		b	.L41
 476              	.L49:
 477              		.align	2
 478              	.L48:
 479 004c 00000000 		.word	.LANCHOR0
 480              		.cfi_endproc
 481              	.LFE12:
 482              		.size	chSchWakeupS, .-chSchWakeupS
 483              		.section	.text.chSchDoRescheduleBehind,"ax",%progbits
 484              		.align	2
 485              		.p2align 4,,15
 486              		.global	chSchDoRescheduleBehind
 487              		.code	16
 488              		.thumb_func
 489              		.type	chSchDoRescheduleBehind, %function
 490              	chSchDoRescheduleBehind:
 491              	.LFB14:
 492              		.loc 1 304 0
 493              		.cfi_startproc
 494              		@ args = 0, pretend = 0, frame = 0
 495              		@ frame_needed = 0, uses_anonymous_args = 0
 496              		.loc 1 307 0
 497 0000 0E4B     		ldr	r3, .L54
 498              		.loc 1 304 0
 499 0002 10B5     		push	{r4, lr}
 500              		.cfi_def_cfa_offset 8
 501              		.cfi_offset 4, -8
 502              		.cfi_offset 14, -4
 503              	.LBB53:
 504              	.LBB54:
 505              		.loc 2 60 0
 506 0004 1868     		ldr	r0, [r3]
 507              	.LBE54:
 508              	.LBE53:
 509              		.loc 1 307 0
 510 0006 9969     		ldr	r1, [r3, #24]
 511              	.LVL37:
 512              	.LBB56:
 513              	.LBB55:
ARM GAS  /tmp/ccU89SE9.s 			page 10


 514              		.loc 2 62 0
 515 0008 0268     		ldr	r2, [r0]
 516 000a 5360     		str	r3, [r2, #4]
 517              	.LVL38:
 518 000c 1A60     		str	r2, [r3]
 519              	.LBE55:
 520              	.LBE56:
 521              		.loc 1 309 0
 522 000e 9861     		str	r0, [r3, #24]
 523              		.loc 1 310 0
 524 0010 0123     		movs	r3, #1
 525 0012 0377     		strb	r3, [r0, #28]
 526              		.loc 1 312 0
 527 0014 1333     		adds	r3, r3, #19
 528 0016 CB77     		strb	r3, [r1, #31]
 529              	.LVL39:
 530              	.LBB57:
 531              	.LBB58:
 532              		.loc 1 92 0
 533 0018 0023     		movs	r3, #0
 534 001a 8A68     		ldr	r2, [r1, #8]
 535 001c 0B77     		strb	r3, [r1, #28]
 536              	.LVL40:
 537 001e 0300     		movs	r3, r0
 538 0020 00E0     		b	.L52
 539              	.LVL41:
 540              	.L53:
 541 0022 1B68     		ldr	r3, [r3]
 542              	.L52:
 543              		.loc 1 96 0
 544 0024 9C68     		ldr	r4, [r3, #8]
 545 0026 9442     		cmp	r4, r2
 546 0028 FBD2     		bcs	.L53
 547              		.loc 1 99 0
 548 002a 5A68     		ldr	r2, [r3, #4]
 549              		.loc 1 98 0
 550 002c 0B60     		str	r3, [r1]
 551              		.loc 1 99 0
 552 002e 4A60     		str	r2, [r1, #4]
 553              		.loc 1 100 0
 554 0030 5960     		str	r1, [r3, #4]
 555 0032 1160     		str	r1, [r2]
 556              	.LVL42:
 557              	.LBE58:
 558              	.LBE57:
 559              		.loc 1 315 0
 560 0034 FFF7FEFF 		bl	_port_switch
 561              	.LVL43:
 562              		.loc 1 316 0
 563              		@ sp needed
 564 0038 10BD     		pop	{r4, pc}
 565              	.L55:
 566 003a C046     		.align	2
 567              	.L54:
 568 003c 00000000 		.word	.LANCHOR0
 569              		.cfi_endproc
 570              	.LFE14:
ARM GAS  /tmp/ccU89SE9.s 			page 11


 571              		.size	chSchDoRescheduleBehind, .-chSchDoRescheduleBehind
 572              		.section	.text.chSchDoRescheduleAhead,"ax",%progbits
 573              		.align	2
 574              		.p2align 4,,15
 575              		.global	chSchDoRescheduleAhead
 576              		.code	16
 577              		.thumb_func
 578              		.type	chSchDoRescheduleAhead, %function
 579              	chSchDoRescheduleAhead:
 580              	.LFB15:
 581              		.loc 1 329 0
 582              		.cfi_startproc
 583              		@ args = 0, pretend = 0, frame = 0
 584              		@ frame_needed = 0, uses_anonymous_args = 0
 585              		.loc 1 332 0
 586 0000 0D4B     		ldr	r3, .L60
 587              		.loc 1 329 0
 588 0002 10B5     		push	{r4, lr}
 589              		.cfi_def_cfa_offset 8
 590              		.cfi_offset 4, -8
 591              		.cfi_offset 14, -4
 592              	.LBB59:
 593              	.LBB60:
 594              		.loc 2 60 0
 595 0004 1868     		ldr	r0, [r3]
 596              	.LBE60:
 597              	.LBE59:
 598              		.loc 1 332 0
 599 0006 9969     		ldr	r1, [r3, #24]
 600              	.LVL44:
 601              	.LBB62:
 602              	.LBB61:
 603              		.loc 2 62 0
 604 0008 0268     		ldr	r2, [r0]
 605 000a 5360     		str	r3, [r2, #4]
 606              	.LVL45:
 607 000c 1A60     		str	r2, [r3]
 608              	.LBE61:
 609              	.LBE62:
 610              		.loc 1 334 0
 611 000e 9861     		str	r0, [r3, #24]
 612              		.loc 1 335 0
 613 0010 0123     		movs	r3, #1
 614 0012 0377     		strb	r3, [r0, #28]
 615              		.loc 1 337 0
 616 0014 0023     		movs	r3, #0
 617 0016 8A68     		ldr	r2, [r1, #8]
 618 0018 0B77     		strb	r3, [r1, #28]
 619              	.LVL46:
 620 001a 0300     		movs	r3, r0
 621 001c 00E0     		b	.L58
 622              	.LVL47:
 623              	.L59:
 624 001e 1B68     		ldr	r3, [r3]
 625              	.L58:
 626              		.loc 1 341 0 discriminator 1
 627 0020 9C68     		ldr	r4, [r3, #8]
ARM GAS  /tmp/ccU89SE9.s 			page 12


 628 0022 9442     		cmp	r4, r2
 629 0024 FBD8     		bhi	.L59
 630              		.loc 1 344 0
 631 0026 5A68     		ldr	r2, [r3, #4]
 632              		.loc 1 343 0
 633 0028 0B60     		str	r3, [r1]
 634              		.loc 1 344 0
 635 002a 4A60     		str	r2, [r1, #4]
 636              		.loc 1 345 0
 637 002c 5960     		str	r1, [r3, #4]
 638 002e 1160     		str	r1, [r2]
 639              		.loc 1 347 0
 640 0030 FFF7FEFF 		bl	_port_switch
 641              	.LVL48:
 642              		.loc 1 348 0
 643              		@ sp needed
 644 0034 10BD     		pop	{r4, pc}
 645              	.L61:
 646 0036 C046     		.align	2
 647              	.L60:
 648 0038 00000000 		.word	.LANCHOR0
 649              		.cfi_endproc
 650              	.LFE15:
 651              		.size	chSchDoRescheduleAhead, .-chSchDoRescheduleAhead
 652              		.section	.text.chSchRescheduleS,"ax",%progbits
 653              		.align	2
 654              		.p2align 4,,15
 655              		.global	chSchRescheduleS
 656              		.code	16
 657              		.thumb_func
 658              		.type	chSchRescheduleS, %function
 659              	chSchRescheduleS:
 660              	.LFB13:
 661              		.loc 1 253 0
 662              		.cfi_startproc
 663              		@ args = 0, pretend = 0, frame = 0
 664              		@ frame_needed = 0, uses_anonymous_args = 0
 665              		.loc 1 257 0
 666 0000 054B     		ldr	r3, .L64
 667              		.loc 1 253 0
 668 0002 10B5     		push	{r4, lr}
 669              		.cfi_def_cfa_offset 8
 670              		.cfi_offset 4, -8
 671              		.cfi_offset 14, -4
 672              		.loc 1 257 0
 673 0004 1A68     		ldr	r2, [r3]
 674 0006 9B69     		ldr	r3, [r3, #24]
 675 0008 9268     		ldr	r2, [r2, #8]
 676 000a 9B68     		ldr	r3, [r3, #8]
 677 000c 9A42     		cmp	r2, r3
 678 000e 01D9     		bls	.L62
 679              		.loc 1 258 0
 680 0010 FFF7FEFF 		bl	chSchDoRescheduleAhead
 681              	.LVL49:
 682              	.L62:
 683              		.loc 1 259 0
 684              		@ sp needed
ARM GAS  /tmp/ccU89SE9.s 			page 13


 685 0014 10BD     		pop	{r4, pc}
 686              	.L65:
 687 0016 C046     		.align	2
 688              	.L64:
 689 0018 00000000 		.word	.LANCHOR0
 690              		.cfi_endproc
 691              	.LFE13:
 692              		.size	chSchRescheduleS, .-chSchRescheduleS
 693              		.section	.text.chSchDoReschedule,"ax",%progbits
 694              		.align	2
 695              		.p2align 4,,15
 696              		.global	chSchDoReschedule
 697              		.code	16
 698              		.thumb_func
 699              		.type	chSchDoReschedule, %function
 700              	chSchDoReschedule:
 701              	.LFB16:
 702              		.loc 1 362 0
 703              		.cfi_startproc
 704              		@ args = 0, pretend = 0, frame = 0
 705              		@ frame_needed = 0, uses_anonymous_args = 0
 706 0000 10B5     		push	{r4, lr}
 707              		.cfi_def_cfa_offset 8
 708              		.cfi_offset 4, -8
 709              		.cfi_offset 14, -4
 710              		.loc 1 367 0
 711 0002 054B     		ldr	r3, .L70
 712 0004 9B69     		ldr	r3, [r3, #24]
 713 0006 DB7F     		ldrb	r3, [r3, #31]
 714 0008 002B     		cmp	r3, #0
 715 000a 02D0     		beq	.L69
 716              		.loc 1 375 0
 717 000c FFF7FEFF 		bl	chSchDoRescheduleAhead
 718              	.LVL50:
 719              	.L66:
 720              		.loc 1 382 0
 721              		@ sp needed
 722 0010 10BD     		pop	{r4, pc}
 723              	.L69:
 724              		.loc 1 370 0
 725 0012 FFF7FEFF 		bl	chSchDoRescheduleBehind
 726              	.LVL51:
 727 0016 FBE7     		b	.L66
 728              	.L71:
 729              		.align	2
 730              	.L70:
 731 0018 00000000 		.word	.LANCHOR0
 732              		.cfi_endproc
 733              	.LFE16:
 734              		.size	chSchDoReschedule, .-chSchDoReschedule
 735              		.global	rlist
 736              		.section	.bss.rlist,"aw",%nobits
 737              		.align	2
 738              		.set	.LANCHOR0,. + 0
 739              		.type	rlist, %object
 740              		.size	rlist, 28
 741              	rlist:
ARM GAS  /tmp/ccU89SE9.s 			page 14


 742 0000 00000000 		.space	28
 742      00000000 
 742      00000000 
 742      00000000 
 742      00000000 
 743              		.text
 744              	.Letext0:
 745              		.file 3 "/home/lithium/Descargas/gcc-arm-none-eabi-5_3-2016q1/arm-none-eabi/include/machine/_defau
 746              		.file 4 "/home/lithium/Descargas/gcc-arm-none-eabi-5_3-2016q1/arm-none-eabi/include/sys/_stdint.h"
 747              		.file 5 "../../os/ports/GCC/ARMCMx/chtypes.h"
 748              		.file 6 "../../os/kernel/include/chlists.h"
 749              		.file 7 "../../os/kernel/include/chthreads.h"
 750              		.file 8 "../../os/ports/GCC/ARMCMx/chcore_v6m.h"
 751              		.file 9 "../../os/kernel/include/chvt.h"
 752              		.file 10 "../../os/kernel/include/chschd.h"
 753              		.file 11 "../../os/kernel/include/chsem.h"
 754              		.file 12 "../../os/kernel/include/chmtx.h"