ARM GAS  /tmp/ccSfJ2sN.s 			page 1


   1              		.syntax unified
   2              		.cpu cortex-m0
   3              		.fpu softvfp
   4              		.eabi_attribute 20, 1
   5              		.eabi_attribute 21, 1
   6              		.eabi_attribute 23, 3
   7              		.eabi_attribute 24, 1
   8              		.eabi_attribute 25, 1
   9              		.eabi_attribute 26, 1
  10              		.eabi_attribute 30, 2
  11              		.eabi_attribute 34, 0
  12              		.eabi_attribute 18, 4
  13              		.thumb
  14              		.syntax unified
  15              		.file	"chsem.c"
  16              		.text
  17              	.Ltext0:
  18              		.cfi_sections	.debug_frame
  19              		.section	.text.chSemInit,"ax",%progbits
  20              		.align	2
  21              		.p2align 4,,15
  22              		.global	chSemInit
  23              		.code	16
  24              		.thumb_func
  25              		.type	chSemInit, %function
  26              	chSemInit:
  27              	.LFB7:
  28              		.file 1 "../../os/kernel/src/chsem.c"
  29              		.loc 1 86 0
  30              		.cfi_startproc
  31              		@ args = 0, pretend = 0, frame = 0
  32              		@ frame_needed = 0, uses_anonymous_args = 0
  33              		@ link register save eliminated.
  34              	.LVL0:
  35              		.loc 1 90 0
  36 0000 4060     		str	r0, [r0, #4]
  37 0002 0060     		str	r0, [r0]
  38              		.loc 1 91 0
  39 0004 8160     		str	r1, [r0, #8]
  40              		.loc 1 92 0
  41              		@ sp needed
  42 0006 7047     		bx	lr
  43              		.cfi_endproc
  44              	.LFE7:
  45              		.size	chSemInit, .-chSemInit
  46              		.section	.text.chSemResetI,"ax",%progbits
  47              		.align	2
  48              		.p2align 4,,15
  49              		.global	chSemResetI
  50              		.code	16
  51              		.thumb_func
  52              		.type	chSemResetI, %function
  53              	chSemResetI:
  54              	.LFB9:
  55              		.loc 1 136 0
  56              		.cfi_startproc
  57              		@ args = 0, pretend = 0, frame = 0
ARM GAS  /tmp/ccSfJ2sN.s 			page 2


  58              		@ frame_needed = 0, uses_anonymous_args = 0
  59              	.LVL1:
  60 0000 70B5     		push	{r4, r5, r6, lr}
  61              		.cfi_def_cfa_offset 16
  62              		.cfi_offset 4, -16
  63              		.cfi_offset 5, -12
  64              		.cfi_offset 6, -8
  65              		.cfi_offset 14, -4
  66              		.loc 1 141 0
  67 0002 8468     		ldr	r4, [r0, #8]
  68              	.LVL2:
  69              		.loc 1 136 0
  70 0004 0500     		movs	r5, r0
  71              		.loc 1 148 0
  72 0006 0134     		adds	r4, r4, #1
  73              	.LVL3:
  74              		.loc 1 147 0
  75 0008 8160     		str	r1, [r0, #8]
  76              	.LVL4:
  77              		.loc 1 148 0
  78 000a 002C     		cmp	r4, #0
  79 000c 0BDC     		bgt	.L2
  80              		.loc 1 149 0
  81 000e 0226     		movs	r6, #2
  82 0010 7642     		rsbs	r6, r6, #0
  83              	.LVL5:
  84              	.L6:
  85              	.LBB28:
  86              	.LBB29:
  87              		.file 2 "../../os/kernel/include/chinline.h"
  88              		.loc 2 67 0
  89 0012 6868     		ldr	r0, [r5, #4]
  90              	.LVL6:
  91              	.LBE29:
  92              	.LBE28:
  93              		.loc 1 148 0
  94 0014 0134     		adds	r4, r4, #1
  95              	.LVL7:
  96              	.LBB31:
  97              	.LBB30:
  98              		.loc 2 69 0
  99 0016 4368     		ldr	r3, [r0, #4]
 100 0018 6B60     		str	r3, [r5, #4]
 101 001a 1D60     		str	r5, [r3]
 102              	.LVL8:
 103              	.LBE30:
 104              	.LBE31:
 105              		.loc 1 149 0
 106 001c FFF7FEFF 		bl	chSchReadyI
 107              	.LVL9:
 108 0020 4662     		str	r6, [r0, #36]
 109              	.LVL10:
 110              		.loc 1 148 0
 111 0022 012C     		cmp	r4, #1
 112 0024 F5D1     		bne	.L6
 113              	.L2:
 114              		.loc 1 150 0
ARM GAS  /tmp/ccSfJ2sN.s 			page 3


 115              		@ sp needed
 116              	.LVL11:
 117              	.LVL12:
 118 0026 70BD     		pop	{r4, r5, r6, pc}
 119              		.cfi_endproc
 120              	.LFE9:
 121              		.size	chSemResetI, .-chSemResetI
 122              		.section	.text.chSemReset,"ax",%progbits
 123              		.align	2
 124              		.p2align 4,,15
 125              		.global	chSemReset
 126              		.code	16
 127              		.thumb_func
 128              		.type	chSemReset, %function
 129              	chSemReset:
 130              	.LFB8:
 131              		.loc 1 109 0
 132              		.cfi_startproc
 133              		@ args = 0, pretend = 0, frame = 0
 134              		@ frame_needed = 0, uses_anonymous_args = 0
 135              	.LVL13:
 136 0000 10B5     		push	{r4, lr}
 137              		.cfi_def_cfa_offset 8
 138              		.cfi_offset 4, -8
 139              		.cfi_offset 14, -4
 140              		.loc 1 111 0
 141              		.syntax divided
 142              	@ 111 "../../os/kernel/src/chsem.c" 1
 143 0002 72B6     		cpsid   i
 144              	@ 0 "" 2
 145              		.loc 1 112 0
 146              		.thumb
 147              		.syntax unified
 148 0004 FFF7FEFF 		bl	chSemResetI
 149              	.LVL14:
 150              		.loc 1 113 0
 151 0008 FFF7FEFF 		bl	chSchRescheduleS
 152              	.LVL15:
 153              		.loc 1 114 0
 154              		.syntax divided
 155              	@ 114 "../../os/kernel/src/chsem.c" 1
 156 000c 62B6     		cpsie   i
 157              	@ 0 "" 2
 158              		.loc 1 115 0
 159              		.thumb
 160              		.syntax unified
 161              		@ sp needed
 162 000e 10BD     		pop	{r4, pc}
 163              		.cfi_endproc
 164              	.LFE8:
 165              		.size	chSemReset, .-chSemReset
 166              		.section	.text.chSemWait,"ax",%progbits
 167              		.align	2
 168              		.p2align 4,,15
 169              		.global	chSemWait
 170              		.code	16
 171              		.thumb_func
ARM GAS  /tmp/ccSfJ2sN.s 			page 4


 172              		.type	chSemWait, %function
 173              	chSemWait:
 174              	.LFB10:
 175              		.loc 1 164 0
 176              		.cfi_startproc
 177              		@ args = 0, pretend = 0, frame = 0
 178              		@ frame_needed = 0, uses_anonymous_args = 0
 179              	.LVL16:
 180 0000 10B5     		push	{r4, lr}
 181              		.cfi_def_cfa_offset 8
 182              		.cfi_offset 4, -8
 183              		.cfi_offset 14, -4
 184              		.loc 1 164 0
 185 0002 0200     		movs	r2, r0
 186              		.loc 1 167 0
 187              		.syntax divided
 188              	@ 167 "../../os/kernel/src/chsem.c" 1
 189 0004 72B6     		cpsid   i
 190              	@ 0 "" 2
 191              	.LVL17:
 192              		.thumb
 193              		.syntax unified
 194              	.LBB38:
 195              	.LBB39:
 196              		.loc 1 194 0
 197 0006 8368     		ldr	r3, [r0, #8]
 198 0008 013B     		subs	r3, r3, #1
 199 000a 8360     		str	r3, [r0, #8]
 200              		.loc 1 200 0
 201 000c 0020     		movs	r0, #0
 202              	.LVL18:
 203              		.loc 1 194 0
 204 000e 002B     		cmp	r3, #0
 205 0010 01DB     		blt	.L13
 206              	.LVL19:
 207              	.L11:
 208              	.LBE39:
 209              	.LBE38:
 210              		.loc 1 169 0
 211              		.syntax divided
 212              	@ 169 "../../os/kernel/src/chsem.c" 1
 213 0012 62B6     		cpsie   i
 214              	@ 0 "" 2
 215              		.loc 1 171 0
 216              		.thumb
 217              		.syntax unified
 218              		@ sp needed
 219 0014 10BD     		pop	{r4, pc}
 220              	.LVL20:
 221              	.L13:
 222              	.LBB45:
 223              	.LBB44:
 224              	.LBB40:
 225              	.LBB41:
 226              		.loc 1 195 0
 227 0016 074C     		ldr	r4, .L14
 228              		.loc 1 197 0
ARM GAS  /tmp/ccSfJ2sN.s 			page 5


 229 0018 0330     		adds	r0, r0, #3
 230              		.loc 1 195 0
 231 001a A369     		ldr	r3, [r4, #24]
 232 001c 5A62     		str	r2, [r3, #36]
 233              	.LVL21:
 234              	.LBB42:
 235              	.LBB43:
 236              		.loc 2 55 0
 237 001e 5168     		ldr	r1, [r2, #4]
 238              		.loc 2 54 0
 239 0020 1A60     		str	r2, [r3]
 240              		.loc 2 55 0
 241 0022 5960     		str	r1, [r3, #4]
 242              		.loc 2 56 0
 243 0024 5360     		str	r3, [r2, #4]
 244 0026 0B60     		str	r3, [r1]
 245              	.LVL22:
 246              	.LBE43:
 247              	.LBE42:
 248              		.loc 1 197 0
 249 0028 FFF7FEFF 		bl	chSchGoSleepS
 250              	.LVL23:
 251              		.loc 1 198 0
 252 002c A369     		ldr	r3, [r4, #24]
 253 002e 586A     		ldr	r0, [r3, #36]
 254              	.LVL24:
 255 0030 EFE7     		b	.L11
 256              	.L15:
 257 0032 C046     		.align	2
 258              	.L14:
 259 0034 00000000 		.word	rlist
 260              	.LBE41:
 261              	.LBE40:
 262              	.LBE44:
 263              	.LBE45:
 264              		.cfi_endproc
 265              	.LFE10:
 266              		.size	chSemWait, .-chSemWait
 267              		.section	.text.chSemWaitS,"ax",%progbits
 268              		.align	2
 269              		.p2align 4,,15
 270              		.global	chSemWaitS
 271              		.code	16
 272              		.thumb_func
 273              		.type	chSemWaitS, %function
 274              	chSemWaitS:
 275              	.LFB11:
 276              		.loc 1 185 0
 277              		.cfi_startproc
 278              		@ args = 0, pretend = 0, frame = 0
 279              		@ frame_needed = 0, uses_anonymous_args = 0
 280              	.LVL25:
 281              		.loc 1 194 0
 282 0000 8368     		ldr	r3, [r0, #8]
 283              		.loc 1 185 0
 284 0002 10B5     		push	{r4, lr}
 285              		.cfi_def_cfa_offset 8
ARM GAS  /tmp/ccSfJ2sN.s 			page 6


 286              		.cfi_offset 4, -8
 287              		.cfi_offset 14, -4
 288              		.loc 1 194 0
 289 0004 013B     		subs	r3, r3, #1
 290              		.loc 1 185 0
 291 0006 0200     		movs	r2, r0
 292              		.loc 1 194 0
 293 0008 8360     		str	r3, [r0, #8]
 294              		.loc 1 200 0
 295 000a 0020     		movs	r0, #0
 296              	.LVL26:
 297              		.loc 1 194 0
 298 000c 002B     		cmp	r3, #0
 299 000e 00DB     		blt	.L19
 300              	.LVL27:
 301              	.L17:
 302              		.loc 1 201 0
 303              		@ sp needed
 304 0010 10BD     		pop	{r4, pc}
 305              	.LVL28:
 306              	.L19:
 307              	.LBB50:
 308              	.LBB51:
 309              		.loc 1 195 0
 310 0012 074C     		ldr	r4, .L20
 311              		.loc 1 197 0
 312 0014 0330     		adds	r0, r0, #3
 313              		.loc 1 195 0
 314 0016 A369     		ldr	r3, [r4, #24]
 315 0018 5A62     		str	r2, [r3, #36]
 316              	.LVL29:
 317              	.LBB52:
 318              	.LBB53:
 319              		.loc 2 55 0
 320 001a 5168     		ldr	r1, [r2, #4]
 321              		.loc 2 54 0
 322 001c 1A60     		str	r2, [r3]
 323              		.loc 2 55 0
 324 001e 5960     		str	r1, [r3, #4]
 325              		.loc 2 56 0
 326 0020 5360     		str	r3, [r2, #4]
 327 0022 0B60     		str	r3, [r1]
 328              	.LVL30:
 329              	.LBE53:
 330              	.LBE52:
 331              		.loc 1 197 0
 332 0024 FFF7FEFF 		bl	chSchGoSleepS
 333              	.LVL31:
 334              		.loc 1 198 0
 335 0028 A369     		ldr	r3, [r4, #24]
 336 002a 586A     		ldr	r0, [r3, #36]
 337              	.LVL32:
 338 002c F0E7     		b	.L17
 339              	.L21:
 340 002e C046     		.align	2
 341              	.L20:
 342 0030 00000000 		.word	rlist
ARM GAS  /tmp/ccSfJ2sN.s 			page 7


 343              	.LBE51:
 344              	.LBE50:
 345              		.cfi_endproc
 346              	.LFE11:
 347              		.size	chSemWaitS, .-chSemWaitS
 348              		.section	.text.chSemWaitTimeout,"ax",%progbits
 349              		.align	2
 350              		.p2align 4,,15
 351              		.global	chSemWaitTimeout
 352              		.code	16
 353              		.thumb_func
 354              		.type	chSemWaitTimeout, %function
 355              	chSemWaitTimeout:
 356              	.LFB12:
 357              		.loc 1 222 0
 358              		.cfi_startproc
 359              		@ args = 0, pretend = 0, frame = 0
 360              		@ frame_needed = 0, uses_anonymous_args = 0
 361              	.LVL33:
 362 0000 10B5     		push	{r4, lr}
 363              		.cfi_def_cfa_offset 8
 364              		.cfi_offset 4, -8
 365              		.cfi_offset 14, -4
 366              		.loc 1 222 0
 367 0002 0300     		movs	r3, r0
 368              		.loc 1 225 0
 369              		.syntax divided
 370              	@ 225 "../../os/kernel/src/chsem.c" 1
 371 0004 72B6     		cpsid   i
 372              	@ 0 "" 2
 373              	.LVL34:
 374              		.thumb
 375              		.syntax unified
 376              	.LBB60:
 377              	.LBB61:
 378              		.loc 1 254 0
 379 0006 8468     		ldr	r4, [r0, #8]
 380              		.loc 1 259 0
 381 0008 621E     		subs	r2, r4, #1
 382 000a 8260     		str	r2, [r0, #8]
 383              		.loc 1 268 0
 384 000c 0020     		movs	r0, #0
 385              	.LVL35:
 386              		.loc 1 259 0
 387 000e 002A     		cmp	r2, #0
 388 0010 01DB     		blt	.L26
 389              	.LVL36:
 390              	.L23:
 391              	.LBE61:
 392              	.LBE60:
 393              		.loc 1 227 0
 394              		.syntax divided
 395              	@ 227 "../../os/kernel/src/chsem.c" 1
 396 0012 62B6     		cpsie   i
 397              	@ 0 "" 2
 398              		.loc 1 229 0
 399              		.thumb
ARM GAS  /tmp/ccSfJ2sN.s 			page 8


 400              		.syntax unified
 401              		@ sp needed
 402 0014 10BD     		pop	{r4, pc}
 403              	.LVL37:
 404              	.L26:
 405              	.LBB67:
 406              	.LBB66:
 407              		.loc 1 260 0
 408 0016 0029     		cmp	r1, #0
 409 0018 0BD0     		beq	.L27
 410              	.LVL38:
 411              	.LBB62:
 412              	.LBB63:
 413              		.loc 1 264 0
 414 001a 074A     		ldr	r2, .L28
 415 001c 9269     		ldr	r2, [r2, #24]
 416 001e 5362     		str	r3, [r2, #36]
 417              	.LVL39:
 418              	.LBB64:
 419              	.LBB65:
 420              		.loc 2 55 0
 421 0020 5868     		ldr	r0, [r3, #4]
 422              		.loc 2 54 0
 423 0022 1360     		str	r3, [r2]
 424              		.loc 2 55 0
 425 0024 5060     		str	r0, [r2, #4]
 426              		.loc 2 56 0
 427 0026 5A60     		str	r2, [r3, #4]
 428 0028 0260     		str	r2, [r0]
 429              	.LVL40:
 430              	.LBE65:
 431              	.LBE64:
 432              		.loc 1 266 0
 433 002a 0320     		movs	r0, #3
 434 002c FFF7FEFF 		bl	chSchGoSleepTimeoutS
 435              	.LVL41:
 436 0030 EFE7     		b	.L23
 437              	.LVL42:
 438              	.L27:
 439              	.LBE63:
 440              	.LBE62:
 441              		.loc 1 261 0
 442 0032 9C60     		str	r4, [r3, #8]
 443              		.loc 1 262 0
 444 0034 0138     		subs	r0, r0, #1
 445 0036 ECE7     		b	.L23
 446              	.L29:
 447              		.align	2
 448              	.L28:
 449 0038 00000000 		.word	rlist
 450              	.LBE66:
 451              	.LBE67:
 452              		.cfi_endproc
 453              	.LFE12:
 454              		.size	chSemWaitTimeout, .-chSemWaitTimeout
 455              		.section	.text.chSemWaitTimeoutS,"ax",%progbits
 456              		.align	2
ARM GAS  /tmp/ccSfJ2sN.s 			page 9


 457              		.p2align 4,,15
 458              		.global	chSemWaitTimeoutS
 459              		.code	16
 460              		.thumb_func
 461              		.type	chSemWaitTimeoutS, %function
 462              	chSemWaitTimeoutS:
 463              	.LFB13:
 464              		.loc 1 250 0
 465              		.cfi_startproc
 466              		@ args = 0, pretend = 0, frame = 0
 467              		@ frame_needed = 0, uses_anonymous_args = 0
 468              	.LVL43:
 469 0000 10B5     		push	{r4, lr}
 470              		.cfi_def_cfa_offset 8
 471              		.cfi_offset 4, -8
 472              		.cfi_offset 14, -4
 473              		.loc 1 254 0
 474 0002 8468     		ldr	r4, [r0, #8]
 475              		.loc 1 250 0
 476 0004 0300     		movs	r3, r0
 477              		.loc 1 259 0
 478 0006 621E     		subs	r2, r4, #1
 479 0008 8260     		str	r2, [r0, #8]
 480              		.loc 1 268 0
 481 000a 0020     		movs	r0, #0
 482              	.LVL44:
 483              		.loc 1 259 0
 484 000c 002A     		cmp	r2, #0
 485 000e 00DB     		blt	.L34
 486              	.LVL45:
 487              	.L31:
 488              		.loc 1 269 0
 489              		@ sp needed
 490 0010 10BD     		pop	{r4, pc}
 491              	.LVL46:
 492              	.L34:
 493              		.loc 1 260 0
 494 0012 0029     		cmp	r1, #0
 495 0014 0BD0     		beq	.L35
 496              	.LVL47:
 497              	.LBB72:
 498              	.LBB73:
 499              		.loc 1 264 0
 500 0016 074A     		ldr	r2, .L36
 501 0018 9269     		ldr	r2, [r2, #24]
 502 001a 5362     		str	r3, [r2, #36]
 503              	.LVL48:
 504              	.LBB74:
 505              	.LBB75:
 506              		.loc 2 55 0
 507 001c 5868     		ldr	r0, [r3, #4]
 508              		.loc 2 54 0
 509 001e 1360     		str	r3, [r2]
 510              		.loc 2 55 0
 511 0020 5060     		str	r0, [r2, #4]
 512              		.loc 2 56 0
 513 0022 5A60     		str	r2, [r3, #4]
ARM GAS  /tmp/ccSfJ2sN.s 			page 10


 514 0024 0260     		str	r2, [r0]
 515              	.LVL49:
 516              	.LBE75:
 517              	.LBE74:
 518              		.loc 1 266 0
 519 0026 0320     		movs	r0, #3
 520 0028 FFF7FEFF 		bl	chSchGoSleepTimeoutS
 521              	.LVL50:
 522 002c F0E7     		b	.L31
 523              	.LVL51:
 524              	.L35:
 525              	.LBE73:
 526              	.LBE72:
 527              		.loc 1 261 0
 528 002e 9C60     		str	r4, [r3, #8]
 529              		.loc 1 262 0
 530 0030 0138     		subs	r0, r0, #1
 531 0032 EDE7     		b	.L31
 532              	.L37:
 533              		.align	2
 534              	.L36:
 535 0034 00000000 		.word	rlist
 536              		.cfi_endproc
 537              	.LFE13:
 538              		.size	chSemWaitTimeoutS, .-chSemWaitTimeoutS
 539              		.section	.text.chSemSignal,"ax",%progbits
 540              		.align	2
 541              		.p2align 4,,15
 542              		.global	chSemSignal
 543              		.code	16
 544              		.thumb_func
 545              		.type	chSemSignal, %function
 546              	chSemSignal:
 547              	.LFB14:
 548              		.loc 1 278 0
 549              		.cfi_startproc
 550              		@ args = 0, pretend = 0, frame = 0
 551              		@ frame_needed = 0, uses_anonymous_args = 0
 552              	.LVL52:
 553 0000 10B5     		push	{r4, lr}
 554              		.cfi_def_cfa_offset 8
 555              		.cfi_offset 4, -8
 556              		.cfi_offset 14, -4
 557              		.loc 1 286 0
 558              		.syntax divided
 559              	@ 286 "../../os/kernel/src/chsem.c" 1
 560 0002 72B6     		cpsid   i
 561              	@ 0 "" 2
 562              		.loc 1 287 0
 563              		.thumb
 564              		.syntax unified
 565 0004 8368     		ldr	r3, [r0, #8]
 566 0006 0133     		adds	r3, r3, #1
 567 0008 8360     		str	r3, [r0, #8]
 568 000a 002B     		cmp	r3, #0
 569 000c 01DD     		ble	.L40
 570              	.LVL53:
ARM GAS  /tmp/ccSfJ2sN.s 			page 11


 571              	.L39:
 572              		.loc 1 289 0
 573              		.syntax divided
 574              	@ 289 "../../os/kernel/src/chsem.c" 1
 575 000e 62B6     		cpsie   i
 576              	@ 0 "" 2
 577              		.loc 1 290 0
 578              		.thumb
 579              		.syntax unified
 580              		@ sp needed
 581 0010 10BD     		pop	{r4, pc}
 582              	.LVL54:
 583              	.L40:
 584              	.LBB76:
 585              	.LBB77:
 586              		.loc 2 60 0
 587 0012 0368     		ldr	r3, [r0]
 588              	.LVL55:
 589              	.LBE77:
 590              	.LBE76:
 591              		.loc 1 288 0
 592 0014 0021     		movs	r1, #0
 593              	.LBB79:
 594              	.LBB78:
 595              		.loc 2 62 0
 596 0016 1A68     		ldr	r2, [r3]
 597 0018 0260     		str	r2, [r0]
 598 001a 5060     		str	r0, [r2, #4]
 599              	.LVL56:
 600              	.LBE78:
 601              	.LBE79:
 602              		.loc 1 288 0
 603 001c 1800     		movs	r0, r3
 604              	.LVL57:
 605 001e FFF7FEFF 		bl	chSchWakeupS
 606              	.LVL58:
 607 0022 F4E7     		b	.L39
 608              		.cfi_endproc
 609              	.LFE14:
 610              		.size	chSemSignal, .-chSemSignal
 611              		.section	.text.chSemSignalI,"ax",%progbits
 612              		.align	2
 613              		.p2align 4,,15
 614              		.global	chSemSignalI
 615              		.code	16
 616              		.thumb_func
 617              		.type	chSemSignalI, %function
 618              	chSemSignalI:
 619              	.LFB15:
 620              		.loc 1 303 0
 621              		.cfi_startproc
 622              		@ args = 0, pretend = 0, frame = 0
 623              		@ frame_needed = 0, uses_anonymous_args = 0
 624              	.LVL59:
 625              		.loc 1 312 0
 626 0000 8368     		ldr	r3, [r0, #8]
 627              		.loc 1 303 0
ARM GAS  /tmp/ccSfJ2sN.s 			page 12


 628 0002 10B5     		push	{r4, lr}
 629              		.cfi_def_cfa_offset 8
 630              		.cfi_offset 4, -8
 631              		.cfi_offset 14, -4
 632              		.loc 1 312 0
 633 0004 0133     		adds	r3, r3, #1
 634 0006 8360     		str	r3, [r0, #8]
 635 0008 002B     		cmp	r3, #0
 636 000a 00DD     		ble	.L43
 637              	.LVL60:
 638              	.L41:
 639              		.loc 1 319 0
 640              		@ sp needed
 641 000c 10BD     		pop	{r4, pc}
 642              	.LVL61:
 643              	.L43:
 644              	.LBB80:
 645              	.LBB81:
 646              	.LBB82:
 647              		.loc 2 60 0
 648 000e 0368     		ldr	r3, [r0]
 649              	.LVL62:
 650              		.loc 2 62 0
 651 0010 1A68     		ldr	r2, [r3]
 652 0012 0260     		str	r2, [r0]
 653 0014 5060     		str	r0, [r2, #4]
 654              	.LVL63:
 655              	.LBE82:
 656              	.LBE81:
 657              		.loc 1 316 0
 658 0016 0022     		movs	r2, #0
 659              		.loc 1 317 0
 660 0018 1800     		movs	r0, r3
 661              	.LVL64:
 662              		.loc 1 316 0
 663 001a 5A62     		str	r2, [r3, #36]
 664              	.LVL65:
 665              		.loc 1 317 0
 666 001c FFF7FEFF 		bl	chSchReadyI
 667              	.LVL66:
 668              	.LBE80:
 669              		.loc 1 319 0
 670 0020 F4E7     		b	.L41
 671              		.cfi_endproc
 672              	.LFE15:
 673              		.size	chSemSignalI, .-chSemSignalI
 674 0022 C046     		.section	.text.chSemAddCounterI,"ax",%progbits
 675              		.align	2
 676              		.p2align 4,,15
 677              		.global	chSemAddCounterI
 678              		.code	16
 679              		.thumb_func
 680              		.type	chSemAddCounterI, %function
 681              	chSemAddCounterI:
 682              	.LFB16:
 683              		.loc 1 334 0
 684              		.cfi_startproc
ARM GAS  /tmp/ccSfJ2sN.s 			page 13


 685              		@ args = 0, pretend = 0, frame = 0
 686              		@ frame_needed = 0, uses_anonymous_args = 0
 687              	.LVL67:
 688 0000 70B5     		push	{r4, r5, r6, lr}
 689              		.cfi_def_cfa_offset 16
 690              		.cfi_offset 4, -16
 691              		.cfi_offset 5, -12
 692              		.cfi_offset 6, -8
 693              		.cfi_offset 14, -4
 694              		.loc 1 334 0
 695 0002 0500     		movs	r5, r0
 696 0004 0C00     		movs	r4, r1
 697              		.loc 1 345 0
 698 0006 0026     		movs	r6, #0
 699              		.loc 1 343 0
 700 0008 0029     		cmp	r1, #0
 701 000a 03DC     		bgt	.L49
 702 000c 11E0     		b	.L44
 703              	.LVL68:
 704              	.L46:
 705              		.loc 1 346 0
 706 000e 013C     		subs	r4, r4, #1
 707              	.LVL69:
 708              		.loc 1 343 0
 709 0010 002C     		cmp	r4, #0
 710 0012 0ED0     		beq	.L44
 711              	.L49:
 712              		.loc 1 344 0
 713 0014 AB68     		ldr	r3, [r5, #8]
 714 0016 0133     		adds	r3, r3, #1
 715 0018 AB60     		str	r3, [r5, #8]
 716 001a 002B     		cmp	r3, #0
 717 001c F7DC     		bgt	.L46
 718              	.LVL70:
 719              	.LBB83:
 720              	.LBB84:
 721              		.loc 2 60 0
 722 001e 2868     		ldr	r0, [r5]
 723              	.LVL71:
 724              	.LBE84:
 725              	.LBE83:
 726              		.loc 1 346 0
 727 0020 013C     		subs	r4, r4, #1
 728              	.LVL72:
 729              	.LBB86:
 730              	.LBB85:
 731              		.loc 2 62 0
 732 0022 0368     		ldr	r3, [r0]
 733 0024 2B60     		str	r3, [r5]
 734 0026 5D60     		str	r5, [r3, #4]
 735              	.LVL73:
 736              	.LBE85:
 737              	.LBE86:
 738              		.loc 1 345 0
 739 0028 FFF7FEFF 		bl	chSchReadyI
 740              	.LVL74:
 741 002c 4662     		str	r6, [r0, #36]
ARM GAS  /tmp/ccSfJ2sN.s 			page 14


 742              		.loc 1 343 0
 743 002e 002C     		cmp	r4, #0
 744 0030 F0D1     		bne	.L49
 745              	.L44:
 746              		.loc 1 348 0
 747              		@ sp needed
 748              	.LVL75:
 749              	.LVL76:
 750 0032 70BD     		pop	{r4, r5, r6, pc}
 751              		.cfi_endproc
 752              	.LFE16:
 753              		.size	chSemAddCounterI, .-chSemAddCounterI
 754              		.section	.text.chSemSignalWait,"ax",%progbits
 755              		.align	2
 756              		.p2align 4,,15
 757              		.global	chSemSignalWait
 758              		.code	16
 759              		.thumb_func
 760              		.type	chSemSignalWait, %function
 761              	chSemSignalWait:
 762              	.LFB17:
 763              		.loc 1 366 0
 764              		.cfi_startproc
 765              		@ args = 0, pretend = 0, frame = 0
 766              		@ frame_needed = 0, uses_anonymous_args = 0
 767              	.LVL77:
 768 0000 70B5     		push	{r4, r5, r6, lr}
 769              		.cfi_def_cfa_offset 16
 770              		.cfi_offset 4, -16
 771              		.cfi_offset 5, -12
 772              		.cfi_offset 6, -8
 773              		.cfi_offset 14, -4
 774              		.loc 1 366 0
 775 0002 0C00     		movs	r4, r1
 776              		.loc 1 379 0
 777              		.syntax divided
 778              	@ 379 "../../os/kernel/src/chsem.c" 1
 779 0004 72B6     		cpsid   i
 780              	@ 0 "" 2
 781              		.loc 1 380 0
 782              		.thumb
 783              		.syntax unified
 784 0006 8368     		ldr	r3, [r0, #8]
 785 0008 0133     		adds	r3, r3, #1
 786 000a 8360     		str	r3, [r0, #8]
 787 000c 002B     		cmp	r3, #0
 788 000e 16DD     		ble	.L55
 789              	.LVL78:
 790              	.L52:
 791              		.loc 1 382 0
 792 0010 A368     		ldr	r3, [r4, #8]
 793 0012 013B     		subs	r3, r3, #1
 794 0014 A360     		str	r3, [r4, #8]
 795 0016 002B     		cmp	r3, #0
 796 0018 04DB     		blt	.L56
 797              		.loc 1 390 0
 798 001a FFF7FEFF 		bl	chSchRescheduleS
ARM GAS  /tmp/ccSfJ2sN.s 			page 15


 799              	.LVL79:
 800              		.loc 1 391 0
 801 001e 0020     		movs	r0, #0
 802              	.LVL80:
 803              	.L54:
 804              		.loc 1 393 0
 805              		.syntax divided
 806              	@ 393 "../../os/kernel/src/chsem.c" 1
 807 0020 62B6     		cpsie   i
 808              	@ 0 "" 2
 809              		.loc 1 395 0
 810              		.thumb
 811              		.syntax unified
 812              		@ sp needed
 813              	.LVL81:
 814 0022 70BD     		pop	{r4, r5, r6, pc}
 815              	.LVL82:
 816              	.L56:
 817              	.LBB87:
 818              		.loc 1 383 0
 819 0024 0B4B     		ldr	r3, .L57
 820              		.loc 1 386 0
 821 0026 0320     		movs	r0, #3
 822              		.loc 1 383 0
 823 0028 9D69     		ldr	r5, [r3, #24]
 824              	.LVL83:
 825              	.LBB88:
 826              	.LBB89:
 827              		.loc 2 55 0
 828 002a 6368     		ldr	r3, [r4, #4]
 829              		.loc 2 54 0
 830 002c 2C60     		str	r4, [r5]
 831              		.loc 2 55 0
 832 002e 6B60     		str	r3, [r5, #4]
 833              		.loc 2 56 0
 834 0030 6560     		str	r5, [r4, #4]
 835 0032 1D60     		str	r5, [r3]
 836              	.LVL84:
 837              	.LBE89:
 838              	.LBE88:
 839              		.loc 1 385 0
 840 0034 6C62     		str	r4, [r5, #36]
 841              		.loc 1 386 0
 842 0036 FFF7FEFF 		bl	chSchGoSleepS
 843              	.LVL85:
 844              		.loc 1 387 0
 845 003a 686A     		ldr	r0, [r5, #36]
 846              	.LVL86:
 847              	.LBE87:
 848 003c F0E7     		b	.L54
 849              	.LVL87:
 850              	.L55:
 851              	.LBB90:
 852              	.LBB91:
 853              		.loc 2 60 0
 854 003e 0368     		ldr	r3, [r0]
 855              	.LVL88:
ARM GAS  /tmp/ccSfJ2sN.s 			page 16


 856              		.loc 2 62 0
 857 0040 1A68     		ldr	r2, [r3]
 858 0042 0260     		str	r2, [r0]
 859 0044 5060     		str	r0, [r2, #4]
 860              	.LVL89:
 861              	.LBE91:
 862              	.LBE90:
 863              		.loc 1 381 0
 864 0046 1800     		movs	r0, r3
 865              	.LVL90:
 866 0048 FFF7FEFF 		bl	chSchReadyI
 867              	.LVL91:
 868 004c 0023     		movs	r3, #0
 869 004e 4362     		str	r3, [r0, #36]
 870 0050 DEE7     		b	.L52
 871              	.L58:
 872 0052 C046     		.align	2
 873              	.L57:
 874 0054 00000000 		.word	rlist
 875              		.cfi_endproc
 876              	.LFE17:
 877              		.size	chSemSignalWait, .-chSemSignalWait
 878              		.text
 879              	.Letext0:
 880              		.file 3 "/home/lithium/Descargas/gcc-arm-none-eabi-5_3-2016q1/arm-none-eabi/include/machine/_defau
 881              		.file 4 "/home/lithium/Descargas/gcc-arm-none-eabi-5_3-2016q1/arm-none-eabi/include/sys/_stdint.h"
 882              		.file 5 "../../os/ports/GCC/ARMCMx/chtypes.h"
 883              		.file 6 "../../os/kernel/include/chlists.h"
 884              		.file 7 "../../os/kernel/include/chthreads.h"
 885              		.file 8 "../../os/ports/GCC/ARMCMx/chcore_v6m.h"
 886              		.file 9 "../../os/kernel/include/chschd.h"
 887              		.file 10 "../../os/kernel/include/chsem.h"
 888              		.file 11 "../../os/kernel/include/chmtx.h"
 889              		.section	.debug_info,"",%progbits
 890              	.Ldebug_info0:
 891 0000 890A0000 		.4byte	0xa89
 892 0004 0400     		.2byte	0x4
 893 0006 00000000 		.4byte	.Ldebug_abbrev0
 894 000a 04       		.byte	0x4
 895 000b 01       		.uleb128 0x1
 896 000c 86030000 		.4byte	.LASF90
 897 0010 0C       		.byte	0xc
 898 0011 AD000000 		.4byte	.LASF91
 899 0015 A7010000 		.4byte	.LASF92
 900 0019 78000000 		.4byte	.Ldebug_ranges0+0x78
 901 001d 00000000 		.4byte	0
 902 0021 00000000 		.4byte	.Ldebug_line0
 903 0025 02       		.uleb128 0x2
 904 0026 04       		.byte	0x4
 905 0027 05       		.byte	0x5
 906 0028 696E7400 		.ascii	"int\000"
 907 002c 03       		.uleb128 0x3
 908 002d 04       		.byte	0x4
 909 002e 07       		.byte	0x7
 910 002f 29010000 		.4byte	.LASF0
 911 0033 03       		.uleb128 0x3
 912 0034 08       		.byte	0x8
ARM GAS  /tmp/ccSfJ2sN.s 			page 17


 913 0035 05       		.byte	0x5
 914 0036 69000000 		.4byte	.LASF1
 915 003a 03       		.uleb128 0x3
 916 003b 08       		.byte	0x8
 917 003c 04       		.byte	0x4
 918 003d FB010000 		.4byte	.LASF2
 919 0041 03       		.uleb128 0x3
 920 0042 01       		.byte	0x1
 921 0043 06       		.byte	0x6
 922 0044 77000000 		.4byte	.LASF3
 923 0048 04       		.uleb128 0x4
 924 0049 27000000 		.4byte	.LASF7
 925 004d 03       		.byte	0x3
 926 004e 1D       		.byte	0x1d
 927 004f 53000000 		.4byte	0x53
 928 0053 03       		.uleb128 0x3
 929 0054 01       		.byte	0x1
 930 0055 08       		.byte	0x8
 931 0056 5E020000 		.4byte	.LASF4
 932 005a 03       		.uleb128 0x3
 933 005b 02       		.byte	0x2
 934 005c 05       		.byte	0x5
 935 005d 76020000 		.4byte	.LASF5
 936 0061 03       		.uleb128 0x3
 937 0062 02       		.byte	0x2
 938 0063 07       		.byte	0x7
 939 0064 67010000 		.4byte	.LASF6
 940 0068 04       		.uleb128 0x4
 941 0069 36030000 		.4byte	.LASF8
 942 006d 03       		.byte	0x3
 943 006e 3F       		.byte	0x3f
 944 006f 73000000 		.4byte	0x73
 945 0073 03       		.uleb128 0x3
 946 0074 04       		.byte	0x4
 947 0075 05       		.byte	0x5
 948 0076 C9000000 		.4byte	.LASF9
 949 007a 04       		.uleb128 0x4
 950 007b 0F010000 		.4byte	.LASF10
 951 007f 03       		.byte	0x3
 952 0080 41       		.byte	0x41
 953 0081 85000000 		.4byte	0x85
 954 0085 03       		.uleb128 0x3
 955 0086 04       		.byte	0x4
 956 0087 07       		.byte	0x7
 957 0088 47010000 		.4byte	.LASF11
 958 008c 03       		.uleb128 0x3
 959 008d 08       		.byte	0x8
 960 008e 07       		.byte	0x7
 961 008f 31000000 		.4byte	.LASF12
 962 0093 04       		.uleb128 0x4
 963 0094 7C040000 		.4byte	.LASF13
 964 0098 04       		.byte	0x4
 965 0099 14       		.byte	0x14
 966 009a 48000000 		.4byte	0x48
 967 009e 04       		.uleb128 0x4
 968 009f 56020000 		.4byte	.LASF14
 969 00a3 04       		.byte	0x4
ARM GAS  /tmp/ccSfJ2sN.s 			page 18


 970 00a4 1F       		.byte	0x1f
 971 00a5 68000000 		.4byte	0x68
 972 00a9 04       		.uleb128 0x4
 973 00aa DA020000 		.4byte	.LASF15
 974 00ae 04       		.byte	0x4
 975 00af 20       		.byte	0x20
 976 00b0 7A000000 		.4byte	0x7a
 977 00b4 03       		.uleb128 0x3
 978 00b5 01       		.byte	0x1
 979 00b6 02       		.byte	0x2
 980 00b7 50020000 		.4byte	.LASF16
 981 00bb 04       		.uleb128 0x4
 982 00bc 93010000 		.4byte	.LASF17
 983 00c0 05       		.byte	0x5
 984 00c1 2C       		.byte	0x2c
 985 00c2 93000000 		.4byte	0x93
 986 00c6 04       		.uleb128 0x4
 987 00c7 D2000000 		.4byte	.LASF18
 988 00cb 05       		.byte	0x5
 989 00cc 2D       		.byte	0x2d
 990 00cd 93000000 		.4byte	0x93
 991 00d1 04       		.uleb128 0x4
 992 00d2 39020000 		.4byte	.LASF19
 993 00d6 05       		.byte	0x5
 994 00d7 2E       		.byte	0x2e
 995 00d8 93000000 		.4byte	0x93
 996 00dc 04       		.uleb128 0x4
 997 00dd A3000000 		.4byte	.LASF20
 998 00e1 05       		.byte	0x5
 999 00e2 2F       		.byte	0x2f
 1000 00e3 93000000 		.4byte	0x93
 1001 00e7 04       		.uleb128 0x4
 1002 00e8 48020000 		.4byte	.LASF21
 1003 00ec 05       		.byte	0x5
 1004 00ed 30       		.byte	0x30
 1005 00ee A9000000 		.4byte	0xa9
 1006 00f2 04       		.uleb128 0x4
 1007 00f3 85010000 		.4byte	.LASF22
 1008 00f7 05       		.byte	0x5
 1009 00f8 31       		.byte	0x31
 1010 00f9 9E000000 		.4byte	0x9e
 1011 00fd 04       		.uleb128 0x4
 1012 00fe E0010000 		.4byte	.LASF23
 1013 0102 05       		.byte	0x5
 1014 0103 33       		.byte	0x33
 1015 0104 A9000000 		.4byte	0xa9
 1016 0108 04       		.uleb128 0x4
 1017 0109 21030000 		.4byte	.LASF24
 1018 010d 05       		.byte	0x5
 1019 010e 35       		.byte	0x35
 1020 010f A9000000 		.4byte	0xa9
 1021 0113 04       		.uleb128 0x4
 1022 0114 23010000 		.4byte	.LASF25
 1023 0118 05       		.byte	0x5
 1024 0119 36       		.byte	0x36
 1025 011a 9E000000 		.4byte	0x9e
 1026 011e 04       		.uleb128 0x4
ARM GAS  /tmp/ccSfJ2sN.s 			page 19


 1027 011f BA020000 		.4byte	.LASF26
 1028 0123 06       		.byte	0x6
 1029 0124 2A       		.byte	0x2a
 1030 0125 29010000 		.4byte	0x129
 1031 0129 05       		.uleb128 0x5
 1032 012a BA020000 		.4byte	.LASF26
 1033 012e 48       		.byte	0x48
 1034 012f 07       		.byte	0x7
 1035 0130 5E       		.byte	0x5e
 1036 0131 26020000 		.4byte	0x226
 1037 0135 06       		.uleb128 0x6
 1038 0136 A0020000 		.4byte	.LASF27
 1039 013a 07       		.byte	0x7
 1040 013b 5F       		.byte	0x5f
 1041 013c 47020000 		.4byte	0x247
 1042 0140 00       		.byte	0
 1043 0141 06       		.uleb128 0x6
 1044 0142 41020000 		.4byte	.LASF28
 1045 0146 07       		.byte	0x7
 1046 0147 61       		.byte	0x61
 1047 0148 47020000 		.4byte	0x247
 1048 014c 04       		.byte	0x4
 1049 014d 06       		.uleb128 0x6
 1050 014e 62000000 		.4byte	.LASF29
 1051 0152 07       		.byte	0x7
 1052 0153 63       		.byte	0x63
 1053 0154 E7000000 		.4byte	0xe7
 1054 0158 08       		.byte	0x8
 1055 0159 06       		.uleb128 0x6
 1056 015a AF040000 		.4byte	.LASF30
 1057 015e 07       		.byte	0x7
 1058 015f 64       		.byte	0x64
 1059 0160 F7020000 		.4byte	0x2f7
 1060 0164 0C       		.byte	0xc
 1061 0165 06       		.uleb128 0x6
 1062 0166 EE000000 		.4byte	.LASF31
 1063 016a 07       		.byte	0x7
 1064 016b 66       		.byte	0x66
 1065 016c 47020000 		.4byte	0x247
 1066 0170 10       		.byte	0x10
 1067 0171 06       		.uleb128 0x6
 1068 0172 07020000 		.4byte	.LASF32
 1069 0176 07       		.byte	0x7
 1070 0177 67       		.byte	0x67
 1071 0178 47020000 		.4byte	0x247
 1072 017c 14       		.byte	0x14
 1073 017d 06       		.uleb128 0x6
 1074 017e 8B040000 		.4byte	.LASF33
 1075 0182 07       		.byte	0x7
 1076 0183 6E       		.byte	0x6e
 1077 0184 25040000 		.4byte	0x425
 1078 0188 18       		.byte	0x18
 1079 0189 06       		.uleb128 0x6
 1080 018a 80020000 		.4byte	.LASF34
 1081 018e 07       		.byte	0x7
 1082 018f 79       		.byte	0x79
 1083 0190 C6000000 		.4byte	0xc6
ARM GAS  /tmp/ccSfJ2sN.s 			page 20


 1084 0194 1C       		.byte	0x1c
 1085 0195 06       		.uleb128 0x6
 1086 0196 A7020000 		.4byte	.LASF35
 1087 019a 07       		.byte	0x7
 1088 019b 7D       		.byte	0x7d
 1089 019c BB000000 		.4byte	0xbb
 1090 01a0 1D       		.byte	0x1d
 1091 01a1 06       		.uleb128 0x6
 1092 01a2 DB000000 		.4byte	.LASF36
 1093 01a6 07       		.byte	0x7
 1094 01a7 82       		.byte	0x82
 1095 01a8 D1000000 		.4byte	0xd1
 1096 01ac 1E       		.byte	0x1e
 1097 01ad 06       		.uleb128 0x6
 1098 01ae 88020000 		.4byte	.LASF37
 1099 01b2 07       		.byte	0x7
 1100 01b3 88       		.byte	0x88
 1101 01b4 DC000000 		.4byte	0xdc
 1102 01b8 1F       		.byte	0x1f
 1103 01b9 06       		.uleb128 0x6
 1104 01ba 4A030000 		.4byte	.LASF38
 1105 01be 07       		.byte	0x7
 1106 01bf 8F       		.byte	0x8f
 1107 01c0 1D030000 		.4byte	0x31d
 1108 01c4 20       		.byte	0x20
 1109 01c5 07       		.uleb128 0x7
 1110 01c6 705F7500 		.ascii	"p_u\000"
 1111 01ca 07       		.byte	0x7
 1112 01cb B4       		.byte	0xb4
 1113 01cc F0030000 		.4byte	0x3f0
 1114 01d0 24       		.byte	0x24
 1115 01d1 06       		.uleb128 0x6
 1116 01d2 B5040000 		.4byte	.LASF39
 1117 01d6 07       		.byte	0x7
 1118 01d7 B9       		.byte	0xb9
 1119 01d8 6D020000 		.4byte	0x26d
 1120 01dc 28       		.byte	0x28
 1121 01dd 06       		.uleb128 0x6
 1122 01de 64030000 		.4byte	.LASF40
 1123 01e2 07       		.byte	0x7
 1124 01e3 BF       		.byte	0xbf
 1125 01e4 4D020000 		.4byte	0x24d
 1126 01e8 2C       		.byte	0x2c
 1127 01e9 06       		.uleb128 0x6
 1128 01ea 00000000 		.4byte	.LASF41
 1129 01ee 07       		.byte	0x7
 1130 01ef C3       		.byte	0xc3
 1131 01f0 F2000000 		.4byte	0xf2
 1132 01f4 34       		.byte	0x34
 1133 01f5 06       		.uleb128 0x6
 1134 01f6 CF020000 		.4byte	.LASF42
 1135 01fa 07       		.byte	0x7
 1136 01fb C9       		.byte	0xc9
 1137 01fc FD000000 		.4byte	0xfd
 1138 0200 38       		.byte	0x38
 1139 0201 06       		.uleb128 0x6
 1140 0202 6C020000 		.4byte	.LASF43
ARM GAS  /tmp/ccSfJ2sN.s 			page 21


 1141 0206 07       		.byte	0x7
 1142 0207 D0       		.byte	0xd0
 1143 0208 37040000 		.4byte	0x437
 1144 020c 3C       		.byte	0x3c
 1145 020d 06       		.uleb128 0x6
 1146 020e 2B030000 		.4byte	.LASF44
 1147 0212 07       		.byte	0x7
 1148 0213 D4       		.byte	0xd4
 1149 0214 E7000000 		.4byte	0xe7
 1150 0218 40       		.byte	0x40
 1151 0219 06       		.uleb128 0x6
 1152 021a 93000000 		.4byte	.LASF45
 1153 021e 07       		.byte	0x7
 1154 021f DA       		.byte	0xda
 1155 0220 83020000 		.4byte	0x283
 1156 0224 44       		.byte	0x44
 1157 0225 00       		.byte	0
 1158 0226 08       		.uleb128 0x8
 1159 0227 08       		.byte	0x8
 1160 0228 06       		.byte	0x6
 1161 0229 61       		.byte	0x61
 1162 022a 47020000 		.4byte	0x247
 1163 022e 06       		.uleb128 0x6
 1164 022f A0020000 		.4byte	.LASF27
 1165 0233 06       		.byte	0x6
 1166 0234 62       		.byte	0x62
 1167 0235 47020000 		.4byte	0x247
 1168 0239 00       		.byte	0
 1169 023a 06       		.uleb128 0x6
 1170 023b 41020000 		.4byte	.LASF28
 1171 023f 06       		.byte	0x6
 1172 0240 64       		.byte	0x64
 1173 0241 47020000 		.4byte	0x247
 1174 0245 04       		.byte	0x4
 1175 0246 00       		.byte	0
 1176 0247 09       		.uleb128 0x9
 1177 0248 04       		.byte	0x4
 1178 0249 1E010000 		.4byte	0x11e
 1179 024d 04       		.uleb128 0x4
 1180 024e 15020000 		.4byte	.LASF46
 1181 0252 06       		.byte	0x6
 1182 0253 66       		.byte	0x66
 1183 0254 26020000 		.4byte	0x226
 1184 0258 08       		.uleb128 0x8
 1185 0259 04       		.byte	0x4
 1186 025a 06       		.byte	0x6
 1187 025b 6B       		.byte	0x6b
 1188 025c 6D020000 		.4byte	0x26d
 1189 0260 06       		.uleb128 0x6
 1190 0261 A0020000 		.4byte	.LASF27
 1191 0265 06       		.byte	0x6
 1192 0266 6D       		.byte	0x6d
 1193 0267 47020000 		.4byte	0x247
 1194 026b 00       		.byte	0
 1195 026c 00       		.byte	0
 1196 026d 04       		.uleb128 0x4
 1197 026e 9B010000 		.4byte	.LASF47
ARM GAS  /tmp/ccSfJ2sN.s 			page 22


 1198 0272 06       		.byte	0x6
 1199 0273 70       		.byte	0x70
 1200 0274 58020000 		.4byte	0x258
 1201 0278 04       		.uleb128 0x4
 1202 0279 1A010000 		.4byte	.LASF48
 1203 027d 08       		.byte	0x8
 1204 027e A7       		.byte	0xa7
 1205 027f 83020000 		.4byte	0x283
 1206 0283 0A       		.uleb128 0xa
 1207 0284 04       		.byte	0x4
 1208 0285 05       		.uleb128 0x5
 1209 0286 5D030000 		.4byte	.LASF49
 1210 028a 24       		.byte	0x24
 1211 028b 08       		.byte	0x8
 1212 028c BA       		.byte	0xba
 1213 028d F7020000 		.4byte	0x2f7
 1214 0291 07       		.uleb128 0x7
 1215 0292 723800   		.ascii	"r8\000"
 1216 0295 08       		.byte	0x8
 1217 0296 BB       		.byte	0xbb
 1218 0297 78020000 		.4byte	0x278
 1219 029b 00       		.byte	0
 1220 029c 07       		.uleb128 0x7
 1221 029d 723900   		.ascii	"r9\000"
 1222 02a0 08       		.byte	0x8
 1223 02a1 BC       		.byte	0xbc
 1224 02a2 78020000 		.4byte	0x278
 1225 02a6 04       		.byte	0x4
 1226 02a7 07       		.uleb128 0x7
 1227 02a8 72313000 		.ascii	"r10\000"
 1228 02ac 08       		.byte	0x8
 1229 02ad BD       		.byte	0xbd
 1230 02ae 78020000 		.4byte	0x278
 1231 02b2 08       		.byte	0x8
 1232 02b3 07       		.uleb128 0x7
 1233 02b4 72313100 		.ascii	"r11\000"
 1234 02b8 08       		.byte	0x8
 1235 02b9 BE       		.byte	0xbe
 1236 02ba 78020000 		.4byte	0x278
 1237 02be 0C       		.byte	0xc
 1238 02bf 07       		.uleb128 0x7
 1239 02c0 723400   		.ascii	"r4\000"
 1240 02c3 08       		.byte	0x8
 1241 02c4 BF       		.byte	0xbf
 1242 02c5 78020000 		.4byte	0x278
 1243 02c9 10       		.byte	0x10
 1244 02ca 07       		.uleb128 0x7
 1245 02cb 723500   		.ascii	"r5\000"
 1246 02ce 08       		.byte	0x8
 1247 02cf C0       		.byte	0xc0
 1248 02d0 78020000 		.4byte	0x278
 1249 02d4 14       		.byte	0x14
 1250 02d5 07       		.uleb128 0x7
 1251 02d6 723600   		.ascii	"r6\000"
 1252 02d9 08       		.byte	0x8
 1253 02da C1       		.byte	0xc1
 1254 02db 78020000 		.4byte	0x278
ARM GAS  /tmp/ccSfJ2sN.s 			page 23


 1255 02df 18       		.byte	0x18
 1256 02e0 07       		.uleb128 0x7
 1257 02e1 723700   		.ascii	"r7\000"
 1258 02e4 08       		.byte	0x8
 1259 02e5 C2       		.byte	0xc2
 1260 02e6 78020000 		.4byte	0x278
 1261 02ea 1C       		.byte	0x1c
 1262 02eb 07       		.uleb128 0x7
 1263 02ec 6C7200   		.ascii	"lr\000"
 1264 02ef 08       		.byte	0x8
 1265 02f0 C3       		.byte	0xc3
 1266 02f1 78020000 		.4byte	0x278
 1267 02f5 20       		.byte	0x20
 1268 02f6 00       		.byte	0
 1269 02f7 05       		.uleb128 0x5
 1270 02f8 5F010000 		.4byte	.LASF50
 1271 02fc 04       		.byte	0x4
 1272 02fd 08       		.byte	0x8
 1273 02fe CD       		.byte	0xcd
 1274 02ff 10030000 		.4byte	0x310
 1275 0303 07       		.uleb128 0x7
 1276 0304 72313300 		.ascii	"r13\000"
 1277 0308 08       		.byte	0x8
 1278 0309 CE       		.byte	0xce
 1279 030a 10030000 		.4byte	0x310
 1280 030e 00       		.byte	0
 1281 030f 00       		.byte	0
 1282 0310 09       		.uleb128 0x9
 1283 0311 04       		.byte	0x4
 1284 0312 85020000 		.4byte	0x285
 1285 0316 03       		.uleb128 0x3
 1286 0317 04       		.byte	0x4
 1287 0318 07       		.byte	0x7
 1288 0319 F2010000 		.4byte	.LASF51
 1289 031d 0B       		.uleb128 0xb
 1290 031e 08010000 		.4byte	0x108
 1291 0322 08       		.uleb128 0x8
 1292 0323 1C       		.byte	0x1c
 1293 0324 09       		.byte	0x9
 1294 0325 5E       		.byte	0x5e
 1295 0326 73030000 		.4byte	0x373
 1296 032a 06       		.uleb128 0x6
 1297 032b E3020000 		.4byte	.LASF52
 1298 032f 09       		.byte	0x9
 1299 0330 5F       		.byte	0x5f
 1300 0331 4D020000 		.4byte	0x24d
 1301 0335 00       		.byte	0
 1302 0336 06       		.uleb128 0x6
 1303 0337 92020000 		.4byte	.LASF53
 1304 033b 09       		.byte	0x9
 1305 033c 60       		.byte	0x60
 1306 033d E7000000 		.4byte	0xe7
 1307 0341 08       		.byte	0x8
 1308 0342 06       		.uleb128 0x6
 1309 0343 0F020000 		.4byte	.LASF54
 1310 0347 09       		.byte	0x9
 1311 0348 62       		.byte	0x62
ARM GAS  /tmp/ccSfJ2sN.s 			page 24


 1312 0349 F7020000 		.4byte	0x2f7
 1313 034d 0C       		.byte	0xc
 1314 034e 06       		.uleb128 0x6
 1315 034f 8B010000 		.4byte	.LASF55
 1316 0353 09       		.byte	0x9
 1317 0354 65       		.byte	0x65
 1318 0355 47020000 		.4byte	0x247
 1319 0359 10       		.byte	0x10
 1320 035a 06       		.uleb128 0x6
 1321 035b 31020000 		.4byte	.LASF56
 1322 035f 09       		.byte	0x9
 1323 0360 66       		.byte	0x66
 1324 0361 47020000 		.4byte	0x247
 1325 0365 14       		.byte	0x14
 1326 0366 06       		.uleb128 0x6
 1327 0367 27020000 		.4byte	.LASF57
 1328 036b 09       		.byte	0x9
 1329 036c 69       		.byte	0x69
 1330 036d 47020000 		.4byte	0x247
 1331 0371 18       		.byte	0x18
 1332 0372 00       		.byte	0
 1333 0373 04       		.uleb128 0x4
 1334 0374 60040000 		.4byte	.LASF58
 1335 0378 09       		.byte	0x9
 1336 0379 6B       		.byte	0x6b
 1337 037a 22030000 		.4byte	0x322
 1338 037e 05       		.uleb128 0x5
 1339 037f 7C030000 		.4byte	.LASF59
 1340 0383 0C       		.byte	0xc
 1341 0384 0A       		.byte	0xa
 1342 0385 2C       		.byte	0x2c
 1343 0386 A3030000 		.4byte	0x3a3
 1344 038a 06       		.uleb128 0x6
 1345 038b F6000000 		.4byte	.LASF60
 1346 038f 0A       		.byte	0xa
 1347 0390 2D       		.byte	0x2d
 1348 0391 4D020000 		.4byte	0x24d
 1349 0395 00       		.byte	0
 1350 0396 06       		.uleb128 0x6
 1351 0397 59010000 		.4byte	.LASF61
 1352 039b 0A       		.byte	0xa
 1353 039c 2F       		.byte	0x2f
 1354 039d 13010000 		.4byte	0x113
 1355 03a1 08       		.byte	0x8
 1356 03a2 00       		.byte	0
 1357 03a3 04       		.uleb128 0x4
 1358 03a4 7C030000 		.4byte	.LASF59
 1359 03a8 0A       		.byte	0xa
 1360 03a9 30       		.byte	0x30
 1361 03aa 7E030000 		.4byte	0x37e
 1362 03ae 05       		.uleb128 0x5
 1363 03af EC010000 		.4byte	.LASF62
 1364 03b3 10       		.byte	0x10
 1365 03b4 0B       		.byte	0xb
 1366 03b5 2C       		.byte	0x2c
 1367 03b6 DF030000 		.4byte	0x3df
 1368 03ba 06       		.uleb128 0x6
ARM GAS  /tmp/ccSfJ2sN.s 			page 25


 1369 03bb 9B000000 		.4byte	.LASF63
 1370 03bf 0B       		.byte	0xb
 1371 03c0 2D       		.byte	0x2d
 1372 03c1 4D020000 		.4byte	0x24d
 1373 03c5 00       		.byte	0
 1374 03c6 06       		.uleb128 0x6
 1375 03c7 A7040000 		.4byte	.LASF64
 1376 03cb 0B       		.byte	0xb
 1377 03cc 2F       		.byte	0x2f
 1378 03cd 47020000 		.4byte	0x247
 1379 03d1 08       		.byte	0x8
 1380 03d2 06       		.uleb128 0x6
 1381 03d3 1A030000 		.4byte	.LASF65
 1382 03d7 0B       		.byte	0xb
 1383 03d8 31       		.byte	0x31
 1384 03d9 DF030000 		.4byte	0x3df
 1385 03dd 0C       		.byte	0xc
 1386 03de 00       		.byte	0
 1387 03df 09       		.uleb128 0x9
 1388 03e0 04       		.byte	0x4
 1389 03e1 AE030000 		.4byte	0x3ae
 1390 03e5 04       		.uleb128 0x4
 1391 03e6 EC010000 		.4byte	.LASF62
 1392 03ea 0B       		.byte	0xb
 1393 03eb 33       		.byte	0x33
 1394 03ec AE030000 		.4byte	0x3ae
 1395 03f0 0C       		.uleb128 0xc
 1396 03f1 04       		.byte	0x4
 1397 03f2 07       		.byte	0x7
 1398 03f3 96       		.byte	0x96
 1399 03f4 25040000 		.4byte	0x425
 1400 03f8 0D       		.uleb128 0xd
 1401 03f9 20000000 		.4byte	.LASF66
 1402 03fd 07       		.byte	0x7
 1403 03fe 9D       		.byte	0x9d
 1404 03ff F2000000 		.4byte	0xf2
 1405 0403 0D       		.uleb128 0xd
 1406 0404 48000000 		.4byte	.LASF67
 1407 0408 07       		.byte	0x7
 1408 0409 A4       		.byte	0xa4
 1409 040a F2000000 		.4byte	0xf2
 1410 040e 0D       		.uleb128 0xd
 1411 040f 84040000 		.4byte	.LASF68
 1412 0413 07       		.byte	0x7
 1413 0414 AB       		.byte	0xab
 1414 0415 83020000 		.4byte	0x283
 1415 0419 0D       		.uleb128 0xd
 1416 041a 99020000 		.4byte	.LASF69
 1417 041e 07       		.byte	0x7
 1418 041f B2       		.byte	0xb2
 1419 0420 FD000000 		.4byte	0xfd
 1420 0424 00       		.byte	0
 1421 0425 09       		.uleb128 0x9
 1422 0426 04       		.byte	0x4
 1423 0427 32040000 		.4byte	0x432
 1424 042b 03       		.uleb128 0x3
 1425 042c 01       		.byte	0x1
ARM GAS  /tmp/ccSfJ2sN.s 			page 26


 1426 042d 08       		.byte	0x8
 1427 042e F7020000 		.4byte	.LASF70
 1428 0432 0E       		.uleb128 0xe
 1429 0433 2B040000 		.4byte	0x42b
 1430 0437 09       		.uleb128 0x9
 1431 0438 04       		.byte	0x4
 1432 0439 E5030000 		.4byte	0x3e5
 1433 043d 0F       		.uleb128 0xf
 1434 043e 51030000 		.4byte	.LASF74
 1435 0442 02       		.byte	0x2
 1436 0443 42       		.byte	0x42
 1437 0444 47020000 		.4byte	0x247
 1438 0448 03       		.byte	0x3
 1439 0449 63040000 		.4byte	0x463
 1440 044d 10       		.uleb128 0x10
 1441 044e 74717000 		.ascii	"tqp\000"
 1442 0452 02       		.byte	0x2
 1443 0453 42       		.byte	0x42
 1444 0454 63040000 		.4byte	0x463
 1445 0458 11       		.uleb128 0x11
 1446 0459 747000   		.ascii	"tp\000"
 1447 045c 02       		.byte	0x2
 1448 045d 43       		.byte	0x43
 1449 045e 47020000 		.4byte	0x247
 1450 0462 00       		.byte	0
 1451 0463 09       		.uleb128 0x9
 1452 0464 04       		.byte	0x4
 1453 0465 4D020000 		.4byte	0x24d
 1454 0469 12       		.uleb128 0x12
 1455 046a 06000000 		.4byte	.LASF93
 1456 046e 02       		.byte	0x2
 1457 046f 34       		.byte	0x34
 1458 0470 03       		.byte	0x3
 1459 0471 8B040000 		.4byte	0x48b
 1460 0475 10       		.uleb128 0x10
 1461 0476 747000   		.ascii	"tp\000"
 1462 0479 02       		.byte	0x2
 1463 047a 34       		.byte	0x34
 1464 047b 47020000 		.4byte	0x247
 1465 047f 10       		.uleb128 0x10
 1466 0480 74717000 		.ascii	"tqp\000"
 1467 0484 02       		.byte	0x2
 1468 0485 34       		.byte	0x34
 1469 0486 63040000 		.4byte	0x463
 1470 048a 00       		.byte	0
 1471 048b 13       		.uleb128 0x13
 1472 048c AF020000 		.4byte	.LASF71
 1473 0490 01       		.byte	0x1
 1474 0491 B9       		.byte	0xb9
 1475 0492 F2000000 		.4byte	0xf2
 1476 0496 01       		.byte	0x1
 1477 0497 A6040000 		.4byte	0x4a6
 1478 049b 10       		.uleb128 0x10
 1479 049c 737000   		.ascii	"sp\000"
 1480 049f 01       		.byte	0x1
 1481 04a0 B9       		.byte	0xb9
 1482 04a1 A6040000 		.4byte	0x4a6
ARM GAS  /tmp/ccSfJ2sN.s 			page 27


 1483 04a5 00       		.byte	0
 1484 04a6 09       		.uleb128 0x9
 1485 04a7 04       		.byte	0x4
 1486 04a8 A3030000 		.4byte	0x3a3
 1487 04ac 13       		.uleb128 0x13
 1488 04ad 08030000 		.4byte	.LASF72
 1489 04b1 01       		.byte	0x1
 1490 04b2 FA       		.byte	0xfa
 1491 04b3 F2000000 		.4byte	0xf2
 1492 04b7 01       		.byte	0x1
 1493 04b8 D2040000 		.4byte	0x4d2
 1494 04bc 10       		.uleb128 0x10
 1495 04bd 737000   		.ascii	"sp\000"
 1496 04c0 01       		.byte	0x1
 1497 04c1 FA       		.byte	0xfa
 1498 04c2 A6040000 		.4byte	0x4a6
 1499 04c6 14       		.uleb128 0x14
 1500 04c7 22020000 		.4byte	.LASF73
 1501 04cb 01       		.byte	0x1
 1502 04cc FA       		.byte	0xfa
 1503 04cd 08010000 		.4byte	0x108
 1504 04d1 00       		.byte	0
 1505 04d2 0F       		.uleb128 0xf
 1506 04d3 FC020000 		.4byte	.LASF75
 1507 04d7 02       		.byte	0x2
 1508 04d8 3B       		.byte	0x3b
 1509 04d9 47020000 		.4byte	0x247
 1510 04dd 03       		.byte	0x3
 1511 04de F8040000 		.4byte	0x4f8
 1512 04e2 10       		.uleb128 0x10
 1513 04e3 74717000 		.ascii	"tqp\000"
 1514 04e7 02       		.byte	0x2
 1515 04e8 3B       		.byte	0x3b
 1516 04e9 63040000 		.4byte	0x463
 1517 04ed 11       		.uleb128 0x11
 1518 04ee 747000   		.ascii	"tp\000"
 1519 04f1 02       		.byte	0x2
 1520 04f2 3C       		.byte	0x3c
 1521 04f3 47020000 		.4byte	0x247
 1522 04f7 00       		.byte	0
 1523 04f8 15       		.uleb128 0x15
 1524 04f9 BF040000 		.4byte	.LASF76
 1525 04fd 01       		.byte	0x1
 1526 04fe 56       		.byte	0x56
 1527 04ff 00000000 		.4byte	.LFB7
 1528 0503 08000000 		.4byte	.LFE7-.LFB7
 1529 0507 01       		.uleb128 0x1
 1530 0508 9C       		.byte	0x9c
 1531 0509 25050000 		.4byte	0x525
 1532 050d 16       		.uleb128 0x16
 1533 050e 737000   		.ascii	"sp\000"
 1534 0511 01       		.byte	0x1
 1535 0512 56       		.byte	0x56
 1536 0513 A6040000 		.4byte	0x4a6
 1537 0517 01       		.uleb128 0x1
 1538 0518 50       		.byte	0x50
 1539 0519 16       		.uleb128 0x16
ARM GAS  /tmp/ccSfJ2sN.s 			page 28


 1540 051a 6E00     		.ascii	"n\000"
 1541 051c 01       		.byte	0x1
 1542 051d 56       		.byte	0x56
 1543 051e 13010000 		.4byte	0x113
 1544 0522 01       		.uleb128 0x1
 1545 0523 51       		.byte	0x51
 1546 0524 00       		.byte	0
 1547 0525 15       		.uleb128 0x15
 1548 0526 6A040000 		.4byte	.LASF77
 1549 052a 01       		.byte	0x1
 1550 052b 88       		.byte	0x88
 1551 052c 00000000 		.4byte	.LFB9
 1552 0530 28000000 		.4byte	.LFE9-.LFB9
 1553 0534 01       		.uleb128 0x1
 1554 0535 9C       		.byte	0x9c
 1555 0536 9A050000 		.4byte	0x59a
 1556 053a 17       		.uleb128 0x17
 1557 053b 737000   		.ascii	"sp\000"
 1558 053e 01       		.byte	0x1
 1559 053f 88       		.byte	0x88
 1560 0540 A6040000 		.4byte	0x4a6
 1561 0544 00000000 		.4byte	.LLST0
 1562 0548 17       		.uleb128 0x17
 1563 0549 6E00     		.ascii	"n\000"
 1564 054b 01       		.byte	0x1
 1565 054c 88       		.byte	0x88
 1566 054d 13010000 		.4byte	0x113
 1567 0551 2C000000 		.4byte	.LLST1
 1568 0555 18       		.uleb128 0x18
 1569 0556 636E7400 		.ascii	"cnt\000"
 1570 055a 01       		.byte	0x1
 1571 055b 89       		.byte	0x89
 1572 055c 13010000 		.4byte	0x113
 1573 0560 4D000000 		.4byte	.LLST2
 1574 0564 19       		.uleb128 0x19
 1575 0565 3D040000 		.4byte	0x43d
 1576 0569 12000000 		.4byte	.LBB28
 1577 056d 00000000 		.4byte	.Ldebug_ranges0+0
 1578 0571 01       		.byte	0x1
 1579 0572 95       		.byte	0x95
 1580 0573 90050000 		.4byte	0x590
 1581 0577 1A       		.uleb128 0x1a
 1582 0578 4D040000 		.4byte	0x44d
 1583 057c 8F000000 		.4byte	.LLST3
 1584 0580 1B       		.uleb128 0x1b
 1585 0581 00000000 		.4byte	.Ldebug_ranges0+0
 1586 0585 1C       		.uleb128 0x1c
 1587 0586 58040000 		.4byte	0x458
 1588 058a A2000000 		.4byte	.LLST4
 1589 058e 00       		.byte	0
 1590 058f 00       		.byte	0
 1591 0590 1D       		.uleb128 0x1d
 1592 0591 20000000 		.4byte	.LVL9
 1593 0595 550A0000 		.4byte	0xa55
 1594 0599 00       		.byte	0
 1595 059a 15       		.uleb128 0x15
 1596 059b 7A010000 		.4byte	.LASF78
ARM GAS  /tmp/ccSfJ2sN.s 			page 29


 1597 059f 01       		.byte	0x1
 1598 05a0 6D       		.byte	0x6d
 1599 05a1 00000000 		.4byte	.LFB8
 1600 05a5 10000000 		.4byte	.LFE8-.LFB8
 1601 05a9 01       		.uleb128 0x1
 1602 05aa 9C       		.byte	0x9c
 1603 05ab F0050000 		.4byte	0x5f0
 1604 05af 17       		.uleb128 0x17
 1605 05b0 737000   		.ascii	"sp\000"
 1606 05b3 01       		.byte	0x1
 1607 05b4 6D       		.byte	0x6d
 1608 05b5 A6040000 		.4byte	0x4a6
 1609 05b9 B5000000 		.4byte	.LLST5
 1610 05bd 17       		.uleb128 0x17
 1611 05be 6E00     		.ascii	"n\000"
 1612 05c0 01       		.byte	0x1
 1613 05c1 6D       		.byte	0x6d
 1614 05c2 13010000 		.4byte	0x113
 1615 05c6 D6000000 		.4byte	.LLST6
 1616 05ca 1E       		.uleb128 0x1e
 1617 05cb 08000000 		.4byte	.LVL14
 1618 05cf 25050000 		.4byte	0x525
 1619 05d3 E6050000 		.4byte	0x5e6
 1620 05d7 1F       		.uleb128 0x1f
 1621 05d8 01       		.uleb128 0x1
 1622 05d9 50       		.byte	0x50
 1623 05da 03       		.uleb128 0x3
 1624 05db F3       		.byte	0xf3
 1625 05dc 01       		.uleb128 0x1
 1626 05dd 50       		.byte	0x50
 1627 05de 1F       		.uleb128 0x1f
 1628 05df 01       		.uleb128 0x1
 1629 05e0 51       		.byte	0x51
 1630 05e1 03       		.uleb128 0x3
 1631 05e2 F3       		.byte	0xf3
 1632 05e3 01       		.uleb128 0x1
 1633 05e4 51       		.byte	0x51
 1634 05e5 00       		.byte	0
 1635 05e6 1D       		.uleb128 0x1d
 1636 05e7 0C000000 		.4byte	.LVL15
 1637 05eb 600A0000 		.4byte	0xa60
 1638 05ef 00       		.byte	0
 1639 05f0 20       		.uleb128 0x20
 1640 05f1 40030000 		.4byte	.LASF79
 1641 05f5 01       		.byte	0x1
 1642 05f6 A4       		.byte	0xa4
 1643 05f7 F2000000 		.4byte	0xf2
 1644 05fb 00000000 		.4byte	.LFB10
 1645 05ff 38000000 		.4byte	.LFE10-.LFB10
 1646 0603 01       		.uleb128 0x1
 1647 0604 9C       		.byte	0x9c
 1648 0605 84060000 		.4byte	0x684
 1649 0609 17       		.uleb128 0x17
 1650 060a 737000   		.ascii	"sp\000"
 1651 060d 01       		.byte	0x1
 1652 060e A4       		.byte	0xa4
 1653 060f A6040000 		.4byte	0x4a6
ARM GAS  /tmp/ccSfJ2sN.s 			page 30


 1654 0613 F7000000 		.4byte	.LLST7
 1655 0617 11       		.uleb128 0x11
 1656 0618 6D736700 		.ascii	"msg\000"
 1657 061c 01       		.byte	0x1
 1658 061d A5       		.byte	0xa5
 1659 061e F2000000 		.4byte	0xf2
 1660 0622 21       		.uleb128 0x21
 1661 0623 8B040000 		.4byte	0x48b
 1662 0627 06000000 		.4byte	.LBB38
 1663 062b 18000000 		.4byte	.Ldebug_ranges0+0x18
 1664 062f 01       		.byte	0x1
 1665 0630 A8       		.byte	0xa8
 1666 0631 1A       		.uleb128 0x1a
 1667 0632 9B040000 		.4byte	0x49b
 1668 0636 3C010000 		.4byte	.LLST8
 1669 063a 22       		.uleb128 0x22
 1670 063b 16000000 		.4byte	.LBB40
 1671 063f 22000000 		.4byte	.LBE40-.LBB40
 1672 0643 1A       		.uleb128 0x1a
 1673 0644 9B040000 		.4byte	0x49b
 1674 0648 73010000 		.4byte	.LLST9
 1675 064c 23       		.uleb128 0x23
 1676 064d 69040000 		.4byte	0x469
 1677 0651 1E000000 		.4byte	.LBB42
 1678 0655 0A000000 		.4byte	.LBE42-.LBB42
 1679 0659 01       		.byte	0x1
 1680 065a C4       		.byte	0xc4
 1681 065b 72060000 		.4byte	0x672
 1682 065f 1A       		.uleb128 0x1a
 1683 0660 7F040000 		.4byte	0x47f
 1684 0664 94010000 		.4byte	.LLST10
 1685 0668 1A       		.uleb128 0x1a
 1686 0669 75040000 		.4byte	0x475
 1687 066d A7010000 		.4byte	.LLST11
 1688 0671 00       		.byte	0
 1689 0672 24       		.uleb128 0x24
 1690 0673 2C000000 		.4byte	.LVL23
 1691 0677 6B0A0000 		.4byte	0xa6b
 1692 067b 1F       		.uleb128 0x1f
 1693 067c 01       		.uleb128 0x1
 1694 067d 50       		.byte	0x50
 1695 067e 01       		.uleb128 0x1
 1696 067f 33       		.byte	0x33
 1697 0680 00       		.byte	0
 1698 0681 00       		.byte	0
 1699 0682 00       		.byte	0
 1700 0683 00       		.byte	0
 1701 0684 25       		.uleb128 0x25
 1702 0685 8B040000 		.4byte	0x48b
 1703 0689 00000000 		.4byte	.LFB11
 1704 068d 34000000 		.4byte	.LFE11-.LFB11
 1705 0691 01       		.uleb128 0x1
 1706 0692 9C       		.byte	0x9c
 1707 0693 E9060000 		.4byte	0x6e9
 1708 0697 1A       		.uleb128 0x1a
 1709 0698 9B040000 		.4byte	0x49b
 1710 069c BA010000 		.4byte	.LLST12
ARM GAS  /tmp/ccSfJ2sN.s 			page 31


 1711 06a0 22       		.uleb128 0x22
 1712 06a1 12000000 		.4byte	.LBB50
 1713 06a5 22000000 		.4byte	.LBE50-.LBB50
 1714 06a9 1A       		.uleb128 0x1a
 1715 06aa 9B040000 		.4byte	0x49b
 1716 06ae FF010000 		.4byte	.LLST13
 1717 06b2 23       		.uleb128 0x23
 1718 06b3 69040000 		.4byte	0x469
 1719 06b7 1A000000 		.4byte	.LBB52
 1720 06bb 0A000000 		.4byte	.LBE52-.LBB52
 1721 06bf 01       		.byte	0x1
 1722 06c0 C4       		.byte	0xc4
 1723 06c1 D8060000 		.4byte	0x6d8
 1724 06c5 1A       		.uleb128 0x1a
 1725 06c6 7F040000 		.4byte	0x47f
 1726 06ca 20020000 		.4byte	.LLST14
 1727 06ce 1A       		.uleb128 0x1a
 1728 06cf 75040000 		.4byte	0x475
 1729 06d3 33020000 		.4byte	.LLST15
 1730 06d7 00       		.byte	0
 1731 06d8 24       		.uleb128 0x24
 1732 06d9 28000000 		.4byte	.LVL31
 1733 06dd 6B0A0000 		.4byte	0xa6b
 1734 06e1 1F       		.uleb128 0x1f
 1735 06e2 01       		.uleb128 0x1
 1736 06e3 50       		.byte	0x50
 1737 06e4 01       		.uleb128 0x1
 1738 06e5 33       		.byte	0x33
 1739 06e6 00       		.byte	0
 1740 06e7 00       		.byte	0
 1741 06e8 00       		.byte	0
 1742 06e9 20       		.uleb128 0x20
 1743 06ea 36010000 		.4byte	.LASF80
 1744 06ee 01       		.byte	0x1
 1745 06ef DE       		.byte	0xde
 1746 06f0 F2000000 		.4byte	0xf2
 1747 06f4 00000000 		.4byte	.LFB12
 1748 06f8 3C000000 		.4byte	.LFE12-.LFB12
 1749 06fc 01       		.uleb128 0x1
 1750 06fd 9C       		.byte	0x9c
 1751 06fe A6070000 		.4byte	0x7a6
 1752 0702 17       		.uleb128 0x17
 1753 0703 737000   		.ascii	"sp\000"
 1754 0706 01       		.byte	0x1
 1755 0707 DE       		.byte	0xde
 1756 0708 A6040000 		.4byte	0x4a6
 1757 070c 46020000 		.4byte	.LLST16
 1758 0710 26       		.uleb128 0x26
 1759 0711 22020000 		.4byte	.LASF73
 1760 0715 01       		.byte	0x1
 1761 0716 DE       		.byte	0xde
 1762 0717 08010000 		.4byte	0x108
 1763 071b 96020000 		.4byte	.LLST17
 1764 071f 11       		.uleb128 0x11
 1765 0720 6D736700 		.ascii	"msg\000"
 1766 0724 01       		.byte	0x1
 1767 0725 DF       		.byte	0xdf
ARM GAS  /tmp/ccSfJ2sN.s 			page 32


 1768 0726 F2000000 		.4byte	0xf2
 1769 072a 21       		.uleb128 0x21
 1770 072b AC040000 		.4byte	0x4ac
 1771 072f 06000000 		.4byte	.LBB60
 1772 0733 30000000 		.4byte	.Ldebug_ranges0+0x30
 1773 0737 01       		.byte	0x1
 1774 0738 E2       		.byte	0xe2
 1775 0739 1A       		.uleb128 0x1a
 1776 073a C6040000 		.4byte	0x4c6
 1777 073e DB020000 		.4byte	.LLST18
 1778 0742 1A       		.uleb128 0x1a
 1779 0743 BC040000 		.4byte	0x4bc
 1780 0747 12030000 		.4byte	.LLST19
 1781 074b 22       		.uleb128 0x22
 1782 074c 1A000000 		.4byte	.LBB62
 1783 0750 18000000 		.4byte	.LBE62-.LBB62
 1784 0754 1A       		.uleb128 0x1a
 1785 0755 C6040000 		.4byte	0x4c6
 1786 0759 54030000 		.4byte	.LLST20
 1787 075d 1A       		.uleb128 0x1a
 1788 075e BC040000 		.4byte	0x4bc
 1789 0762 75030000 		.4byte	.LLST21
 1790 0766 27       		.uleb128 0x27
 1791 0767 69040000 		.4byte	0x469
 1792 076b 20000000 		.4byte	.LBB64
 1793 076f 0A000000 		.4byte	.LBE64-.LBB64
 1794 0773 01       		.byte	0x1
 1795 0774 0901     		.2byte	0x109
 1796 0776 8D070000 		.4byte	0x78d
 1797 077a 1A       		.uleb128 0x1a
 1798 077b 7F040000 		.4byte	0x47f
 1799 077f 96030000 		.4byte	.LLST22
 1800 0783 1A       		.uleb128 0x1a
 1801 0784 75040000 		.4byte	0x475
 1802 0788 A9030000 		.4byte	.LLST23
 1803 078c 00       		.byte	0
 1804 078d 24       		.uleb128 0x24
 1805 078e 30000000 		.4byte	.LVL41
 1806 0792 760A0000 		.4byte	0xa76
 1807 0796 1F       		.uleb128 0x1f
 1808 0797 01       		.uleb128 0x1
 1809 0798 50       		.byte	0x50
 1810 0799 01       		.uleb128 0x1
 1811 079a 33       		.byte	0x33
 1812 079b 1F       		.uleb128 0x1f
 1813 079c 01       		.uleb128 0x1
 1814 079d 51       		.byte	0x51
 1815 079e 03       		.uleb128 0x3
 1816 079f F3       		.byte	0xf3
 1817 07a0 01       		.uleb128 0x1
 1818 07a1 51       		.byte	0x51
 1819 07a2 00       		.byte	0
 1820 07a3 00       		.byte	0
 1821 07a4 00       		.byte	0
 1822 07a5 00       		.byte	0
 1823 07a6 25       		.uleb128 0x25
 1824 07a7 AC040000 		.4byte	0x4ac
ARM GAS  /tmp/ccSfJ2sN.s 			page 33


 1825 07ab 00000000 		.4byte	.LFB13
 1826 07af 38000000 		.4byte	.LFE13-.LFB13
 1827 07b3 01       		.uleb128 0x1
 1828 07b4 9C       		.byte	0x9c
 1829 07b5 25080000 		.4byte	0x825
 1830 07b9 1A       		.uleb128 0x1a
 1831 07ba BC040000 		.4byte	0x4bc
 1832 07be BC030000 		.4byte	.LLST24
 1833 07c2 1A       		.uleb128 0x1a
 1834 07c3 C6040000 		.4byte	0x4c6
 1835 07c7 0C040000 		.4byte	.LLST25
 1836 07cb 22       		.uleb128 0x22
 1837 07cc 16000000 		.4byte	.LBB72
 1838 07d0 18000000 		.4byte	.LBE72-.LBB72
 1839 07d4 1A       		.uleb128 0x1a
 1840 07d5 C6040000 		.4byte	0x4c6
 1841 07d9 51040000 		.4byte	.LLST26
 1842 07dd 1A       		.uleb128 0x1a
 1843 07de BC040000 		.4byte	0x4bc
 1844 07e2 72040000 		.4byte	.LLST27
 1845 07e6 27       		.uleb128 0x27
 1846 07e7 69040000 		.4byte	0x469
 1847 07eb 1C000000 		.4byte	.LBB74
 1848 07ef 0A000000 		.4byte	.LBE74-.LBB74
 1849 07f3 01       		.byte	0x1
 1850 07f4 0901     		.2byte	0x109
 1851 07f6 0D080000 		.4byte	0x80d
 1852 07fa 1A       		.uleb128 0x1a
 1853 07fb 7F040000 		.4byte	0x47f
 1854 07ff 93040000 		.4byte	.LLST28
 1855 0803 1A       		.uleb128 0x1a
 1856 0804 75040000 		.4byte	0x475
 1857 0808 A6040000 		.4byte	.LLST29
 1858 080c 00       		.byte	0
 1859 080d 24       		.uleb128 0x24
 1860 080e 2C000000 		.4byte	.LVL50
 1861 0812 760A0000 		.4byte	0xa76
 1862 0816 1F       		.uleb128 0x1f
 1863 0817 01       		.uleb128 0x1
 1864 0818 50       		.byte	0x50
 1865 0819 01       		.uleb128 0x1
 1866 081a 33       		.byte	0x33
 1867 081b 1F       		.uleb128 0x1f
 1868 081c 01       		.uleb128 0x1
 1869 081d 51       		.byte	0x51
 1870 081e 03       		.uleb128 0x3
 1871 081f F3       		.byte	0xf3
 1872 0820 01       		.uleb128 0x1
 1873 0821 51       		.byte	0x51
 1874 0822 00       		.byte	0
 1875 0823 00       		.byte	0
 1876 0824 00       		.byte	0
 1877 0825 28       		.uleb128 0x28
 1878 0826 E2000000 		.4byte	.LASF81
 1879 082a 01       		.byte	0x1
 1880 082b 1601     		.2byte	0x116
 1881 082d 00000000 		.4byte	.LFB14
ARM GAS  /tmp/ccSfJ2sN.s 			page 34


 1882 0831 24000000 		.4byte	.LFE14-.LFB14
 1883 0835 01       		.uleb128 0x1
 1884 0836 9C       		.byte	0x9c
 1885 0837 87080000 		.4byte	0x887
 1886 083b 29       		.uleb128 0x29
 1887 083c 737000   		.ascii	"sp\000"
 1888 083f 01       		.byte	0x1
 1889 0840 1601     		.2byte	0x116
 1890 0842 A6040000 		.4byte	0x4a6
 1891 0846 B9040000 		.4byte	.LLST30
 1892 084a 2A       		.uleb128 0x2a
 1893 084b D2040000 		.4byte	0x4d2
 1894 084f 12000000 		.4byte	.LBB76
 1895 0853 48000000 		.4byte	.Ldebug_ranges0+0x48
 1896 0857 01       		.byte	0x1
 1897 0858 2001     		.2byte	0x120
 1898 085a 77080000 		.4byte	0x877
 1899 085e 1A       		.uleb128 0x1a
 1900 085f E2040000 		.4byte	0x4e2
 1901 0863 FF040000 		.4byte	.LLST31
 1902 0867 1B       		.uleb128 0x1b
 1903 0868 48000000 		.4byte	.Ldebug_ranges0+0x48
 1904 086c 1C       		.uleb128 0x1c
 1905 086d ED040000 		.4byte	0x4ed
 1906 0871 12050000 		.4byte	.LLST32
 1907 0875 00       		.byte	0
 1908 0876 00       		.byte	0
 1909 0877 24       		.uleb128 0x24
 1910 0878 22000000 		.4byte	.LVL58
 1911 087c 810A0000 		.4byte	0xa81
 1912 0880 1F       		.uleb128 0x1f
 1913 0881 01       		.uleb128 0x1
 1914 0882 51       		.byte	0x51
 1915 0883 01       		.uleb128 0x1
 1916 0884 30       		.byte	0x30
 1917 0885 00       		.byte	0
 1918 0886 00       		.byte	0
 1919 0887 28       		.uleb128 0x28
 1920 0888 13000000 		.4byte	.LASF82
 1921 088c 01       		.byte	0x1
 1922 088d 2F01     		.2byte	0x12f
 1923 088f 00000000 		.4byte	.LFB15
 1924 0893 22000000 		.4byte	.LFE15-.LFB15
 1925 0897 01       		.uleb128 0x1
 1926 0898 9C       		.byte	0x9c
 1927 0899 FE080000 		.4byte	0x8fe
 1928 089d 29       		.uleb128 0x29
 1929 089e 737000   		.ascii	"sp\000"
 1930 08a1 01       		.byte	0x1
 1931 08a2 2F01     		.2byte	0x12f
 1932 08a4 A6040000 		.4byte	0x4a6
 1933 08a8 25050000 		.4byte	.LLST33
 1934 08ac 22       		.uleb128 0x22
 1935 08ad 0E000000 		.4byte	.LBB80
 1936 08b1 12000000 		.4byte	.LBE80-.LBB80
 1937 08b5 2B       		.uleb128 0x2b
 1938 08b6 747000   		.ascii	"tp\000"
ARM GAS  /tmp/ccSfJ2sN.s 			page 35


 1939 08b9 01       		.byte	0x1
 1940 08ba 3B01     		.2byte	0x13b
 1941 08bc 47020000 		.4byte	0x247
 1942 08c0 01       		.uleb128 0x1
 1943 08c1 53       		.byte	0x53
 1944 08c2 27       		.uleb128 0x27
 1945 08c3 D2040000 		.4byte	0x4d2
 1946 08c7 0E000000 		.4byte	.LBB81
 1947 08cb 08000000 		.4byte	.LBE81-.LBB81
 1948 08cf 01       		.byte	0x1
 1949 08d0 3B01     		.2byte	0x13b
 1950 08d2 F3080000 		.4byte	0x8f3
 1951 08d6 1A       		.uleb128 0x1a
 1952 08d7 E2040000 		.4byte	0x4e2
 1953 08db 6E050000 		.4byte	.LLST34
 1954 08df 22       		.uleb128 0x22
 1955 08e0 0E000000 		.4byte	.LBB82
 1956 08e4 08000000 		.4byte	.LBE82-.LBB82
 1957 08e8 1C       		.uleb128 0x1c
 1958 08e9 ED040000 		.4byte	0x4ed
 1959 08ed 81050000 		.4byte	.LLST35
 1960 08f1 00       		.byte	0
 1961 08f2 00       		.byte	0
 1962 08f3 1D       		.uleb128 0x1d
 1963 08f4 20000000 		.4byte	.LVL66
 1964 08f8 550A0000 		.4byte	0xa55
 1965 08fc 00       		.byte	0
 1966 08fd 00       		.byte	0
 1967 08fe 28       		.uleb128 0x28
 1968 08ff 51000000 		.4byte	.LASF83
 1969 0903 01       		.byte	0x1
 1970 0904 4E01     		.2byte	0x14e
 1971 0906 00000000 		.4byte	.LFB16
 1972 090a 34000000 		.4byte	.LFE16-.LFB16
 1973 090e 01       		.uleb128 0x1
 1974 090f 9C       		.byte	0x9c
 1975 0910 68090000 		.4byte	0x968
 1976 0914 29       		.uleb128 0x29
 1977 0915 737000   		.ascii	"sp\000"
 1978 0918 01       		.byte	0x1
 1979 0919 4E01     		.2byte	0x14e
 1980 091b A6040000 		.4byte	0x4a6
 1981 091f 94050000 		.4byte	.LLST36
 1982 0923 29       		.uleb128 0x29
 1983 0924 6E00     		.ascii	"n\000"
 1984 0926 01       		.byte	0x1
 1985 0927 4E01     		.2byte	0x14e
 1986 0929 13010000 		.4byte	0x113
 1987 092d C0050000 		.4byte	.LLST37
 1988 0931 2A       		.uleb128 0x2a
 1989 0932 D2040000 		.4byte	0x4d2
 1990 0936 1E000000 		.4byte	.LBB83
 1991 093a 60000000 		.4byte	.Ldebug_ranges0+0x60
 1992 093e 01       		.byte	0x1
 1993 093f 5901     		.2byte	0x159
 1994 0941 5E090000 		.4byte	0x95e
 1995 0945 1A       		.uleb128 0x1a
ARM GAS  /tmp/ccSfJ2sN.s 			page 36


 1996 0946 E2040000 		.4byte	0x4e2
 1997 094a F6050000 		.4byte	.LLST38
 1998 094e 1B       		.uleb128 0x1b
 1999 094f 60000000 		.4byte	.Ldebug_ranges0+0x60
 2000 0953 1C       		.uleb128 0x1c
 2001 0954 ED040000 		.4byte	0x4ed
 2002 0958 09060000 		.4byte	.LLST39
 2003 095c 00       		.byte	0
 2004 095d 00       		.byte	0
 2005 095e 1D       		.uleb128 0x1d
 2006 095f 2C000000 		.4byte	.LVL74
 2007 0963 550A0000 		.4byte	0xa55
 2008 0967 00       		.byte	0
 2009 0968 2C       		.uleb128 0x2c
 2010 0969 83000000 		.4byte	.LASF84
 2011 096d 01       		.byte	0x1
 2012 096e 6E01     		.2byte	0x16e
 2013 0970 F2000000 		.4byte	0xf2
 2014 0974 00000000 		.4byte	.LFB17
 2015 0978 58000000 		.4byte	.LFE17-.LFB17
 2016 097c 01       		.uleb128 0x1
 2017 097d 9C       		.byte	0x9c
 2018 097e 4A0A0000 		.4byte	0xa4a
 2019 0982 29       		.uleb128 0x29
 2020 0983 73707300 		.ascii	"sps\000"
 2021 0987 01       		.byte	0x1
 2022 0988 6E01     		.2byte	0x16e
 2023 098a A6040000 		.4byte	0x4a6
 2024 098e 1C060000 		.4byte	.LLST40
 2025 0992 29       		.uleb128 0x29
 2026 0993 73707700 		.ascii	"spw\000"
 2027 0997 01       		.byte	0x1
 2028 0998 6E01     		.2byte	0x16e
 2029 099a A6040000 		.4byte	0x4a6
 2030 099e 62060000 		.4byte	.LLST41
 2031 09a2 2D       		.uleb128 0x2d
 2032 09a3 6D736700 		.ascii	"msg\000"
 2033 09a7 01       		.byte	0x1
 2034 09a8 6F01     		.2byte	0x16f
 2035 09aa F2000000 		.4byte	0xf2
 2036 09ae AF060000 		.4byte	.LLST42
 2037 09b2 2E       		.uleb128 0x2e
 2038 09b3 24000000 		.4byte	.LBB87
 2039 09b7 18000000 		.4byte	.LBE87-.LBB87
 2040 09bb 060A0000 		.4byte	0xa06
 2041 09bf 2D       		.uleb128 0x2d
 2042 09c0 63747000 		.ascii	"ctp\000"
 2043 09c4 01       		.byte	0x1
 2044 09c5 7F01     		.2byte	0x17f
 2045 09c7 47020000 		.4byte	0x247
 2046 09cb D9060000 		.4byte	.LLST43
 2047 09cf 27       		.uleb128 0x27
 2048 09d0 69040000 		.4byte	0x469
 2049 09d4 2A000000 		.4byte	.LBB88
 2050 09d8 0A000000 		.4byte	.LBE88-.LBB88
 2051 09dc 01       		.byte	0x1
 2052 09dd 8001     		.2byte	0x180
ARM GAS  /tmp/ccSfJ2sN.s 			page 37


 2053 09df F6090000 		.4byte	0x9f6
 2054 09e3 1A       		.uleb128 0x1a
 2055 09e4 7F040000 		.4byte	0x47f
 2056 09e8 EC060000 		.4byte	.LLST44
 2057 09ec 1A       		.uleb128 0x1a
 2058 09ed 75040000 		.4byte	0x475
 2059 09f1 FF060000 		.4byte	.LLST45
 2060 09f5 00       		.byte	0
 2061 09f6 24       		.uleb128 0x24
 2062 09f7 3A000000 		.4byte	.LVL85
 2063 09fb 6B0A0000 		.4byte	0xa6b
 2064 09ff 1F       		.uleb128 0x1f
 2065 0a00 01       		.uleb128 0x1
 2066 0a01 50       		.byte	0x50
 2067 0a02 01       		.uleb128 0x1
 2068 0a03 33       		.byte	0x33
 2069 0a04 00       		.byte	0
 2070 0a05 00       		.byte	0
 2071 0a06 27       		.uleb128 0x27
 2072 0a07 D2040000 		.4byte	0x4d2
 2073 0a0b 3E000000 		.4byte	.LBB90
 2074 0a0f 08000000 		.4byte	.LBE90-.LBB90
 2075 0a13 01       		.byte	0x1
 2076 0a14 7D01     		.2byte	0x17d
 2077 0a16 370A0000 		.4byte	0xa37
 2078 0a1a 1A       		.uleb128 0x1a
 2079 0a1b E2040000 		.4byte	0x4e2
 2080 0a1f 12070000 		.4byte	.LLST46
 2081 0a23 22       		.uleb128 0x22
 2082 0a24 3E000000 		.4byte	.LBB91
 2083 0a28 08000000 		.4byte	.LBE91-.LBB91
 2084 0a2c 1C       		.uleb128 0x1c
 2085 0a2d ED040000 		.4byte	0x4ed
 2086 0a31 25070000 		.4byte	.LLST47
 2087 0a35 00       		.byte	0
 2088 0a36 00       		.byte	0
 2089 0a37 1D       		.uleb128 0x1d
 2090 0a38 1E000000 		.4byte	.LVL79
 2091 0a3c 600A0000 		.4byte	0xa60
 2092 0a40 1D       		.uleb128 0x1d
 2093 0a41 4C000000 		.4byte	.LVL91
 2094 0a45 550A0000 		.4byte	0xa55
 2095 0a49 00       		.byte	0
 2096 0a4a 2F       		.uleb128 0x2f
 2097 0a4b 76040000 		.4byte	.LASF94
 2098 0a4f 09       		.byte	0x9
 2099 0a50 6F       		.byte	0x6f
 2100 0a51 73030000 		.4byte	0x373
 2101 0a55 30       		.uleb128 0x30
 2102 0a56 EB020000 		.4byte	.LASF85
 2103 0a5a EB020000 		.4byte	.LASF85
 2104 0a5e 09       		.byte	0x9
 2105 0a5f 90       		.byte	0x90
 2106 0a60 30       		.uleb128 0x30
 2107 0a61 FE000000 		.4byte	.LASF86
 2108 0a65 FE000000 		.4byte	.LASF86
 2109 0a69 09       		.byte	0x9
ARM GAS  /tmp/ccSfJ2sN.s 			page 38


 2110 0a6a 9C       		.byte	0x9c
 2111 0a6b 30       		.uleb128 0x30
 2112 0a6c C1020000 		.4byte	.LASF87
 2113 0a70 C1020000 		.4byte	.LASF87
 2114 0a74 09       		.byte	0x9
 2115 0a75 93       		.byte	0x93
 2116 0a76 30       		.uleb128 0x30
 2117 0a77 92040000 		.4byte	.LASF88
 2118 0a7b 92040000 		.4byte	.LASF88
 2119 0a7f 09       		.byte	0x9
 2120 0a80 96       		.byte	0x96
 2121 0a81 30       		.uleb128 0x30
 2122 0a82 6F030000 		.4byte	.LASF89
 2123 0a86 6F030000 		.4byte	.LASF89
 2124 0a8a 09       		.byte	0x9
 2125 0a8b 99       		.byte	0x99
 2126 0a8c 00       		.byte	0
 2127              		.section	.debug_abbrev,"",%progbits
 2128              	.Ldebug_abbrev0:
 2129 0000 01       		.uleb128 0x1
 2130 0001 11       		.uleb128 0x11
 2131 0002 01       		.byte	0x1
 2132 0003 25       		.uleb128 0x25
 2133 0004 0E       		.uleb128 0xe
 2134 0005 13       		.uleb128 0x13
 2135 0006 0B       		.uleb128 0xb
 2136 0007 03       		.uleb128 0x3
 2137 0008 0E       		.uleb128 0xe
 2138 0009 1B       		.uleb128 0x1b
 2139 000a 0E       		.uleb128 0xe
 2140 000b 55       		.uleb128 0x55
 2141 000c 17       		.uleb128 0x17
 2142 000d 11       		.uleb128 0x11
 2143 000e 01       		.uleb128 0x1
 2144 000f 10       		.uleb128 0x10
 2145 0010 17       		.uleb128 0x17
 2146 0011 00       		.byte	0
 2147 0012 00       		.byte	0
 2148 0013 02       		.uleb128 0x2
 2149 0014 24       		.uleb128 0x24
 2150 0015 00       		.byte	0
 2151 0016 0B       		.uleb128 0xb
 2152 0017 0B       		.uleb128 0xb
 2153 0018 3E       		.uleb128 0x3e
 2154 0019 0B       		.uleb128 0xb
 2155 001a 03       		.uleb128 0x3
 2156 001b 08       		.uleb128 0x8
 2157 001c 00       		.byte	0
 2158 001d 00       		.byte	0
 2159 001e 03       		.uleb128 0x3
 2160 001f 24       		.uleb128 0x24
 2161 0020 00       		.byte	0
 2162 0021 0B       		.uleb128 0xb
 2163 0022 0B       		.uleb128 0xb
 2164 0023 3E       		.uleb128 0x3e
 2165 0024 0B       		.uleb128 0xb
 2166 0025 03       		.uleb128 0x3
ARM GAS  /tmp/ccSfJ2sN.s 			page 39


 2167 0026 0E       		.uleb128 0xe
 2168 0027 00       		.byte	0
 2169 0028 00       		.byte	0
 2170 0029 04       		.uleb128 0x4
 2171 002a 16       		.uleb128 0x16
 2172 002b 00       		.byte	0
 2173 002c 03       		.uleb128 0x3
 2174 002d 0E       		.uleb128 0xe
 2175 002e 3A       		.uleb128 0x3a
 2176 002f 0B       		.uleb128 0xb
 2177 0030 3B       		.uleb128 0x3b
 2178 0031 0B       		.uleb128 0xb
 2179 0032 49       		.uleb128 0x49
 2180 0033 13       		.uleb128 0x13
 2181 0034 00       		.byte	0
 2182 0035 00       		.byte	0
 2183 0036 05       		.uleb128 0x5
 2184 0037 13       		.uleb128 0x13
 2185 0038 01       		.byte	0x1
 2186 0039 03       		.uleb128 0x3
 2187 003a 0E       		.uleb128 0xe
 2188 003b 0B       		.uleb128 0xb
 2189 003c 0B       		.uleb128 0xb
 2190 003d 3A       		.uleb128 0x3a
 2191 003e 0B       		.uleb128 0xb
 2192 003f 3B       		.uleb128 0x3b
 2193 0040 0B       		.uleb128 0xb
 2194 0041 01       		.uleb128 0x1
 2195 0042 13       		.uleb128 0x13
 2196 0043 00       		.byte	0
 2197 0044 00       		.byte	0
 2198 0045 06       		.uleb128 0x6
 2199 0046 0D       		.uleb128 0xd
 2200 0047 00       		.byte	0
 2201 0048 03       		.uleb128 0x3
 2202 0049 0E       		.uleb128 0xe
 2203 004a 3A       		.uleb128 0x3a
 2204 004b 0B       		.uleb128 0xb
 2205 004c 3B       		.uleb128 0x3b
 2206 004d 0B       		.uleb128 0xb
 2207 004e 49       		.uleb128 0x49
 2208 004f 13       		.uleb128 0x13
 2209 0050 38       		.uleb128 0x38
 2210 0051 0B       		.uleb128 0xb
 2211 0052 00       		.byte	0
 2212 0053 00       		.byte	0
 2213 0054 07       		.uleb128 0x7
 2214 0055 0D       		.uleb128 0xd
 2215 0056 00       		.byte	0
 2216 0057 03       		.uleb128 0x3
 2217 0058 08       		.uleb128 0x8
 2218 0059 3A       		.uleb128 0x3a
 2219 005a 0B       		.uleb128 0xb
 2220 005b 3B       		.uleb128 0x3b
 2221 005c 0B       		.uleb128 0xb
 2222 005d 49       		.uleb128 0x49
 2223 005e 13       		.uleb128 0x13
ARM GAS  /tmp/ccSfJ2sN.s 			page 40


 2224 005f 38       		.uleb128 0x38
 2225 0060 0B       		.uleb128 0xb
 2226 0061 00       		.byte	0
 2227 0062 00       		.byte	0
 2228 0063 08       		.uleb128 0x8
 2229 0064 13       		.uleb128 0x13
 2230 0065 01       		.byte	0x1
 2231 0066 0B       		.uleb128 0xb
 2232 0067 0B       		.uleb128 0xb
 2233 0068 3A       		.uleb128 0x3a
 2234 0069 0B       		.uleb128 0xb
 2235 006a 3B       		.uleb128 0x3b
 2236 006b 0B       		.uleb128 0xb
 2237 006c 01       		.uleb128 0x1
 2238 006d 13       		.uleb128 0x13
 2239 006e 00       		.byte	0
 2240 006f 00       		.byte	0
 2241 0070 09       		.uleb128 0x9
 2242 0071 0F       		.uleb128 0xf
 2243 0072 00       		.byte	0
 2244 0073 0B       		.uleb128 0xb
 2245 0074 0B       		.uleb128 0xb
 2246 0075 49       		.uleb128 0x49
 2247 0076 13       		.uleb128 0x13
 2248 0077 00       		.byte	0
 2249 0078 00       		.byte	0
 2250 0079 0A       		.uleb128 0xa
 2251 007a 0F       		.uleb128 0xf
 2252 007b 00       		.byte	0
 2253 007c 0B       		.uleb128 0xb
 2254 007d 0B       		.uleb128 0xb
 2255 007e 00       		.byte	0
 2256 007f 00       		.byte	0
 2257 0080 0B       		.uleb128 0xb
 2258 0081 35       		.uleb128 0x35
 2259 0082 00       		.byte	0
 2260 0083 49       		.uleb128 0x49
 2261 0084 13       		.uleb128 0x13
 2262 0085 00       		.byte	0
 2263 0086 00       		.byte	0
 2264 0087 0C       		.uleb128 0xc
 2265 0088 17       		.uleb128 0x17
 2266 0089 01       		.byte	0x1
 2267 008a 0B       		.uleb128 0xb
 2268 008b 0B       		.uleb128 0xb
 2269 008c 3A       		.uleb128 0x3a
 2270 008d 0B       		.uleb128 0xb
 2271 008e 3B       		.uleb128 0x3b
 2272 008f 0B       		.uleb128 0xb
 2273 0090 01       		.uleb128 0x1
 2274 0091 13       		.uleb128 0x13
 2275 0092 00       		.byte	0
 2276 0093 00       		.byte	0
 2277 0094 0D       		.uleb128 0xd
 2278 0095 0D       		.uleb128 0xd
 2279 0096 00       		.byte	0
 2280 0097 03       		.uleb128 0x3
ARM GAS  /tmp/ccSfJ2sN.s 			page 41


 2281 0098 0E       		.uleb128 0xe
 2282 0099 3A       		.uleb128 0x3a
 2283 009a 0B       		.uleb128 0xb
 2284 009b 3B       		.uleb128 0x3b
 2285 009c 0B       		.uleb128 0xb
 2286 009d 49       		.uleb128 0x49
 2287 009e 13       		.uleb128 0x13
 2288 009f 00       		.byte	0
 2289 00a0 00       		.byte	0
 2290 00a1 0E       		.uleb128 0xe
 2291 00a2 26       		.uleb128 0x26
 2292 00a3 00       		.byte	0
 2293 00a4 49       		.uleb128 0x49
 2294 00a5 13       		.uleb128 0x13
 2295 00a6 00       		.byte	0
 2296 00a7 00       		.byte	0
 2297 00a8 0F       		.uleb128 0xf
 2298 00a9 2E       		.uleb128 0x2e
 2299 00aa 01       		.byte	0x1
 2300 00ab 03       		.uleb128 0x3
 2301 00ac 0E       		.uleb128 0xe
 2302 00ad 3A       		.uleb128 0x3a
 2303 00ae 0B       		.uleb128 0xb
 2304 00af 3B       		.uleb128 0x3b
 2305 00b0 0B       		.uleb128 0xb
 2306 00b1 27       		.uleb128 0x27
 2307 00b2 19       		.uleb128 0x19
 2308 00b3 49       		.uleb128 0x49
 2309 00b4 13       		.uleb128 0x13
 2310 00b5 20       		.uleb128 0x20
 2311 00b6 0B       		.uleb128 0xb
 2312 00b7 01       		.uleb128 0x1
 2313 00b8 13       		.uleb128 0x13
 2314 00b9 00       		.byte	0
 2315 00ba 00       		.byte	0
 2316 00bb 10       		.uleb128 0x10
 2317 00bc 05       		.uleb128 0x5
 2318 00bd 00       		.byte	0
 2319 00be 03       		.uleb128 0x3
 2320 00bf 08       		.uleb128 0x8
 2321 00c0 3A       		.uleb128 0x3a
 2322 00c1 0B       		.uleb128 0xb
 2323 00c2 3B       		.uleb128 0x3b
 2324 00c3 0B       		.uleb128 0xb
 2325 00c4 49       		.uleb128 0x49
 2326 00c5 13       		.uleb128 0x13
 2327 00c6 00       		.byte	0
 2328 00c7 00       		.byte	0
 2329 00c8 11       		.uleb128 0x11
 2330 00c9 34       		.uleb128 0x34
 2331 00ca 00       		.byte	0
 2332 00cb 03       		.uleb128 0x3
 2333 00cc 08       		.uleb128 0x8
 2334 00cd 3A       		.uleb128 0x3a
 2335 00ce 0B       		.uleb128 0xb
 2336 00cf 3B       		.uleb128 0x3b
 2337 00d0 0B       		.uleb128 0xb
ARM GAS  /tmp/ccSfJ2sN.s 			page 42


 2338 00d1 49       		.uleb128 0x49
 2339 00d2 13       		.uleb128 0x13
 2340 00d3 00       		.byte	0
 2341 00d4 00       		.byte	0
 2342 00d5 12       		.uleb128 0x12
 2343 00d6 2E       		.uleb128 0x2e
 2344 00d7 01       		.byte	0x1
 2345 00d8 03       		.uleb128 0x3
 2346 00d9 0E       		.uleb128 0xe
 2347 00da 3A       		.uleb128 0x3a
 2348 00db 0B       		.uleb128 0xb
 2349 00dc 3B       		.uleb128 0x3b
 2350 00dd 0B       		.uleb128 0xb
 2351 00de 27       		.uleb128 0x27
 2352 00df 19       		.uleb128 0x19
 2353 00e0 20       		.uleb128 0x20
 2354 00e1 0B       		.uleb128 0xb
 2355 00e2 01       		.uleb128 0x1
 2356 00e3 13       		.uleb128 0x13
 2357 00e4 00       		.byte	0
 2358 00e5 00       		.byte	0
 2359 00e6 13       		.uleb128 0x13
 2360 00e7 2E       		.uleb128 0x2e
 2361 00e8 01       		.byte	0x1
 2362 00e9 3F       		.uleb128 0x3f
 2363 00ea 19       		.uleb128 0x19
 2364 00eb 03       		.uleb128 0x3
 2365 00ec 0E       		.uleb128 0xe
 2366 00ed 3A       		.uleb128 0x3a
 2367 00ee 0B       		.uleb128 0xb
 2368 00ef 3B       		.uleb128 0x3b
 2369 00f0 0B       		.uleb128 0xb
 2370 00f1 27       		.uleb128 0x27
 2371 00f2 19       		.uleb128 0x19
 2372 00f3 49       		.uleb128 0x49
 2373 00f4 13       		.uleb128 0x13
 2374 00f5 20       		.uleb128 0x20
 2375 00f6 0B       		.uleb128 0xb
 2376 00f7 01       		.uleb128 0x1
 2377 00f8 13       		.uleb128 0x13
 2378 00f9 00       		.byte	0
 2379 00fa 00       		.byte	0
 2380 00fb 14       		.uleb128 0x14
 2381 00fc 05       		.uleb128 0x5
 2382 00fd 00       		.byte	0
 2383 00fe 03       		.uleb128 0x3
 2384 00ff 0E       		.uleb128 0xe
 2385 0100 3A       		.uleb128 0x3a
 2386 0101 0B       		.uleb128 0xb
 2387 0102 3B       		.uleb128 0x3b
 2388 0103 0B       		.uleb128 0xb
 2389 0104 49       		.uleb128 0x49
 2390 0105 13       		.uleb128 0x13
 2391 0106 00       		.byte	0
 2392 0107 00       		.byte	0
 2393 0108 15       		.uleb128 0x15
 2394 0109 2E       		.uleb128 0x2e
ARM GAS  /tmp/ccSfJ2sN.s 			page 43


 2395 010a 01       		.byte	0x1
 2396 010b 3F       		.uleb128 0x3f
 2397 010c 19       		.uleb128 0x19
 2398 010d 03       		.uleb128 0x3
 2399 010e 0E       		.uleb128 0xe
 2400 010f 3A       		.uleb128 0x3a
 2401 0110 0B       		.uleb128 0xb
 2402 0111 3B       		.uleb128 0x3b
 2403 0112 0B       		.uleb128 0xb
 2404 0113 27       		.uleb128 0x27
 2405 0114 19       		.uleb128 0x19
 2406 0115 11       		.uleb128 0x11
 2407 0116 01       		.uleb128 0x1
 2408 0117 12       		.uleb128 0x12
 2409 0118 06       		.uleb128 0x6
 2410 0119 40       		.uleb128 0x40
 2411 011a 18       		.uleb128 0x18
 2412 011b 9742     		.uleb128 0x2117
 2413 011d 19       		.uleb128 0x19
 2414 011e 01       		.uleb128 0x1
 2415 011f 13       		.uleb128 0x13
 2416 0120 00       		.byte	0
 2417 0121 00       		.byte	0
 2418 0122 16       		.uleb128 0x16
 2419 0123 05       		.uleb128 0x5
 2420 0124 00       		.byte	0
 2421 0125 03       		.uleb128 0x3
 2422 0126 08       		.uleb128 0x8
 2423 0127 3A       		.uleb128 0x3a
 2424 0128 0B       		.uleb128 0xb
 2425 0129 3B       		.uleb128 0x3b
 2426 012a 0B       		.uleb128 0xb
 2427 012b 49       		.uleb128 0x49
 2428 012c 13       		.uleb128 0x13
 2429 012d 02       		.uleb128 0x2
 2430 012e 18       		.uleb128 0x18
 2431 012f 00       		.byte	0
 2432 0130 00       		.byte	0
 2433 0131 17       		.uleb128 0x17
 2434 0132 05       		.uleb128 0x5
 2435 0133 00       		.byte	0
 2436 0134 03       		.uleb128 0x3
 2437 0135 08       		.uleb128 0x8
 2438 0136 3A       		.uleb128 0x3a
 2439 0137 0B       		.uleb128 0xb
 2440 0138 3B       		.uleb128 0x3b
 2441 0139 0B       		.uleb128 0xb
 2442 013a 49       		.uleb128 0x49
 2443 013b 13       		.uleb128 0x13
 2444 013c 02       		.uleb128 0x2
 2445 013d 17       		.uleb128 0x17
 2446 013e 00       		.byte	0
 2447 013f 00       		.byte	0
 2448 0140 18       		.uleb128 0x18
 2449 0141 34       		.uleb128 0x34
 2450 0142 00       		.byte	0
 2451 0143 03       		.uleb128 0x3
ARM GAS  /tmp/ccSfJ2sN.s 			page 44


 2452 0144 08       		.uleb128 0x8
 2453 0145 3A       		.uleb128 0x3a
 2454 0146 0B       		.uleb128 0xb
 2455 0147 3B       		.uleb128 0x3b
 2456 0148 0B       		.uleb128 0xb
 2457 0149 49       		.uleb128 0x49
 2458 014a 13       		.uleb128 0x13
 2459 014b 02       		.uleb128 0x2
 2460 014c 17       		.uleb128 0x17
 2461 014d 00       		.byte	0
 2462 014e 00       		.byte	0
 2463 014f 19       		.uleb128 0x19
 2464 0150 1D       		.uleb128 0x1d
 2465 0151 01       		.byte	0x1
 2466 0152 31       		.uleb128 0x31
 2467 0153 13       		.uleb128 0x13
 2468 0154 52       		.uleb128 0x52
 2469 0155 01       		.uleb128 0x1
 2470 0156 55       		.uleb128 0x55
 2471 0157 17       		.uleb128 0x17
 2472 0158 58       		.uleb128 0x58
 2473 0159 0B       		.uleb128 0xb
 2474 015a 59       		.uleb128 0x59
 2475 015b 0B       		.uleb128 0xb
 2476 015c 01       		.uleb128 0x1
 2477 015d 13       		.uleb128 0x13
 2478 015e 00       		.byte	0
 2479 015f 00       		.byte	0
 2480 0160 1A       		.uleb128 0x1a
 2481 0161 05       		.uleb128 0x5
 2482 0162 00       		.byte	0
 2483 0163 31       		.uleb128 0x31
 2484 0164 13       		.uleb128 0x13
 2485 0165 02       		.uleb128 0x2
 2486 0166 17       		.uleb128 0x17
 2487 0167 00       		.byte	0
 2488 0168 00       		.byte	0
 2489 0169 1B       		.uleb128 0x1b
 2490 016a 0B       		.uleb128 0xb
 2491 016b 01       		.byte	0x1
 2492 016c 55       		.uleb128 0x55
 2493 016d 17       		.uleb128 0x17
 2494 016e 00       		.byte	0
 2495 016f 00       		.byte	0
 2496 0170 1C       		.uleb128 0x1c
 2497 0171 34       		.uleb128 0x34
 2498 0172 00       		.byte	0
 2499 0173 31       		.uleb128 0x31
 2500 0174 13       		.uleb128 0x13
 2501 0175 02       		.uleb128 0x2
 2502 0176 17       		.uleb128 0x17
 2503 0177 00       		.byte	0
 2504 0178 00       		.byte	0
 2505 0179 1D       		.uleb128 0x1d
 2506 017a 898201   		.uleb128 0x4109
 2507 017d 00       		.byte	0
 2508 017e 11       		.uleb128 0x11
ARM GAS  /tmp/ccSfJ2sN.s 			page 45


 2509 017f 01       		.uleb128 0x1
 2510 0180 31       		.uleb128 0x31
 2511 0181 13       		.uleb128 0x13
 2512 0182 00       		.byte	0
 2513 0183 00       		.byte	0
 2514 0184 1E       		.uleb128 0x1e
 2515 0185 898201   		.uleb128 0x4109
 2516 0188 01       		.byte	0x1
 2517 0189 11       		.uleb128 0x11
 2518 018a 01       		.uleb128 0x1
 2519 018b 31       		.uleb128 0x31
 2520 018c 13       		.uleb128 0x13
 2521 018d 01       		.uleb128 0x1
 2522 018e 13       		.uleb128 0x13
 2523 018f 00       		.byte	0
 2524 0190 00       		.byte	0
 2525 0191 1F       		.uleb128 0x1f
 2526 0192 8A8201   		.uleb128 0x410a
 2527 0195 00       		.byte	0
 2528 0196 02       		.uleb128 0x2
 2529 0197 18       		.uleb128 0x18
 2530 0198 9142     		.uleb128 0x2111
 2531 019a 18       		.uleb128 0x18
 2532 019b 00       		.byte	0
 2533 019c 00       		.byte	0
 2534 019d 20       		.uleb128 0x20
 2535 019e 2E       		.uleb128 0x2e
 2536 019f 01       		.byte	0x1
 2537 01a0 3F       		.uleb128 0x3f
 2538 01a1 19       		.uleb128 0x19
 2539 01a2 03       		.uleb128 0x3
 2540 01a3 0E       		.uleb128 0xe
 2541 01a4 3A       		.uleb128 0x3a
 2542 01a5 0B       		.uleb128 0xb
 2543 01a6 3B       		.uleb128 0x3b
 2544 01a7 0B       		.uleb128 0xb
 2545 01a8 27       		.uleb128 0x27
 2546 01a9 19       		.uleb128 0x19
 2547 01aa 49       		.uleb128 0x49
 2548 01ab 13       		.uleb128 0x13
 2549 01ac 11       		.uleb128 0x11
 2550 01ad 01       		.uleb128 0x1
 2551 01ae 12       		.uleb128 0x12
 2552 01af 06       		.uleb128 0x6
 2553 01b0 40       		.uleb128 0x40
 2554 01b1 18       		.uleb128 0x18
 2555 01b2 9742     		.uleb128 0x2117
 2556 01b4 19       		.uleb128 0x19
 2557 01b5 01       		.uleb128 0x1
 2558 01b6 13       		.uleb128 0x13
 2559 01b7 00       		.byte	0
 2560 01b8 00       		.byte	0
 2561 01b9 21       		.uleb128 0x21
 2562 01ba 1D       		.uleb128 0x1d
 2563 01bb 01       		.byte	0x1
 2564 01bc 31       		.uleb128 0x31
 2565 01bd 13       		.uleb128 0x13
ARM GAS  /tmp/ccSfJ2sN.s 			page 46


 2566 01be 52       		.uleb128 0x52
 2567 01bf 01       		.uleb128 0x1
 2568 01c0 55       		.uleb128 0x55
 2569 01c1 17       		.uleb128 0x17
 2570 01c2 58       		.uleb128 0x58
 2571 01c3 0B       		.uleb128 0xb
 2572 01c4 59       		.uleb128 0x59
 2573 01c5 0B       		.uleb128 0xb
 2574 01c6 00       		.byte	0
 2575 01c7 00       		.byte	0
 2576 01c8 22       		.uleb128 0x22
 2577 01c9 0B       		.uleb128 0xb
 2578 01ca 01       		.byte	0x1
 2579 01cb 11       		.uleb128 0x11
 2580 01cc 01       		.uleb128 0x1
 2581 01cd 12       		.uleb128 0x12
 2582 01ce 06       		.uleb128 0x6
 2583 01cf 00       		.byte	0
 2584 01d0 00       		.byte	0
 2585 01d1 23       		.uleb128 0x23
 2586 01d2 1D       		.uleb128 0x1d
 2587 01d3 01       		.byte	0x1
 2588 01d4 31       		.uleb128 0x31
 2589 01d5 13       		.uleb128 0x13
 2590 01d6 11       		.uleb128 0x11
 2591 01d7 01       		.uleb128 0x1
 2592 01d8 12       		.uleb128 0x12
 2593 01d9 06       		.uleb128 0x6
 2594 01da 58       		.uleb128 0x58
 2595 01db 0B       		.uleb128 0xb
 2596 01dc 59       		.uleb128 0x59
 2597 01dd 0B       		.uleb128 0xb
 2598 01de 01       		.uleb128 0x1
 2599 01df 13       		.uleb128 0x13
 2600 01e0 00       		.byte	0
 2601 01e1 00       		.byte	0
 2602 01e2 24       		.uleb128 0x24
 2603 01e3 898201   		.uleb128 0x4109
 2604 01e6 01       		.byte	0x1
 2605 01e7 11       		.uleb128 0x11
 2606 01e8 01       		.uleb128 0x1
 2607 01e9 31       		.uleb128 0x31
 2608 01ea 13       		.uleb128 0x13
 2609 01eb 00       		.byte	0
 2610 01ec 00       		.byte	0
 2611 01ed 25       		.uleb128 0x25
 2612 01ee 2E       		.uleb128 0x2e
 2613 01ef 01       		.byte	0x1
 2614 01f0 31       		.uleb128 0x31
 2615 01f1 13       		.uleb128 0x13
 2616 01f2 11       		.uleb128 0x11
 2617 01f3 01       		.uleb128 0x1
 2618 01f4 12       		.uleb128 0x12
 2619 01f5 06       		.uleb128 0x6
 2620 01f6 40       		.uleb128 0x40
 2621 01f7 18       		.uleb128 0x18
 2622 01f8 9742     		.uleb128 0x2117
ARM GAS  /tmp/ccSfJ2sN.s 			page 47


 2623 01fa 19       		.uleb128 0x19
 2624 01fb 01       		.uleb128 0x1
 2625 01fc 13       		.uleb128 0x13
 2626 01fd 00       		.byte	0
 2627 01fe 00       		.byte	0
 2628 01ff 26       		.uleb128 0x26
 2629 0200 05       		.uleb128 0x5
 2630 0201 00       		.byte	0
 2631 0202 03       		.uleb128 0x3
 2632 0203 0E       		.uleb128 0xe
 2633 0204 3A       		.uleb128 0x3a
 2634 0205 0B       		.uleb128 0xb
 2635 0206 3B       		.uleb128 0x3b
 2636 0207 0B       		.uleb128 0xb
 2637 0208 49       		.uleb128 0x49
 2638 0209 13       		.uleb128 0x13
 2639 020a 02       		.uleb128 0x2
 2640 020b 17       		.uleb128 0x17
 2641 020c 00       		.byte	0
 2642 020d 00       		.byte	0
 2643 020e 27       		.uleb128 0x27
 2644 020f 1D       		.uleb128 0x1d
 2645 0210 01       		.byte	0x1
 2646 0211 31       		.uleb128 0x31
 2647 0212 13       		.uleb128 0x13
 2648 0213 11       		.uleb128 0x11
 2649 0214 01       		.uleb128 0x1
 2650 0215 12       		.uleb128 0x12
 2651 0216 06       		.uleb128 0x6
 2652 0217 58       		.uleb128 0x58
 2653 0218 0B       		.uleb128 0xb
 2654 0219 59       		.uleb128 0x59
 2655 021a 05       		.uleb128 0x5
 2656 021b 01       		.uleb128 0x1
 2657 021c 13       		.uleb128 0x13
 2658 021d 00       		.byte	0
 2659 021e 00       		.byte	0
 2660 021f 28       		.uleb128 0x28
 2661 0220 2E       		.uleb128 0x2e
 2662 0221 01       		.byte	0x1
 2663 0222 3F       		.uleb128 0x3f
 2664 0223 19       		.uleb128 0x19
 2665 0224 03       		.uleb128 0x3
 2666 0225 0E       		.uleb128 0xe
 2667 0226 3A       		.uleb128 0x3a
 2668 0227 0B       		.uleb128 0xb
 2669 0228 3B       		.uleb128 0x3b
 2670 0229 05       		.uleb128 0x5
 2671 022a 27       		.uleb128 0x27
 2672 022b 19       		.uleb128 0x19
 2673 022c 11       		.uleb128 0x11
 2674 022d 01       		.uleb128 0x1
 2675 022e 12       		.uleb128 0x12
 2676 022f 06       		.uleb128 0x6
 2677 0230 40       		.uleb128 0x40
 2678 0231 18       		.uleb128 0x18
 2679 0232 9742     		.uleb128 0x2117
ARM GAS  /tmp/ccSfJ2sN.s 			page 48


 2680 0234 19       		.uleb128 0x19
 2681 0235 01       		.uleb128 0x1
 2682 0236 13       		.uleb128 0x13
 2683 0237 00       		.byte	0
 2684 0238 00       		.byte	0
 2685 0239 29       		.uleb128 0x29
 2686 023a 05       		.uleb128 0x5
 2687 023b 00       		.byte	0
 2688 023c 03       		.uleb128 0x3
 2689 023d 08       		.uleb128 0x8
 2690 023e 3A       		.uleb128 0x3a
 2691 023f 0B       		.uleb128 0xb
 2692 0240 3B       		.uleb128 0x3b
 2693 0241 05       		.uleb128 0x5
 2694 0242 49       		.uleb128 0x49
 2695 0243 13       		.uleb128 0x13
 2696 0244 02       		.uleb128 0x2
 2697 0245 17       		.uleb128 0x17
 2698 0246 00       		.byte	0
 2699 0247 00       		.byte	0
 2700 0248 2A       		.uleb128 0x2a
 2701 0249 1D       		.uleb128 0x1d
 2702 024a 01       		.byte	0x1
 2703 024b 31       		.uleb128 0x31
 2704 024c 13       		.uleb128 0x13
 2705 024d 52       		.uleb128 0x52
 2706 024e 01       		.uleb128 0x1
 2707 024f 55       		.uleb128 0x55
 2708 0250 17       		.uleb128 0x17
 2709 0251 58       		.uleb128 0x58
 2710 0252 0B       		.uleb128 0xb
 2711 0253 59       		.uleb128 0x59
 2712 0254 05       		.uleb128 0x5
 2713 0255 01       		.uleb128 0x1
 2714 0256 13       		.uleb128 0x13
 2715 0257 00       		.byte	0
 2716 0258 00       		.byte	0
 2717 0259 2B       		.uleb128 0x2b
 2718 025a 34       		.uleb128 0x34
 2719 025b 00       		.byte	0
 2720 025c 03       		.uleb128 0x3
 2721 025d 08       		.uleb128 0x8
 2722 025e 3A       		.uleb128 0x3a
 2723 025f 0B       		.uleb128 0xb
 2724 0260 3B       		.uleb128 0x3b
 2725 0261 05       		.uleb128 0x5
 2726 0262 49       		.uleb128 0x49
 2727 0263 13       		.uleb128 0x13
 2728 0264 02       		.uleb128 0x2
 2729 0265 18       		.uleb128 0x18
 2730 0266 00       		.byte	0
 2731 0267 00       		.byte	0
 2732 0268 2C       		.uleb128 0x2c
 2733 0269 2E       		.uleb128 0x2e
 2734 026a 01       		.byte	0x1
 2735 026b 3F       		.uleb128 0x3f
 2736 026c 19       		.uleb128 0x19
ARM GAS  /tmp/ccSfJ2sN.s 			page 49


 2737 026d 03       		.uleb128 0x3
 2738 026e 0E       		.uleb128 0xe
 2739 026f 3A       		.uleb128 0x3a
 2740 0270 0B       		.uleb128 0xb
 2741 0271 3B       		.uleb128 0x3b
 2742 0272 05       		.uleb128 0x5
 2743 0273 27       		.uleb128 0x27
 2744 0274 19       		.uleb128 0x19
 2745 0275 49       		.uleb128 0x49
 2746 0276 13       		.uleb128 0x13
 2747 0277 11       		.uleb128 0x11
 2748 0278 01       		.uleb128 0x1
 2749 0279 12       		.uleb128 0x12
 2750 027a 06       		.uleb128 0x6
 2751 027b 40       		.uleb128 0x40
 2752 027c 18       		.uleb128 0x18
 2753 027d 9742     		.uleb128 0x2117
 2754 027f 19       		.uleb128 0x19
 2755 0280 01       		.uleb128 0x1
 2756 0281 13       		.uleb128 0x13
 2757 0282 00       		.byte	0
 2758 0283 00       		.byte	0
 2759 0284 2D       		.uleb128 0x2d
 2760 0285 34       		.uleb128 0x34
 2761 0286 00       		.byte	0
 2762 0287 03       		.uleb128 0x3
 2763 0288 08       		.uleb128 0x8
 2764 0289 3A       		.uleb128 0x3a
 2765 028a 0B       		.uleb128 0xb
 2766 028b 3B       		.uleb128 0x3b
 2767 028c 05       		.uleb128 0x5
 2768 028d 49       		.uleb128 0x49
 2769 028e 13       		.uleb128 0x13
 2770 028f 02       		.uleb128 0x2
 2771 0290 17       		.uleb128 0x17
 2772 0291 00       		.byte	0
 2773 0292 00       		.byte	0
 2774 0293 2E       		.uleb128 0x2e
 2775 0294 0B       		.uleb128 0xb
 2776 0295 01       		.byte	0x1
 2777 0296 11       		.uleb128 0x11
 2778 0297 01       		.uleb128 0x1
 2779 0298 12       		.uleb128 0x12
 2780 0299 06       		.uleb128 0x6
 2781 029a 01       		.uleb128 0x1
 2782 029b 13       		.uleb128 0x13
 2783 029c 00       		.byte	0
 2784 029d 00       		.byte	0
 2785 029e 2F       		.uleb128 0x2f
 2786 029f 34       		.uleb128 0x34
 2787 02a0 00       		.byte	0
 2788 02a1 03       		.uleb128 0x3
 2789 02a2 0E       		.uleb128 0xe
 2790 02a3 3A       		.uleb128 0x3a
 2791 02a4 0B       		.uleb128 0xb
 2792 02a5 3B       		.uleb128 0x3b
 2793 02a6 0B       		.uleb128 0xb
ARM GAS  /tmp/ccSfJ2sN.s 			page 50


 2794 02a7 49       		.uleb128 0x49
 2795 02a8 13       		.uleb128 0x13
 2796 02a9 3F       		.uleb128 0x3f
 2797 02aa 19       		.uleb128 0x19
 2798 02ab 3C       		.uleb128 0x3c
 2799 02ac 19       		.uleb128 0x19
 2800 02ad 00       		.byte	0
 2801 02ae 00       		.byte	0
 2802 02af 30       		.uleb128 0x30
 2803 02b0 2E       		.uleb128 0x2e
 2804 02b1 00       		.byte	0
 2805 02b2 3F       		.uleb128 0x3f
 2806 02b3 19       		.uleb128 0x19
 2807 02b4 3C       		.uleb128 0x3c
 2808 02b5 19       		.uleb128 0x19
 2809 02b6 6E       		.uleb128 0x6e
 2810 02b7 0E       		.uleb128 0xe
 2811 02b8 03       		.uleb128 0x3
 2812 02b9 0E       		.uleb128 0xe
 2813 02ba 3A       		.uleb128 0x3a
 2814 02bb 0B       		.uleb128 0xb
 2815 02bc 3B       		.uleb128 0x3b
 2816 02bd 0B       		.uleb128 0xb
 2817 02be 00       		.byte	0
 2818 02bf 00       		.byte	0
 2819 02c0 00       		.byte	0
 2820              		.section	.debug_loc,"",%progbits
 2821              	.Ldebug_loc0:
 2822              	.LLST0:
 2823 0000 00000000 		.4byte	.LVL1
 2824 0004 12000000 		.4byte	.LVL5
 2825 0008 0100     		.2byte	0x1
 2826 000a 50       		.byte	0x50
 2827 000b 12000000 		.4byte	.LVL5
 2828 000f 26000000 		.4byte	.LVL12
 2829 0013 0100     		.2byte	0x1
 2830 0015 55       		.byte	0x55
 2831 0016 26000000 		.4byte	.LVL12
 2832 001a 28000000 		.4byte	.LFE9
 2833 001e 0400     		.2byte	0x4
 2834 0020 F3       		.byte	0xf3
 2835 0021 01       		.uleb128 0x1
 2836 0022 50       		.byte	0x50
 2837 0023 9F       		.byte	0x9f
 2838 0024 00000000 		.4byte	0
 2839 0028 00000000 		.4byte	0
 2840              	.LLST1:
 2841 002c 00000000 		.4byte	.LVL1
 2842 0030 12000000 		.4byte	.LVL5
 2843 0034 0100     		.2byte	0x1
 2844 0036 51       		.byte	0x51
 2845 0037 12000000 		.4byte	.LVL5
 2846 003b 28000000 		.4byte	.LFE9
 2847 003f 0400     		.2byte	0x4
 2848 0041 F3       		.byte	0xf3
 2849 0042 01       		.uleb128 0x1
 2850 0043 51       		.byte	0x51
ARM GAS  /tmp/ccSfJ2sN.s 			page 51


 2851 0044 9F       		.byte	0x9f
 2852 0045 00000000 		.4byte	0
 2853 0049 00000000 		.4byte	0
 2854              	.LLST2:
 2855 004d 04000000 		.4byte	.LVL2
 2856 0051 08000000 		.4byte	.LVL3
 2857 0055 0100     		.2byte	0x1
 2858 0057 54       		.byte	0x54
 2859 0058 08000000 		.4byte	.LVL3
 2860 005c 0A000000 		.4byte	.LVL4
 2861 0060 0200     		.2byte	0x2
 2862 0062 70       		.byte	0x70
 2863 0063 08       		.sleb128 8
 2864 0064 0A000000 		.4byte	.LVL4
 2865 0068 16000000 		.4byte	.LVL7
 2866 006c 0100     		.2byte	0x1
 2867 006e 54       		.byte	0x54
 2868 006f 16000000 		.4byte	.LVL7
 2869 0073 22000000 		.4byte	.LVL10
 2870 0077 0300     		.2byte	0x3
 2871 0079 74       		.byte	0x74
 2872 007a 7F       		.sleb128 -1
 2873 007b 9F       		.byte	0x9f
 2874 007c 22000000 		.4byte	.LVL10
 2875 0080 26000000 		.4byte	.LVL11
 2876 0084 0100     		.2byte	0x1
 2877 0086 54       		.byte	0x54
 2878 0087 00000000 		.4byte	0
 2879 008b 00000000 		.4byte	0
 2880              	.LLST3:
 2881 008f 12000000 		.4byte	.LVL5
 2882 0093 1C000000 		.4byte	.LVL8
 2883 0097 0100     		.2byte	0x1
 2884 0099 55       		.byte	0x55
 2885 009a 00000000 		.4byte	0
 2886 009e 00000000 		.4byte	0
 2887              	.LLST4:
 2888 00a2 14000000 		.4byte	.LVL6
 2889 00a6 1C000000 		.4byte	.LVL8
 2890 00aa 0100     		.2byte	0x1
 2891 00ac 50       		.byte	0x50
 2892 00ad 00000000 		.4byte	0
 2893 00b1 00000000 		.4byte	0
 2894              	.LLST5:
 2895 00b5 00000000 		.4byte	.LVL13
 2896 00b9 07000000 		.4byte	.LVL14-1
 2897 00bd 0100     		.2byte	0x1
 2898 00bf 50       		.byte	0x50
 2899 00c0 07000000 		.4byte	.LVL14-1
 2900 00c4 10000000 		.4byte	.LFE8
 2901 00c8 0400     		.2byte	0x4
 2902 00ca F3       		.byte	0xf3
 2903 00cb 01       		.uleb128 0x1
 2904 00cc 50       		.byte	0x50
 2905 00cd 9F       		.byte	0x9f
 2906 00ce 00000000 		.4byte	0
 2907 00d2 00000000 		.4byte	0
ARM GAS  /tmp/ccSfJ2sN.s 			page 52


 2908              	.LLST6:
 2909 00d6 00000000 		.4byte	.LVL13
 2910 00da 07000000 		.4byte	.LVL14-1
 2911 00de 0100     		.2byte	0x1
 2912 00e0 51       		.byte	0x51
 2913 00e1 07000000 		.4byte	.LVL14-1
 2914 00e5 10000000 		.4byte	.LFE8
 2915 00e9 0400     		.2byte	0x4
 2916 00eb F3       		.byte	0xf3
 2917 00ec 01       		.uleb128 0x1
 2918 00ed 51       		.byte	0x51
 2919 00ee 9F       		.byte	0x9f
 2920 00ef 00000000 		.4byte	0
 2921 00f3 00000000 		.4byte	0
 2922              	.LLST7:
 2923 00f7 00000000 		.4byte	.LVL16
 2924 00fb 0E000000 		.4byte	.LVL18
 2925 00ff 0100     		.2byte	0x1
 2926 0101 50       		.byte	0x50
 2927 0102 0E000000 		.4byte	.LVL18
 2928 0106 12000000 		.4byte	.LVL19
 2929 010a 0100     		.2byte	0x1
 2930 010c 52       		.byte	0x52
 2931 010d 12000000 		.4byte	.LVL19
 2932 0111 16000000 		.4byte	.LVL20
 2933 0115 0400     		.2byte	0x4
 2934 0117 F3       		.byte	0xf3
 2935 0118 01       		.uleb128 0x1
 2936 0119 50       		.byte	0x50
 2937 011a 9F       		.byte	0x9f
 2938 011b 16000000 		.4byte	.LVL20
 2939 011f 2B000000 		.4byte	.LVL23-1
 2940 0123 0100     		.2byte	0x1
 2941 0125 52       		.byte	0x52
 2942 0126 2B000000 		.4byte	.LVL23-1
 2943 012a 38000000 		.4byte	.LFE10
 2944 012e 0400     		.2byte	0x4
 2945 0130 F3       		.byte	0xf3
 2946 0131 01       		.uleb128 0x1
 2947 0132 50       		.byte	0x50
 2948 0133 9F       		.byte	0x9f
 2949 0134 00000000 		.4byte	0
 2950 0138 00000000 		.4byte	0
 2951              	.LLST8:
 2952 013c 06000000 		.4byte	.LVL17
 2953 0140 0E000000 		.4byte	.LVL18
 2954 0144 0100     		.2byte	0x1
 2955 0146 50       		.byte	0x50
 2956 0147 0E000000 		.4byte	.LVL18
 2957 014b 12000000 		.4byte	.LVL19
 2958 014f 0100     		.2byte	0x1
 2959 0151 52       		.byte	0x52
 2960 0152 16000000 		.4byte	.LVL20
 2961 0156 2B000000 		.4byte	.LVL23-1
 2962 015a 0100     		.2byte	0x1
 2963 015c 52       		.byte	0x52
 2964 015d 2B000000 		.4byte	.LVL23-1
ARM GAS  /tmp/ccSfJ2sN.s 			page 53


 2965 0161 38000000 		.4byte	.LFE10
 2966 0165 0400     		.2byte	0x4
 2967 0167 F3       		.byte	0xf3
 2968 0168 01       		.uleb128 0x1
 2969 0169 50       		.byte	0x50
 2970 016a 9F       		.byte	0x9f
 2971 016b 00000000 		.4byte	0
 2972 016f 00000000 		.4byte	0
 2973              	.LLST9:
 2974 0173 16000000 		.4byte	.LVL20
 2975 0177 2B000000 		.4byte	.LVL23-1
 2976 017b 0100     		.2byte	0x1
 2977 017d 52       		.byte	0x52
 2978 017e 2B000000 		.4byte	.LVL23-1
 2979 0182 30000000 		.4byte	.LVL24
 2980 0186 0400     		.2byte	0x4
 2981 0188 F3       		.byte	0xf3
 2982 0189 01       		.uleb128 0x1
 2983 018a 50       		.byte	0x50
 2984 018b 9F       		.byte	0x9f
 2985 018c 00000000 		.4byte	0
 2986 0190 00000000 		.4byte	0
 2987              	.LLST10:
 2988 0194 1E000000 		.4byte	.LVL21
 2989 0198 28000000 		.4byte	.LVL22
 2990 019c 0100     		.2byte	0x1
 2991 019e 52       		.byte	0x52
 2992 019f 00000000 		.4byte	0
 2993 01a3 00000000 		.4byte	0
 2994              	.LLST11:
 2995 01a7 1E000000 		.4byte	.LVL21
 2996 01ab 28000000 		.4byte	.LVL22
 2997 01af 0100     		.2byte	0x1
 2998 01b1 53       		.byte	0x53
 2999 01b2 00000000 		.4byte	0
 3000 01b6 00000000 		.4byte	0
 3001              	.LLST12:
 3002 01ba 00000000 		.4byte	.LVL25
 3003 01be 0C000000 		.4byte	.LVL26
 3004 01c2 0100     		.2byte	0x1
 3005 01c4 50       		.byte	0x50
 3006 01c5 0C000000 		.4byte	.LVL26
 3007 01c9 10000000 		.4byte	.LVL27
 3008 01cd 0100     		.2byte	0x1
 3009 01cf 52       		.byte	0x52
 3010 01d0 10000000 		.4byte	.LVL27
 3011 01d4 12000000 		.4byte	.LVL28
 3012 01d8 0400     		.2byte	0x4
 3013 01da F3       		.byte	0xf3
 3014 01db 01       		.uleb128 0x1
 3015 01dc 50       		.byte	0x50
 3016 01dd 9F       		.byte	0x9f
 3017 01de 12000000 		.4byte	.LVL28
 3018 01e2 27000000 		.4byte	.LVL31-1
 3019 01e6 0100     		.2byte	0x1
 3020 01e8 52       		.byte	0x52
 3021 01e9 27000000 		.4byte	.LVL31-1
ARM GAS  /tmp/ccSfJ2sN.s 			page 54


 3022 01ed 34000000 		.4byte	.LFE11
 3023 01f1 0400     		.2byte	0x4
 3024 01f3 F3       		.byte	0xf3
 3025 01f4 01       		.uleb128 0x1
 3026 01f5 50       		.byte	0x50
 3027 01f6 9F       		.byte	0x9f
 3028 01f7 00000000 		.4byte	0
 3029 01fb 00000000 		.4byte	0
 3030              	.LLST13:
 3031 01ff 12000000 		.4byte	.LVL28
 3032 0203 27000000 		.4byte	.LVL31-1
 3033 0207 0100     		.2byte	0x1
 3034 0209 52       		.byte	0x52
 3035 020a 27000000 		.4byte	.LVL31-1
 3036 020e 2C000000 		.4byte	.LVL32
 3037 0212 0400     		.2byte	0x4
 3038 0214 F3       		.byte	0xf3
 3039 0215 01       		.uleb128 0x1
 3040 0216 50       		.byte	0x50
 3041 0217 9F       		.byte	0x9f
 3042 0218 00000000 		.4byte	0
 3043 021c 00000000 		.4byte	0
 3044              	.LLST14:
 3045 0220 1A000000 		.4byte	.LVL29
 3046 0224 24000000 		.4byte	.LVL30
 3047 0228 0100     		.2byte	0x1
 3048 022a 52       		.byte	0x52
 3049 022b 00000000 		.4byte	0
 3050 022f 00000000 		.4byte	0
 3051              	.LLST15:
 3052 0233 1A000000 		.4byte	.LVL29
 3053 0237 24000000 		.4byte	.LVL30
 3054 023b 0100     		.2byte	0x1
 3055 023d 53       		.byte	0x53
 3056 023e 00000000 		.4byte	0
 3057 0242 00000000 		.4byte	0
 3058              	.LLST16:
 3059 0246 00000000 		.4byte	.LVL33
 3060 024a 0E000000 		.4byte	.LVL35
 3061 024e 0100     		.2byte	0x1
 3062 0250 50       		.byte	0x50
 3063 0251 0E000000 		.4byte	.LVL35
 3064 0255 12000000 		.4byte	.LVL36
 3065 0259 0100     		.2byte	0x1
 3066 025b 53       		.byte	0x53
 3067 025c 12000000 		.4byte	.LVL36
 3068 0260 16000000 		.4byte	.LVL37
 3069 0264 0400     		.2byte	0x4
 3070 0266 F3       		.byte	0xf3
 3071 0267 01       		.uleb128 0x1
 3072 0268 50       		.byte	0x50
 3073 0269 9F       		.byte	0x9f
 3074 026a 16000000 		.4byte	.LVL37
 3075 026e 2F000000 		.4byte	.LVL41-1
 3076 0272 0100     		.2byte	0x1
 3077 0274 53       		.byte	0x53
 3078 0275 2F000000 		.4byte	.LVL41-1
ARM GAS  /tmp/ccSfJ2sN.s 			page 55


 3079 0279 32000000 		.4byte	.LVL42
 3080 027d 0400     		.2byte	0x4
 3081 027f F3       		.byte	0xf3
 3082 0280 01       		.uleb128 0x1
 3083 0281 50       		.byte	0x50
 3084 0282 9F       		.byte	0x9f
 3085 0283 32000000 		.4byte	.LVL42
 3086 0287 3C000000 		.4byte	.LFE12
 3087 028b 0100     		.2byte	0x1
 3088 028d 53       		.byte	0x53
 3089 028e 00000000 		.4byte	0
 3090 0292 00000000 		.4byte	0
 3091              	.LLST17:
 3092 0296 00000000 		.4byte	.LVL33
 3093 029a 12000000 		.4byte	.LVL36
 3094 029e 0100     		.2byte	0x1
 3095 02a0 51       		.byte	0x51
 3096 02a1 12000000 		.4byte	.LVL36
 3097 02a5 16000000 		.4byte	.LVL37
 3098 02a9 0400     		.2byte	0x4
 3099 02ab F3       		.byte	0xf3
 3100 02ac 01       		.uleb128 0x1
 3101 02ad 51       		.byte	0x51
 3102 02ae 9F       		.byte	0x9f
 3103 02af 16000000 		.4byte	.LVL37
 3104 02b3 2F000000 		.4byte	.LVL41-1
 3105 02b7 0100     		.2byte	0x1
 3106 02b9 51       		.byte	0x51
 3107 02ba 2F000000 		.4byte	.LVL41-1
 3108 02be 32000000 		.4byte	.LVL42
 3109 02c2 0400     		.2byte	0x4
 3110 02c4 F3       		.byte	0xf3
 3111 02c5 01       		.uleb128 0x1
 3112 02c6 51       		.byte	0x51
 3113 02c7 9F       		.byte	0x9f
 3114 02c8 32000000 		.4byte	.LVL42
 3115 02cc 3C000000 		.4byte	.LFE12
 3116 02d0 0100     		.2byte	0x1
 3117 02d2 51       		.byte	0x51
 3118 02d3 00000000 		.4byte	0
 3119 02d7 00000000 		.4byte	0
 3120              	.LLST18:
 3121 02db 06000000 		.4byte	.LVL34
 3122 02df 12000000 		.4byte	.LVL36
 3123 02e3 0100     		.2byte	0x1
 3124 02e5 51       		.byte	0x51
 3125 02e6 16000000 		.4byte	.LVL37
 3126 02ea 2F000000 		.4byte	.LVL41-1
 3127 02ee 0100     		.2byte	0x1
 3128 02f0 51       		.byte	0x51
 3129 02f1 2F000000 		.4byte	.LVL41-1
 3130 02f5 32000000 		.4byte	.LVL42
 3131 02f9 0400     		.2byte	0x4
 3132 02fb F3       		.byte	0xf3
 3133 02fc 01       		.uleb128 0x1
 3134 02fd 51       		.byte	0x51
 3135 02fe 9F       		.byte	0x9f
ARM GAS  /tmp/ccSfJ2sN.s 			page 56


 3136 02ff 32000000 		.4byte	.LVL42
 3137 0303 3C000000 		.4byte	.LFE12
 3138 0307 0100     		.2byte	0x1
 3139 0309 51       		.byte	0x51
 3140 030a 00000000 		.4byte	0
 3141 030e 00000000 		.4byte	0
 3142              	.LLST19:
 3143 0312 06000000 		.4byte	.LVL34
 3144 0316 0E000000 		.4byte	.LVL35
 3145 031a 0100     		.2byte	0x1
 3146 031c 50       		.byte	0x50
 3147 031d 0E000000 		.4byte	.LVL35
 3148 0321 12000000 		.4byte	.LVL36
 3149 0325 0100     		.2byte	0x1
 3150 0327 53       		.byte	0x53
 3151 0328 16000000 		.4byte	.LVL37
 3152 032c 2F000000 		.4byte	.LVL41-1
 3153 0330 0100     		.2byte	0x1
 3154 0332 53       		.byte	0x53
 3155 0333 2F000000 		.4byte	.LVL41-1
 3156 0337 32000000 		.4byte	.LVL42
 3157 033b 0400     		.2byte	0x4
 3158 033d F3       		.byte	0xf3
 3159 033e 01       		.uleb128 0x1
 3160 033f 50       		.byte	0x50
 3161 0340 9F       		.byte	0x9f
 3162 0341 32000000 		.4byte	.LVL42
 3163 0345 3C000000 		.4byte	.LFE12
 3164 0349 0100     		.2byte	0x1
 3165 034b 53       		.byte	0x53
 3166 034c 00000000 		.4byte	0
 3167 0350 00000000 		.4byte	0
 3168              	.LLST20:
 3169 0354 1A000000 		.4byte	.LVL38
 3170 0358 2F000000 		.4byte	.LVL41-1
 3171 035c 0100     		.2byte	0x1
 3172 035e 51       		.byte	0x51
 3173 035f 2F000000 		.4byte	.LVL41-1
 3174 0363 30000000 		.4byte	.LVL41
 3175 0367 0400     		.2byte	0x4
 3176 0369 F3       		.byte	0xf3
 3177 036a 01       		.uleb128 0x1
 3178 036b 51       		.byte	0x51
 3179 036c 9F       		.byte	0x9f
 3180 036d 00000000 		.4byte	0
 3181 0371 00000000 		.4byte	0
 3182              	.LLST21:
 3183 0375 1A000000 		.4byte	.LVL38
 3184 0379 2F000000 		.4byte	.LVL41-1
 3185 037d 0100     		.2byte	0x1
 3186 037f 53       		.byte	0x53
 3187 0380 2F000000 		.4byte	.LVL41-1
 3188 0384 30000000 		.4byte	.LVL41
 3189 0388 0400     		.2byte	0x4
 3190 038a F3       		.byte	0xf3
 3191 038b 01       		.uleb128 0x1
 3192 038c 50       		.byte	0x50
ARM GAS  /tmp/ccSfJ2sN.s 			page 57


 3193 038d 9F       		.byte	0x9f
 3194 038e 00000000 		.4byte	0
 3195 0392 00000000 		.4byte	0
 3196              	.LLST22:
 3197 0396 20000000 		.4byte	.LVL39
 3198 039a 2A000000 		.4byte	.LVL40
 3199 039e 0100     		.2byte	0x1
 3200 03a0 53       		.byte	0x53
 3201 03a1 00000000 		.4byte	0
 3202 03a5 00000000 		.4byte	0
 3203              	.LLST23:
 3204 03a9 20000000 		.4byte	.LVL39
 3205 03ad 2A000000 		.4byte	.LVL40
 3206 03b1 0100     		.2byte	0x1
 3207 03b3 52       		.byte	0x52
 3208 03b4 00000000 		.4byte	0
 3209 03b8 00000000 		.4byte	0
 3210              	.LLST24:
 3211 03bc 00000000 		.4byte	.LVL43
 3212 03c0 0C000000 		.4byte	.LVL44
 3213 03c4 0100     		.2byte	0x1
 3214 03c6 50       		.byte	0x50
 3215 03c7 0C000000 		.4byte	.LVL44
 3216 03cb 10000000 		.4byte	.LVL45
 3217 03cf 0100     		.2byte	0x1
 3218 03d1 53       		.byte	0x53
 3219 03d2 10000000 		.4byte	.LVL45
 3220 03d6 12000000 		.4byte	.LVL46
 3221 03da 0400     		.2byte	0x4
 3222 03dc F3       		.byte	0xf3
 3223 03dd 01       		.uleb128 0x1
 3224 03de 50       		.byte	0x50
 3225 03df 9F       		.byte	0x9f
 3226 03e0 12000000 		.4byte	.LVL46
 3227 03e4 2B000000 		.4byte	.LVL50-1
 3228 03e8 0100     		.2byte	0x1
 3229 03ea 53       		.byte	0x53
 3230 03eb 2B000000 		.4byte	.LVL50-1
 3231 03ef 2E000000 		.4byte	.LVL51
 3232 03f3 0400     		.2byte	0x4
 3233 03f5 F3       		.byte	0xf3
 3234 03f6 01       		.uleb128 0x1
 3235 03f7 50       		.byte	0x50
 3236 03f8 9F       		.byte	0x9f
 3237 03f9 2E000000 		.4byte	.LVL51
 3238 03fd 38000000 		.4byte	.LFE13
 3239 0401 0100     		.2byte	0x1
 3240 0403 53       		.byte	0x53
 3241 0404 00000000 		.4byte	0
 3242 0408 00000000 		.4byte	0
 3243              	.LLST25:
 3244 040c 00000000 		.4byte	.LVL43
 3245 0410 10000000 		.4byte	.LVL45
 3246 0414 0100     		.2byte	0x1
 3247 0416 51       		.byte	0x51
 3248 0417 10000000 		.4byte	.LVL45
 3249 041b 12000000 		.4byte	.LVL46
ARM GAS  /tmp/ccSfJ2sN.s 			page 58


 3250 041f 0400     		.2byte	0x4
 3251 0421 F3       		.byte	0xf3
 3252 0422 01       		.uleb128 0x1
 3253 0423 51       		.byte	0x51
 3254 0424 9F       		.byte	0x9f
 3255 0425 12000000 		.4byte	.LVL46
 3256 0429 2B000000 		.4byte	.LVL50-1
 3257 042d 0100     		.2byte	0x1
 3258 042f 51       		.byte	0x51
 3259 0430 2B000000 		.4byte	.LVL50-1
 3260 0434 2E000000 		.4byte	.LVL51
 3261 0438 0400     		.2byte	0x4
 3262 043a F3       		.byte	0xf3
 3263 043b 01       		.uleb128 0x1
 3264 043c 51       		.byte	0x51
 3265 043d 9F       		.byte	0x9f
 3266 043e 2E000000 		.4byte	.LVL51
 3267 0442 38000000 		.4byte	.LFE13
 3268 0446 0100     		.2byte	0x1
 3269 0448 51       		.byte	0x51
 3270 0449 00000000 		.4byte	0
 3271 044d 00000000 		.4byte	0
 3272              	.LLST26:
 3273 0451 16000000 		.4byte	.LVL47
 3274 0455 2B000000 		.4byte	.LVL50-1
 3275 0459 0100     		.2byte	0x1
 3276 045b 51       		.byte	0x51
 3277 045c 2B000000 		.4byte	.LVL50-1
 3278 0460 2C000000 		.4byte	.LVL50
 3279 0464 0400     		.2byte	0x4
 3280 0466 F3       		.byte	0xf3
 3281 0467 01       		.uleb128 0x1
 3282 0468 51       		.byte	0x51
 3283 0469 9F       		.byte	0x9f
 3284 046a 00000000 		.4byte	0
 3285 046e 00000000 		.4byte	0
 3286              	.LLST27:
 3287 0472 16000000 		.4byte	.LVL47
 3288 0476 2B000000 		.4byte	.LVL50-1
 3289 047a 0100     		.2byte	0x1
 3290 047c 53       		.byte	0x53
 3291 047d 2B000000 		.4byte	.LVL50-1
 3292 0481 2C000000 		.4byte	.LVL50
 3293 0485 0400     		.2byte	0x4
 3294 0487 F3       		.byte	0xf3
 3295 0488 01       		.uleb128 0x1
 3296 0489 50       		.byte	0x50
 3297 048a 9F       		.byte	0x9f
 3298 048b 00000000 		.4byte	0
 3299 048f 00000000 		.4byte	0
 3300              	.LLST28:
 3301 0493 1C000000 		.4byte	.LVL48
 3302 0497 26000000 		.4byte	.LVL49
 3303 049b 0100     		.2byte	0x1
 3304 049d 53       		.byte	0x53
 3305 049e 00000000 		.4byte	0
 3306 04a2 00000000 		.4byte	0
ARM GAS  /tmp/ccSfJ2sN.s 			page 59


 3307              	.LLST29:
 3308 04a6 1C000000 		.4byte	.LVL48
 3309 04aa 26000000 		.4byte	.LVL49
 3310 04ae 0100     		.2byte	0x1
 3311 04b0 52       		.byte	0x52
 3312 04b1 00000000 		.4byte	0
 3313 04b5 00000000 		.4byte	0
 3314              	.LLST30:
 3315 04b9 00000000 		.4byte	.LVL52
 3316 04bd 0E000000 		.4byte	.LVL53
 3317 04c1 0100     		.2byte	0x1
 3318 04c3 50       		.byte	0x50
 3319 04c4 0E000000 		.4byte	.LVL53
 3320 04c8 12000000 		.4byte	.LVL54
 3321 04cc 0400     		.2byte	0x4
 3322 04ce F3       		.byte	0xf3
 3323 04cf 01       		.uleb128 0x1
 3324 04d0 50       		.byte	0x50
 3325 04d1 9F       		.byte	0x9f
 3326 04d2 12000000 		.4byte	.LVL54
 3327 04d6 1E000000 		.4byte	.LVL57
 3328 04da 0100     		.2byte	0x1
 3329 04dc 50       		.byte	0x50
 3330 04dd 1E000000 		.4byte	.LVL57
 3331 04e1 21000000 		.4byte	.LVL58-1
 3332 04e5 0200     		.2byte	0x2
 3333 04e7 72       		.byte	0x72
 3334 04e8 04       		.sleb128 4
 3335 04e9 21000000 		.4byte	.LVL58-1
 3336 04ed 24000000 		.4byte	.LFE14
 3337 04f1 0400     		.2byte	0x4
 3338 04f3 F3       		.byte	0xf3
 3339 04f4 01       		.uleb128 0x1
 3340 04f5 50       		.byte	0x50
 3341 04f6 9F       		.byte	0x9f
 3342 04f7 00000000 		.4byte	0
 3343 04fb 00000000 		.4byte	0
 3344              	.LLST31:
 3345 04ff 12000000 		.4byte	.LVL54
 3346 0503 1C000000 		.4byte	.LVL56
 3347 0507 0100     		.2byte	0x1
 3348 0509 50       		.byte	0x50
 3349 050a 00000000 		.4byte	0
 3350 050e 00000000 		.4byte	0
 3351              	.LLST32:
 3352 0512 14000000 		.4byte	.LVL55
 3353 0516 1C000000 		.4byte	.LVL56
 3354 051a 0100     		.2byte	0x1
 3355 051c 53       		.byte	0x53
 3356 051d 00000000 		.4byte	0
 3357 0521 00000000 		.4byte	0
 3358              	.LLST33:
 3359 0525 00000000 		.4byte	.LVL59
 3360 0529 0C000000 		.4byte	.LVL60
 3361 052d 0100     		.2byte	0x1
 3362 052f 50       		.byte	0x50
 3363 0530 0C000000 		.4byte	.LVL60
ARM GAS  /tmp/ccSfJ2sN.s 			page 60


 3364 0534 0E000000 		.4byte	.LVL61
 3365 0538 0400     		.2byte	0x4
 3366 053a F3       		.byte	0xf3
 3367 053b 01       		.uleb128 0x1
 3368 053c 50       		.byte	0x50
 3369 053d 9F       		.byte	0x9f
 3370 053e 0E000000 		.4byte	.LVL61
 3371 0542 1A000000 		.4byte	.LVL64
 3372 0546 0100     		.2byte	0x1
 3373 0548 50       		.byte	0x50
 3374 0549 1A000000 		.4byte	.LVL64
 3375 054d 1C000000 		.4byte	.LVL65
 3376 0551 0500     		.2byte	0x5
 3377 0553 73       		.byte	0x73
 3378 0554 00       		.sleb128 0
 3379 0555 06       		.byte	0x6
 3380 0556 23       		.byte	0x23
 3381 0557 04       		.uleb128 0x4
 3382 0558 1C000000 		.4byte	.LVL65
 3383 055c 22000000 		.4byte	.LFE15
 3384 0560 0400     		.2byte	0x4
 3385 0562 F3       		.byte	0xf3
 3386 0563 01       		.uleb128 0x1
 3387 0564 50       		.byte	0x50
 3388 0565 9F       		.byte	0x9f
 3389 0566 00000000 		.4byte	0
 3390 056a 00000000 		.4byte	0
 3391              	.LLST34:
 3392 056e 0E000000 		.4byte	.LVL61
 3393 0572 16000000 		.4byte	.LVL63
 3394 0576 0100     		.2byte	0x1
 3395 0578 50       		.byte	0x50
 3396 0579 00000000 		.4byte	0
 3397 057d 00000000 		.4byte	0
 3398              	.LLST35:
 3399 0581 10000000 		.4byte	.LVL62
 3400 0585 16000000 		.4byte	.LVL63
 3401 0589 0100     		.2byte	0x1
 3402 058b 53       		.byte	0x53
 3403 058c 00000000 		.4byte	0
 3404 0590 00000000 		.4byte	0
 3405              	.LLST36:
 3406 0594 00000000 		.4byte	.LVL67
 3407 0598 0E000000 		.4byte	.LVL68
 3408 059c 0100     		.2byte	0x1
 3409 059e 50       		.byte	0x50
 3410 059f 0E000000 		.4byte	.LVL68
 3411 05a3 32000000 		.4byte	.LVL76
 3412 05a7 0100     		.2byte	0x1
 3413 05a9 55       		.byte	0x55
 3414 05aa 32000000 		.4byte	.LVL76
 3415 05ae 34000000 		.4byte	.LFE16
 3416 05b2 0400     		.2byte	0x4
 3417 05b4 F3       		.byte	0xf3
 3418 05b5 01       		.uleb128 0x1
 3419 05b6 50       		.byte	0x50
 3420 05b7 9F       		.byte	0x9f
ARM GAS  /tmp/ccSfJ2sN.s 			page 61


 3421 05b8 00000000 		.4byte	0
 3422 05bc 00000000 		.4byte	0
 3423              	.LLST37:
 3424 05c0 00000000 		.4byte	.LVL67
 3425 05c4 0E000000 		.4byte	.LVL68
 3426 05c8 0100     		.2byte	0x1
 3427 05ca 51       		.byte	0x51
 3428 05cb 0E000000 		.4byte	.LVL68
 3429 05cf 22000000 		.4byte	.LVL72
 3430 05d3 0100     		.2byte	0x1
 3431 05d5 54       		.byte	0x54
 3432 05d6 22000000 		.4byte	.LVL72
 3433 05da 2C000000 		.4byte	.LVL74
 3434 05de 0300     		.2byte	0x3
 3435 05e0 74       		.byte	0x74
 3436 05e1 01       		.sleb128 1
 3437 05e2 9F       		.byte	0x9f
 3438 05e3 2C000000 		.4byte	.LVL74
 3439 05e7 32000000 		.4byte	.LVL75
 3440 05eb 0100     		.2byte	0x1
 3441 05ed 54       		.byte	0x54
 3442 05ee 00000000 		.4byte	0
 3443 05f2 00000000 		.4byte	0
 3444              	.LLST38:
 3445 05f6 1E000000 		.4byte	.LVL70
 3446 05fa 28000000 		.4byte	.LVL73
 3447 05fe 0100     		.2byte	0x1
 3448 0600 55       		.byte	0x55
 3449 0601 00000000 		.4byte	0
 3450 0605 00000000 		.4byte	0
 3451              	.LLST39:
 3452 0609 20000000 		.4byte	.LVL71
 3453 060d 28000000 		.4byte	.LVL73
 3454 0611 0100     		.2byte	0x1
 3455 0613 50       		.byte	0x50
 3456 0614 00000000 		.4byte	0
 3457 0618 00000000 		.4byte	0
 3458              	.LLST40:
 3459 061c 00000000 		.4byte	.LVL77
 3460 0620 10000000 		.4byte	.LVL78
 3461 0624 0100     		.2byte	0x1
 3462 0626 50       		.byte	0x50
 3463 0627 10000000 		.4byte	.LVL78
 3464 062b 3E000000 		.4byte	.LVL87
 3465 062f 0400     		.2byte	0x4
 3466 0631 F3       		.byte	0xf3
 3467 0632 01       		.uleb128 0x1
 3468 0633 50       		.byte	0x50
 3469 0634 9F       		.byte	0x9f
 3470 0635 3E000000 		.4byte	.LVL87
 3471 0639 48000000 		.4byte	.LVL90
 3472 063d 0100     		.2byte	0x1
 3473 063f 50       		.byte	0x50
 3474 0640 48000000 		.4byte	.LVL90
 3475 0644 4B000000 		.4byte	.LVL91-1
 3476 0648 0200     		.2byte	0x2
 3477 064a 72       		.byte	0x72
ARM GAS  /tmp/ccSfJ2sN.s 			page 62


 3478 064b 04       		.sleb128 4
 3479 064c 4B000000 		.4byte	.LVL91-1
 3480 0650 58000000 		.4byte	.LFE17
 3481 0654 0400     		.2byte	0x4
 3482 0656 F3       		.byte	0xf3
 3483 0657 01       		.uleb128 0x1
 3484 0658 50       		.byte	0x50
 3485 0659 9F       		.byte	0x9f
 3486 065a 00000000 		.4byte	0
 3487 065e 00000000 		.4byte	0
 3488              	.LLST41:
 3489 0662 00000000 		.4byte	.LVL77
 3490 0666 10000000 		.4byte	.LVL78
 3491 066a 0100     		.2byte	0x1
 3492 066c 51       		.byte	0x51
 3493 066d 10000000 		.4byte	.LVL78
 3494 0671 22000000 		.4byte	.LVL81
 3495 0675 0100     		.2byte	0x1
 3496 0677 54       		.byte	0x54
 3497 0678 22000000 		.4byte	.LVL81
 3498 067c 24000000 		.4byte	.LVL82
 3499 0680 0400     		.2byte	0x4
 3500 0682 F3       		.byte	0xf3
 3501 0683 01       		.uleb128 0x1
 3502 0684 51       		.byte	0x51
 3503 0685 9F       		.byte	0x9f
 3504 0686 24000000 		.4byte	.LVL82
 3505 068a 3E000000 		.4byte	.LVL87
 3506 068e 0100     		.2byte	0x1
 3507 0690 54       		.byte	0x54
 3508 0691 3E000000 		.4byte	.LVL87
 3509 0695 4B000000 		.4byte	.LVL91-1
 3510 0699 0100     		.2byte	0x1
 3511 069b 51       		.byte	0x51
 3512 069c 4B000000 		.4byte	.LVL91-1
 3513 06a0 58000000 		.4byte	.LFE17
 3514 06a4 0100     		.2byte	0x1
 3515 06a6 54       		.byte	0x54
 3516 06a7 00000000 		.4byte	0
 3517 06ab 00000000 		.4byte	0
 3518              	.LLST42:
 3519 06af 1E000000 		.4byte	.LVL79
 3520 06b3 20000000 		.4byte	.LVL80
 3521 06b7 0200     		.2byte	0x2
 3522 06b9 30       		.byte	0x30
 3523 06ba 9F       		.byte	0x9f
 3524 06bb 20000000 		.4byte	.LVL80
 3525 06bf 24000000 		.4byte	.LVL82
 3526 06c3 0100     		.2byte	0x1
 3527 06c5 50       		.byte	0x50
 3528 06c6 3C000000 		.4byte	.LVL86
 3529 06ca 3E000000 		.4byte	.LVL87
 3530 06ce 0100     		.2byte	0x1
 3531 06d0 50       		.byte	0x50
 3532 06d1 00000000 		.4byte	0
 3533 06d5 00000000 		.4byte	0
 3534              	.LLST43:
ARM GAS  /tmp/ccSfJ2sN.s 			page 63


 3535 06d9 2A000000 		.4byte	.LVL83
 3536 06dd 3E000000 		.4byte	.LVL87
 3537 06e1 0100     		.2byte	0x1
 3538 06e3 55       		.byte	0x55
 3539 06e4 00000000 		.4byte	0
 3540 06e8 00000000 		.4byte	0
 3541              	.LLST44:
 3542 06ec 2A000000 		.4byte	.LVL83
 3543 06f0 34000000 		.4byte	.LVL84
 3544 06f4 0100     		.2byte	0x1
 3545 06f6 54       		.byte	0x54
 3546 06f7 00000000 		.4byte	0
 3547 06fb 00000000 		.4byte	0
 3548              	.LLST45:
 3549 06ff 2A000000 		.4byte	.LVL83
 3550 0703 34000000 		.4byte	.LVL84
 3551 0707 0100     		.2byte	0x1
 3552 0709 55       		.byte	0x55
 3553 070a 00000000 		.4byte	0
 3554 070e 00000000 		.4byte	0
 3555              	.LLST46:
 3556 0712 3E000000 		.4byte	.LVL87
 3557 0716 46000000 		.4byte	.LVL89
 3558 071a 0100     		.2byte	0x1
 3559 071c 50       		.byte	0x50
 3560 071d 00000000 		.4byte	0
 3561 0721 00000000 		.4byte	0
 3562              	.LLST47:
 3563 0725 40000000 		.4byte	.LVL88
 3564 0729 46000000 		.4byte	.LVL89
 3565 072d 0100     		.2byte	0x1
 3566 072f 53       		.byte	0x53
 3567 0730 00000000 		.4byte	0
 3568 0734 00000000 		.4byte	0
 3569              		.section	.debug_aranges,"",%progbits
 3570 0000 6C000000 		.4byte	0x6c
 3571 0004 0200     		.2byte	0x2
 3572 0006 00000000 		.4byte	.Ldebug_info0
 3573 000a 04       		.byte	0x4
 3574 000b 00       		.byte	0
 3575 000c 0000     		.2byte	0
 3576 000e 0000     		.2byte	0
 3577 0010 00000000 		.4byte	.LFB7
 3578 0014 08000000 		.4byte	.LFE7-.LFB7
 3579 0018 00000000 		.4byte	.LFB9
 3580 001c 28000000 		.4byte	.LFE9-.LFB9
 3581 0020 00000000 		.4byte	.LFB8
 3582 0024 10000000 		.4byte	.LFE8-.LFB8
 3583 0028 00000000 		.4byte	.LFB10
 3584 002c 38000000 		.4byte	.LFE10-.LFB10
 3585 0030 00000000 		.4byte	.LFB11
 3586 0034 34000000 		.4byte	.LFE11-.LFB11
 3587 0038 00000000 		.4byte	.LFB12
 3588 003c 3C000000 		.4byte	.LFE12-.LFB12
 3589 0040 00000000 		.4byte	.LFB13
 3590 0044 38000000 		.4byte	.LFE13-.LFB13
 3591 0048 00000000 		.4byte	.LFB14
ARM GAS  /tmp/ccSfJ2sN.s 			page 64


 3592 004c 24000000 		.4byte	.LFE14-.LFB14
 3593 0050 00000000 		.4byte	.LFB15
 3594 0054 22000000 		.4byte	.LFE15-.LFB15
 3595 0058 00000000 		.4byte	.LFB16
 3596 005c 34000000 		.4byte	.LFE16-.LFB16
 3597 0060 00000000 		.4byte	.LFB17
 3598 0064 58000000 		.4byte	.LFE17-.LFB17
 3599 0068 00000000 		.4byte	0
 3600 006c 00000000 		.4byte	0
 3601              		.section	.debug_ranges,"",%progbits
 3602              	.Ldebug_ranges0:
 3603 0000 12000000 		.4byte	.LBB28
 3604 0004 14000000 		.4byte	.LBE28
 3605 0008 16000000 		.4byte	.LBB31
 3606 000c 1C000000 		.4byte	.LBE31
 3607 0010 00000000 		.4byte	0
 3608 0014 00000000 		.4byte	0
 3609 0018 06000000 		.4byte	.LBB38
 3610 001c 12000000 		.4byte	.LBE38
 3611 0020 16000000 		.4byte	.LBB45
 3612 0024 38000000 		.4byte	.LBE45
 3613 0028 00000000 		.4byte	0
 3614 002c 00000000 		.4byte	0
 3615 0030 06000000 		.4byte	.LBB60
 3616 0034 12000000 		.4byte	.LBE60
 3617 0038 16000000 		.4byte	.LBB67
 3618 003c 3C000000 		.4byte	.LBE67
 3619 0040 00000000 		.4byte	0
 3620 0044 00000000 		.4byte	0
 3621 0048 12000000 		.4byte	.LBB76
 3622 004c 14000000 		.4byte	.LBE76
 3623 0050 16000000 		.4byte	.LBB79
 3624 0054 1C000000 		.4byte	.LBE79
 3625 0058 00000000 		.4byte	0
 3626 005c 00000000 		.4byte	0
 3627 0060 1E000000 		.4byte	.LBB83
 3628 0064 20000000 		.4byte	.LBE83
 3629 0068 22000000 		.4byte	.LBB86
 3630 006c 28000000 		.4byte	.LBE86
 3631 0070 00000000 		.4byte	0
 3632 0074 00000000 		.4byte	0
 3633 0078 00000000 		.4byte	.LFB7
 3634 007c 08000000 		.4byte	.LFE7
 3635 0080 00000000 		.4byte	.LFB9
 3636 0084 28000000 		.4byte	.LFE9
 3637 0088 00000000 		.4byte	.LFB8
 3638 008c 10000000 		.4byte	.LFE8
 3639 0090 00000000 		.4byte	.LFB10
 3640 0094 38000000 		.4byte	.LFE10
 3641 0098 00000000 		.4byte	.LFB11
 3642 009c 34000000 		.4byte	.LFE11
 3643 00a0 00000000 		.4byte	.LFB12
 3644 00a4 3C000000 		.4byte	.LFE12
 3645 00a8 00000000 		.4byte	.LFB13
 3646 00ac 38000000 		.4byte	.LFE13
 3647 00b0 00000000 		.4byte	.LFB14
 3648 00b4 24000000 		.4byte	.LFE14
ARM GAS  /tmp/ccSfJ2sN.s 			page 65


 3649 00b8 00000000 		.4byte	.LFB15
 3650 00bc 22000000 		.4byte	.LFE15
 3651 00c0 00000000 		.4byte	.LFB16
 3652 00c4 34000000 		.4byte	.LFE16
 3653 00c8 00000000 		.4byte	.LFB17
 3654 00cc 58000000 		.4byte	.LFE17
 3655 00d0 00000000 		.4byte	0
 3656 00d4 00000000 		.4byte	0
 3657              		.section	.debug_line,"",%progbits
 3658              	.Ldebug_line0:
 3659 0000 89030000 		.section	.debug_str,"MS",%progbits,1
 3659      02009001 
 3659      00000201 
 3659      FB0E0D00 
 3659      01010101 
 3660              	.LASF41:
 3661 0000 705F6D73 		.ascii	"p_msg\000"
 3661      6700
 3662              	.LASF93:
 3663 0006 71756575 		.ascii	"queue_insert\000"
 3663      655F696E 
 3663      73657274 
 3663      00
 3664              	.LASF82:
 3665 0013 63685365 		.ascii	"chSemSignalI\000"
 3665      6D536967 
 3665      6E616C49 
 3665      00
 3666              	.LASF66:
 3667 0020 7264796D 		.ascii	"rdymsg\000"
 3667      736700
 3668              	.LASF7:
 3669 0027 5F5F7569 		.ascii	"__uint8_t\000"
 3669      6E74385F 
 3669      7400
 3670              	.LASF12:
 3671 0031 6C6F6E67 		.ascii	"long long unsigned int\000"
 3671      206C6F6E 
 3671      6720756E 
 3671      7369676E 
 3671      65642069 
 3672              	.LASF67:
 3673 0048 65786974 		.ascii	"exitcode\000"
 3673      636F6465 
 3673      00
 3674              	.LASF83:
 3675 0051 63685365 		.ascii	"chSemAddCounterI\000"
 3675      6D416464 
 3675      436F756E 
 3675      74657249 
 3675      00
 3676              	.LASF29:
 3677 0062 705F7072 		.ascii	"p_prio\000"
 3677      696F00
 3678              	.LASF1:
 3679 0069 6C6F6E67 		.ascii	"long long int\000"
 3679      206C6F6E 
ARM GAS  /tmp/ccSfJ2sN.s 			page 66


 3679      6720696E 
 3679      7400
 3680              	.LASF3:
 3681 0077 7369676E 		.ascii	"signed char\000"
 3681      65642063 
 3681      68617200 
 3682              	.LASF84:
 3683 0083 63685365 		.ascii	"chSemSignalWait\000"
 3683      6D536967 
 3683      6E616C57 
 3683      61697400 
 3684              	.LASF45:
 3685 0093 705F6D70 		.ascii	"p_mpool\000"
 3685      6F6F6C00 
 3686              	.LASF63:
 3687 009b 6D5F7175 		.ascii	"m_queue\000"
 3687      65756500 
 3688              	.LASF20:
 3689 00a3 74736C69 		.ascii	"tslices_t\000"
 3689      6365735F 
 3689      7400
 3690              	.LASF91:
 3691 00ad 2E2E2F2E 		.ascii	"../../os/kernel/src/chsem.c\000"
 3691      2E2F6F73 
 3691      2F6B6572 
 3691      6E656C2F 
 3691      7372632F 
 3692              	.LASF9:
 3693 00c9 6C6F6E67 		.ascii	"long int\000"
 3693      20696E74 
 3693      00
 3694              	.LASF18:
 3695 00d2 74737461 		.ascii	"tstate_t\000"
 3695      74655F74 
 3695      00
 3696              	.LASF36:
 3697 00db 705F7265 		.ascii	"p_refs\000"
 3697      667300
 3698              	.LASF81:
 3699 00e2 63685365 		.ascii	"chSemSignal\000"
 3699      6D536967 
 3699      6E616C00 
 3700              	.LASF31:
 3701 00ee 705F6E65 		.ascii	"p_newer\000"
 3701      77657200 
 3702              	.LASF60:
 3703 00f6 735F7175 		.ascii	"s_queue\000"
 3703      65756500 
 3704              	.LASF86:
 3705 00fe 63685363 		.ascii	"chSchRescheduleS\000"
 3705      68526573 
 3705      63686564 
 3705      756C6553 
 3705      00
 3706              	.LASF10:
 3707 010f 5F5F7569 		.ascii	"__uint32_t\000"
 3707      6E743332 
ARM GAS  /tmp/ccSfJ2sN.s 			page 67


 3707      5F7400
 3708              	.LASF48:
 3709 011a 72656761 		.ascii	"regarm_t\000"
 3709      726D5F74 
 3709      00
 3710              	.LASF25:
 3711 0123 636E745F 		.ascii	"cnt_t\000"
 3711      7400
 3712              	.LASF0:
 3713 0129 756E7369 		.ascii	"unsigned int\000"
 3713      676E6564 
 3713      20696E74 
 3713      00
 3714              	.LASF80:
 3715 0136 63685365 		.ascii	"chSemWaitTimeout\000"
 3715      6D576169 
 3715      7454696D 
 3715      656F7574 
 3715      00
 3716              	.LASF11:
 3717 0147 6C6F6E67 		.ascii	"long unsigned int\000"
 3717      20756E73 
 3717      69676E65 
 3717      6420696E 
 3717      7400
 3718              	.LASF61:
 3719 0159 735F636E 		.ascii	"s_cnt\000"
 3719      7400
 3720              	.LASF50:
 3721 015f 636F6E74 		.ascii	"context\000"
 3721      65787400 
 3722              	.LASF6:
 3723 0167 73686F72 		.ascii	"short unsigned int\000"
 3723      7420756E 
 3723      7369676E 
 3723      65642069 
 3723      6E7400
 3724              	.LASF78:
 3725 017a 63685365 		.ascii	"chSemReset\000"
 3725      6D526573 
 3725      657400
 3726              	.LASF22:
 3727 0185 6D73675F 		.ascii	"msg_t\000"
 3727      7400
 3728              	.LASF55:
 3729 018b 725F6E65 		.ascii	"r_newer\000"
 3729      77657200 
 3730              	.LASF17:
 3731 0193 746D6F64 		.ascii	"tmode_t\000"
 3731      655F7400 
 3732              	.LASF47:
 3733 019b 54687265 		.ascii	"ThreadsList\000"
 3733      6164734C 
 3733      69737400 
 3734              	.LASF92:
 3735 01a7 2F686F6D 		.ascii	"/home/lithium/Documentos/ChibiOS_2.6.8/demos/BikeTr"
 3735      652F6C69 
ARM GAS  /tmp/ccSfJ2sN.s 			page 68


 3735      74686975 
 3735      6D2F446F 
 3735      63756D65 
 3736 01da 61636B65 		.ascii	"acker\000"
 3736      7200
 3737              	.LASF23:
 3738 01e0 6576656E 		.ascii	"eventmask_t\000"
 3738      746D6173 
 3738      6B5F7400 
 3739              	.LASF62:
 3740 01ec 4D757465 		.ascii	"Mutex\000"
 3740      7800
 3741              	.LASF51:
 3742 01f2 73697A65 		.ascii	"sizetype\000"
 3742      74797065 
 3742      00
 3743              	.LASF2:
 3744 01fb 6C6F6E67 		.ascii	"long double\000"
 3744      20646F75 
 3744      626C6500 
 3745              	.LASF32:
 3746 0207 705F6F6C 		.ascii	"p_older\000"
 3746      64657200 
 3747              	.LASF54:
 3748 020f 725F6374 		.ascii	"r_ctx\000"
 3748      7800
 3749              	.LASF46:
 3750 0215 54687265 		.ascii	"ThreadsQueue\000"
 3750      61647351 
 3750      75657565 
 3750      00
 3751              	.LASF73:
 3752 0222 74696D65 		.ascii	"time\000"
 3752      00
 3753              	.LASF57:
 3754 0227 725F6375 		.ascii	"r_current\000"
 3754      7272656E 
 3754      7400
 3755              	.LASF56:
 3756 0231 725F6F6C 		.ascii	"r_older\000"
 3756      64657200 
 3757              	.LASF19:
 3758 0239 74726566 		.ascii	"trefs_t\000"
 3758      735F7400 
 3759              	.LASF28:
 3760 0241 705F7072 		.ascii	"p_prev\000"
 3760      657600
 3761              	.LASF21:
 3762 0248 74707269 		.ascii	"tprio_t\000"
 3762      6F5F7400 
 3763              	.LASF16:
 3764 0250 5F426F6F 		.ascii	"_Bool\000"
 3764      6C00
 3765              	.LASF14:
 3766 0256 696E7433 		.ascii	"int32_t\000"
 3766      325F7400 
 3767              	.LASF4:
ARM GAS  /tmp/ccSfJ2sN.s 			page 69


 3768 025e 756E7369 		.ascii	"unsigned char\000"
 3768      676E6564 
 3768      20636861 
 3768      7200
 3769              	.LASF43:
 3770 026c 705F6D74 		.ascii	"p_mtxlist\000"
 3770      786C6973 
 3770      7400
 3771              	.LASF5:
 3772 0276 73686F72 		.ascii	"short int\000"
 3772      7420696E 
 3772      7400
 3773              	.LASF34:
 3774 0280 705F7374 		.ascii	"p_state\000"
 3774      61746500 
 3775              	.LASF37:
 3776 0288 705F7072 		.ascii	"p_preempt\000"
 3776      65656D70 
 3776      7400
 3777              	.LASF53:
 3778 0292 725F7072 		.ascii	"r_prio\000"
 3778      696F00
 3779              	.LASF69:
 3780 0299 65776D61 		.ascii	"ewmask\000"
 3780      736B00
 3781              	.LASF27:
 3782 02a0 705F6E65 		.ascii	"p_next\000"
 3782      787400
 3783              	.LASF35:
 3784 02a7 705F666C 		.ascii	"p_flags\000"
 3784      61677300 
 3785              	.LASF71:
 3786 02af 63685365 		.ascii	"chSemWaitS\000"
 3786      6D576169 
 3786      745300
 3787              	.LASF26:
 3788 02ba 54687265 		.ascii	"Thread\000"
 3788      616400
 3789              	.LASF87:
 3790 02c1 63685363 		.ascii	"chSchGoSleepS\000"
 3790      68476F53 
 3790      6C656570 
 3790      5300
 3791              	.LASF42:
 3792 02cf 705F6570 		.ascii	"p_epending\000"
 3792      656E6469 
 3792      6E6700
 3793              	.LASF15:
 3794 02da 75696E74 		.ascii	"uint32_t\000"
 3794      33325F74 
 3794      00
 3795              	.LASF52:
 3796 02e3 725F7175 		.ascii	"r_queue\000"
 3796      65756500 
 3797              	.LASF85:
 3798 02eb 63685363 		.ascii	"chSchReadyI\000"
 3798      68526561 
ARM GAS  /tmp/ccSfJ2sN.s 			page 70


 3798      64794900 
 3799              	.LASF70:
 3800 02f7 63686172 		.ascii	"char\000"
 3800      00
 3801              	.LASF75:
 3802 02fc 6669666F 		.ascii	"fifo_remove\000"
 3802      5F72656D 
 3802      6F766500 
 3803              	.LASF72:
 3804 0308 63685365 		.ascii	"chSemWaitTimeoutS\000"
 3804      6D576169 
 3804      7454696D 
 3804      656F7574 
 3804      5300
 3805              	.LASF65:
 3806 031a 6D5F6E65 		.ascii	"m_next\000"
 3806      787400
 3807              	.LASF24:
 3808 0321 73797374 		.ascii	"systime_t\000"
 3808      696D655F 
 3808      7400
 3809              	.LASF44:
 3810 032b 705F7265 		.ascii	"p_realprio\000"
 3810      616C7072 
 3810      696F00
 3811              	.LASF8:
 3812 0336 5F5F696E 		.ascii	"__int32_t\000"
 3812      7433325F 
 3812      7400
 3813              	.LASF79:
 3814 0340 63685365 		.ascii	"chSemWait\000"
 3814      6D576169 
 3814      7400
 3815              	.LASF38:
 3816 034a 705F7469 		.ascii	"p_time\000"
 3816      6D6500
 3817              	.LASF74:
 3818 0351 6C69666F 		.ascii	"lifo_remove\000"
 3818      5F72656D 
 3818      6F766500 
 3819              	.LASF49:
 3820 035d 696E7463 		.ascii	"intctx\000"
 3820      747800
 3821              	.LASF40:
 3822 0364 705F6D73 		.ascii	"p_msgqueue\000"
 3822      67717565 
 3822      756500
 3823              	.LASF89:
 3824 036f 63685363 		.ascii	"chSchWakeupS\000"
 3824      6857616B 
 3824      65757053 
 3824      00
 3825              	.LASF59:
 3826 037c 53656D61 		.ascii	"Semaphore\000"
 3826      70686F72 
 3826      6500
 3827              	.LASF90:
ARM GAS  /tmp/ccSfJ2sN.s 			page 71


 3828 0386 474E5520 		.ascii	"GNU C11 5.3.1 20160307 (release) [ARM/embedded-5-br"
 3828      43313120 
 3828      352E332E 
 3828      31203230 
 3828      31363033 
 3829 03b9 616E6368 		.ascii	"anch revision 234589] -mcpu=cortex-m0 -mno-thumb-in"
 3829      20726576 
 3829      6973696F 
 3829      6E203233 
 3829      34353839 
 3830 03ec 74657277 		.ascii	"terwork -mthumb -ggdb -O2 -fomit-frame-pointer -fal"
 3830      6F726B20 
 3830      2D6D7468 
 3830      756D6220 
 3830      2D676764 
 3831 041f 69676E2D 		.ascii	"ign-functions=16 -ffunction-sections -fdata-section"
 3831      66756E63 
 3831      74696F6E 
 3831      733D3136 
 3831      202D6666 
 3832 0452 73202D66 		.ascii	"s -fno-common\000"
 3832      6E6F2D63 
 3832      6F6D6D6F 
 3832      6E00
 3833              	.LASF58:
 3834 0460 52656164 		.ascii	"ReadyList\000"
 3834      794C6973 
 3834      7400
 3835              	.LASF77:
 3836 046a 63685365 		.ascii	"chSemResetI\000"
 3836      6D526573 
 3836      65744900 
 3837              	.LASF94:
 3838 0476 726C6973 		.ascii	"rlist\000"
 3838      7400
 3839              	.LASF13:
 3840 047c 75696E74 		.ascii	"uint8_t\000"
 3840      385F7400 
 3841              	.LASF68:
 3842 0484 77746F62 		.ascii	"wtobjp\000"
 3842      6A7000
 3843              	.LASF33:
 3844 048b 705F6E61 		.ascii	"p_name\000"
 3844      6D6500
 3845              	.LASF88:
 3846 0492 63685363 		.ascii	"chSchGoSleepTimeoutS\000"
 3846      68476F53 
 3846      6C656570 
 3846      54696D65 
 3846      6F757453 
 3847              	.LASF64:
 3848 04a7 6D5F6F77 		.ascii	"m_owner\000"
 3848      6E657200 
 3849              	.LASF30:
 3850 04af 705F6374 		.ascii	"p_ctx\000"
 3850      7800
 3851              	.LASF39:
ARM GAS  /tmp/ccSfJ2sN.s 			page 72


 3852 04b5 705F7761 		.ascii	"p_waiting\000"
 3852      6974696E 
 3852      6700
 3853              	.LASF76:
 3854 04bf 63685365 		.ascii	"chSemInit\000"
 3854      6D496E69 
 3854      7400
 3855              		.ident	"GCC: (GNU Tools for ARM Embedded Processors) 5.3.1 20160307 (release) [ARM/embedded-5-bran
ARM GAS  /tmp/ccSfJ2sN.s 			page 73


DEFINED SYMBOLS
                            *ABS*:00000000 chsem.c
     /tmp/ccSfJ2sN.s:20     .text.chSemInit:00000000 $t
     /tmp/ccSfJ2sN.s:26     .text.chSemInit:00000000 chSemInit
     /tmp/ccSfJ2sN.s:47     .text.chSemResetI:00000000 $t
     /tmp/ccSfJ2sN.s:53     .text.chSemResetI:00000000 chSemResetI
     /tmp/ccSfJ2sN.s:123    .text.chSemReset:00000000 $t
     /tmp/ccSfJ2sN.s:129    .text.chSemReset:00000000 chSemReset
     /tmp/ccSfJ2sN.s:167    .text.chSemWait:00000000 $t
     /tmp/ccSfJ2sN.s:173    .text.chSemWait:00000000 chSemWait
     /tmp/ccSfJ2sN.s:259    .text.chSemWait:00000034 $d
     /tmp/ccSfJ2sN.s:268    .text.chSemWaitS:00000000 $t
     /tmp/ccSfJ2sN.s:274    .text.chSemWaitS:00000000 chSemWaitS
     /tmp/ccSfJ2sN.s:342    .text.chSemWaitS:00000030 $d
     /tmp/ccSfJ2sN.s:349    .text.chSemWaitTimeout:00000000 $t
     /tmp/ccSfJ2sN.s:355    .text.chSemWaitTimeout:00000000 chSemWaitTimeout
     /tmp/ccSfJ2sN.s:449    .text.chSemWaitTimeout:00000038 $d
     /tmp/ccSfJ2sN.s:456    .text.chSemWaitTimeoutS:00000000 $t
     /tmp/ccSfJ2sN.s:462    .text.chSemWaitTimeoutS:00000000 chSemWaitTimeoutS
     /tmp/ccSfJ2sN.s:535    .text.chSemWaitTimeoutS:00000034 $d
     /tmp/ccSfJ2sN.s:540    .text.chSemSignal:00000000 $t
     /tmp/ccSfJ2sN.s:546    .text.chSemSignal:00000000 chSemSignal
     /tmp/ccSfJ2sN.s:612    .text.chSemSignalI:00000000 $t
     /tmp/ccSfJ2sN.s:618    .text.chSemSignalI:00000000 chSemSignalI
     /tmp/ccSfJ2sN.s:675    .text.chSemAddCounterI:00000000 $t
     /tmp/ccSfJ2sN.s:681    .text.chSemAddCounterI:00000000 chSemAddCounterI
     /tmp/ccSfJ2sN.s:755    .text.chSemSignalWait:00000000 $t
     /tmp/ccSfJ2sN.s:761    .text.chSemSignalWait:00000000 chSemSignalWait
     /tmp/ccSfJ2sN.s:874    .text.chSemSignalWait:00000054 $d
                     .debug_frame:00000010 $d

UNDEFINED SYMBOLS
chSchReadyI
chSchRescheduleS
chSchGoSleepS
rlist
chSchGoSleepTimeoutS
chSchWakeupS
