ARM GAS  /tmp/ccSfJ2sN.s 			page 1


   1              		.syntax unified
   2              		.cpu cortex-m0
   3              		.fpu softvfp
   4              		.eabi_attribute 20, 1
   5              		.eabi_attribute 21, 1
   6              		.eabi_attribute 23, 3
   7              		.eabi_attribute 24, 1
   8              		.eabi_attribute 25, 1
   9              		.eabi_attribute 26, 1
  10              		.eabi_attribute 30, 2
  11              		.eabi_attribute 34, 0
  12              		.eabi_attribute 18, 4
  13              		.thumb
  14              		.syntax unified
  15              		.file	"chsem.c"
  16              		.text
  17              	.Ltext0:
  18              		.cfi_sections	.debug_frame
  19              		.section	.text.chSemInit,"ax",%progbits
  20              		.align	2
  21              		.p2align 4,,15
  22              		.global	chSemInit
  23              		.code	16
  24              		.thumb_func
  25              		.type	chSemInit, %function
  26              	chSemInit:
  27              	.LFB7:
  28              		.file 1 "../../os/kernel/src/chsem.c"
  29              		.loc 1 86 0
  30              		.cfi_startproc
  31              		@ args = 0, pretend = 0, frame = 0
  32              		@ frame_needed = 0, uses_anonymous_args = 0
  33              		@ link register save eliminated.
  34              	.LVL0:
  35              		.loc 1 90 0
  36 0000 4060     		str	r0, [r0, #4]
  37 0002 0060     		str	r0, [r0]
  38              		.loc 1 91 0
  39 0004 8160     		str	r1, [r0, #8]
  40              		.loc 1 92 0
  41              		@ sp needed
  42 0006 7047     		bx	lr
  43              		.cfi_endproc
  44              	.LFE7:
  45              		.size	chSemInit, .-chSemInit
  46              		.section	.text.chSemResetI,"ax",%progbits
  47              		.align	2
  48              		.p2align 4,,15
  49              		.global	chSemResetI
  50              		.code	16
  51              		.thumb_func
  52              		.type	chSemResetI, %function
  53              	chSemResetI:
  54              	.LFB9:
  55              		.loc 1 136 0
  56              		.cfi_startproc
  57              		@ args = 0, pretend = 0, frame = 0
ARM GAS  /tmp/ccSfJ2sN.s 			page 2


  58              		@ frame_needed = 0, uses_anonymous_args = 0
  59              	.LVL1:
  60 0000 70B5     		push	{r4, r5, r6, lr}
  61              		.cfi_def_cfa_offset 16
  62              		.cfi_offset 4, -16
  63              		.cfi_offset 5, -12
  64              		.cfi_offset 6, -8
  65              		.cfi_offset 14, -4
  66              		.loc 1 141 0
  67 0002 8468     		ldr	r4, [r0, #8]
  68              	.LVL2:
  69              		.loc 1 136 0
  70 0004 0500     		movs	r5, r0
  71              		.loc 1 148 0
  72 0006 0134     		adds	r4, r4, #1
  73              	.LVL3:
  74              		.loc 1 147 0
  75 0008 8160     		str	r1, [r0, #8]
  76              	.LVL4:
  77              		.loc 1 148 0
  78 000a 002C     		cmp	r4, #0
  79 000c 0BDC     		bgt	.L2
  80              		.loc 1 149 0
  81 000e 0226     		movs	r6, #2
  82 0010 7642     		rsbs	r6, r6, #0
  83              	.LVL5:
  84              	.L6:
  85              	.LBB28:
  86              	.LBB29:
  87              		.file 2 "../../os/kernel/include/chinline.h"
  88              		.loc 2 67 0
  89 0012 6868     		ldr	r0, [r5, #4]
  90              	.LVL6:
  91              	.LBE29:
  92              	.LBE28:
  93              		.loc 1 148 0
  94 0014 0134     		adds	r4, r4, #1
  95              	.LVL7:
  96              	.LBB31:
  97              	.LBB30:
  98              		.loc 2 69 0
  99 0016 4368     		ldr	r3, [r0, #4]
 100 0018 6B60     		str	r3, [r5, #4]
 101 001a 1D60     		str	r5, [r3]
 102              	.LVL8:
 103              	.LBE30:
 104              	.LBE31:
 105              		.loc 1 149 0
 106 001c FFF7FEFF 		bl	chSchReadyI
 107              	.LVL9:
 108 0020 4662     		str	r6, [r0, #36]
 109              	.LVL10:
 110              		.loc 1 148 0
 111 0022 012C     		cmp	r4, #1
 112 0024 F5D1     		bne	.L6
 113              	.L2:
 114              		.loc 1 150 0
ARM GAS  /tmp/ccSfJ2sN.s 			page 3


 115              		@ sp needed
 116              	.LVL11:
 117              	.LVL12:
 118 0026 70BD     		pop	{r4, r5, r6, pc}
 119              		.cfi_endproc
 120              	.LFE9:
 121              		.size	chSemResetI, .-chSemResetI
 122              		.section	.text.chSemReset,"ax",%progbits
 123              		.align	2
 124              		.p2align 4,,15
 125              		.global	chSemReset
 126              		.code	16
 127              		.thumb_func
 128              		.type	chSemReset, %function
 129              	chSemReset:
 130              	.LFB8:
 131              		.loc 1 109 0
 132              		.cfi_startproc
 133              		@ args = 0, pretend = 0, frame = 0
 134              		@ frame_needed = 0, uses_anonymous_args = 0
 135              	.LVL13:
 136 0000 10B5     		push	{r4, lr}
 137              		.cfi_def_cfa_offset 8
 138              		.cfi_offset 4, -8
 139              		.cfi_offset 14, -4
 140              		.loc 1 111 0
 141              		.syntax divided
 142              	@ 111 "../../os/kernel/src/chsem.c" 1
 143 0002 72B6     		cpsid   i
 144              	@ 0 "" 2
 145              		.loc 1 112 0
 146              		.thumb
 147              		.syntax unified
 148 0004 FFF7FEFF 		bl	chSemResetI
 149              	.LVL14:
 150              		.loc 1 113 0
 151 0008 FFF7FEFF 		bl	chSchRescheduleS
 152              	.LVL15:
 153              		.loc 1 114 0
 154              		.syntax divided
 155              	@ 114 "../../os/kernel/src/chsem.c" 1
 156 000c 62B6     		cpsie   i
 157              	@ 0 "" 2
 158              		.loc 1 115 0
 159              		.thumb
 160              		.syntax unified
 161              		@ sp needed
 162 000e 10BD     		pop	{r4, pc}
 163              		.cfi_endproc
 164              	.LFE8:
 165              		.size	chSemReset, .-chSemReset
 166              		.section	.text.chSemWait,"ax",%progbits
 167              		.align	2
 168              		.p2align 4,,15
 169              		.global	chSemWait
 170              		.code	16
 171              		.thumb_func
ARM GAS  /tmp/ccSfJ2sN.s 			page 4


 172              		.type	chSemWait, %function
 173              	chSemWait:
 174              	.LFB10:
 175              		.loc 1 164 0
 176              		.cfi_startproc
 177              		@ args = 0, pretend = 0, frame = 0
 178              		@ frame_needed = 0, uses_anonymous_args = 0
 179              	.LVL16:
 180 0000 10B5     		push	{r4, lr}
 181              		.cfi_def_cfa_offset 8
 182              		.cfi_offset 4, -8
 183              		.cfi_offset 14, -4
 184              		.loc 1 164 0
 185 0002 0200     		movs	r2, r0
 186              		.loc 1 167 0
 187              		.syntax divided
 188              	@ 167 "../../os/kernel/src/chsem.c" 1
 189 0004 72B6     		cpsid   i
 190              	@ 0 "" 2
 191              	.LVL17:
 192              		.thumb
 193              		.syntax unified
 194              	.LBB38:
 195              	.LBB39:
 196              		.loc 1 194 0
 197 0006 8368     		ldr	r3, [r0, #8]
 198 0008 013B     		subs	r3, r3, #1
 199 000a 8360     		str	r3, [r0, #8]
 200              		.loc 1 200 0
 201 000c 0020     		movs	r0, #0
 202              	.LVL18:
 203              		.loc 1 194 0
 204 000e 002B     		cmp	r3, #0
 205 0010 01DB     		blt	.L13
 206              	.LVL19:
 207              	.L11:
 208              	.LBE39:
 209              	.LBE38:
 210              		.loc 1 169 0
 211              		.syntax divided
 212              	@ 169 "../../os/kernel/src/chsem.c" 1
 213 0012 62B6     		cpsie   i
 214              	@ 0 "" 2
 215              		.loc 1 171 0
 216              		.thumb
 217              		.syntax unified
 218              		@ sp needed
 219 0014 10BD     		pop	{r4, pc}
 220              	.LVL20:
 221              	.L13:
 222              	.LBB45:
 223              	.LBB44:
 224              	.LBB40:
 225              	.LBB41:
 226              		.loc 1 195 0
 227 0016 074C     		ldr	r4, .L14
 228              		.loc 1 197 0
ARM GAS  /tmp/ccSfJ2sN.s 			page 5


 229 0018 0330     		adds	r0, r0, #3
 230              		.loc 1 195 0
 231 001a A369     		ldr	r3, [r4, #24]
 232 001c 5A62     		str	r2, [r3, #36]
 233              	.LVL21:
 234              	.LBB42:
 235              	.LBB43:
 236              		.loc 2 55 0
 237 001e 5168     		ldr	r1, [r2, #4]
 238              		.loc 2 54 0
 239 0020 1A60     		str	r2, [r3]
 240              		.loc 2 55 0
 241 0022 5960     		str	r1, [r3, #4]
 242              		.loc 2 56 0
 243 0024 5360     		str	r3, [r2, #4]
 244 0026 0B60     		str	r3, [r1]
 245              	.LVL22:
 246              	.LBE43:
 247              	.LBE42:
 248              		.loc 1 197 0
 249 0028 FFF7FEFF 		bl	chSchGoSleepS
 250              	.LVL23:
 251              		.loc 1 198 0
 252 002c A369     		ldr	r3, [r4, #24]
 253 002e 586A     		ldr	r0, [r3, #36]
 254              	.LVL24:
 255 0030 EFE7     		b	.L11
 256              	.L15:
 257 0032 C046     		.align	2
 258              	.L14:
 259 0034 00000000 		.word	rlist
 260              	.LBE41:
 261              	.LBE40:
 262              	.LBE44:
 263              	.LBE45:
 264              		.cfi_endproc
 265              	.LFE10:
 266              		.size	chSemWait, .-chSemWait
 267              		.section	.text.chSemWaitS,"ax",%progbits
 268              		.align	2
 269              		.p2align 4,,15
 270              		.global	chSemWaitS
 271              		.code	16
 272              		.thumb_func
 273              		.type	chSemWaitS, %function
 274              	chSemWaitS:
 275              	.LFB11:
 276              		.loc 1 185 0
 277              		.cfi_startproc
 278              		@ args = 0, pretend = 0, frame = 0
 279              		@ frame_needed = 0, uses_anonymous_args = 0
 280              	.LVL25:
 281              		.loc 1 194 0
 282 0000 8368     		ldr	r3, [r0, #8]
 283              		.loc 1 185 0
 284 0002 10B5     		push	{r4, lr}
 285              		.cfi_def_cfa_offset 8
ARM GAS  /tmp/ccSfJ2sN.s 			page 6


 286              		.cfi_offset 4, -8
 287              		.cfi_offset 14, -4
 288              		.loc 1 194 0
 289 0004 013B     		subs	r3, r3, #1
 290              		.loc 1 185 0
 291 0006 0200     		movs	r2, r0
 292              		.loc 1 194 0
 293 0008 8360     		str	r3, [r0, #8]
 294              		.loc 1 200 0
 295 000a 0020     		movs	r0, #0
 296              	.LVL26:
 297              		.loc 1 194 0
 298 000c 002B     		cmp	r3, #0
 299 000e 00DB     		blt	.L19
 300              	.LVL27:
 301              	.L17:
 302              		.loc 1 201 0
 303              		@ sp needed
 304 0010 10BD     		pop	{r4, pc}
 305              	.LVL28:
 306              	.L19:
 307              	.LBB50:
 308              	.LBB51:
 309              		.loc 1 195 0
 310 0012 074C     		ldr	r4, .L20
 311              		.loc 1 197 0
 312 0014 0330     		adds	r0, r0, #3
 313              		.loc 1 195 0
 314 0016 A369     		ldr	r3, [r4, #24]
 315 0018 5A62     		str	r2, [r3, #36]
 316              	.LVL29:
 317              	.LBB52:
 318              	.LBB53:
 319              		.loc 2 55 0
 320 001a 5168     		ldr	r1, [r2, #4]
 321              		.loc 2 54 0
 322 001c 1A60     		str	r2, [r3]
 323              		.loc 2 55 0
 324 001e 5960     		str	r1, [r3, #4]
 325              		.loc 2 56 0
 326 0020 5360     		str	r3, [r2, #4]
 327 0022 0B60     		str	r3, [r1]
 328              	.LVL30:
 329              	.LBE53:
 330              	.LBE52:
 331              		.loc 1 197 0
 332 0024 FFF7FEFF 		bl	chSchGoSleepS
 333              	.LVL31:
 334              		.loc 1 198 0
 335 0028 A369     		ldr	r3, [r4, #24]
 336 002a 586A     		ldr	r0, [r3, #36]
 337              	.LVL32:
 338 002c F0E7     		b	.L17
 339              	.L21:
 340 002e C046     		.align	2
 341              	.L20:
 342 0030 00000000 		.word	rlist
ARM GAS  /tmp/ccSfJ2sN.s 			page 7


 343              	.LBE51:
 344              	.LBE50:
 345              		.cfi_endproc
 346              	.LFE11:
 347              		.size	chSemWaitS, .-chSemWaitS
 348              		.section	.text.chSemWaitTimeout,"ax",%progbits
 349              		.align	2
 350              		.p2align 4,,15
 351              		.global	chSemWaitTimeout
 352              		.code	16
 353              		.thumb_func
 354              		.type	chSemWaitTimeout, %function
 355              	chSemWaitTimeout:
 356              	.LFB12:
 357              		.loc 1 222 0
 358              		.cfi_startproc
 359              		@ args = 0, pretend = 0, frame = 0
 360              		@ frame_needed = 0, uses_anonymous_args = 0
 361              	.LVL33:
 362 0000 10B5     		push	{r4, lr}
 363              		.cfi_def_cfa_offset 8
 364              		.cfi_offset 4, -8
 365              		.cfi_offset 14, -4
 366              		.loc 1 222 0
 367 0002 0300     		movs	r3, r0
 368              		.loc 1 225 0
 369              		.syntax divided
 370              	@ 225 "../../os/kernel/src/chsem.c" 1
 371 0004 72B6     		cpsid   i
 372              	@ 0 "" 2
 373              	.LVL34:
 374              		.thumb
 375              		.syntax unified
 376              	.LBB60:
 377              	.LBB61:
 378              		.loc 1 254 0
 379 0006 8468     		ldr	r4, [r0, #8]
 380              		.loc 1 259 0
 381 0008 621E     		subs	r2, r4, #1
 382 000a 8260     		str	r2, [r0, #8]
 383              		.loc 1 268 0
 384 000c 0020     		movs	r0, #0
 385              	.LVL35:
 386              		.loc 1 259 0
 387 000e 002A     		cmp	r2, #0
 388 0010 01DB     		blt	.L26
 389              	.LVL36:
 390              	.L23:
 391              	.LBE61:
 392              	.LBE60:
 393              		.loc 1 227 0
 394              		.syntax divided
 395              	@ 227 "../../os/kernel/src/chsem.c" 1
 396 0012 62B6     		cpsie   i
 397              	@ 0 "" 2
 398              		.loc 1 229 0
 399              		.thumb
ARM GAS  /tmp/ccSfJ2sN.s 			page 8


 400              		.syntax unified
 401              		@ sp needed
 402 0014 10BD     		pop	{r4, pc}
 403              	.LVL37:
 404              	.L26:
 405              	.LBB67:
 406              	.LBB66:
 407              		.loc 1 260 0
 408 0016 0029     		cmp	r1, #0
 409 0018 0BD0     		beq	.L27
 410              	.LVL38:
 411              	.LBB62:
 412              	.LBB63:
 413              		.loc 1 264 0
 414 001a 074A     		ldr	r2, .L28
 415 001c 9269     		ldr	r2, [r2, #24]
 416 001e 5362     		str	r3, [r2, #36]
 417              	.LVL39:
 418              	.LBB64:
 419              	.LBB65:
 420              		.loc 2 55 0
 421 0020 5868     		ldr	r0, [r3, #4]
 422              		.loc 2 54 0
 423 0022 1360     		str	r3, [r2]
 424              		.loc 2 55 0
 425 0024 5060     		str	r0, [r2, #4]
 426              		.loc 2 56 0
 427 0026 5A60     		str	r2, [r3, #4]
 428 0028 0260     		str	r2, [r0]
 429              	.LVL40:
 430              	.LBE65:
 431              	.LBE64:
 432              		.loc 1 266 0
 433 002a 0320     		movs	r0, #3
 434 002c FFF7FEFF 		bl	chSchGoSleepTimeoutS
 435              	.LVL41:
 436 0030 EFE7     		b	.L23
 437              	.LVL42:
 438              	.L27:
 439              	.LBE63:
 440              	.LBE62:
 441              		.loc 1 261 0
 442 0032 9C60     		str	r4, [r3, #8]
 443              		.loc 1 262 0
 444 0034 0138     		subs	r0, r0, #1
 445 0036 ECE7     		b	.L23
 446              	.L29:
 447              		.align	2
 448              	.L28:
 449 0038 00000000 		.word	rlist
 450              	.LBE66:
 451              	.LBE67:
 452              		.cfi_endproc
 453              	.LFE12:
 454              		.size	chSemWaitTimeout, .-chSemWaitTimeout
 455              		.section	.text.chSemWaitTimeoutS,"ax",%progbits
 456              		.align	2
ARM GAS  /tmp/ccSfJ2sN.s 			page 9


 457              		.p2align 4,,15
 458              		.global	chSemWaitTimeoutS
 459              		.code	16
 460              		.thumb_func
 461              		.type	chSemWaitTimeoutS, %function
 462              	chSemWaitTimeoutS:
 463              	.LFB13:
 464              		.loc 1 250 0
 465              		.cfi_startproc
 466              		@ args = 0, pretend = 0, frame = 0
 467              		@ frame_needed = 0, uses_anonymous_args = 0
 468              	.LVL43:
 469 0000 10B5     		push	{r4, lr}
 470              		.cfi_def_cfa_offset 8
 471              		.cfi_offset 4, -8
 472              		.cfi_offset 14, -4
 473              		.loc 1 254 0
 474 0002 8468     		ldr	r4, [r0, #8]
 475              		.loc 1 250 0
 476 0004 0300     		movs	r3, r0
 477              		.loc 1 259 0
 478 0006 621E     		subs	r2, r4, #1
 479 0008 8260     		str	r2, [r0, #8]
 480              		.loc 1 268 0
 481 000a 0020     		movs	r0, #0
 482              	.LVL44:
 483              		.loc 1 259 0
 484 000c 002A     		cmp	r2, #0
 485 000e 00DB     		blt	.L34
 486              	.LVL45:
 487              	.L31:
 488              		.loc 1 269 0
 489              		@ sp needed
 490 0010 10BD     		pop	{r4, pc}
 491              	.LVL46:
 492              	.L34:
 493              		.loc 1 260 0
 494 0012 0029     		cmp	r1, #0
 495 0014 0BD0     		beq	.L35
 496              	.LVL47:
 497              	.LBB72:
 498              	.LBB73:
 499              		.loc 1 264 0
 500 0016 074A     		ldr	r2, .L36
 501 0018 9269     		ldr	r2, [r2, #24]
 502 001a 5362     		str	r3, [r2, #36]
 503              	.LVL48:
 504              	.LBB74:
 505              	.LBB75:
 506              		.loc 2 55 0
 507 001c 5868     		ldr	r0, [r3, #4]
 508              		.loc 2 54 0
 509 001e 1360     		str	r3, [r2]
 510              		.loc 2 55 0
 511 0020 5060     		str	r0, [r2, #4]
 512              		.loc 2 56 0
 513 0022 5A60     		str	r2, [r3, #4]
ARM GAS  /tmp/ccSfJ2sN.s 			page 10


 514 0024 0260     		str	r2, [r0]
 515              	.LVL49:
 516              	.LBE75:
 517              	.LBE74:
 518              		.loc 1 266 0
 519 0026 0320     		movs	r0, #3
 520 0028 FFF7FEFF 		bl	chSchGoSleepTimeoutS
 521              	.LVL50:
 522 002c F0E7     		b	.L31
 523              	.LVL51:
 524              	.L35:
 525              	.LBE73:
 526              	.LBE72:
 527              		.loc 1 261 0
 528 002e 9C60     		str	r4, [r3, #8]
 529              		.loc 1 262 0
 530 0030 0138     		subs	r0, r0, #1
 531 0032 EDE7     		b	.L31
 532              	.L37:
 533              		.align	2
 534              	.L36:
 535 0034 00000000 		.word	rlist
 536              		.cfi_endproc
 537              	.LFE13:
 538              		.size	chSemWaitTimeoutS, .-chSemWaitTimeoutS
 539              		.section	.text.chSemSignal,"ax",%progbits
 540              		.align	2
 541              		.p2align 4,,15
 542              		.global	chSemSignal
 543              		.code	16
 544              		.thumb_func
 545              		.type	chSemSignal, %function
 546              	chSemSignal:
 547              	.LFB14:
 548              		.loc 1 278 0
 549              		.cfi_startproc
 550              		@ args = 0, pretend = 0, frame = 0
 551              		@ frame_needed = 0, uses_anonymous_args = 0
 552              	.LVL52:
 553 0000 10B5     		push	{r4, lr}
 554              		.cfi_def_cfa_offset 8
 555              		.cfi_offset 4, -8
 556              		.cfi_offset 14, -4
 557              		.loc 1 286 0
 558              		.syntax divided
 559              	@ 286 "../../os/kernel/src/chsem.c" 1
 560 0002 72B6     		cpsid   i
 561              	@ 0 "" 2
 562              		.loc 1 287 0
 563              		.thumb
 564              		.syntax unified
 565 0004 8368     		ldr	r3, [r0, #8]
 566 0006 0133     		adds	r3, r3, #1
 567 0008 8360     		str	r3, [r0, #8]
 568 000a 002B     		cmp	r3, #0
 569 000c 01DD     		ble	.L40
 570              	.LVL53:
ARM GAS  /tmp/ccSfJ2sN.s 			page 11


 571              	.L39:
 572              		.loc 1 289 0
 573              		.syntax divided
 574              	@ 289 "../../os/kernel/src/chsem.c" 1
 575 000e 62B6     		cpsie   i
 576              	@ 0 "" 2
 577              		.loc 1 290 0
 578              		.thumb
 579              		.syntax unified
 580              		@ sp needed
 581 0010 10BD     		pop	{r4, pc}
 582              	.LVL54:
 583              	.L40:
 584              	.LBB76:
 585              	.LBB77:
 586              		.loc 2 60 0
 587 0012 0368     		ldr	r3, [r0]
 588              	.LVL55:
 589              	.LBE77:
 590              	.LBE76:
 591              		.loc 1 288 0
 592 0014 0021     		movs	r1, #0
 593              	.LBB79:
 594              	.LBB78:
 595              		.loc 2 62 0
 596 0016 1A68     		ldr	r2, [r3]
 597 0018 0260     		str	r2, [r0]
 598 001a 5060     		str	r0, [r2, #4]
 599              	.LVL56:
 600              	.LBE78:
 601              	.LBE79:
 602              		.loc 1 288 0
 603 001c 1800     		movs	r0, r3
 604              	.LVL57:
 605 001e FFF7FEFF 		bl	chSchWakeupS
 606              	.LVL58:
 607 0022 F4E7     		b	.L39
 608              		.cfi_endproc
 609              	.LFE14:
 610              		.size	chSemSignal, .-chSemSignal
 611              		.section	.text.chSemSignalI,"ax",%progbits
 612              		.align	2
 613              		.p2align 4,,15
 614              		.global	chSemSignalI
 615              		.code	16
 616              		.thumb_func
 617              		.type	chSemSignalI, %function
 618              	chSemSignalI:
 619              	.LFB15:
 620              		.loc 1 303 0
 621              		.cfi_startproc
 622              		@ args = 0, pretend = 0, frame = 0
 623              		@ frame_needed = 0, uses_anonymous_args = 0
 624              	.LVL59:
 625              		.loc 1 312 0
 626 0000 8368     		ldr	r3, [r0, #8]
 627              		.loc 1 303 0
ARM GAS  /tmp/ccSfJ2sN.s 			page 12


 628 0002 10B5     		push	{r4, lr}
 629              		.cfi_def_cfa_offset 8
 630              		.cfi_offset 4, -8
 631              		.cfi_offset 14, -4
 632              		.loc 1 312 0
 633 0004 0133     		adds	r3, r3, #1
 634 0006 8360     		str	r3, [r0, #8]
 635 0008 002B     		cmp	r3, #0
 636 000a 00DD     		ble	.L43
 637              	.LVL60:
 638              	.L41:
 639              		.loc 1 319 0
 640              		@ sp needed
 641 000c 10BD     		pop	{r4, pc}
 642              	.LVL61:
 643              	.L43:
 644              	.LBB80:
 645              	.LBB81:
 646              	.LBB82:
 647              		.loc 2 60 0
 648 000e 0368     		ldr	r3, [r0]
 649              	.LVL62:
 650              		.loc 2 62 0
 651 0010 1A68     		ldr	r2, [r3]
 652 0012 0260     		str	r2, [r0]
 653 0014 5060     		str	r0, [r2, #4]
 654              	.LVL63:
 655              	.LBE82:
 656              	.LBE81:
 657              		.loc 1 316 0
 658 0016 0022     		movs	r2, #0
 659              		.loc 1 317 0
 660 0018 1800     		movs	r0, r3
 661              	.LVL64:
 662              		.loc 1 316 0
 663 001a 5A62     		str	r2, [r3, #36]
 664              	.LVL65:
 665              		.loc 1 317 0
 666 001c FFF7FEFF 		bl	chSchReadyI
 667              	.LVL66:
 668              	.LBE80:
 669              		.loc 1 319 0
 670 0020 F4E7     		b	.L41
 671              		.cfi_endproc
 672              	.LFE15:
 673              		.size	chSemSignalI, .-chSemSignalI
 674 0022 C046     		.section	.text.chSemAddCounterI,"ax",%progbits
 675              		.align	2
 676              		.p2align 4,,15
 677              		.global	chSemAddCounterI
 678              		.code	16
 679              		.thumb_func
 680              		.type	chSemAddCounterI, %function
 681              	chSemAddCounterI:
 682              	.LFB16:
 683              		.loc 1 334 0
 684              		.cfi_startproc
ARM GAS  /tmp/ccSfJ2sN.s 			page 13


 685              		@ args = 0, pretend = 0, frame = 0
 686              		@ frame_needed = 0, uses_anonymous_args = 0
 687              	.LVL67:
 688 0000 70B5     		push	{r4, r5, r6, lr}
 689              		.cfi_def_cfa_offset 16
 690              		.cfi_offset 4, -16
 691              		.cfi_offset 5, -12
 692              		.cfi_offset 6, -8
 693              		.cfi_offset 14, -4
 694              		.loc 1 334 0
 695 0002 0500     		movs	r5, r0
 696 0004 0C00     		movs	r4, r1
 697              		.loc 1 345 0
 698 0006 0026     		movs	r6, #0
 699              		.loc 1 343 0
 700 0008 0029     		cmp	r1, #0
 701 000a 03DC     		bgt	.L49
 702 000c 11E0     		b	.L44
 703              	.LVL68:
 704              	.L46:
 705              		.loc 1 346 0
 706 000e 013C     		subs	r4, r4, #1
 707              	.LVL69:
 708              		.loc 1 343 0
 709 0010 002C     		cmp	r4, #0
 710 0012 0ED0     		beq	.L44
 711              	.L49:
 712              		.loc 1 344 0
 713 0014 AB68     		ldr	r3, [r5, #8]
 714 0016 0133     		adds	r3, r3, #1
 715 0018 AB60     		str	r3, [r5, #8]
 716 001a 002B     		cmp	r3, #0
 717 001c F7DC     		bgt	.L46
 718              	.LVL70:
 719              	.LBB83:
 720              	.LBB84:
 721              		.loc 2 60 0
 722 001e 2868     		ldr	r0, [r5]
 723              	.LVL71:
 724              	.LBE84:
 725              	.LBE83:
 726              		.loc 1 346 0
 727 0020 013C     		subs	r4, r4, #1
 728              	.LVL72:
 729              	.LBB86:
 730              	.LBB85:
 731              		.loc 2 62 0
 732 0022 0368     		ldr	r3, [r0]
 733 0024 2B60     		str	r3, [r5]
 734 0026 5D60     		str	r5, [r3, #4]
 735              	.LVL73:
 736              	.LBE85:
 737              	.LBE86:
 738              		.loc 1 345 0
 739 0028 FFF7FEFF 		bl	chSchReadyI
 740              	.LVL74:
 741 002c 4662     		str	r6, [r0, #36]
ARM GAS  /tmp/ccSfJ2sN.s 			page 14


 742              		.loc 1 343 0
 743 002e 002C     		cmp	r4, #0
 744 0030 F0D1     		bne	.L49
 745              	.L44:
 746              		.loc 1 348 0
 747              		@ sp needed
 748              	.LVL75:
 749              	.LVL76:
 750 0032 70BD     		pop	{r4, r5, r6, pc}
 751              		.cfi_endproc
 752              	.LFE16:
 753              		.size	chSemAddCounterI, .-chSemAddCounterI
 754              		.section	.text.chSemSignalWait,"ax",%progbits
 755              		.align	2
 756              		.p2align 4,,15
 757              		.global	chSemSignalWait
 758              		.code	16
 759              		.thumb_func
 760              		.type	chSemSignalWait, %function
 761              	chSemSignalWait:
 762              	.LFB17:
 763              		.loc 1 366 0
 764              		.cfi_startproc
 765              		@ args = 0, pretend = 0, frame = 0
 766              		@ frame_needed = 0, uses_anonymous_args = 0
 767              	.LVL77:
 768 0000 70B5     		push	{r4, r5, r6, lr}
 769              		.cfi_def_cfa_offset 16
 770              		.cfi_offset 4, -16
 771              		.cfi_offset 5, -12
 772              		.cfi_offset 6, -8
 773              		.cfi_offset 14, -4
 774              		.loc 1 366 0
 775 0002 0C00     		movs	r4, r1
 776              		.loc 1 379 0
 777              		.syntax divided
 778              	@ 379 "../../os/kernel/src/chsem.c" 1
 779 0004 72B6     		cpsid   i
 780              	@ 0 "" 2
 781              		.loc 1 380 0
 782              		.thumb
 783              		.syntax unified
 784 0006 8368     		ldr	r3, [r0, #8]
 785 0008 0133     		adds	r3, r3, #1
 786 000a 8360     		str	r3, [r0, #8]
 787 000c 002B     		cmp	r3, #0
 788 000e 16DD     		ble	.L55
 789              	.LVL78:
 790              	.L52:
 791              		.loc 1 382 0
 792 0010 A368     		ldr	r3, [r4, #8]
 793 0012 013B     		subs	r3, r3, #1
 794 0014 A360     		str	r3, [r4, #8]
 795 0016 002B     		cmp	r3, #0
 796 0018 04DB     		blt	.L56
 797              		.loc 1 390 0
 798 001a FFF7FEFF 		bl	chSchRescheduleS
ARM GAS  /tmp/ccSfJ2sN.s 			page 15


 799              	.LVL79:
 800              		.loc 1 391 0
 801 001e 0020     		movs	r0, #0
 802              	.LVL80:
 803              	.L54:
 804              		.loc 1 393 0
 805              		.syntax divided
 806              	@ 393 "../../os/kernel/src/chsem.c" 1
 807 0020 62B6     		cpsie   i
 808              	@ 0 "" 2
 809              		.loc 1 395 0
 810              		.thumb
 811              		.syntax unified
 812              		@ sp needed
 813              	.LVL81:
 814 0022 70BD     		pop	{r4, r5, r6, pc}
 815              	.LVL82:
 816              	.L56:
 817              	.LBB87:
 818              		.loc 1 383 0
 819 0024 0B4B     		ldr	r3, .L57
 820              		.loc 1 386 0
 821 0026 0320     		movs	r0, #3
 822              		.loc 1 383 0
 823 0028 9D69     		ldr	r5, [r3, #24]
 824              	.LVL83:
 825              	.LBB88:
 826              	.LBB89:
 827              		.loc 2 55 0
 828 002a 6368     		ldr	r3, [r4, #4]
 829              		.loc 2 54 0
 830 002c 2C60     		str	r4, [r5]
 831              		.loc 2 55 0
 832 002e 6B60     		str	r3, [r5, #4]
 833              		.loc 2 56 0
 834 0030 6560     		str	r5, [r4, #4]
 835 0032 1D60     		str	r5, [r3]
 836              	.LVL84:
 837              	.LBE89:
 838              	.LBE88:
 839              		.loc 1 385 0
 840 0034 6C62     		str	r4, [r5, #36]
 841              		.loc 1 386 0
 842 0036 FFF7FEFF 		bl	chSchGoSleepS
 843              	.LVL85:
 844              		.loc 1 387 0
 845 003a 686A     		ldr	r0, [r5, #36]
 846              	.LVL86:
 847              	.LBE87:
 848 003c F0E7     		b	.L54
 849              	.LVL87:
 850              	.L55:
 851              	.LBB90:
 852              	.LBB91:
 853              		.loc 2 60 0
 854 003e 0368     		ldr	r3, [r0]
 855              	.LVL88:
ARM GAS  /tmp/ccSfJ2sN.s 			page 16


 856              		.loc 2 62 0
 857 0040 1A68     		ldr	r2, [r3]
 858 0042 0260     		str	r2, [r0]
 859 0044 5060     		str	r0, [r2, #4]
 860              	.LVL89:
 861              	.LBE91:
 862              	.LBE90:
 863              		.loc 1 381 0
 864 0046 1800     		movs	r0, r3
 865              	.LVL90:
 866 0048 FFF7FEFF 		bl	chSchReadyI
 867              	.LVL91:
 868 004c 0023     		movs	r3, #0
 869 004e 4362     		str	r3, [r0, #36]
 870 0050 DEE7     		b	.L52
 871              	.L58:
 872 0052 C046     		.align	2
 873              	.L57:
 874 0054 00000000 		.word	rlist
 875              		.cfi_endproc
 876              	.LFE17:
 877              		.size	chSemSignalWait, .-chSemSignalWait
 878              		.text
 879              	.Letext0:
 880              		.file 3 "/home/lithium/Descargas/gcc-arm-none-eabi-5_3-2016q1/arm-none-eabi/include/machine/_defau
 881              		.file 4 "/home/lithium/Descargas/gcc-arm-none-eabi-5_3-2016q1/arm-none-eabi/include/sys/_stdint.h"
 882              		.file 5 "../../os/ports/GCC/ARMCMx/chtypes.h"
 883              		.file 6 "../../os/kernel/include/chlists.h"
 884              		.file 7 "../../os/kernel/include/chthreads.h"
 885              		.file 8 "../../os/ports/GCC/ARMCMx/chcore_v6m.h"
 886              		.file 9 "../../os/kernel/include/chschd.h"
 887              		.file 10 "../../os/kernel/include/chsem.h"
 888              		.file 11 "../../os/kernel/include/chmtx.h"