ARM GAS  /tmp/ccUgJ6pi.s 			page 1


   1              		.syntax unified
   2              		.cpu cortex-m0
   3              		.fpu softvfp
   4              		.eabi_attribute 20, 1
   5              		.eabi_attribute 21, 1
   6              		.eabi_attribute 23, 3
   7              		.eabi_attribute 24, 1
   8              		.eabi_attribute 25, 1
   9              		.eabi_attribute 26, 1
  10              		.eabi_attribute 30, 2
  11              		.eabi_attribute 34, 0
  12              		.eabi_attribute 18, 4
  13              		.thumb
  14              		.syntax unified
  15              		.file	"chthreads.c"
  16              		.text
  17              	.Ltext0:
  18              		.cfi_sections	.debug_frame
  19              		.section	.text._thread_init,"ax",%progbits
  20              		.align	2
  21              		.p2align 4,,15
  22              		.global	_thread_init
  23              		.code	16
  24              		.thumb_func
  25              		.type	_thread_init, %function
  26              	_thread_init:
  27              	.LFB7:
  28              		.file 1 "../../os/kernel/src/chthreads.c"
  29              		.loc 1 76 0
  30              		.cfi_startproc
  31              		@ args = 0, pretend = 0, frame = 0
  32              		@ frame_needed = 0, uses_anonymous_args = 0
  33              		@ link register save eliminated.
  34              	.LVL0:
  35              		.loc 1 79 0
  36 0000 0223     		movs	r3, #2
  37 0002 0377     		strb	r3, [r0, #28]
  38              		.loc 1 80 0
  39 0004 0023     		movs	r3, #0
  40              		.loc 1 82 0
  41 0006 1422     		movs	r2, #20
  42              		.loc 1 80 0
  43 0008 4377     		strb	r3, [r0, #29]
  44              		.loc 1 86 0
  45 000a C363     		str	r3, [r0, #60]
  46              		.loc 1 89 0
  47 000c 8363     		str	r3, [r0, #56]
  48              		.loc 1 92 0
  49 000e 0362     		str	r3, [r0, #32]
  50              		.loc 1 98 0
  51 0010 8361     		str	r3, [r0, #24]
  52              		.loc 1 99 0
  53 0012 094B     		ldr	r3, .L2
  54              		.loc 1 82 0
  55 0014 C277     		strb	r2, [r0, #31]
  56              		.loc 1 95 0
  57 0016 133A     		subs	r2, r2, #19
ARM GAS  /tmp/ccUgJ6pi.s 			page 2


  58 0018 8277     		strb	r2, [r0, #30]
  59              		.loc 1 99 0
  60 001a 5A69     		ldr	r2, [r3, #20]
  61 001c 0361     		str	r3, [r0, #16]
  62              		.loc 1 78 0
  63 001e 8160     		str	r1, [r0, #8]
  64              		.loc 1 99 0
  65 0020 4261     		str	r2, [r0, #20]
  66 0022 5861     		str	r0, [r3, #20]
  67              		.loc 1 102 0
  68 0024 0300     		movs	r3, r0
  69 0026 2833     		adds	r3, r3, #40
  70              		.loc 1 85 0
  71 0028 0164     		str	r1, [r0, #64]
  72              		.loc 1 99 0
  73 002a 1061     		str	r0, [r2, #16]
  74              		.loc 1 102 0
  75 002c 8362     		str	r3, [r0, #40]
  76              		.loc 1 105 0
  77 002e 0433     		adds	r3, r3, #4
  78 0030 0363     		str	r3, [r0, #48]
  79 0032 C362     		str	r3, [r0, #44]
  80              		.loc 1 114 0
  81              		@ sp needed
  82 0034 7047     		bx	lr
  83              	.L3:
  84 0036 C046     		.align	2
  85              	.L2:
  86 0038 00000000 		.word	rlist
  87              		.cfi_endproc
  88              	.LFE7:
  89              		.size	_thread_init, .-_thread_init
  90              		.section	.text.chThdCreateI,"ax",%progbits
  91              		.align	2
  92              		.p2align 4,,15
  93              		.global	chThdCreateI
  94              		.code	16
  95              		.thumb_func
  96              		.type	chThdCreateI, %function
  97              	chThdCreateI:
  98              	.LFB8:
  99              		.loc 1 158 0
 100              		.cfi_startproc
 101              		@ args = 4, pretend = 0, frame = 0
 102              		@ frame_needed = 0, uses_anonymous_args = 0
 103              		@ link register save eliminated.
 104              	.LVL1:
 105              		.loc 1 167 0
 106 0000 2439     		subs	r1, r1, #36
 107              	.LVL2:
 108 0002 4118     		adds	r1, r0, r1
 109              	.LVL3:
 110 0004 C160     		str	r1, [r0, #12]
 111 0006 0B61     		str	r3, [r1, #16]
 112 0008 009B     		ldr	r3, [sp]
 113              	.LVL4:
 114              		.loc 1 169 0
ARM GAS  /tmp/ccUgJ6pi.s 			page 3


 115              		@ sp needed
 116              		.loc 1 167 0
 117 000a 4B61     		str	r3, [r1, #20]
 118 000c 0E4B     		ldr	r3, .L5
 119 000e 0B62     		str	r3, [r1, #32]
 120              	.LVL5:
 121              	.LBB12:
 122              	.LBB13:
 123              		.loc 1 79 0
 124 0010 0223     		movs	r3, #2
 125 0012 0377     		strb	r3, [r0, #28]
 126              	.LVL6:
 127              		.loc 1 80 0
 128 0014 0023     		movs	r3, #0
 129              		.loc 1 78 0
 130 0016 8260     		str	r2, [r0, #8]
 131              		.loc 1 85 0
 132 0018 0264     		str	r2, [r0, #64]
 133              		.loc 1 95 0
 134 001a 0122     		movs	r2, #1
 135              	.LVL7:
 136              		.loc 1 80 0
 137 001c 4377     		strb	r3, [r0, #29]
 138              		.loc 1 86 0
 139 001e C363     		str	r3, [r0, #60]
 140              		.loc 1 89 0
 141 0020 8363     		str	r3, [r0, #56]
 142              		.loc 1 92 0
 143 0022 0362     		str	r3, [r0, #32]
 144              		.loc 1 98 0
 145 0024 8361     		str	r3, [r0, #24]
 146              		.loc 1 99 0
 147 0026 094B     		ldr	r3, .L5+4
 148              		.loc 1 95 0
 149 0028 8277     		strb	r2, [r0, #30]
 150              		.loc 1 99 0
 151 002a 5A69     		ldr	r2, [r3, #20]
 152 002c 0361     		str	r3, [r0, #16]
 153 002e 4261     		str	r2, [r0, #20]
 154 0030 5861     		str	r0, [r3, #20]
 155              		.loc 1 102 0
 156 0032 0300     		movs	r3, r0
 157              		.loc 1 82 0
 158 0034 1421     		movs	r1, #20
 159              		.loc 1 102 0
 160 0036 2833     		adds	r3, r3, #40
 161              		.loc 1 82 0
 162 0038 C177     		strb	r1, [r0, #31]
 163              		.loc 1 99 0
 164 003a 1061     		str	r0, [r2, #16]
 165              		.loc 1 102 0
 166 003c 8362     		str	r3, [r0, #40]
 167              		.loc 1 105 0
 168 003e 0433     		adds	r3, r3, #4
 169 0040 0363     		str	r3, [r0, #48]
 170 0042 C362     		str	r3, [r0, #44]
 171              	.LVL8:
ARM GAS  /tmp/ccUgJ6pi.s 			page 4


 172              	.LBE13:
 173              	.LBE12:
 174              		.loc 1 169 0
 175 0044 7047     		bx	lr
 176              	.L6:
 177 0046 C046     		.align	2
 178              	.L5:
 179 0048 00000000 		.word	_port_thread_start
 180 004c 00000000 		.word	rlist
 181              		.cfi_endproc
 182              	.LFE8:
 183              		.size	chThdCreateI, .-chThdCreateI
 184              		.section	.text.chThdCreateStatic,"ax",%progbits
 185              		.align	2
 186              		.p2align 4,,15
 187              		.global	chThdCreateStatic
 188              		.code	16
 189              		.thumb_func
 190              		.type	chThdCreateStatic, %function
 191              	chThdCreateStatic:
 192              	.LFB9:
 193              		.loc 1 188 0
 194              		.cfi_startproc
 195              		@ args = 4, pretend = 0, frame = 0
 196              		@ frame_needed = 0, uses_anonymous_args = 0
 197              	.LVL9:
 198 0000 10B5     		push	{r4, lr}
 199              		.cfi_def_cfa_offset 8
 200              		.cfi_offset 4, -8
 201              		.cfi_offset 14, -4
 202              		.loc 1 188 0
 203 0002 0400     		movs	r4, r0
 204              		.loc 1 199 0
 205              		.syntax divided
 206              	@ 199 "../../os/kernel/src/chthreads.c" 1
 207 0004 72B6     		cpsid   i
 208              	@ 0 "" 2
 209              	.LVL10:
 210              		.thumb
 211              		.syntax unified
 212              	.LBB14:
 213              	.LBB15:
 214              		.loc 1 167 0
 215 0006 2439     		subs	r1, r1, #36
 216              	.LVL11:
 217 0008 4118     		adds	r1, r0, r1
 218              	.LVL12:
 219 000a C160     		str	r1, [r0, #12]
 220 000c 0B61     		str	r3, [r1, #16]
 221 000e 029B     		ldr	r3, [sp, #8]
 222              	.LVL13:
 223 0010 4B61     		str	r3, [r1, #20]
 224 0012 114B     		ldr	r3, .L8
 225 0014 0B62     		str	r3, [r1, #32]
 226              	.LVL14:
 227              	.LBB16:
 228              	.LBB17:
ARM GAS  /tmp/ccUgJ6pi.s 			page 5


 229              		.loc 1 79 0
 230 0016 0223     		movs	r3, #2
 231 0018 0377     		strb	r3, [r0, #28]
 232              	.LVL15:
 233              		.loc 1 80 0
 234 001a 0023     		movs	r3, #0
 235              		.loc 1 78 0
 236 001c 8260     		str	r2, [r0, #8]
 237              		.loc 1 85 0
 238 001e 0264     		str	r2, [r0, #64]
 239              		.loc 1 95 0
 240 0020 0122     		movs	r2, #1
 241              	.LVL16:
 242              		.loc 1 80 0
 243 0022 4377     		strb	r3, [r0, #29]
 244              		.loc 1 86 0
 245 0024 C363     		str	r3, [r0, #60]
 246              		.loc 1 89 0
 247 0026 8363     		str	r3, [r0, #56]
 248              		.loc 1 92 0
 249 0028 0362     		str	r3, [r0, #32]
 250              		.loc 1 98 0
 251 002a 8361     		str	r3, [r0, #24]
 252              		.loc 1 99 0
 253 002c 0B4B     		ldr	r3, .L8+4
 254              		.loc 1 95 0
 255 002e 8277     		strb	r2, [r0, #30]
 256              		.loc 1 99 0
 257 0030 5A69     		ldr	r2, [r3, #20]
 258 0032 0361     		str	r3, [r0, #16]
 259 0034 4261     		str	r2, [r0, #20]
 260 0036 5861     		str	r0, [r3, #20]
 261              		.loc 1 102 0
 262 0038 0300     		movs	r3, r0
 263              		.loc 1 82 0
 264 003a 1421     		movs	r1, #20
 265              		.loc 1 102 0
 266 003c 2833     		adds	r3, r3, #40
 267              		.loc 1 82 0
 268 003e C177     		strb	r1, [r0, #31]
 269              		.loc 1 99 0
 270 0040 1061     		str	r0, [r2, #16]
 271              		.loc 1 102 0
 272 0042 8362     		str	r3, [r0, #40]
 273              		.loc 1 105 0
 274 0044 0433     		adds	r3, r3, #4
 275 0046 0363     		str	r3, [r0, #48]
 276 0048 C362     		str	r3, [r0, #44]
 277              	.LVL17:
 278              	.LBE17:
 279              	.LBE16:
 280              	.LBE15:
 281              	.LBE14:
 282              		.loc 1 200 0
 283 004a 0021     		movs	r1, #0
 284 004c FFF7FEFF 		bl	chSchWakeupS
 285              	.LVL18:
ARM GAS  /tmp/ccUgJ6pi.s 			page 6


 286              		.loc 1 201 0
 287              		.syntax divided
 288              	@ 201 "../../os/kernel/src/chthreads.c" 1
 289 0050 62B6     		cpsie   i
 290              	@ 0 "" 2
 291              		.loc 1 203 0
 292              		.thumb
 293              		.syntax unified
 294 0052 2000     		movs	r0, r4
 295              		@ sp needed
 296              	.LVL19:
 297 0054 10BD     		pop	{r4, pc}
 298              	.L9:
 299 0056 C046     		.align	2
 300              	.L8:
 301 0058 00000000 		.word	_port_thread_start
 302 005c 00000000 		.word	rlist
 303              		.cfi_endproc
 304              	.LFE9:
 305              		.size	chThdCreateStatic, .-chThdCreateStatic
 306              		.section	.text.chThdSetPriority,"ax",%progbits
 307              		.align	2
 308              		.p2align 4,,15
 309              		.global	chThdSetPriority
 310              		.code	16
 311              		.thumb_func
 312              		.type	chThdSetPriority, %function
 313              	chThdSetPriority:
 314              	.LFB10:
 315              		.loc 1 217 0
 316              		.cfi_startproc
 317              		@ args = 0, pretend = 0, frame = 0
 318              		@ frame_needed = 0, uses_anonymous_args = 0
 319              	.LVL20:
 320 0000 10B5     		push	{r4, lr}
 321              		.cfi_def_cfa_offset 8
 322              		.cfi_offset 4, -8
 323              		.cfi_offset 14, -4
 324              		.loc 1 222 0
 325              		.syntax divided
 326              	@ 222 "../../os/kernel/src/chthreads.c" 1
 327 0002 72B6     		cpsid   i
 328              	@ 0 "" 2
 329              		.loc 1 224 0
 330              		.thumb
 331              		.syntax unified
 332 0004 074B     		ldr	r3, .L14
 333 0006 9B69     		ldr	r3, [r3, #24]
 334 0008 1C6C     		ldr	r4, [r3, #64]
 335              	.LVL21:
 336              		.loc 1 225 0
 337 000a 9A68     		ldr	r2, [r3, #8]
 338 000c 9442     		cmp	r4, r2
 339 000e 01D0     		beq	.L11
 340              		.loc 1 225 0 is_stmt 0 discriminator 1
 341 0010 8242     		cmp	r2, r0
 342 0012 00D2     		bcs	.L12
ARM GAS  /tmp/ccUgJ6pi.s 			page 7


 343              	.L11:
 344              		.loc 1 226 0 is_stmt 1
 345 0014 9860     		str	r0, [r3, #8]
 346              	.L12:
 347              		.loc 1 227 0
 348 0016 1864     		str	r0, [r3, #64]
 349              		.loc 1 232 0
 350 0018 FFF7FEFF 		bl	chSchRescheduleS
 351              	.LVL22:
 352              		.loc 1 233 0
 353              		.syntax divided
 354              	@ 233 "../../os/kernel/src/chthreads.c" 1
 355 001c 62B6     		cpsie   i
 356              	@ 0 "" 2
 357              		.loc 1 235 0
 358              		.thumb
 359              		.syntax unified
 360 001e 2000     		movs	r0, r4
 361              		@ sp needed
 362              	.LVL23:
 363 0020 10BD     		pop	{r4, pc}
 364              	.L15:
 365 0022 C046     		.align	2
 366              	.L14:
 367 0024 00000000 		.word	rlist
 368              		.cfi_endproc
 369              	.LFE10:
 370              		.size	chThdSetPriority, .-chThdSetPriority
 371              		.section	.text.chThdResume,"ax",%progbits
 372              		.align	2
 373              		.p2align 4,,15
 374              		.global	chThdResume
 375              		.code	16
 376              		.thumb_func
 377              		.type	chThdResume, %function
 378              	chThdResume:
 379              	.LFB11:
 380              		.loc 1 250 0
 381              		.cfi_startproc
 382              		@ args = 0, pretend = 0, frame = 0
 383              		@ frame_needed = 0, uses_anonymous_args = 0
 384              	.LVL24:
 385 0000 10B5     		push	{r4, lr}
 386              		.cfi_def_cfa_offset 8
 387              		.cfi_offset 4, -8
 388              		.cfi_offset 14, -4
 389              		.loc 1 250 0
 390 0002 0400     		movs	r4, r0
 391              		.loc 1 252 0
 392              		.syntax divided
 393              	@ 252 "../../os/kernel/src/chthreads.c" 1
 394 0004 72B6     		cpsid   i
 395              	@ 0 "" 2
 396              		.loc 1 256 0
 397              		.thumb
 398              		.syntax unified
 399 0006 0021     		movs	r1, #0
ARM GAS  /tmp/ccUgJ6pi.s 			page 8


 400 0008 FFF7FEFF 		bl	chSchWakeupS
 401              	.LVL25:
 402              		.loc 1 257 0
 403              		.syntax divided
 404              	@ 257 "../../os/kernel/src/chthreads.c" 1
 405 000c 62B6     		cpsie   i
 406              	@ 0 "" 2
 407              		.loc 1 259 0
 408              		.thumb
 409              		.syntax unified
 410 000e 2000     		movs	r0, r4
 411              		@ sp needed
 412              	.LVL26:
 413 0010 10BD     		pop	{r4, pc}
 414              		.cfi_endproc
 415              	.LFE11:
 416              		.size	chThdResume, .-chThdResume
 417 0012 C046     		.section	.text.chThdTerminate,"ax",%progbits
 418              		.align	2
 419              		.p2align 4,,15
 420              		.global	chThdTerminate
 421              		.code	16
 422              		.thumb_func
 423              		.type	chThdTerminate, %function
 424              	chThdTerminate:
 425              	.LFB12:
 426              		.loc 1 273 0
 427              		.cfi_startproc
 428              		@ args = 0, pretend = 0, frame = 0
 429              		@ frame_needed = 0, uses_anonymous_args = 0
 430              		@ link register save eliminated.
 431              	.LVL27:
 432              		.loc 1 275 0
 433              		.syntax divided
 434              	@ 275 "../../os/kernel/src/chthreads.c" 1
 435 0000 72B6     		cpsid   i
 436              	@ 0 "" 2
 437              		.loc 1 276 0
 438              		.thumb
 439              		.syntax unified
 440 0002 0423     		movs	r3, #4
 441 0004 427F     		ldrb	r2, [r0, #29]
 442 0006 1343     		orrs	r3, r2
 443 0008 4377     		strb	r3, [r0, #29]
 444              		.loc 1 277 0
 445              		.syntax divided
 446              	@ 277 "../../os/kernel/src/chthreads.c" 1
 447 000a 62B6     		cpsie   i
 448              	@ 0 "" 2
 449              		.loc 1 278 0
 450              		.thumb
 451              		.syntax unified
 452              		@ sp needed
 453 000c 7047     		bx	lr
 454              		.cfi_endproc
 455              	.LFE12:
 456              		.size	chThdTerminate, .-chThdTerminate
ARM GAS  /tmp/ccUgJ6pi.s 			page 9


 457 000e C046     		.section	.text.chThdSleep,"ax",%progbits
 458              		.align	2
 459              		.p2align 4,,15
 460              		.global	chThdSleep
 461              		.code	16
 462              		.thumb_func
 463              		.type	chThdSleep, %function
 464              	chThdSleep:
 465              	.LFB13:
 466              		.loc 1 292 0
 467              		.cfi_startproc
 468              		@ args = 0, pretend = 0, frame = 0
 469              		@ frame_needed = 0, uses_anonymous_args = 0
 470              	.LVL28:
 471 0000 10B5     		push	{r4, lr}
 472              		.cfi_def_cfa_offset 8
 473              		.cfi_offset 4, -8
 474              		.cfi_offset 14, -4
 475              		.loc 1 292 0
 476 0002 0100     		movs	r1, r0
 477              		.loc 1 296 0
 478              		.syntax divided
 479              	@ 296 "../../os/kernel/src/chthreads.c" 1
 480 0004 72B6     		cpsid   i
 481              	@ 0 "" 2
 482              		.loc 1 297 0
 483              		.thumb
 484              		.syntax unified
 485 0006 0620     		movs	r0, #6
 486              	.LVL29:
 487 0008 FFF7FEFF 		bl	chSchGoSleepTimeoutS
 488              	.LVL30:
 489              		.loc 1 298 0
 490              		.syntax divided
 491              	@ 298 "../../os/kernel/src/chthreads.c" 1
 492 000c 62B6     		cpsie   i
 493              	@ 0 "" 2
 494              		.loc 1 299 0
 495              		.thumb
 496              		.syntax unified
 497              		@ sp needed
 498 000e 10BD     		pop	{r4, pc}
 499              		.cfi_endproc
 500              	.LFE13:
 501              		.size	chThdSleep, .-chThdSleep
 502              		.section	.text.chThdSleepUntil,"ax",%progbits
 503              		.align	2
 504              		.p2align 4,,15
 505              		.global	chThdSleepUntil
 506              		.code	16
 507              		.thumb_func
 508              		.type	chThdSleepUntil, %function
 509              	chThdSleepUntil:
 510              	.LFB14:
 511              		.loc 1 309 0
 512              		.cfi_startproc
 513              		@ args = 0, pretend = 0, frame = 0
ARM GAS  /tmp/ccUgJ6pi.s 			page 10


 514              		@ frame_needed = 0, uses_anonymous_args = 0
 515              	.LVL31:
 516 0000 10B5     		push	{r4, lr}
 517              		.cfi_def_cfa_offset 8
 518              		.cfi_offset 4, -8
 519              		.cfi_offset 14, -4
 520              		.loc 1 311 0
 521              		.syntax divided
 522              	@ 311 "../../os/kernel/src/chthreads.c" 1
 523 0002 72B6     		cpsid   i
 524              	@ 0 "" 2
 525              		.loc 1 312 0
 526              		.thumb
 527              		.syntax unified
 528 0004 044B     		ldr	r3, .L24
 529 0006 D968     		ldr	r1, [r3, #12]
 530 0008 411A     		subs	r1, r0, r1
 531              	.LVL32:
 532 000a 02D0     		beq	.L20
 533              		.loc 1 313 0
 534 000c 0620     		movs	r0, #6
 535 000e FFF7FEFF 		bl	chSchGoSleepTimeoutS
 536              	.LVL33:
 537              	.L20:
 538              		.loc 1 314 0
 539              		.syntax divided
 540              	@ 314 "../../os/kernel/src/chthreads.c" 1
 541 0012 62B6     		cpsie   i
 542              	@ 0 "" 2
 543              		.loc 1 315 0
 544              		.thumb
 545              		.syntax unified
 546              		@ sp needed
 547 0014 10BD     		pop	{r4, pc}
 548              	.L25:
 549 0016 C046     		.align	2
 550              	.L24:
 551 0018 00000000 		.word	vtlist
 552              		.cfi_endproc
 553              	.LFE14:
 554              		.size	chThdSleepUntil, .-chThdSleepUntil
 555              		.section	.text.chThdYield,"ax",%progbits
 556              		.align	2
 557              		.p2align 4,,15
 558              		.global	chThdYield
 559              		.code	16
 560              		.thumb_func
 561              		.type	chThdYield, %function
 562              	chThdYield:
 563              	.LFB15:
 564              		.loc 1 324 0
 565              		.cfi_startproc
 566              		@ args = 0, pretend = 0, frame = 0
 567              		@ frame_needed = 0, uses_anonymous_args = 0
 568 0000 10B5     		push	{r4, lr}
 569              		.cfi_def_cfa_offset 8
 570              		.cfi_offset 4, -8
ARM GAS  /tmp/ccUgJ6pi.s 			page 11


 571              		.cfi_offset 14, -4
 572              		.loc 1 326 0
 573              		.syntax divided
 574              	@ 326 "../../os/kernel/src/chthreads.c" 1
 575 0002 72B6     		cpsid   i
 576              	@ 0 "" 2
 577              		.loc 1 327 0
 578              		.thumb
 579              		.syntax unified
 580 0004 054B     		ldr	r3, .L28
 581 0006 1A68     		ldr	r2, [r3]
 582 0008 9B69     		ldr	r3, [r3, #24]
 583 000a 9268     		ldr	r2, [r2, #8]
 584 000c 9B68     		ldr	r3, [r3, #8]
 585 000e 9A42     		cmp	r2, r3
 586 0010 01D3     		bcc	.L27
 587              		.loc 1 327 0 is_stmt 0 discriminator 1
 588 0012 FFF7FEFF 		bl	chSchDoRescheduleBehind
 589              	.LVL34:
 590              	.L27:
 591              		.loc 1 328 0 is_stmt 1
 592              		.syntax divided
 593              	@ 328 "../../os/kernel/src/chthreads.c" 1
 594 0016 62B6     		cpsie   i
 595              	@ 0 "" 2
 596              		.loc 1 329 0
 597              		.thumb
 598              		.syntax unified
 599              		@ sp needed
 600 0018 10BD     		pop	{r4, pc}
 601              	.L29:
 602 001a C046     		.align	2
 603              	.L28:
 604 001c 00000000 		.word	rlist
 605              		.cfi_endproc
 606              	.LFE15:
 607              		.size	chThdYield, .-chThdYield
 608              		.section	.text.chThdExitS,"ax",%progbits
 609              		.align	2
 610              		.p2align 4,,15
 611              		.global	chThdExitS
 612              		.code	16
 613              		.thumb_func
 614              		.type	chThdExitS, %function
 615              	chThdExitS:
 616              	.LFB17:
 617              		.loc 1 366 0
 618              		.cfi_startproc
 619              		@ args = 0, pretend = 0, frame = 0
 620              		@ frame_needed = 0, uses_anonymous_args = 0
 621              	.LVL35:
 622              		.loc 1 367 0
 623 0000 0D4B     		ldr	r3, .L38
 624              		.loc 1 366 0
 625 0002 70B5     		push	{r4, r5, r6, lr}
 626              		.cfi_def_cfa_offset 16
 627              		.cfi_offset 4, -16
ARM GAS  /tmp/ccUgJ6pi.s 			page 12


 628              		.cfi_offset 5, -12
 629              		.cfi_offset 6, -8
 630              		.cfi_offset 14, -4
 631              		.loc 1 367 0
 632 0004 9C69     		ldr	r4, [r3, #24]
 633              	.LVL36:
 634              		.loc 1 374 0
 635 0006 2500     		movs	r5, r4
 636              		.loc 1 369 0
 637 0008 6062     		str	r0, [r4, #36]
 638              		.loc 1 374 0
 639 000a A06A     		ldr	r0, [r4, #40]
 640              	.LVL37:
 641 000c 2835     		adds	r5, r5, #40
 642 000e A842     		cmp	r0, r5
 643 0010 06D0     		beq	.L35
 644              	.LVL38:
 645              	.L36:
 646              	.LBB18:
 647              	.LBB19:
 648              		.file 2 "../../os/kernel/include/chinline.h"
 649              		.loc 2 89 0
 650 0012 0368     		ldr	r3, [r0]
 651 0014 A362     		str	r3, [r4, #40]
 652              	.LVL39:
 653              	.LBE19:
 654              	.LBE18:
 655              		.loc 1 375 0
 656 0016 FFF7FEFF 		bl	chSchReadyI
 657              	.LVL40:
 658              		.loc 1 374 0
 659 001a A06A     		ldr	r0, [r4, #40]
 660 001c A842     		cmp	r0, r5
 661 001e F8D1     		bne	.L36
 662              	.L35:
 663              		.loc 1 380 0
 664 0020 637F     		ldrb	r3, [r4, #29]
 665 0022 9B07     		lsls	r3, r3, #30
 666 0024 04D1     		bne	.L33
 667              		.loc 1 381 0
 668 0026 2269     		ldr	r2, [r4, #16]
 669 0028 6369     		ldr	r3, [r4, #20]
 670 002a 1A61     		str	r2, [r3, #16]
 671 002c 2269     		ldr	r2, [r4, #16]
 672 002e 5361     		str	r3, [r2, #20]
 673              	.L33:
 674              		.loc 1 383 0
 675 0030 0E20     		movs	r0, #14
 676 0032 FFF7FEFF 		bl	chSchGoSleepS
 677              	.LVL41:
 678              		.loc 1 386 0
 679              		@ sp needed
 680              	.LVL42:
 681              	.LVL43:
 682 0036 70BD     		pop	{r4, r5, r6, pc}
 683              	.L39:
 684              		.align	2
ARM GAS  /tmp/ccUgJ6pi.s 			page 13


 685              	.L38:
 686 0038 00000000 		.word	rlist
 687              		.cfi_endproc
 688              	.LFE17:
 689              		.size	chThdExitS, .-chThdExitS
 690              		.section	.text.chThdExit,"ax",%progbits
 691              		.align	2
 692              		.p2align 4,,15
 693              		.global	chThdExit
 694              		.code	16
 695              		.thumb_func
 696              		.type	chThdExit, %function
 697              	chThdExit:
 698              	.LFB16:
 699              		.loc 1 345 0
 700              		.cfi_startproc
 701              		@ args = 0, pretend = 0, frame = 0
 702              		@ frame_needed = 0, uses_anonymous_args = 0
 703              	.LVL44:
 704 0000 10B5     		push	{r4, lr}
 705              		.cfi_def_cfa_offset 8
 706              		.cfi_offset 4, -8
 707              		.cfi_offset 14, -4
 708              		.loc 1 347 0
 709              		.syntax divided
 710              	@ 347 "../../os/kernel/src/chthreads.c" 1
 711 0002 72B6     		cpsid   i
 712              	@ 0 "" 2
 713              		.loc 1 348 0
 714              		.thumb
 715              		.syntax unified
 716 0004 FFF7FEFF 		bl	chThdExitS
 717              	.LVL45:
 718              		.loc 1 350 0
 719              		@ sp needed
 720 0008 10BD     		pop	{r4, pc}
 721              		.cfi_endproc
 722              	.LFE16:
 723              		.size	chThdExit, .-chThdExit
 724 000a C046     		.section	.text.chThdWait,"ax",%progbits
 725              		.align	2
 726              		.p2align 4,,15
 727              		.global	chThdWait
 728              		.code	16
 729              		.thumb_func
 730              		.type	chThdWait, %function
 731              	chThdWait:
 732              	.LFB18:
 733              		.loc 1 420 0
 734              		.cfi_startproc
 735              		@ args = 0, pretend = 0, frame = 0
 736              		@ frame_needed = 0, uses_anonymous_args = 0
 737              	.LVL46:
 738 0000 70B5     		push	{r4, r5, r6, lr}
 739              		.cfi_def_cfa_offset 16
 740              		.cfi_offset 4, -16
 741              		.cfi_offset 5, -12
ARM GAS  /tmp/ccUgJ6pi.s 			page 14


 742              		.cfi_offset 6, -8
 743              		.cfi_offset 14, -4
 744              		.loc 1 420 0
 745 0002 0400     		movs	r4, r0
 746              		.loc 1 425 0
 747              		.syntax divided
 748              	@ 425 "../../os/kernel/src/chthreads.c" 1
 749 0004 72B6     		cpsid   i
 750              	@ 0 "" 2
 751              		.loc 1 430 0
 752              		.thumb
 753              		.syntax unified
 754 0006 037F     		ldrb	r3, [r0, #28]
 755 0008 0E2B     		cmp	r3, #14
 756 000a 07D0     		beq	.L42
 757              		.loc 1 431 0
 758 000c 074B     		ldr	r3, .L46
 759              	.LBB20:
 760              	.LBB21:
 761              		.loc 2 82 0
 762 000e 826A     		ldr	r2, [r0, #40]
 763              	.LBE21:
 764              	.LBE20:
 765              		.loc 1 431 0
 766 0010 9B69     		ldr	r3, [r3, #24]
 767              	.LVL47:
 768              	.LBB23:
 769              	.LBB22:
 770              		.loc 2 82 0
 771 0012 1A60     		str	r2, [r3]
 772              		.loc 2 83 0
 773 0014 8362     		str	r3, [r0, #40]
 774              	.LVL48:
 775              	.LBE22:
 776              	.LBE23:
 777              		.loc 1 432 0
 778 0016 0720     		movs	r0, #7
 779              	.LVL49:
 780 0018 FFF7FEFF 		bl	chSchGoSleepS
 781              	.LVL50:
 782              	.L42:
 783              		.loc 1 434 0
 784 001c 656A     		ldr	r5, [r4, #36]
 785              	.LVL51:
 786              		.loc 1 435 0
 787              		.syntax divided
 788              	@ 435 "../../os/kernel/src/chthreads.c" 1
 789 001e 62B6     		cpsie   i
 790              	@ 0 "" 2
 791              		.loc 1 437 0
 792              		.thumb
 793              		.syntax unified
 794 0020 2000     		movs	r0, r4
 795 0022 FFF7FEFF 		bl	chThdRelease
 796              	.LVL52:
 797              		.loc 1 440 0
 798              		@ sp needed
ARM GAS  /tmp/ccUgJ6pi.s 			page 15


 799 0026 2800     		movs	r0, r5
 800              	.LVL53:
 801              	.LVL54:
 802 0028 70BD     		pop	{r4, r5, r6, pc}
 803              	.L47:
 804 002a C046     		.align	2
 805              	.L46:
 806 002c 00000000 		.word	rlist
 807              		.cfi_endproc
 808              	.LFE18:
 809              		.size	chThdWait, .-chThdWait
 810              		.text
 811              	.Letext0:
 812              		.file 3 "/home/lithium/Descargas/gcc-arm-none-eabi-5_3-2016q1/lib/gcc/arm-none-eabi/5.3.1/include/
 813              		.file 4 "/home/lithium/Descargas/gcc-arm-none-eabi-5_3-2016q1/arm-none-eabi/include/machine/_defau
 814              		.file 5 "/home/lithium/Descargas/gcc-arm-none-eabi-5_3-2016q1/arm-none-eabi/include/sys/_stdint.h"
 815              		.file 6 "../../os/ports/GCC/ARMCMx/chtypes.h"
 816              		.file 7 "../../os/kernel/include/chlists.h"
 817              		.file 8 "../../os/kernel/include/chthreads.h"
 818              		.file 9 "../../os/ports/GCC/ARMCMx/chcore_v6m.h"
 819              		.file 10 "../../os/kernel/include/chvt.h"
 820              		.file 11 "../../os/kernel/include/chschd.h"
 821              		.file 12 "../../os/kernel/include/chmtx.h"
 822              		.file 13 "../../os/kernel/include/chdynamic.h"