ARM GAS  /tmp/cc7HZyd2.s 			page 1


   1              		.syntax unified
   2              		.cpu cortex-m0
   3              		.fpu softvfp
   4              		.eabi_attribute 20, 1
   5              		.eabi_attribute 21, 1
   6              		.eabi_attribute 23, 3
   7              		.eabi_attribute 24, 1
   8              		.eabi_attribute 25, 1
   9              		.eabi_attribute 26, 1
  10              		.eabi_attribute 30, 2
  11              		.eabi_attribute 34, 0
  12              		.eabi_attribute 18, 4
  13              		.thumb
  14              		.syntax unified
  15              		.file	"crt0.c"
  16              		.text
  17              	.Ltext0:
  18              		.cfi_sections	.debug_frame
  19              		.section	.text.__early_init,"ax",%progbits
  20              		.align	2
  21              		.p2align 4,,15
  22              		.weak	__early_init
  23              		.code	16
  24              		.thumb_func
  25              		.type	__early_init, %function
  26              	__early_init:
  27              	.LFB5:
  28              		.cfi_startproc
  29              		@ args = 0, pretend = 0, frame = 0
  30              		@ frame_needed = 0, uses_anonymous_args = 0
  31              		@ link register save eliminated.
  32              		@ sp needed
  33 0000 7047     		bx	lr
  34              		.cfi_endproc
  35              	.LFE5:
  36              		.size	__early_init, .-__early_init
  37 0002 C046     		.section	.text.__late_init,"ax",%progbits
  38              		.align	2
  39              		.p2align 4,,15
  40              		.weak	__late_init
  41              		.code	16
  42              		.thumb_func
  43              		.type	__late_init, %function
  44              	__late_init:
  45              	.LFB1:
  46              		.file 1 "../../os/ports/GCC/ARMCMx/crt0.c"
  47              		.loc 1 246 0
  48              		.cfi_startproc
  49              		@ args = 0, pretend = 0, frame = 0
  50              		@ frame_needed = 0, uses_anonymous_args = 0
  51              		@ link register save eliminated.
  52              		.loc 1 246 0
  53              		@ sp needed
  54 0000 7047     		bx	lr
  55              		.cfi_endproc
  56              	.LFE1:
  57              		.size	__late_init, .-__late_init
ARM GAS  /tmp/cc7HZyd2.s 			page 2


  58 0002 C046     		.section	.text._default_exit,"ax",%progbits
  59              		.align	2
  60              		.p2align 4,,15
  61              		.weak	_default_exit
  62              		.code	16
  63              		.thumb_func
  64              		.type	_default_exit, %function
  65              	_default_exit:
  66              	.LFB2:
  67              		.loc 1 257 0
  68              		.cfi_startproc
  69              		@ Naked Function: prologue and epilogue provided by programmer.
  70              		@ args = 0, pretend = 0, frame = 0
  71              		@ frame_needed = 0, uses_anonymous_args = 0
  72              	.L4:
  73 0000 FEE7     		b	.L4
  74              		.cfi_endproc
  75              	.LFE2:
  76              		.size	_default_exit, .-_default_exit
  77 0002 C046     		.section	.text.ResetHandler,"ax",%progbits
  78              		.align	2
  79              		.p2align 4,,15
  80              		.global	ResetHandler
  81              		.code	16
  82              		.thumb_func
  83              		.type	ResetHandler, %function
  84              	ResetHandler:
  85              	.LFB3:
  86              		.loc 1 268 0
  87              		.cfi_startproc
  88              		@ Naked Function: prologue and epilogue provided by programmer.
  89              		@ args = 0, pretend = 0, frame = 0
  90              		@ frame_needed = 0, uses_anonymous_args = 0
  91              		.loc 1 274 0
  92              		.syntax divided
  93              	@ 274 "../../os/ports/GCC/ARMCMx/crt0.c" 1
  94 0000 72B6     		cpsid   i
  95              	@ 0 "" 2
  96              		.loc 1 275 0
  97              		.thumb
  98              		.syntax unified
  99 0002 364D     		ldr	r5, .L32
 100 0004 2900     		movs	r1, r5
 101              	.LVL0:
 102              		.loc 1 276 0
 103              		.syntax divided
 104              	@ 276 "../../os/ports/GCC/ARMCMx/crt0.c" 1
 105 0006 85F30988 		msr     PSP, r5
 106              	@ 0 "" 2
 107              	.LVL1:
 108              		.loc 1 296 0
 109              		.thumb
 110              		.syntax unified
 111 000a 0223     		movs	r3, #2
 112              		.syntax divided
 113              	@ 296 "../../os/ports/GCC/ARMCMx/crt0.c" 1
 114 000c 83F31488 		msr     CONTROL, r3
ARM GAS  /tmp/cc7HZyd2.s 			page 3


 115              	@ 0 "" 2
 116              		.loc 1 297 0
 117              	@ 297 "../../os/ports/GCC/ARMCMx/crt0.c" 1
 118 0010 BFF36F8F 		isb
 119              	@ 0 "" 2
 120              	.LVL2:
 121              		.thumb
 122              		.syntax unified
 123              	.LBB2:
 124              		.loc 1 301 0
 125 0014 3248     		ldr	r0, .L32+4
 126 0016 334B     		ldr	r3, .L32+8
 127 0018 9842     		cmp	r0, r3
 128 001a 0AD2     		bcs	.L10
 129 001c C243     		mvns	r2, r0
 130 001e D218     		adds	r2, r2, r3
 131 0020 0023     		movs	r3, #0
 132 0022 9208     		lsrs	r2, r2, #2
 133 0024 0132     		adds	r2, r2, #1
 134 0026 304C     		ldr	r4, .L32+12
 135 0028 9200     		lsls	r2, r2, #2
 136              	.LVL3:
 137              	.L9:
 138              		.loc 1 301 0 is_stmt 0 discriminator 3
 139 002a C450     		str	r4, [r0, r3]
 140 002c 0433     		adds	r3, r3, #4
 141              	.LVL4:
 142 002e 9342     		cmp	r3, r2
 143 0030 FBD1     		bne	.L9
 144              	.LVL5:
 145              	.L10:
 146              	.LBE2:
 147              	.LBB3:
 148              		.loc 1 304 0 is_stmt 1
 149 0032 2E48     		ldr	r0, .L32+16
 150 0034 A842     		cmp	r0, r5
 151 0036 0AD2     		bcs	.L8
 152 0038 C243     		mvns	r2, r0
 153 003a 0023     		movs	r3, #0
 154 003c 5218     		adds	r2, r2, r1
 155 003e 9208     		lsrs	r2, r2, #2
 156 0040 0132     		adds	r2, r2, #1
 157 0042 2949     		ldr	r1, .L32+12
 158              	.LVL6:
 159 0044 9200     		lsls	r2, r2, #2
 160              	.LVL7:
 161              	.L13:
 162              		.loc 1 304 0 is_stmt 0 discriminator 3
 163 0046 C150     		str	r1, [r0, r3]
 164 0048 0433     		adds	r3, r3, #4
 165              	.LVL8:
 166 004a 9342     		cmp	r3, r2
 167 004c FBD1     		bne	.L13
 168              	.LVL9:
 169              	.L8:
 170              	.LBE3:
 171              		.loc 1 310 0 is_stmt 1
ARM GAS  /tmp/cc7HZyd2.s 			page 4


 172 004e FFF7FEFF 		bl	__early_init
 173              	.LVL10:
 174              	.LBB4:
 175              		.loc 1 319 0
 176 0052 2749     		ldr	r1, .L32+20
 177 0054 274B     		ldr	r3, .L32+24
 178 0056 9942     		cmp	r1, r3
 179 0058 0BD2     		bcs	.L12
 180 005a CA43     		mvns	r2, r1
 181 005c D218     		adds	r2, r2, r3
 182 005e 0023     		movs	r3, #0
 183 0060 9208     		lsrs	r2, r2, #2
 184 0062 0132     		adds	r2, r2, #1
 185 0064 2448     		ldr	r0, .L32+28
 186 0066 9200     		lsls	r2, r2, #2
 187              	.LVL11:
 188              	.L16:
 189              		.loc 1 320 0
 190 0068 C458     		ldr	r4, [r0, r3]
 191 006a CC50     		str	r4, [r1, r3]
 192 006c 0433     		adds	r3, r3, #4
 193              	.LVL12:
 194              		.loc 1 319 0
 195 006e 9342     		cmp	r3, r2
 196 0070 FAD1     		bne	.L16
 197              	.LVL13:
 198              	.L12:
 199              	.LBE4:
 200              	.LBB5:
 201              		.loc 1 326 0
 202 0072 2248     		ldr	r0, .L32+32
 203 0074 224B     		ldr	r3, .L32+36
 204 0076 9842     		cmp	r0, r3
 205 0078 0BD2     		bcs	.L15
 206 007a C143     		mvns	r1, r0
 207 007c 0024     		movs	r4, #0
 208 007e C918     		adds	r1, r1, r3
 209 0080 0023     		movs	r3, #0
 210 0082 8908     		lsrs	r1, r1, #2
 211 0084 0131     		adds	r1, r1, #1
 212 0086 8900     		lsls	r1, r1, #2
 213              	.LVL14:
 214              	.L19:
 215              		.loc 1 326 0 is_stmt 0 discriminator 3
 216 0088 C218     		adds	r2, r0, r3
 217 008a 0433     		adds	r3, r3, #4
 218              	.LVL15:
 219 008c 1460     		str	r4, [r2]
 220 008e 8B42     		cmp	r3, r1
 221 0090 FAD1     		bne	.L19
 222              	.LVL16:
 223              	.L15:
 224              	.LBE5:
 225              		.loc 1 330 0 is_stmt 1
 226 0092 FFF7FEFF 		bl	__late_init
 227              	.LVL17:
 228              	.LBB6:
ARM GAS  /tmp/cc7HZyd2.s 			page 5


 229              		.loc 1 336 0
 230 0096 1B4E     		ldr	r6, .L32+40
 231 0098 1B4B     		ldr	r3, .L32+44
 232 009a 9E42     		cmp	r6, r3
 233 009c 0AD2     		bcs	.L18
 234 009e F543     		mvns	r5, r6
 235              	.LVL18:
 236 00a0 0024     		movs	r4, #0
 237 00a2 ED18     		adds	r5, r5, r3
 238 00a4 AD08     		lsrs	r5, r5, #2
 239 00a6 0135     		adds	r5, r5, #1
 240              	.LVL19:
 241              	.L22:
 242              		.loc 1 337 0
 243 00a8 A300     		lsls	r3, r4, #2
 244 00aa F358     		ldr	r3, [r6, r3]
 245 00ac 0134     		adds	r4, r4, #1
 246              	.LVL20:
 247 00ae 9847     		blx	r3
 248              	.LVL21:
 249              		.loc 1 336 0
 250 00b0 A542     		cmp	r5, r4
 251 00b2 F9D1     		bne	.L22
 252              	.L18:
 253              	.LBE6:
 254              		.loc 1 344 0
 255 00b4 FFF7FEFF 		bl	main
 256              	.LVL22:
 257              	.LBB7:
 258              		.loc 1 350 0
 259 00b8 144E     		ldr	r6, .L32+48
 260 00ba 154B     		ldr	r3, .L32+52
 261 00bc 9E42     		cmp	r6, r3
 262 00be 0AD2     		bcs	.L21
 263 00c0 F543     		mvns	r5, r6
 264 00c2 0024     		movs	r4, #0
 265 00c4 ED18     		adds	r5, r5, r3
 266 00c6 AD08     		lsrs	r5, r5, #2
 267 00c8 0135     		adds	r5, r5, #1
 268              	.LVL23:
 269              	.L23:
 270              		.loc 1 351 0
 271 00ca A300     		lsls	r3, r4, #2
 272 00cc F358     		ldr	r3, [r6, r3]
 273 00ce 0134     		adds	r4, r4, #1
 274              	.LVL24:
 275 00d0 9847     		blx	r3
 276              	.LVL25:
 277              		.loc 1 350 0
 278 00d2 A542     		cmp	r5, r4
 279 00d4 F9D1     		bne	.L23
 280              	.L21:
 281              	.LBE7:
 282              		.loc 1 358 0
 283 00d6 FFF7FEFF 		bl	_default_exit
 284              	.LVL26:
 285              		.loc 1 359 0
ARM GAS  /tmp/cc7HZyd2.s 			page 6


 286              	.L33:
 287 00da C046     		.align	2
 288              	.L32:
 289 00dc 00000000 		.word	__process_stack_end__
 290 00e0 00000000 		.word	__main_stack_base__
 291 00e4 00000000 		.word	__main_stack_end__
 292 00e8 55555555 		.word	1431655765
 293 00ec 00000000 		.word	__process_stack_base__
 294 00f0 00000000 		.word	_data
 295 00f4 00000000 		.word	_edata
 296 00f8 00000000 		.word	_textdata
 297 00fc 00000000 		.word	_bss_start
 298 0100 00000000 		.word	_bss_end
 299 0104 00000000 		.word	__init_array_start
 300 0108 00000000 		.word	__init_array_end
 301 010c 00000000 		.word	__fini_array_start
 302 0110 00000000 		.word	__fini_array_end
 303              		.cfi_endproc
 304              	.LFE3:
 305              		.size	ResetHandler, .-ResetHandler
 306              		.text
 307              	.Letext0:
 308              		.file 2 "/home/lithium/Descargas/gcc-arm-none-eabi-5_3-2016q1/arm-none-eabi/include/machine/_defau
 309              		.file 3 "/home/lithium/Descargas/gcc-arm-none-eabi-5_3-2016q1/arm-none-eabi/include/sys/_stdint.h"