ARM GAS  /tmp/cc6t34kl.s 			page 1


   1              		.syntax unified
   2              		.cpu cortex-m0
   3              		.fpu softvfp
   4              		.eabi_attribute 20, 1
   5              		.eabi_attribute 21, 1
   6              		.eabi_attribute 23, 3
   7              		.eabi_attribute 24, 1
   8              		.eabi_attribute 25, 1
   9              		.eabi_attribute 26, 1
  10              		.eabi_attribute 30, 2
  11              		.eabi_attribute 34, 0
  12              		.eabi_attribute 18, 4
  13              		.thumb
  14              		.syntax unified
  15              		.file	"gpt.c"
  16              		.text
  17              	.Ltext0:
  18              		.cfi_sections	.debug_frame
  19              		.section	.text.gptInit,"ax",%progbits
  20              		.align	2
  21              		.p2align 4,,15
  22              		.global	gptInit
  23              		.code	16
  24              		.thumb_func
  25              		.type	gptInit, %function
  26              	gptInit:
  27              	.LFB40:
  28              		.file 1 "../../os/hal/src/gpt.c"
  29              		.loc 1 68 0
  30              		.cfi_startproc
  31              		@ args = 0, pretend = 0, frame = 0
  32              		@ frame_needed = 0, uses_anonymous_args = 0
  33 0000 10B5     		push	{r4, lr}
  34              		.cfi_def_cfa_offset 8
  35              		.cfi_offset 4, -8
  36              		.cfi_offset 14, -4
  37              		.loc 1 70 0
  38 0002 FFF7FEFF 		bl	gpt_lld_init
  39              	.LVL0:
  40              		.loc 1 71 0
  41              		@ sp needed
  42 0006 10BD     		pop	{r4, pc}
  43              		.cfi_endproc
  44              	.LFE40:
  45              		.size	gptInit, .-gptInit
  46              		.section	.text.gptObjectInit,"ax",%progbits
  47              		.align	2
  48              		.p2align 4,,15
  49              		.global	gptObjectInit
  50              		.code	16
  51              		.thumb_func
  52              		.type	gptObjectInit, %function
  53              	gptObjectInit:
  54              	.LFB41:
  55              		.loc 1 80 0
  56              		.cfi_startproc
  57              		@ args = 0, pretend = 0, frame = 0
ARM GAS  /tmp/cc6t34kl.s 			page 2


  58              		@ frame_needed = 0, uses_anonymous_args = 0
  59              		@ link register save eliminated.
  60              	.LVL1:
  61              		.loc 1 82 0
  62 0000 0123     		movs	r3, #1
  63 0002 0370     		strb	r3, [r0]
  64              		.loc 1 83 0
  65 0004 0023     		movs	r3, #0
  66              		.loc 1 84 0
  67              		@ sp needed
  68              		.loc 1 83 0
  69 0006 4360     		str	r3, [r0, #4]
  70              		.loc 1 84 0
  71 0008 7047     		bx	lr
  72              		.cfi_endproc
  73              	.LFE41:
  74              		.size	gptObjectInit, .-gptObjectInit
  75 000a C046     		.section	.text.gptStart,"ax",%progbits
  76              		.align	2
  77              		.p2align 4,,15
  78              		.global	gptStart
  79              		.code	16
  80              		.thumb_func
  81              		.type	gptStart, %function
  82              	gptStart:
  83              	.LFB42:
  84              		.loc 1 94 0
  85              		.cfi_startproc
  86              		@ args = 0, pretend = 0, frame = 0
  87              		@ frame_needed = 0, uses_anonymous_args = 0
  88              	.LVL2:
  89 0000 10B5     		push	{r4, lr}
  90              		.cfi_def_cfa_offset 8
  91              		.cfi_offset 4, -8
  92              		.cfi_offset 14, -4
  93              		.loc 1 94 0
  94 0002 0400     		movs	r4, r0
  95              		.loc 1 98 0
  96              		.syntax divided
  97              	@ 98 "../../os/hal/src/gpt.c" 1
  98 0004 72B6     		cpsid   i
  99              	@ 0 "" 2
 100              		.loc 1 101 0
 101              		.thumb
 102              		.syntax unified
 103 0006 4160     		str	r1, [r0, #4]
 104              		.loc 1 102 0
 105 0008 FFF7FEFF 		bl	gpt_lld_start
 106              	.LVL3:
 107              		.loc 1 103 0
 108 000c 0223     		movs	r3, #2
 109 000e 2370     		strb	r3, [r4]
 110              		.loc 1 104 0
 111              		.syntax divided
 112              	@ 104 "../../os/hal/src/gpt.c" 1
 113 0010 62B6     		cpsie   i
 114              	@ 0 "" 2
ARM GAS  /tmp/cc6t34kl.s 			page 3


 115              		.loc 1 105 0
 116              		.thumb
 117              		.syntax unified
 118              		@ sp needed
 119              	.LVL4:
 120 0012 10BD     		pop	{r4, pc}
 121              		.cfi_endproc
 122              	.LFE42:
 123              		.size	gptStart, .-gptStart
 124              		.section	.text.gptStop,"ax",%progbits
 125              		.align	2
 126              		.p2align 4,,15
 127              		.global	gptStop
 128              		.code	16
 129              		.thumb_func
 130              		.type	gptStop, %function
 131              	gptStop:
 132              	.LFB43:
 133              		.loc 1 114 0
 134              		.cfi_startproc
 135              		@ args = 0, pretend = 0, frame = 0
 136              		@ frame_needed = 0, uses_anonymous_args = 0
 137              	.LVL5:
 138 0000 10B5     		push	{r4, lr}
 139              		.cfi_def_cfa_offset 8
 140              		.cfi_offset 4, -8
 141              		.cfi_offset 14, -4
 142              		.loc 1 114 0
 143 0002 0400     		movs	r4, r0
 144              		.loc 1 118 0
 145              		.syntax divided
 146              	@ 118 "../../os/hal/src/gpt.c" 1
 147 0004 72B6     		cpsid   i
 148              	@ 0 "" 2
 149              		.loc 1 121 0
 150              		.thumb
 151              		.syntax unified
 152 0006 FFF7FEFF 		bl	gpt_lld_stop
 153              	.LVL6:
 154              		.loc 1 122 0
 155 000a 0123     		movs	r3, #1
 156 000c 2370     		strb	r3, [r4]
 157              		.loc 1 123 0
 158              		.syntax divided
 159              	@ 123 "../../os/hal/src/gpt.c" 1
 160 000e 62B6     		cpsie   i
 161              	@ 0 "" 2
 162              		.loc 1 124 0
 163              		.thumb
 164              		.syntax unified
 165              		@ sp needed
 166              	.LVL7:
 167 0010 10BD     		pop	{r4, pc}
 168              		.cfi_endproc
 169              	.LFE43:
 170              		.size	gptStop, .-gptStop
 171 0012 C046     		.section	.text.gptChangeInterval,"ax",%progbits
ARM GAS  /tmp/cc6t34kl.s 			page 4


 172              		.align	2
 173              		.p2align 4,,15
 174              		.global	gptChangeInterval
 175              		.code	16
 176              		.thumb_func
 177              		.type	gptChangeInterval, %function
 178              	gptChangeInterval:
 179              	.LFB44:
 180              		.loc 1 139 0
 181              		.cfi_startproc
 182              		@ args = 0, pretend = 0, frame = 0
 183              		@ frame_needed = 0, uses_anonymous_args = 0
 184              		@ link register save eliminated.
 185              	.LVL8:
 186              		.loc 1 143 0
 187              		.syntax divided
 188              	@ 143 "../../os/hal/src/gpt.c" 1
 189 0000 72B6     		cpsid   i
 190              	@ 0 "" 2
 191              		.loc 1 146 0
 192              		.thumb
 193              		.syntax unified
 194 0002 C368     		ldr	r3, [r0, #12]
 195 0004 0139     		subs	r1, r1, #1
 196              	.LVL9:
 197 0006 D962     		str	r1, [r3, #44]
 198              		.loc 1 147 0
 199              		.syntax divided
 200              	@ 147 "../../os/hal/src/gpt.c" 1
 201 0008 62B6     		cpsie   i
 202              	@ 0 "" 2
 203              		.loc 1 148 0
 204              		.thumb
 205              		.syntax unified
 206              		@ sp needed
 207 000a 7047     		bx	lr
 208              		.cfi_endproc
 209              	.LFE44:
 210              		.size	gptChangeInterval, .-gptChangeInterval
 211              		.section	.text.gptStartContinuous,"ax",%progbits
 212              		.align	2
 213              		.p2align 4,,15
 214              		.global	gptStartContinuous
 215              		.code	16
 216              		.thumb_func
 217              		.type	gptStartContinuous, %function
 218              	gptStartContinuous:
 219              	.LFB45:
 220              		.loc 1 158 0
 221              		.cfi_startproc
 222              		@ args = 0, pretend = 0, frame = 0
 223              		@ frame_needed = 0, uses_anonymous_args = 0
 224              	.LVL10:
 225 0000 10B5     		push	{r4, lr}
 226              		.cfi_def_cfa_offset 8
 227              		.cfi_offset 4, -8
 228              		.cfi_offset 14, -4
ARM GAS  /tmp/cc6t34kl.s 			page 5


 229              		.loc 1 160 0
 230              		.syntax divided
 231              	@ 160 "../../os/hal/src/gpt.c" 1
 232 0002 72B6     		cpsid   i
 233              	@ 0 "" 2
 234              	.LVL11:
 235              		.thumb
 236              		.syntax unified
 237              	.LBB8:
 238              	.LBB9:
 239              		.loc 1 180 0
 240 0004 0323     		movs	r3, #3
 241 0006 0370     		strb	r3, [r0]
 242              		.loc 1 181 0
 243 0008 FFF7FEFF 		bl	gpt_lld_start_timer
 244              	.LVL12:
 245              	.LBE9:
 246              	.LBE8:
 247              		.loc 1 162 0
 248              		.syntax divided
 249              	@ 162 "../../os/hal/src/gpt.c" 1
 250 000c 62B6     		cpsie   i
 251              	@ 0 "" 2
 252              		.loc 1 163 0
 253              		.thumb
 254              		.syntax unified
 255              		@ sp needed
 256 000e 10BD     		pop	{r4, pc}
 257              		.cfi_endproc
 258              	.LFE45:
 259              		.size	gptStartContinuous, .-gptStartContinuous
 260              		.section	.text.gptStartContinuousI,"ax",%progbits
 261              		.align	2
 262              		.p2align 4,,15
 263              		.global	gptStartContinuousI
 264              		.code	16
 265              		.thumb_func
 266              		.type	gptStartContinuousI, %function
 267              	gptStartContinuousI:
 268              	.LFB46:
 269              		.loc 1 173 0
 270              		.cfi_startproc
 271              		@ args = 0, pretend = 0, frame = 0
 272              		@ frame_needed = 0, uses_anonymous_args = 0
 273              	.LVL13:
 274              		.loc 1 180 0
 275 0000 0323     		movs	r3, #3
 276              		.loc 1 173 0
 277 0002 10B5     		push	{r4, lr}
 278              		.cfi_def_cfa_offset 8
 279              		.cfi_offset 4, -8
 280              		.cfi_offset 14, -4
 281              		.loc 1 180 0
 282 0004 0370     		strb	r3, [r0]
 283              		.loc 1 181 0
 284 0006 FFF7FEFF 		bl	gpt_lld_start_timer
 285              	.LVL14:
ARM GAS  /tmp/cc6t34kl.s 			page 6


 286              		.loc 1 182 0
 287              		@ sp needed
 288 000a 10BD     		pop	{r4, pc}
 289              		.cfi_endproc
 290              	.LFE46:
 291              		.size	gptStartContinuousI, .-gptStartContinuousI
 292              		.section	.text.gptStartOneShot,"ax",%progbits
 293              		.align	2
 294              		.p2align 4,,15
 295              		.global	gptStartOneShot
 296              		.code	16
 297              		.thumb_func
 298              		.type	gptStartOneShot, %function
 299              	gptStartOneShot:
 300              	.LFB47:
 301              		.loc 1 192 0
 302              		.cfi_startproc
 303              		@ args = 0, pretend = 0, frame = 0
 304              		@ frame_needed = 0, uses_anonymous_args = 0
 305              	.LVL15:
 306 0000 10B5     		push	{r4, lr}
 307              		.cfi_def_cfa_offset 8
 308              		.cfi_offset 4, -8
 309              		.cfi_offset 14, -4
 310              		.loc 1 194 0
 311              		.syntax divided
 312              	@ 194 "../../os/hal/src/gpt.c" 1
 313 0002 72B6     		cpsid   i
 314              	@ 0 "" 2
 315              	.LVL16:
 316              		.thumb
 317              		.syntax unified
 318              	.LBB10:
 319              	.LBB11:
 320              		.loc 1 214 0
 321 0004 0423     		movs	r3, #4
 322 0006 0370     		strb	r3, [r0]
 323              		.loc 1 215 0
 324 0008 FFF7FEFF 		bl	gpt_lld_start_timer
 325              	.LVL17:
 326              	.LBE11:
 327              	.LBE10:
 328              		.loc 1 196 0
 329              		.syntax divided
 330              	@ 196 "../../os/hal/src/gpt.c" 1
 331 000c 62B6     		cpsie   i
 332              	@ 0 "" 2
 333              		.loc 1 197 0
 334              		.thumb
 335              		.syntax unified
 336              		@ sp needed
 337 000e 10BD     		pop	{r4, pc}
 338              		.cfi_endproc
 339              	.LFE47:
 340              		.size	gptStartOneShot, .-gptStartOneShot
 341              		.section	.text.gptStartOneShotI,"ax",%progbits
 342              		.align	2
ARM GAS  /tmp/cc6t34kl.s 			page 7


 343              		.p2align 4,,15
 344              		.global	gptStartOneShotI
 345              		.code	16
 346              		.thumb_func
 347              		.type	gptStartOneShotI, %function
 348              	gptStartOneShotI:
 349              	.LFB48:
 350              		.loc 1 207 0
 351              		.cfi_startproc
 352              		@ args = 0, pretend = 0, frame = 0
 353              		@ frame_needed = 0, uses_anonymous_args = 0
 354              	.LVL18:
 355              		.loc 1 214 0
 356 0000 0423     		movs	r3, #4
 357              		.loc 1 207 0
 358 0002 10B5     		push	{r4, lr}
 359              		.cfi_def_cfa_offset 8
 360              		.cfi_offset 4, -8
 361              		.cfi_offset 14, -4
 362              		.loc 1 214 0
 363 0004 0370     		strb	r3, [r0]
 364              		.loc 1 215 0
 365 0006 FFF7FEFF 		bl	gpt_lld_start_timer
 366              	.LVL19:
 367              		.loc 1 216 0
 368              		@ sp needed
 369 000a 10BD     		pop	{r4, pc}
 370              		.cfi_endproc
 371              	.LFE48:
 372              		.size	gptStartOneShotI, .-gptStartOneShotI
 373              		.section	.text.gptStopTimer,"ax",%progbits
 374              		.align	2
 375              		.p2align 4,,15
 376              		.global	gptStopTimer
 377              		.code	16
 378              		.thumb_func
 379              		.type	gptStopTimer, %function
 380              	gptStopTimer:
 381              	.LFB49:
 382              		.loc 1 225 0
 383              		.cfi_startproc
 384              		@ args = 0, pretend = 0, frame = 0
 385              		@ frame_needed = 0, uses_anonymous_args = 0
 386              	.LVL20:
 387 0000 10B5     		push	{r4, lr}
 388              		.cfi_def_cfa_offset 8
 389              		.cfi_offset 4, -8
 390              		.cfi_offset 14, -4
 391              		.loc 1 227 0
 392              		.syntax divided
 393              	@ 227 "../../os/hal/src/gpt.c" 1
 394 0002 72B6     		cpsid   i
 395              	@ 0 "" 2
 396              	.LVL21:
 397              		.thumb
 398              		.syntax unified
 399              	.LBB12:
ARM GAS  /tmp/cc6t34kl.s 			page 8


 400              	.LBB13:
 401              		.loc 1 247 0
 402 0004 0223     		movs	r3, #2
 403 0006 0370     		strb	r3, [r0]
 404              		.loc 1 248 0
 405 0008 FFF7FEFF 		bl	gpt_lld_stop_timer
 406              	.LVL22:
 407              	.LBE13:
 408              	.LBE12:
 409              		.loc 1 229 0
 410              		.syntax divided
 411              	@ 229 "../../os/hal/src/gpt.c" 1
 412 000c 62B6     		cpsie   i
 413              	@ 0 "" 2
 414              		.loc 1 230 0
 415              		.thumb
 416              		.syntax unified
 417              		@ sp needed
 418 000e 10BD     		pop	{r4, pc}
 419              		.cfi_endproc
 420              	.LFE49:
 421              		.size	gptStopTimer, .-gptStopTimer
 422              		.section	.text.gptStopTimerI,"ax",%progbits
 423              		.align	2
 424              		.p2align 4,,15
 425              		.global	gptStopTimerI
 426              		.code	16
 427              		.thumb_func
 428              		.type	gptStopTimerI, %function
 429              	gptStopTimerI:
 430              	.LFB50:
 431              		.loc 1 239 0
 432              		.cfi_startproc
 433              		@ args = 0, pretend = 0, frame = 0
 434              		@ frame_needed = 0, uses_anonymous_args = 0
 435              	.LVL23:
 436              		.loc 1 247 0
 437 0000 0223     		movs	r3, #2
 438              		.loc 1 239 0
 439 0002 10B5     		push	{r4, lr}
 440              		.cfi_def_cfa_offset 8
 441              		.cfi_offset 4, -8
 442              		.cfi_offset 14, -4
 443              		.loc 1 247 0
 444 0004 0370     		strb	r3, [r0]
 445              		.loc 1 248 0
 446 0006 FFF7FEFF 		bl	gpt_lld_stop_timer
 447              	.LVL24:
 448              		.loc 1 249 0
 449              		@ sp needed
 450 000a 10BD     		pop	{r4, pc}
 451              		.cfi_endproc
 452              	.LFE50:
 453              		.size	gptStopTimerI, .-gptStopTimerI
 454              		.section	.text.gptPolledDelay,"ax",%progbits
 455              		.align	2
 456              		.p2align 4,,15
ARM GAS  /tmp/cc6t34kl.s 			page 9


 457              		.global	gptPolledDelay
 458              		.code	16
 459              		.thumb_func
 460              		.type	gptPolledDelay, %function
 461              	gptPolledDelay:
 462              	.LFB51:
 463              		.loc 1 263 0
 464              		.cfi_startproc
 465              		@ args = 0, pretend = 0, frame = 0
 466              		@ frame_needed = 0, uses_anonymous_args = 0
 467              	.LVL25:
 468              		.loc 1 268 0
 469 0000 0423     		movs	r3, #4
 470              		.loc 1 263 0
 471 0002 10B5     		push	{r4, lr}
 472              		.cfi_def_cfa_offset 8
 473              		.cfi_offset 4, -8
 474              		.cfi_offset 14, -4
 475              		.loc 1 268 0
 476 0004 0370     		strb	r3, [r0]
 477              		.loc 1 263 0
 478 0006 0400     		movs	r4, r0
 479              		.loc 1 269 0
 480 0008 FFF7FEFF 		bl	gpt_lld_polled_delay
 481              	.LVL26:
 482              		.loc 1 270 0
 483 000c 0223     		movs	r3, #2
 484              		.loc 1 271 0
 485              		@ sp needed
 486              		.loc 1 270 0
 487 000e 2370     		strb	r3, [r4]
 488              	.LVL27:
 489              		.loc 1 271 0
 490 0010 10BD     		pop	{r4, pc}
 491              		.cfi_endproc
 492              	.LFE51:
 493              		.size	gptPolledDelay, .-gptPolledDelay
 494 0012 C046     		.text
 495              	.Letext0:
 496              		.file 2 "/home/lithium/Descargas/gcc-arm-none-eabi-5_3-2016q1/arm-none-eabi/include/machine/_defau
 497              		.file 3 "/home/lithium/Descargas/gcc-arm-none-eabi-5_3-2016q1/arm-none-eabi/include/sys/_stdint.h"
 498              		.file 4 "../../os/hal/include/gpt.h"
 499              		.file 5 "../../os/hal/platforms/STM32/TIMv1/gpt_lld.h"
 500              		.file 6 "../../os/hal/platforms/STM32/TIMv1/stm32_tim.h"