ARM GAS  /tmp/ccZk1WAU.s 			page 1


   1              		.syntax unified
   2              		.cpu cortex-m0
   3              		.fpu softvfp
   4              		.eabi_attribute 20, 1
   5              		.eabi_attribute 21, 1
   6              		.eabi_attribute 23, 3
   7              		.eabi_attribute 24, 1
   8              		.eabi_attribute 25, 1
   9              		.eabi_attribute 26, 1
  10              		.eabi_attribute 30, 2
  11              		.eabi_attribute 34, 0
  12              		.eabi_attribute 18, 4
  13              		.thumb
  14              		.syntax unified
  15              		.file	"gpt_lld.c"
  16              		.text
  17              	.Ltext0:
  18              		.cfi_sections	.debug_frame
  19              		.section	.text.Vector80,"ax",%progbits
  20              		.align	2
  21              		.p2align 4,,15
  22              		.global	Vector80
  23              		.code	16
  24              		.thumb_func
  25              		.type	Vector80, %function
  26              	Vector80:
  27              	.LFB41:
  28              		.file 1 "../../os/hal/platforms/STM32/TIMv1/gpt_lld.c"
  29              		.loc 1 208 0
  30              		.cfi_startproc
  31              		@ args = 0, pretend = 0, frame = 0
  32              		@ frame_needed = 0, uses_anonymous_args = 0
  33 0000 10B5     		push	{r4, lr}
  34              		.cfi_def_cfa_offset 8
  35              		.cfi_offset 4, -8
  36              		.cfi_offset 14, -4
  37              		.loc 1 210 0
  38              		.syntax divided
  39              	@ 210 "../../os/hal/platforms/STM32/TIMv1/gpt_lld.c" 1
  40 0002 7446     		mov     r4, lr
  41              	@ 0 "" 2
  42              	.LVL0:
  43              		.thumb
  44              		.syntax unified
  45              	.LBB8:
  46              	.LBB9:
  47              		.loc 1 149 0
  48 0004 0022     		movs	r2, #0
  49 0006 0A48     		ldr	r0, .L4
  50 0008 C368     		ldr	r3, [r0, #12]
  51              		.loc 1 150 0
  52 000a 0178     		ldrb	r1, [r0]
  53              		.loc 1 149 0
  54 000c 1A61     		str	r2, [r3, #16]
  55              		.loc 1 150 0
  56 000e 0429     		cmp	r1, #4
  57 0010 07D1     		bne	.L2
ARM GAS  /tmp/ccZk1WAU.s 			page 2


  58              		.loc 1 151 0
  59 0012 0239     		subs	r1, r1, #2
  60 0014 0170     		strb	r1, [r0]
  61              	.LVL1:
  62              	.LBB10:
  63              	.LBB11:
  64              		.loc 1 745 0
  65 0016 1A60     		str	r2, [r3]
  66              		.loc 1 746 0
  67 0018 1A61     		str	r2, [r3, #16]
  68              		.loc 1 749 0
  69 001a DA68     		ldr	r2, [r3, #12]
  70 001c FD31     		adds	r1, r1, #253
  71 001e 8A43     		bics	r2, r1
  72 0020 DA60     		str	r2, [r3, #12]
  73              	.LVL2:
  74              	.L2:
  75              	.LBE11:
  76              	.LBE10:
  77              		.loc 1 154 0
  78 0022 4368     		ldr	r3, [r0, #4]
  79              	.LBE9:
  80              	.LBE8:
  81              		.loc 1 215 0
  82              		@ sp needed
  83              	.LBB13:
  84              	.LBB12:
  85              		.loc 1 154 0
  86 0024 5B68     		ldr	r3, [r3, #4]
  87 0026 9847     		blx	r3
  88              	.LVL3:
  89              	.LBE12:
  90              	.LBE13:
  91              		.loc 1 214 0
  92 0028 2000     		movs	r0, r4
  93 002a FFF7FEFF 		bl	_port_irq_epilogue
  94              	.LVL4:
  95              	.LVL5:
  96              		.loc 1 215 0
  97 002e 10BD     		pop	{r4, pc}
  98              	.L5:
  99              		.align	2
 100              	.L4:
 101 0030 00000000 		.word	.LANCHOR0
 102              		.cfi_endproc
 103              	.LFE41:
 104              		.size	Vector80, .-Vector80
 105              		.section	.text.gpt_lld_init,"ax",%progbits
 106              		.align	2
 107              		.p2align 4,,15
 108              		.global	gpt_lld_init
 109              		.code	16
 110              		.thumb_func
 111              		.type	gpt_lld_init, %function
 112              	gpt_lld_init:
 113              	.LFB42:
 114              		.loc 1 398 0
ARM GAS  /tmp/ccZk1WAU.s 			page 3


 115              		.cfi_startproc
 116              		@ args = 0, pretend = 0, frame = 0
 117              		@ frame_needed = 0, uses_anonymous_args = 0
 118 0000 10B5     		push	{r4, lr}
 119              		.cfi_def_cfa_offset 8
 120              		.cfi_offset 4, -8
 121              		.cfi_offset 14, -4
 122              		.loc 1 414 0
 123 0002 0348     		ldr	r0, .L7
 124 0004 034B     		ldr	r3, .L7+4
 125              		.loc 1 471 0
 126              		@ sp needed
 127              		.loc 1 414 0
 128 0006 C360     		str	r3, [r0, #12]
 129              		.loc 1 415 0
 130 0008 FFF7FEFF 		bl	gptObjectInit
 131              	.LVL6:
 132              		.loc 1 471 0
 133 000c 10BD     		pop	{r4, pc}
 134              	.L8:
 135 000e C046     		.align	2
 136              	.L7:
 137 0010 00000000 		.word	.LANCHOR0
 138 0014 00040040 		.word	1073742848
 139              		.cfi_endproc
 140              	.LFE42:
 141              		.size	gpt_lld_init, .-gpt_lld_init
 142              		.global	__aeabi_uidiv
 143              		.section	.text.gpt_lld_start,"ax",%progbits
 144              		.align	2
 145              		.p2align 4,,15
 146              		.global	gpt_lld_start
 147              		.code	16
 148              		.thumb_func
 149              		.type	gpt_lld_start, %function
 150              	gpt_lld_start:
 151              	.LFB43:
 152              		.loc 1 480 0
 153              		.cfi_startproc
 154              		@ args = 0, pretend = 0, frame = 0
 155              		@ frame_needed = 0, uses_anonymous_args = 0
 156              	.LVL7:
 157              		.loc 1 483 0
 158 0000 0378     		ldrb	r3, [r0]
 159              		.loc 1 480 0
 160 0002 70B5     		push	{r4, r5, r6, lr}
 161              		.cfi_def_cfa_offset 16
 162              		.cfi_offset 4, -16
 163              		.cfi_offset 5, -12
 164              		.cfi_offset 6, -8
 165              		.cfi_offset 14, -4
 166              		.loc 1 480 0
 167 0004 0400     		movs	r4, r0
 168              		.loc 1 483 0
 169 0006 012B     		cmp	r3, #1
 170 0008 10D0     		beq	.L11
 171              	.LVL8:
ARM GAS  /tmp/ccZk1WAU.s 			page 4


 172              	.L10:
 173              		.loc 1 612 0
 174 000a 6568     		ldr	r5, [r4, #4]
 175 000c A068     		ldr	r0, [r4, #8]
 176 000e 2968     		ldr	r1, [r5]
 177 0010 FFF7FEFF 		bl	__aeabi_uidiv
 178              	.LVL9:
 179              		.loc 1 617 0
 180 0014 0022     		movs	r2, #0
 181              		.loc 1 618 0
 182 0016 0821     		movs	r1, #8
 183              		.loc 1 617 0
 184 0018 E368     		ldr	r3, [r4, #12]
 185              		.loc 1 612 0
 186 001a 0138     		subs	r0, r0, #1
 187              		.loc 1 617 0
 188 001c 1A60     		str	r2, [r3]
 189              		.loc 1 618 0
 190 001e 5960     		str	r1, [r3, #4]
 191              		.loc 1 620 0
 192 0020 297A     		ldrb	r1, [r5, #8]
 193              		.loc 1 612 0
 194 0022 80B2     		uxth	r0, r0
 195              	.LVL10:
 196              		.loc 1 619 0
 197 0024 9862     		str	r0, [r3, #40]
 198              		.loc 1 623 0
 199              		@ sp needed
 200              		.loc 1 620 0
 201 0026 D960     		str	r1, [r3, #12]
 202              		.loc 1 622 0
 203 0028 1A61     		str	r2, [r3, #16]
 204              	.LVL11:
 205              		.loc 1 623 0
 206 002a 70BD     		pop	{r4, r5, r6, pc}
 207              	.LVL12:
 208              	.L11:
 209              		.loc 1 508 0
 210 002c 094B     		ldr	r3, .L12
 211 002e 9842     		cmp	r0, r3
 212 0030 EBD1     		bne	.L10
 213              		.loc 1 509 0
 214 0032 0222     		movs	r2, #2
 215 0034 084B     		ldr	r3, .L12+4
 216              		.loc 1 511 0
 217 0036 1020     		movs	r0, #16
 218              	.LVL13:
 219              		.loc 1 509 0
 220 0038 D969     		ldr	r1, [r3, #28]
 221 003a 1143     		orrs	r1, r2
 222 003c D961     		str	r1, [r3, #28]
 223              		.loc 1 510 0
 224 003e 1969     		ldr	r1, [r3, #16]
 225 0040 0A43     		orrs	r2, r1
 226 0042 1A61     		str	r2, [r3, #16]
 227 0044 0022     		movs	r2, #0
 228              		.loc 1 511 0
ARM GAS  /tmp/ccZk1WAU.s 			page 5


 229 0046 8021     		movs	r1, #128
 230              		.loc 1 510 0
 231 0048 1A61     		str	r2, [r3, #16]
 232              		.loc 1 511 0
 233 004a FFF7FEFF 		bl	nvicEnableVector
 234              	.LVL14:
 235              		.loc 1 513 0
 236 004e 034B     		ldr	r3, .L12+8
 237 0050 A360     		str	r3, [r4, #8]
 238 0052 DAE7     		b	.L10
 239              	.L13:
 240              		.align	2
 241              	.L12:
 242 0054 00000000 		.word	.LANCHOR0
 243 0058 00100240 		.word	1073876992
 244 005c 006CDC02 		.word	48000000
 245              		.cfi_endproc
 246              	.LFE43:
 247              		.size	gpt_lld_start, .-gpt_lld_start
 248              		.section	.text.gpt_lld_stop,"ax",%progbits
 249              		.align	2
 250              		.p2align 4,,15
 251              		.global	gpt_lld_stop
 252              		.code	16
 253              		.thumb_func
 254              		.type	gpt_lld_stop, %function
 255              	gpt_lld_stop:
 256              	.LFB44:
 257              		.loc 1 632 0
 258              		.cfi_startproc
 259              		@ args = 0, pretend = 0, frame = 0
 260              		@ frame_needed = 0, uses_anonymous_args = 0
 261              	.LVL15:
 262 0000 10B5     		push	{r4, lr}
 263              		.cfi_def_cfa_offset 8
 264              		.cfi_offset 4, -8
 265              		.cfi_offset 14, -4
 266              		.loc 1 634 0
 267 0002 0478     		ldrb	r4, [r0]
 268 0004 022C     		cmp	r4, #2
 269 0006 00D0     		beq	.L18
 270              	.LVL16:
 271              	.L14:
 272              		.loc 1 712 0
 273              		@ sp needed
 274 0008 10BD     		pop	{r4, pc}
 275              	.LVL17:
 276              	.L18:
 277              		.loc 1 635 0
 278 000a 0022     		movs	r2, #0
 279 000c C368     		ldr	r3, [r0, #12]
 280 000e 1A60     		str	r2, [r3]
 281              		.loc 1 636 0
 282 0010 DA60     		str	r2, [r3, #12]
 283              		.loc 1 637 0
 284 0012 1A61     		str	r2, [r3, #16]
 285              		.loc 1 652 0
ARM GAS  /tmp/ccZk1WAU.s 			page 6


 286 0014 054B     		ldr	r3, .L19
 287 0016 9842     		cmp	r0, r3
 288 0018 F6D1     		bne	.L14
 289              		.loc 1 653 0
 290 001a 1020     		movs	r0, #16
 291              	.LVL18:
 292 001c FFF7FEFF 		bl	nvicDisableVector
 293              	.LVL19:
 294              		.loc 1 654 0
 295 0020 034A     		ldr	r2, .L19+4
 296 0022 D369     		ldr	r3, [r2, #28]
 297 0024 A343     		bics	r3, r4
 298 0026 D361     		str	r3, [r2, #28]
 299              		.loc 1 712 0
 300 0028 EEE7     		b	.L14
 301              	.L20:
 302 002a C046     		.align	2
 303              	.L19:
 304 002c 00000000 		.word	.LANCHOR0
 305 0030 00100240 		.word	1073876992
 306              		.cfi_endproc
 307              	.LFE44:
 308              		.size	gpt_lld_stop, .-gpt_lld_stop
 309              		.section	.text.gpt_lld_start_timer,"ax",%progbits
 310              		.align	2
 311              		.p2align 4,,15
 312              		.global	gpt_lld_start_timer
 313              		.code	16
 314              		.thumb_func
 315              		.type	gpt_lld_start_timer, %function
 316              	gpt_lld_start_timer:
 317              	.LFB45:
 318              		.loc 1 722 0
 319              		.cfi_startproc
 320              		@ args = 0, pretend = 0, frame = 0
 321              		@ frame_needed = 0, uses_anonymous_args = 0
 322              		@ link register save eliminated.
 323              	.LVL20:
 324              		.loc 1 724 0
 325 0000 C368     		ldr	r3, [r0, #12]
 326 0002 0139     		subs	r1, r1, #1
 327              	.LVL21:
 328 0004 D962     		str	r1, [r3, #44]
 329              		.loc 1 725 0
 330 0006 0122     		movs	r2, #1
 331              		.loc 1 726 0
 332 0008 0021     		movs	r1, #0
 333              	.LVL22:
 334              		.loc 1 725 0
 335 000a 5A61     		str	r2, [r3, #20]
 336              	.LVL23:
 337              		.loc 1 726 0
 338 000c 5962     		str	r1, [r3, #36]
 339              		.loc 1 731 0
 340 000e 1961     		str	r1, [r3, #16]
 341              		.loc 1 732 0
 342 0010 D968     		ldr	r1, [r3, #12]
ARM GAS  /tmp/ccZk1WAU.s 			page 7


 343              		.loc 1 734 0
 344              		@ sp needed
 345              		.loc 1 732 0
 346 0012 0A43     		orrs	r2, r1
 347 0014 DA60     		str	r2, [r3, #12]
 348              		.loc 1 733 0
 349 0016 0522     		movs	r2, #5
 350 0018 1A60     		str	r2, [r3]
 351              		.loc 1 734 0
 352 001a 7047     		bx	lr
 353              		.cfi_endproc
 354              	.LFE45:
 355              		.size	gpt_lld_start_timer, .-gpt_lld_start_timer
 356              		.section	.text.gpt_lld_stop_timer,"ax",%progbits
 357              		.align	2
 358              		.p2align 4,,15
 359              		.global	gpt_lld_stop_timer
 360              		.code	16
 361              		.thumb_func
 362              		.type	gpt_lld_stop_timer, %function
 363              	gpt_lld_stop_timer:
 364              	.LFB46:
 365              		.loc 1 743 0
 366              		.cfi_startproc
 367              		@ args = 0, pretend = 0, frame = 0
 368              		@ frame_needed = 0, uses_anonymous_args = 0
 369              		@ link register save eliminated.
 370              	.LVL24:
 371              		.loc 1 745 0
 372 0000 0022     		movs	r2, #0
 373              		.loc 1 749 0
 374 0002 FF21     		movs	r1, #255
 375              		.loc 1 745 0
 376 0004 C368     		ldr	r3, [r0, #12]
 377              		.loc 1 750 0
 378              		@ sp needed
 379              		.loc 1 745 0
 380 0006 1A60     		str	r2, [r3]
 381              		.loc 1 746 0
 382 0008 1A61     		str	r2, [r3, #16]
 383              		.loc 1 749 0
 384 000a DA68     		ldr	r2, [r3, #12]
 385 000c 8A43     		bics	r2, r1
 386 000e DA60     		str	r2, [r3, #12]
 387              		.loc 1 750 0
 388 0010 7047     		bx	lr
 389              		.cfi_endproc
 390              	.LFE46:
 391              		.size	gpt_lld_stop_timer, .-gpt_lld_stop_timer
 392 0012 C046     		.section	.text.gpt_lld_polled_delay,"ax",%progbits
 393              		.align	2
 394              		.p2align 4,,15
 395              		.global	gpt_lld_polled_delay
 396              		.code	16
 397              		.thumb_func
 398              		.type	gpt_lld_polled_delay, %function
 399              	gpt_lld_polled_delay:
ARM GAS  /tmp/ccZk1WAU.s 			page 8


 400              	.LFB47:
 401              		.loc 1 763 0
 402              		.cfi_startproc
 403              		@ args = 0, pretend = 0, frame = 0
 404              		@ frame_needed = 0, uses_anonymous_args = 0
 405              		@ link register save eliminated.
 406              	.LVL25:
 407              		.loc 1 766 0
 408 0000 0123     		movs	r3, #1
 409              		.loc 1 765 0
 410 0002 C268     		ldr	r2, [r0, #12]
 411 0004 0139     		subs	r1, r1, #1
 412              	.LVL26:
 413 0006 D162     		str	r1, [r2, #44]
 414              		.loc 1 766 0
 415 0008 5361     		str	r3, [r2, #20]
 416              		.loc 1 767 0
 417 000a 0023     		movs	r3, #0
 418              		.loc 1 769 0
 419 000c 0121     		movs	r1, #1
 420              	.LVL27:
 421              		.loc 1 767 0
 422 000e 1361     		str	r3, [r2, #16]
 423              		.loc 1 768 0
 424 0010 0D33     		adds	r3, r3, #13
 425 0012 1360     		str	r3, [r2]
 426              	.L24:
 427              		.loc 1 769 0 discriminator 1
 428 0014 1369     		ldr	r3, [r2, #16]
 429 0016 1942     		tst	r1, r3
 430 0018 FCD0     		beq	.L24
 431              		.loc 1 771 0
 432              		@ sp needed
 433 001a 7047     		bx	lr
 434              		.cfi_endproc
 435              	.LFE47:
 436              		.size	gpt_lld_polled_delay, .-gpt_lld_polled_delay
 437              		.global	GPTD3
 438              		.section	.bss.GPTD3,"aw",%nobits
 439              		.align	2
 440              		.set	.LANCHOR0,. + 0
 441              		.type	GPTD3, %object
 442              		.size	GPTD3, 16
 443              	GPTD3:
 444 0000 00000000 		.space	16
 444      00000000 
 444      00000000 
 444      00000000 
 445              		.text
 446              	.Letext0:
 447              		.file 2 "/home/lithium/Descargas/gcc-arm-none-eabi-5_3-2016q1/arm-none-eabi/include/machine/_defau
 448              		.file 3 "/home/lithium/Descargas/gcc-arm-none-eabi-5_3-2016q1/arm-none-eabi/include/sys/_stdint.h"
 449              		.file 4 "../../os/ports/GCC/ARMCMx/chcore_v6m.h"
 450              		.file 5 "../../os/hal/platforms/STM32F0xx/stm32f0xx.h"
 451              		.file 6 "../../os/hal/include/gpt.h"
 452              		.file 7 "../../os/hal/platforms/STM32/TIMv1/gpt_lld.h"
 453              		.file 8 "../../os/hal/platforms/STM32/TIMv1/stm32_tim.h"
ARM GAS  /tmp/ccZk1WAU.s 			page 9


 454              		.file 9 "../../os/ports/common/ARMCMx/nvic.h"
 455              		.section	.debug_info,"",%progbits
 456              	.Ldebug_info0:
 457 0000 E0050000 		.4byte	0x5e0
 458 0004 0400     		.2byte	0x4
 459 0006 00000000 		.4byte	.Ldebug_abbrev0
 460 000a 04       		.byte	0x4
 461 000b 01       		.uleb128 0x1
 462 000c 3B030000 		.4byte	.LASF70
 463 0010 0C       		.byte	0xc
 464 0011 E9000000 		.4byte	.LASF71
 465 0015 16010000 		.4byte	.LASF72
 466 0019 18000000 		.4byte	.Ldebug_ranges0+0x18
 467 001d 00000000 		.4byte	0
 468 0021 00000000 		.4byte	.Ldebug_line0
 469 0025 02       		.uleb128 0x2
 470 0026 04       		.byte	0x4
 471 0027 05       		.byte	0x5
 472 0028 696E7400 		.ascii	"int\000"
 473 002c 03       		.uleb128 0x3
 474 002d 04       		.byte	0x4
 475 002e 07       		.byte	0x7
 476 002f 2F020000 		.4byte	.LASF0
 477 0033 03       		.uleb128 0x3
 478 0034 08       		.byte	0x8
 479 0035 05       		.byte	0x5
 480 0036 81010000 		.4byte	.LASF1
 481 003a 03       		.uleb128 0x3
 482 003b 08       		.byte	0x8
 483 003c 04       		.byte	0x4
 484 003d C4010000 		.4byte	.LASF2
 485 0041 03       		.uleb128 0x3
 486 0042 01       		.byte	0x1
 487 0043 06       		.byte	0x6
 488 0044 03020000 		.4byte	.LASF3
 489 0048 03       		.uleb128 0x3
 490 0049 01       		.byte	0x1
 491 004a 08       		.byte	0x8
 492 004b E8010000 		.4byte	.LASF4
 493 004f 03       		.uleb128 0x3
 494 0050 02       		.byte	0x2
 495 0051 05       		.byte	0x5
 496 0052 B6000000 		.4byte	.LASF5
 497 0056 04       		.uleb128 0x4
 498 0057 AB000000 		.4byte	.LASF8
 499 005b 02       		.byte	0x2
 500 005c 2B       		.byte	0x2b
 501 005d 61000000 		.4byte	0x61
 502 0061 03       		.uleb128 0x3
 503 0062 02       		.byte	0x2
 504 0063 07       		.byte	0x7
 505 0064 5B020000 		.4byte	.LASF6
 506 0068 03       		.uleb128 0x3
 507 0069 04       		.byte	0x4
 508 006a 05       		.byte	0x5
 509 006b 94010000 		.4byte	.LASF7
 510 006f 04       		.uleb128 0x4
ARM GAS  /tmp/ccZk1WAU.s 			page 10


 511 0070 97000000 		.4byte	.LASF9
 512 0074 02       		.byte	0x2
 513 0075 41       		.byte	0x41
 514 0076 7A000000 		.4byte	0x7a
 515 007a 03       		.uleb128 0x3
 516 007b 04       		.byte	0x4
 517 007c 07       		.byte	0x7
 518 007d BA020000 		.4byte	.LASF10
 519 0081 03       		.uleb128 0x3
 520 0082 08       		.byte	0x8
 521 0083 07       		.byte	0x7
 522 0084 0F020000 		.4byte	.LASF11
 523 0088 04       		.uleb128 0x4
 524 0089 6E020000 		.4byte	.LASF12
 525 008d 03       		.byte	0x3
 526 008e 1A       		.byte	0x1a
 527 008f 56000000 		.4byte	0x56
 528 0093 04       		.uleb128 0x4
 529 0094 26020000 		.4byte	.LASF13
 530 0098 03       		.byte	0x3
 531 0099 20       		.byte	0x20
 532 009a 6F000000 		.4byte	0x6f
 533 009e 03       		.uleb128 0x3
 534 009f 01       		.byte	0x1
 535 00a0 02       		.byte	0x2
 536 00a1 88020000 		.4byte	.LASF14
 537 00a5 04       		.uleb128 0x4
 538 00a6 D8000000 		.4byte	.LASF15
 539 00aa 04       		.byte	0x4
 540 00ab A7       		.byte	0xa7
 541 00ac B0000000 		.4byte	0xb0
 542 00b0 05       		.uleb128 0x5
 543 00b1 04       		.byte	0x4
 544 00b2 06       		.uleb128 0x6
 545 00b3 93000000 		.4byte	0x93
 546 00b7 03       		.uleb128 0x3
 547 00b8 04       		.byte	0x4
 548 00b9 07       		.byte	0x7
 549 00ba 02030000 		.4byte	.LASF16
 550 00be 03       		.uleb128 0x3
 551 00bf 01       		.byte	0x1
 552 00c0 08       		.byte	0x8
 553 00c1 8F010000 		.4byte	.LASF17
 554 00c5 07       		.uleb128 0x7
 555 00c6 B2000000 		.4byte	0xb2
 556 00ca D5000000 		.4byte	0xd5
 557 00ce 08       		.uleb128 0x8
 558 00cf B7000000 		.4byte	0xb7
 559 00d3 03       		.byte	0x3
 560 00d4 00       		.byte	0
 561 00d5 09       		.uleb128 0x9
 562 00d6 38       		.byte	0x38
 563 00d7 05       		.byte	0x5
 564 00d8 1702     		.2byte	0x217
 565 00da 94010000 		.4byte	0x194
 566 00de 0A       		.uleb128 0xa
 567 00df 435200   		.ascii	"CR\000"
ARM GAS  /tmp/ccZk1WAU.s 			page 11


 568 00e2 05       		.byte	0x5
 569 00e3 1902     		.2byte	0x219
 570 00e5 B2000000 		.4byte	0xb2
 571 00e9 00       		.byte	0
 572 00ea 0B       		.uleb128 0xb
 573 00eb C7000000 		.4byte	.LASF18
 574 00ef 05       		.byte	0x5
 575 00f0 1A02     		.2byte	0x21a
 576 00f2 B2000000 		.4byte	0xb2
 577 00f6 04       		.byte	0x4
 578 00f7 0A       		.uleb128 0xa
 579 00f8 43495200 		.ascii	"CIR\000"
 580 00fc 05       		.byte	0x5
 581 00fd 1B02     		.2byte	0x21b
 582 00ff B2000000 		.4byte	0xb2
 583 0103 08       		.byte	0x8
 584 0104 0B       		.uleb128 0xb
 585 0105 B5010000 		.4byte	.LASF19
 586 0109 05       		.byte	0x5
 587 010a 1C02     		.2byte	0x21c
 588 010c B2000000 		.4byte	0xb2
 589 0110 0C       		.byte	0xc
 590 0111 0B       		.uleb128 0xb
 591 0112 10000000 		.4byte	.LASF20
 592 0116 05       		.byte	0x5
 593 0117 1D02     		.2byte	0x21d
 594 0119 B2000000 		.4byte	0xb2
 595 011d 10       		.byte	0x10
 596 011e 0B       		.uleb128 0xb
 597 011f AE010000 		.4byte	.LASF21
 598 0123 05       		.byte	0x5
 599 0124 1E02     		.2byte	0x21e
 600 0126 B2000000 		.4byte	0xb2
 601 012a 14       		.byte	0x14
 602 012b 0B       		.uleb128 0xb
 603 012c F6010000 		.4byte	.LASF22
 604 0130 05       		.byte	0x5
 605 0131 1F02     		.2byte	0x21f
 606 0133 B2000000 		.4byte	0xb2
 607 0137 18       		.byte	0x18
 608 0138 0B       		.uleb128 0xb
 609 0139 E1000000 		.4byte	.LASF23
 610 013d 05       		.byte	0x5
 611 013e 2002     		.2byte	0x220
 612 0140 B2000000 		.4byte	0xb2
 613 0144 1C       		.byte	0x1c
 614 0145 0B       		.uleb128 0xb
 615 0146 5D000000 		.4byte	.LASF24
 616 014a 05       		.byte	0x5
 617 014b 2102     		.2byte	0x221
 618 014d B2000000 		.4byte	0xb2
 619 0151 20       		.byte	0x20
 620 0152 0A       		.uleb128 0xa
 621 0153 43535200 		.ascii	"CSR\000"
 622 0157 05       		.byte	0x5
 623 0158 2202     		.2byte	0x222
 624 015a B2000000 		.4byte	0xb2
ARM GAS  /tmp/ccZk1WAU.s 			page 12


 625 015e 24       		.byte	0x24
 626 015f 0B       		.uleb128 0xb
 627 0160 79010000 		.4byte	.LASF25
 628 0164 05       		.byte	0x5
 629 0165 2302     		.2byte	0x223
 630 0167 B2000000 		.4byte	0xb2
 631 016b 28       		.byte	0x28
 632 016c 0B       		.uleb128 0xb
 633 016d 3C020000 		.4byte	.LASF26
 634 0171 05       		.byte	0x5
 635 0172 2402     		.2byte	0x224
 636 0174 B2000000 		.4byte	0xb2
 637 0178 2C       		.byte	0x2c
 638 0179 0B       		.uleb128 0xb
 639 017a 42020000 		.4byte	.LASF27
 640 017e 05       		.byte	0x5
 641 017f 2502     		.2byte	0x225
 642 0181 B2000000 		.4byte	0xb2
 643 0185 30       		.byte	0x30
 644 0186 0A       		.uleb128 0xa
 645 0187 43523200 		.ascii	"CR2\000"
 646 018b 05       		.byte	0x5
 647 018c 2602     		.2byte	0x226
 648 018e B2000000 		.4byte	0xb2
 649 0192 34       		.byte	0x34
 650 0193 00       		.byte	0
 651 0194 0C       		.uleb128 0xc
 652 0195 A2010000 		.4byte	.LASF28
 653 0199 05       		.byte	0x5
 654 019a 2702     		.2byte	0x227
 655 019c D5000000 		.4byte	0xd5
 656 01a0 0D       		.uleb128 0xd
 657 01a1 01       		.byte	0x1
 658 01a2 48000000 		.4byte	0x48
 659 01a6 06       		.byte	0x6
 660 01a7 3C       		.byte	0x3c
 661 01a8 CB010000 		.4byte	0x1cb
 662 01ac 0E       		.uleb128 0xe
 663 01ad 05000000 		.4byte	.LASF29
 664 01b1 00       		.byte	0
 665 01b2 0E       		.uleb128 0xe
 666 01b3 32030000 		.4byte	.LASF30
 667 01b7 01       		.byte	0x1
 668 01b8 0E       		.uleb128 0xe
 669 01b9 9D020000 		.4byte	.LASF31
 670 01bd 02       		.byte	0x2
 671 01be 0E       		.uleb128 0xe
 672 01bf 8E020000 		.4byte	.LASF32
 673 01c3 03       		.byte	0x3
 674 01c4 0E       		.uleb128 0xe
 675 01c5 CC000000 		.4byte	.LASF33
 676 01c9 04       		.byte	0x4
 677 01ca 00       		.byte	0
 678 01cb 04       		.uleb128 0x4
 679 01cc 5B010000 		.4byte	.LASF34
 680 01d0 06       		.byte	0x6
 681 01d1 42       		.byte	0x42
ARM GAS  /tmp/ccZk1WAU.s 			page 13


 682 01d2 A0010000 		.4byte	0x1a0
 683 01d6 04       		.uleb128 0x4
 684 01d7 A7020000 		.4byte	.LASF35
 685 01db 06       		.byte	0x6
 686 01dc 47       		.byte	0x47
 687 01dd E1010000 		.4byte	0x1e1
 688 01e1 0F       		.uleb128 0xf
 689 01e2 A7020000 		.4byte	.LASF35
 690 01e6 10       		.byte	0x10
 691 01e7 07       		.byte	0x7
 692 01e8 9001     		.2byte	0x190
 693 01ea 23020000 		.4byte	0x223
 694 01ee 0B       		.uleb128 0xb
 695 01ef DB020000 		.4byte	.LASF36
 696 01f3 07       		.byte	0x7
 697 01f4 9401     		.2byte	0x194
 698 01f6 CB010000 		.4byte	0x1cb
 699 01fa 00       		.byte	0
 700 01fb 0B       		.uleb128 0xb
 701 01fc C0000000 		.4byte	.LASF37
 702 0200 07       		.byte	0x7
 703 0201 9801     		.2byte	0x198
 704 0203 C4030000 		.4byte	0x3c4
 705 0207 04       		.byte	0x4
 706 0208 0B       		.uleb128 0xb
 707 0209 CC020000 		.4byte	.LASF38
 708 020d 07       		.byte	0x7
 709 020e A001     		.2byte	0x1a0
 710 0210 93000000 		.4byte	0x93
 711 0214 08       		.byte	0x8
 712 0215 0A       		.uleb128 0xa
 713 0216 74696D00 		.ascii	"tim\000"
 714 021a 07       		.byte	0x7
 715 021b A401     		.2byte	0x1a4
 716 021d CF030000 		.4byte	0x3cf
 717 0221 0C       		.byte	0xc
 718 0222 00       		.byte	0
 719 0223 04       		.uleb128 0x4
 720 0224 74000000 		.4byte	.LASF39
 721 0228 06       		.byte	0x6
 722 0229 4E       		.byte	0x4e
 723 022a 2E020000 		.4byte	0x22e
 724 022e 10       		.uleb128 0x10
 725 022f 04       		.byte	0x4
 726 0230 34020000 		.4byte	0x234
 727 0234 11       		.uleb128 0x11
 728 0235 3F020000 		.4byte	0x23f
 729 0239 12       		.uleb128 0x12
 730 023a 3F020000 		.4byte	0x23f
 731 023e 00       		.byte	0
 732 023f 10       		.uleb128 0x10
 733 0240 04       		.byte	0x4
 734 0241 D6010000 		.4byte	0x1d6
 735 0245 09       		.uleb128 0x9
 736 0246 60       		.byte	0x60
 737 0247 08       		.byte	0x8
 738 0248 9E01     		.2byte	0x19e
ARM GAS  /tmp/ccZk1WAU.s 			page 14


 739 024a 5E030000 		.4byte	0x35e
 740 024e 0A       		.uleb128 0xa
 741 024f 43523100 		.ascii	"CR1\000"
 742 0253 08       		.byte	0x8
 743 0254 9F01     		.2byte	0x19f
 744 0256 B2000000 		.4byte	0xb2
 745 025a 00       		.byte	0
 746 025b 0A       		.uleb128 0xa
 747 025c 43523200 		.ascii	"CR2\000"
 748 0260 08       		.byte	0x8
 749 0261 A001     		.2byte	0x1a0
 750 0263 B2000000 		.4byte	0xb2
 751 0267 04       		.byte	0x4
 752 0268 0B       		.uleb128 0xb
 753 0269 D0010000 		.4byte	.LASF40
 754 026d 08       		.byte	0x8
 755 026e A101     		.2byte	0x1a1
 756 0270 B2000000 		.4byte	0xb2
 757 0274 08       		.byte	0x8
 758 0275 0B       		.uleb128 0xb
 759 0276 56020000 		.4byte	.LASF41
 760 027a 08       		.byte	0x8
 761 027b A201     		.2byte	0x1a2
 762 027d B2000000 		.4byte	0xb2
 763 0281 0C       		.byte	0xc
 764 0282 0A       		.uleb128 0xa
 765 0283 535200   		.ascii	"SR\000"
 766 0286 08       		.byte	0x8
 767 0287 A301     		.2byte	0x1a3
 768 0289 B2000000 		.4byte	0xb2
 769 028d 10       		.byte	0x10
 770 028e 0A       		.uleb128 0xa
 771 028f 45475200 		.ascii	"EGR\000"
 772 0293 08       		.byte	0x8
 773 0294 A401     		.2byte	0x1a4
 774 0296 B2000000 		.4byte	0xb2
 775 029a 14       		.byte	0x14
 776 029b 0B       		.uleb128 0xb
 777 029c 2F000000 		.4byte	.LASF42
 778 02a0 08       		.byte	0x8
 779 02a1 A501     		.2byte	0x1a5
 780 02a3 B2000000 		.4byte	0xb2
 781 02a7 18       		.byte	0x18
 782 02a8 0B       		.uleb128 0xb
 783 02a9 35000000 		.4byte	.LASF43
 784 02ad 08       		.byte	0x8
 785 02ae A601     		.2byte	0x1a6
 786 02b0 B2000000 		.4byte	0xb2
 787 02b4 1C       		.byte	0x1c
 788 02b5 0B       		.uleb128 0xb
 789 02b6 00000000 		.4byte	.LASF44
 790 02ba 08       		.byte	0x8
 791 02bb A701     		.2byte	0x1a7
 792 02bd B2000000 		.4byte	0xb2
 793 02c1 20       		.byte	0x20
 794 02c2 0A       		.uleb128 0xa
 795 02c3 434E5400 		.ascii	"CNT\000"
ARM GAS  /tmp/ccZk1WAU.s 			page 15


 796 02c7 08       		.byte	0x8
 797 02c8 A801     		.2byte	0x1a8
 798 02ca B2000000 		.4byte	0xb2
 799 02ce 24       		.byte	0x24
 800 02cf 0A       		.uleb128 0xa
 801 02d0 50534300 		.ascii	"PSC\000"
 802 02d4 08       		.byte	0x8
 803 02d5 A901     		.2byte	0x1a9
 804 02d7 B2000000 		.4byte	0xb2
 805 02db 28       		.byte	0x28
 806 02dc 0A       		.uleb128 0xa
 807 02dd 41525200 		.ascii	"ARR\000"
 808 02e1 08       		.byte	0x8
 809 02e2 AA01     		.2byte	0x1aa
 810 02e4 B2000000 		.4byte	0xb2
 811 02e8 2C       		.byte	0x2c
 812 02e9 0A       		.uleb128 0xa
 813 02ea 52435200 		.ascii	"RCR\000"
 814 02ee 08       		.byte	0x8
 815 02ef AB01     		.2byte	0x1ab
 816 02f1 B2000000 		.4byte	0xb2
 817 02f5 30       		.byte	0x30
 818 02f6 0A       		.uleb128 0xa
 819 02f7 43435200 		.ascii	"CCR\000"
 820 02fb 08       		.byte	0x8
 821 02fc AC01     		.2byte	0x1ac
 822 02fe 5E030000 		.4byte	0x35e
 823 0302 34       		.byte	0x34
 824 0303 0B       		.uleb128 0xb
 825 0304 83020000 		.4byte	.LASF45
 826 0308 08       		.byte	0x8
 827 0309 AD01     		.2byte	0x1ad
 828 030b B2000000 		.4byte	0xb2
 829 030f 44       		.byte	0x44
 830 0310 0A       		.uleb128 0xa
 831 0311 44435200 		.ascii	"DCR\000"
 832 0315 08       		.byte	0x8
 833 0316 AE01     		.2byte	0x1ae
 834 0318 B2000000 		.4byte	0xb2
 835 031c 48       		.byte	0x48
 836 031d 0B       		.uleb128 0xb
 837 031e 2A000000 		.4byte	.LASF46
 838 0322 08       		.byte	0x8
 839 0323 AF01     		.2byte	0x1af
 840 0325 B2000000 		.4byte	0xb2
 841 0329 4C       		.byte	0x4c
 842 032a 0A       		.uleb128 0xa
 843 032b 4F5200   		.ascii	"OR\000"
 844 032e 08       		.byte	0x8
 845 032f B001     		.2byte	0x1b0
 846 0331 B2000000 		.4byte	0xb2
 847 0335 50       		.byte	0x50
 848 0336 0B       		.uleb128 0xb
 849 0337 BE010000 		.4byte	.LASF47
 850 033b 08       		.byte	0x8
 851 033c B101     		.2byte	0x1b1
 852 033e B2000000 		.4byte	0xb2
ARM GAS  /tmp/ccZk1WAU.s 			page 16


 853 0342 54       		.byte	0x54
 854 0343 0B       		.uleb128 0xb
 855 0344 9D010000 		.4byte	.LASF48
 856 0348 08       		.byte	0x8
 857 0349 B201     		.2byte	0x1b2
 858 034b B2000000 		.4byte	0xb2
 859 034f 58       		.byte	0x58
 860 0350 0B       		.uleb128 0xb
 861 0351 FE010000 		.4byte	.LASF49
 862 0355 08       		.byte	0x8
 863 0356 B301     		.2byte	0x1b3
 864 0358 B2000000 		.4byte	0xb2
 865 035c 5C       		.byte	0x5c
 866 035d 00       		.byte	0
 867 035e 06       		.uleb128 0x6
 868 035f C5000000 		.4byte	0xc5
 869 0363 0C       		.uleb128 0xc
 870 0364 77020000 		.4byte	.LASF50
 871 0368 08       		.byte	0x8
 872 0369 B401     		.2byte	0x1b4
 873 036b 45020000 		.4byte	0x245
 874 036f 0C       		.uleb128 0xc
 875 0370 28030000 		.4byte	.LASF51
 876 0374 07       		.byte	0x7
 877 0375 6D01     		.2byte	0x16d
 878 0377 93000000 		.4byte	0x93
 879 037b 0C       		.uleb128 0xc
 880 037c A2000000 		.4byte	.LASF52
 881 0380 07       		.byte	0x7
 882 0381 7201     		.2byte	0x172
 883 0383 93000000 		.4byte	0x93
 884 0387 09       		.uleb128 0x9
 885 0388 0C       		.byte	0xc
 886 0389 07       		.byte	0x7
 887 038a 7801     		.2byte	0x178
 888 038c B8030000 		.4byte	0x3b8
 889 0390 0B       		.uleb128 0xb
 890 0391 0B030000 		.4byte	.LASF53
 891 0395 07       		.byte	0x7
 892 0396 7E01     		.2byte	0x17e
 893 0398 6F030000 		.4byte	0x36f
 894 039c 00       		.byte	0
 895 039d 0B       		.uleb128 0xb
 896 039e 2D040000 		.4byte	.LASF54
 897 03a2 07       		.byte	0x7
 898 03a3 8301     		.2byte	0x183
 899 03a5 23020000 		.4byte	0x223
 900 03a9 04       		.byte	0x4
 901 03aa 0B       		.uleb128 0xb
 902 03ab FD020000 		.4byte	.LASF55
 903 03af 07       		.byte	0x7
 904 03b0 8A01     		.2byte	0x18a
 905 03b2 93000000 		.4byte	0x93
 906 03b6 08       		.byte	0x8
 907 03b7 00       		.byte	0
 908 03b8 0C       		.uleb128 0xc
 909 03b9 F3020000 		.4byte	.LASF56
ARM GAS  /tmp/ccZk1WAU.s 			page 17


 910 03bd 07       		.byte	0x7
 911 03be 8B01     		.2byte	0x18b
 912 03c0 87030000 		.4byte	0x387
 913 03c4 10       		.uleb128 0x10
 914 03c5 04       		.byte	0x4
 915 03c6 CA030000 		.4byte	0x3ca
 916 03ca 13       		.uleb128 0x13
 917 03cb B8030000 		.4byte	0x3b8
 918 03cf 10       		.uleb128 0x10
 919 03d0 04       		.byte	0x4
 920 03d1 63030000 		.4byte	0x363
 921 03d5 14       		.uleb128 0x14
 922 03d6 15030000 		.4byte	.LASF73
 923 03da 01       		.byte	0x1
 924 03db E702     		.2byte	0x2e7
 925 03dd 01       		.byte	0x1
 926 03de EF030000 		.4byte	0x3ef
 927 03e2 15       		.uleb128 0x15
 928 03e3 EE020000 		.4byte	.LASF57
 929 03e7 01       		.byte	0x1
 930 03e8 E702     		.2byte	0x2e7
 931 03ea 3F020000 		.4byte	0x23f
 932 03ee 00       		.byte	0
 933 03ef 16       		.uleb128 0x16
 934 03f0 15040000 		.4byte	.LASF74
 935 03f4 01       		.byte	0x1
 936 03f5 93       		.byte	0x93
 937 03f6 01       		.byte	0x1
 938 03f7 07040000 		.4byte	0x407
 939 03fb 17       		.uleb128 0x17
 940 03fc EE020000 		.4byte	.LASF57
 941 0400 01       		.byte	0x1
 942 0401 93       		.byte	0x93
 943 0402 3F020000 		.4byte	0x23f
 944 0406 00       		.byte	0
 945 0407 18       		.uleb128 0x18
 946 0408 B1020000 		.4byte	.LASF58
 947 040c 01       		.byte	0x1
 948 040d D0       		.byte	0xd0
 949 040e 00000000 		.4byte	.LFB41
 950 0412 34000000 		.4byte	.LFE41-.LFB41
 951 0416 01       		.uleb128 0x1
 952 0417 9C       		.byte	0x9c
 953 0418 72040000 		.4byte	0x472
 954 041c 19       		.uleb128 0x19
 955 041d 36040000 		.4byte	.LASF61
 956 0421 01       		.byte	0x1
 957 0422 D2       		.byte	0xd2
 958 0423 A5000000 		.4byte	0xa5
 959 0427 00000000 		.4byte	.LLST0
 960 042b 1A       		.uleb128 0x1a
 961 042c EF030000 		.4byte	0x3ef
 962 0430 04000000 		.4byte	.LBB8
 963 0434 00000000 		.4byte	.Ldebug_ranges0+0
 964 0438 01       		.byte	0x1
 965 0439 D4       		.byte	0xd4
 966 043a 61040000 		.4byte	0x461
ARM GAS  /tmp/ccZk1WAU.s 			page 18


 967 043e 1B       		.uleb128 0x1b
 968 043f FB030000 		.4byte	0x3fb
 969 0443 13000000 		.4byte	.LLST1
 970 0447 1C       		.uleb128 0x1c
 971 0448 D5030000 		.4byte	0x3d5
 972 044c 16000000 		.4byte	.LBB10
 973 0450 0C000000 		.4byte	.LBE10-.LBB10
 974 0454 01       		.byte	0x1
 975 0455 98       		.byte	0x98
 976 0456 1B       		.uleb128 0x1b
 977 0457 E2030000 		.4byte	0x3e2
 978 045b 2B000000 		.4byte	.LLST2
 979 045f 00       		.byte	0
 980 0460 00       		.byte	0
 981 0461 1D       		.uleb128 0x1d
 982 0462 2E000000 		.4byte	.LVL4
 983 0466 B4050000 		.4byte	0x5b4
 984 046a 1E       		.uleb128 0x1e
 985 046b 01       		.uleb128 0x1
 986 046c 50       		.byte	0x50
 987 046d 02       		.uleb128 0x2
 988 046e 74       		.byte	0x74
 989 046f 00       		.sleb128 0
 990 0470 00       		.byte	0
 991 0471 00       		.byte	0
 992 0472 1F       		.uleb128 0x1f
 993 0473 6C010000 		.4byte	.LASF59
 994 0477 01       		.byte	0x1
 995 0478 8E01     		.2byte	0x18e
 996 047a 00000000 		.4byte	.LFB42
 997 047e 18000000 		.4byte	.LFE42-.LFB42
 998 0482 01       		.uleb128 0x1
 999 0483 9C       		.byte	0x9c
 1000 0484 9C040000 		.4byte	0x49c
 1001 0488 1D       		.uleb128 0x1d
 1002 0489 0C000000 		.4byte	.LVL6
 1003 048d C0050000 		.4byte	0x5c0
 1004 0491 1E       		.uleb128 0x1e
 1005 0492 01       		.uleb128 0x1
 1006 0493 50       		.byte	0x50
 1007 0494 05       		.uleb128 0x5
 1008 0495 03       		.byte	0x3
 1009 0496 00000000 		.4byte	.LANCHOR0
 1010 049a 00       		.byte	0
 1011 049b 00       		.byte	0
 1012 049c 20       		.uleb128 0x20
 1013 049d 48020000 		.4byte	.LASF60
 1014 04a1 01       		.byte	0x1
 1015 04a2 E001     		.2byte	0x1e0
 1016 04a4 00000000 		.4byte	.LFB43
 1017 04a8 60000000 		.4byte	.LFE43-.LFB43
 1018 04ac 01       		.uleb128 0x1
 1019 04ad 9C       		.byte	0x9c
 1020 04ae E8040000 		.4byte	0x4e8
 1021 04b2 21       		.uleb128 0x21
 1022 04b3 EE020000 		.4byte	.LASF57
 1023 04b7 01       		.byte	0x1
ARM GAS  /tmp/ccZk1WAU.s 			page 19


 1024 04b8 E001     		.2byte	0x1e0
 1025 04ba 3F020000 		.4byte	0x23f
 1026 04be 43000000 		.4byte	.LLST3
 1027 04c2 22       		.uleb128 0x22
 1028 04c3 70736300 		.ascii	"psc\000"
 1029 04c7 01       		.byte	0x1
 1030 04c8 E101     		.2byte	0x1e1
 1031 04ca 88000000 		.4byte	0x88
 1032 04ce 85000000 		.4byte	.LLST4
 1033 04d2 1D       		.uleb128 0x1d
 1034 04d3 4E000000 		.4byte	.LVL14
 1035 04d7 CB050000 		.4byte	0x5cb
 1036 04db 1E       		.uleb128 0x1e
 1037 04dc 01       		.uleb128 0x1
 1038 04dd 50       		.byte	0x50
 1039 04de 01       		.uleb128 0x1
 1040 04df 40       		.byte	0x40
 1041 04e0 1E       		.uleb128 0x1e
 1042 04e1 01       		.uleb128 0x1
 1043 04e2 51       		.byte	0x51
 1044 04e3 02       		.uleb128 0x2
 1045 04e4 08       		.byte	0x8
 1046 04e5 80       		.byte	0x80
 1047 04e6 00       		.byte	0
 1048 04e7 00       		.byte	0
 1049 04e8 1F       		.uleb128 0x1f
 1050 04e9 E1020000 		.4byte	.LASF62
 1051 04ed 01       		.byte	0x1
 1052 04ee 7802     		.2byte	0x278
 1053 04f0 00000000 		.4byte	.LFB44
 1054 04f4 34000000 		.4byte	.LFE44-.LFB44
 1055 04f8 01       		.uleb128 0x1
 1056 04f9 9C       		.byte	0x9c
 1057 04fa 1E050000 		.4byte	0x51e
 1058 04fe 21       		.uleb128 0x21
 1059 04ff EE020000 		.4byte	.LASF57
 1060 0503 01       		.byte	0x1
 1061 0504 7802     		.2byte	0x278
 1062 0506 3F020000 		.4byte	0x23f
 1063 050a 98000000 		.4byte	.LLST5
 1064 050e 1D       		.uleb128 0x1d
 1065 050f 20000000 		.4byte	.LVL19
 1066 0513 D7050000 		.4byte	0x5d7
 1067 0517 1E       		.uleb128 0x1e
 1068 0518 01       		.uleb128 0x1
 1069 0519 50       		.byte	0x50
 1070 051a 01       		.uleb128 0x1
 1071 051b 40       		.byte	0x40
 1072 051c 00       		.byte	0
 1073 051d 00       		.byte	0
 1074 051e 1F       		.uleb128 0x1f
 1075 051f 3B000000 		.4byte	.LASF63
 1076 0523 01       		.byte	0x1
 1077 0524 D202     		.2byte	0x2d2
 1078 0526 00000000 		.4byte	.LFB45
 1079 052a 1C000000 		.4byte	.LFE45-.LFB45
 1080 052e 01       		.uleb128 0x1
ARM GAS  /tmp/ccZk1WAU.s 			page 20


 1081 052f 9C       		.byte	0x9c
 1082 0530 53050000 		.4byte	0x553
 1083 0534 23       		.uleb128 0x23
 1084 0535 EE020000 		.4byte	.LASF57
 1085 0539 01       		.byte	0x1
 1086 053a D202     		.2byte	0x2d2
 1087 053c 3F020000 		.4byte	0x23f
 1088 0540 01       		.uleb128 0x1
 1089 0541 50       		.byte	0x50
 1090 0542 21       		.uleb128 0x21
 1091 0543 D2020000 		.4byte	.LASF64
 1092 0547 01       		.byte	0x1
 1093 0548 D202     		.2byte	0x2d2
 1094 054a 7B030000 		.4byte	0x37b
 1095 054e D2000000 		.4byte	.LLST6
 1096 0552 00       		.byte	0
 1097 0553 24       		.uleb128 0x24
 1098 0554 D5030000 		.4byte	0x3d5
 1099 0558 00000000 		.4byte	.LFB46
 1100 055c 12000000 		.4byte	.LFE46-.LFB46
 1101 0560 01       		.uleb128 0x1
 1102 0561 9C       		.byte	0x9c
 1103 0562 6E050000 		.4byte	0x56e
 1104 0566 25       		.uleb128 0x25
 1105 0567 E2030000 		.4byte	0x3e2
 1106 056b 01       		.uleb128 0x1
 1107 056c 50       		.byte	0x50
 1108 056d 00       		.byte	0
 1109 056e 1F       		.uleb128 0x1f
 1110 056f 82000000 		.4byte	.LASF65
 1111 0573 01       		.byte	0x1
 1112 0574 FB02     		.2byte	0x2fb
 1113 0576 00000000 		.4byte	.LFB47
 1114 057a 1C000000 		.4byte	.LFE47-.LFB47
 1115 057e 01       		.uleb128 0x1
 1116 057f 9C       		.byte	0x9c
 1117 0580 A3050000 		.4byte	0x5a3
 1118 0584 23       		.uleb128 0x23
 1119 0585 EE020000 		.4byte	.LASF57
 1120 0589 01       		.byte	0x1
 1121 058a FB02     		.2byte	0x2fb
 1122 058c 3F020000 		.4byte	0x23f
 1123 0590 01       		.uleb128 0x1
 1124 0591 50       		.byte	0x50
 1125 0592 21       		.uleb128 0x21
 1126 0593 D2020000 		.4byte	.LASF64
 1127 0597 01       		.byte	0x1
 1128 0598 FB02     		.2byte	0x2fb
 1129 059a 7B030000 		.4byte	0x37b
 1130 059e 10010000 		.4byte	.LLST7
 1131 05a2 00       		.byte	0
 1132 05a3 26       		.uleb128 0x26
 1133 05a4 66010000 		.4byte	.LASF75
 1134 05a8 01       		.byte	0x1
 1135 05a9 3B       		.byte	0x3b
 1136 05aa D6010000 		.4byte	0x1d6
 1137 05ae 05       		.uleb128 0x5
ARM GAS  /tmp/ccZk1WAU.s 			page 21


 1138 05af 03       		.byte	0x3
 1139 05b0 00000000 		.4byte	GPTD3
 1140 05b4 27       		.uleb128 0x27
 1141 05b5 D5010000 		.4byte	.LASF66
 1142 05b9 D5010000 		.4byte	.LASF66
 1143 05bd 04       		.byte	0x4
 1144 05be 7201     		.2byte	0x172
 1145 05c0 28       		.uleb128 0x28
 1146 05c1 4F000000 		.4byte	.LASF67
 1147 05c5 4F000000 		.4byte	.LASF67
 1148 05c9 06       		.byte	0x6
 1149 05ca 6F       		.byte	0x6f
 1150 05cb 27       		.uleb128 0x27
 1151 05cc 19000000 		.4byte	.LASF68
 1152 05d0 19000000 		.4byte	.LASF68
 1153 05d4 09       		.byte	0x9
 1154 05d5 2301     		.2byte	0x123
 1155 05d7 27       		.uleb128 0x27
 1156 05d8 62000000 		.4byte	.LASF69
 1157 05dc 62000000 		.4byte	.LASF69
 1158 05e0 09       		.byte	0x9
 1159 05e1 2401     		.2byte	0x124
 1160 05e3 00       		.byte	0
 1161              		.section	.debug_abbrev,"",%progbits
 1162              	.Ldebug_abbrev0:
 1163 0000 01       		.uleb128 0x1
 1164 0001 11       		.uleb128 0x11
 1165 0002 01       		.byte	0x1
 1166 0003 25       		.uleb128 0x25
 1167 0004 0E       		.uleb128 0xe
 1168 0005 13       		.uleb128 0x13
 1169 0006 0B       		.uleb128 0xb
 1170 0007 03       		.uleb128 0x3
 1171 0008 0E       		.uleb128 0xe
 1172 0009 1B       		.uleb128 0x1b
 1173 000a 0E       		.uleb128 0xe
 1174 000b 55       		.uleb128 0x55
 1175 000c 17       		.uleb128 0x17
 1176 000d 11       		.uleb128 0x11
 1177 000e 01       		.uleb128 0x1
 1178 000f 10       		.uleb128 0x10
 1179 0010 17       		.uleb128 0x17
 1180 0011 00       		.byte	0
 1181 0012 00       		.byte	0
 1182 0013 02       		.uleb128 0x2
 1183 0014 24       		.uleb128 0x24
 1184 0015 00       		.byte	0
 1185 0016 0B       		.uleb128 0xb
 1186 0017 0B       		.uleb128 0xb
 1187 0018 3E       		.uleb128 0x3e
 1188 0019 0B       		.uleb128 0xb
 1189 001a 03       		.uleb128 0x3
 1190 001b 08       		.uleb128 0x8
 1191 001c 00       		.byte	0
 1192 001d 00       		.byte	0
 1193 001e 03       		.uleb128 0x3
 1194 001f 24       		.uleb128 0x24
ARM GAS  /tmp/ccZk1WAU.s 			page 22


 1195 0020 00       		.byte	0
 1196 0021 0B       		.uleb128 0xb
 1197 0022 0B       		.uleb128 0xb
 1198 0023 3E       		.uleb128 0x3e
 1199 0024 0B       		.uleb128 0xb
 1200 0025 03       		.uleb128 0x3
 1201 0026 0E       		.uleb128 0xe
 1202 0027 00       		.byte	0
 1203 0028 00       		.byte	0
 1204 0029 04       		.uleb128 0x4
 1205 002a 16       		.uleb128 0x16
 1206 002b 00       		.byte	0
 1207 002c 03       		.uleb128 0x3
 1208 002d 0E       		.uleb128 0xe
 1209 002e 3A       		.uleb128 0x3a
 1210 002f 0B       		.uleb128 0xb
 1211 0030 3B       		.uleb128 0x3b
 1212 0031 0B       		.uleb128 0xb
 1213 0032 49       		.uleb128 0x49
 1214 0033 13       		.uleb128 0x13
 1215 0034 00       		.byte	0
 1216 0035 00       		.byte	0
 1217 0036 05       		.uleb128 0x5
 1218 0037 0F       		.uleb128 0xf
 1219 0038 00       		.byte	0
 1220 0039 0B       		.uleb128 0xb
 1221 003a 0B       		.uleb128 0xb
 1222 003b 00       		.byte	0
 1223 003c 00       		.byte	0
 1224 003d 06       		.uleb128 0x6
 1225 003e 35       		.uleb128 0x35
 1226 003f 00       		.byte	0
 1227 0040 49       		.uleb128 0x49
 1228 0041 13       		.uleb128 0x13
 1229 0042 00       		.byte	0
 1230 0043 00       		.byte	0
 1231 0044 07       		.uleb128 0x7
 1232 0045 01       		.uleb128 0x1
 1233 0046 01       		.byte	0x1
 1234 0047 49       		.uleb128 0x49
 1235 0048 13       		.uleb128 0x13
 1236 0049 01       		.uleb128 0x1
 1237 004a 13       		.uleb128 0x13
 1238 004b 00       		.byte	0
 1239 004c 00       		.byte	0
 1240 004d 08       		.uleb128 0x8
 1241 004e 21       		.uleb128 0x21
 1242 004f 00       		.byte	0
 1243 0050 49       		.uleb128 0x49
 1244 0051 13       		.uleb128 0x13
 1245 0052 2F       		.uleb128 0x2f
 1246 0053 0B       		.uleb128 0xb
 1247 0054 00       		.byte	0
 1248 0055 00       		.byte	0
 1249 0056 09       		.uleb128 0x9
 1250 0057 13       		.uleb128 0x13
 1251 0058 01       		.byte	0x1
ARM GAS  /tmp/ccZk1WAU.s 			page 23


 1252 0059 0B       		.uleb128 0xb
 1253 005a 0B       		.uleb128 0xb
 1254 005b 3A       		.uleb128 0x3a
 1255 005c 0B       		.uleb128 0xb
 1256 005d 3B       		.uleb128 0x3b
 1257 005e 05       		.uleb128 0x5
 1258 005f 01       		.uleb128 0x1
 1259 0060 13       		.uleb128 0x13
 1260 0061 00       		.byte	0
 1261 0062 00       		.byte	0
 1262 0063 0A       		.uleb128 0xa
 1263 0064 0D       		.uleb128 0xd
 1264 0065 00       		.byte	0
 1265 0066 03       		.uleb128 0x3
 1266 0067 08       		.uleb128 0x8
 1267 0068 3A       		.uleb128 0x3a
 1268 0069 0B       		.uleb128 0xb
 1269 006a 3B       		.uleb128 0x3b
 1270 006b 05       		.uleb128 0x5
 1271 006c 49       		.uleb128 0x49
 1272 006d 13       		.uleb128 0x13
 1273 006e 38       		.uleb128 0x38
 1274 006f 0B       		.uleb128 0xb
 1275 0070 00       		.byte	0
 1276 0071 00       		.byte	0
 1277 0072 0B       		.uleb128 0xb
 1278 0073 0D       		.uleb128 0xd
 1279 0074 00       		.byte	0
 1280 0075 03       		.uleb128 0x3
 1281 0076 0E       		.uleb128 0xe
 1282 0077 3A       		.uleb128 0x3a
 1283 0078 0B       		.uleb128 0xb
 1284 0079 3B       		.uleb128 0x3b
 1285 007a 05       		.uleb128 0x5
 1286 007b 49       		.uleb128 0x49
 1287 007c 13       		.uleb128 0x13
 1288 007d 38       		.uleb128 0x38
 1289 007e 0B       		.uleb128 0xb
 1290 007f 00       		.byte	0
 1291 0080 00       		.byte	0
 1292 0081 0C       		.uleb128 0xc
 1293 0082 16       		.uleb128 0x16
 1294 0083 00       		.byte	0
 1295 0084 03       		.uleb128 0x3
 1296 0085 0E       		.uleb128 0xe
 1297 0086 3A       		.uleb128 0x3a
 1298 0087 0B       		.uleb128 0xb
 1299 0088 3B       		.uleb128 0x3b
 1300 0089 05       		.uleb128 0x5
 1301 008a 49       		.uleb128 0x49
 1302 008b 13       		.uleb128 0x13
 1303 008c 00       		.byte	0
 1304 008d 00       		.byte	0
 1305 008e 0D       		.uleb128 0xd
 1306 008f 04       		.uleb128 0x4
 1307 0090 01       		.byte	0x1
 1308 0091 0B       		.uleb128 0xb
ARM GAS  /tmp/ccZk1WAU.s 			page 24


 1309 0092 0B       		.uleb128 0xb
 1310 0093 49       		.uleb128 0x49
 1311 0094 13       		.uleb128 0x13
 1312 0095 3A       		.uleb128 0x3a
 1313 0096 0B       		.uleb128 0xb
 1314 0097 3B       		.uleb128 0x3b
 1315 0098 0B       		.uleb128 0xb
 1316 0099 01       		.uleb128 0x1
 1317 009a 13       		.uleb128 0x13
 1318 009b 00       		.byte	0
 1319 009c 00       		.byte	0
 1320 009d 0E       		.uleb128 0xe
 1321 009e 28       		.uleb128 0x28
 1322 009f 00       		.byte	0
 1323 00a0 03       		.uleb128 0x3
 1324 00a1 0E       		.uleb128 0xe
 1325 00a2 1C       		.uleb128 0x1c
 1326 00a3 0B       		.uleb128 0xb
 1327 00a4 00       		.byte	0
 1328 00a5 00       		.byte	0
 1329 00a6 0F       		.uleb128 0xf
 1330 00a7 13       		.uleb128 0x13
 1331 00a8 01       		.byte	0x1
 1332 00a9 03       		.uleb128 0x3
 1333 00aa 0E       		.uleb128 0xe
 1334 00ab 0B       		.uleb128 0xb
 1335 00ac 0B       		.uleb128 0xb
 1336 00ad 3A       		.uleb128 0x3a
 1337 00ae 0B       		.uleb128 0xb
 1338 00af 3B       		.uleb128 0x3b
 1339 00b0 05       		.uleb128 0x5
 1340 00b1 01       		.uleb128 0x1
 1341 00b2 13       		.uleb128 0x13
 1342 00b3 00       		.byte	0
 1343 00b4 00       		.byte	0
 1344 00b5 10       		.uleb128 0x10
 1345 00b6 0F       		.uleb128 0xf
 1346 00b7 00       		.byte	0
 1347 00b8 0B       		.uleb128 0xb
 1348 00b9 0B       		.uleb128 0xb
 1349 00ba 49       		.uleb128 0x49
 1350 00bb 13       		.uleb128 0x13
 1351 00bc 00       		.byte	0
 1352 00bd 00       		.byte	0
 1353 00be 11       		.uleb128 0x11
 1354 00bf 15       		.uleb128 0x15
 1355 00c0 01       		.byte	0x1
 1356 00c1 27       		.uleb128 0x27
 1357 00c2 19       		.uleb128 0x19
 1358 00c3 01       		.uleb128 0x1
 1359 00c4 13       		.uleb128 0x13
 1360 00c5 00       		.byte	0
 1361 00c6 00       		.byte	0
 1362 00c7 12       		.uleb128 0x12
 1363 00c8 05       		.uleb128 0x5
 1364 00c9 00       		.byte	0
 1365 00ca 49       		.uleb128 0x49
ARM GAS  /tmp/ccZk1WAU.s 			page 25


 1366 00cb 13       		.uleb128 0x13
 1367 00cc 00       		.byte	0
 1368 00cd 00       		.byte	0
 1369 00ce 13       		.uleb128 0x13
 1370 00cf 26       		.uleb128 0x26
 1371 00d0 00       		.byte	0
 1372 00d1 49       		.uleb128 0x49
 1373 00d2 13       		.uleb128 0x13
 1374 00d3 00       		.byte	0
 1375 00d4 00       		.byte	0
 1376 00d5 14       		.uleb128 0x14
 1377 00d6 2E       		.uleb128 0x2e
 1378 00d7 01       		.byte	0x1
 1379 00d8 3F       		.uleb128 0x3f
 1380 00d9 19       		.uleb128 0x19
 1381 00da 03       		.uleb128 0x3
 1382 00db 0E       		.uleb128 0xe
 1383 00dc 3A       		.uleb128 0x3a
 1384 00dd 0B       		.uleb128 0xb
 1385 00de 3B       		.uleb128 0x3b
 1386 00df 05       		.uleb128 0x5
 1387 00e0 27       		.uleb128 0x27
 1388 00e1 19       		.uleb128 0x19
 1389 00e2 20       		.uleb128 0x20
 1390 00e3 0B       		.uleb128 0xb
 1391 00e4 01       		.uleb128 0x1
 1392 00e5 13       		.uleb128 0x13
 1393 00e6 00       		.byte	0
 1394 00e7 00       		.byte	0
 1395 00e8 15       		.uleb128 0x15
 1396 00e9 05       		.uleb128 0x5
 1397 00ea 00       		.byte	0
 1398 00eb 03       		.uleb128 0x3
 1399 00ec 0E       		.uleb128 0xe
 1400 00ed 3A       		.uleb128 0x3a
 1401 00ee 0B       		.uleb128 0xb
 1402 00ef 3B       		.uleb128 0x3b
 1403 00f0 05       		.uleb128 0x5
 1404 00f1 49       		.uleb128 0x49
 1405 00f2 13       		.uleb128 0x13
 1406 00f3 00       		.byte	0
 1407 00f4 00       		.byte	0
 1408 00f5 16       		.uleb128 0x16
 1409 00f6 2E       		.uleb128 0x2e
 1410 00f7 01       		.byte	0x1
 1411 00f8 03       		.uleb128 0x3
 1412 00f9 0E       		.uleb128 0xe
 1413 00fa 3A       		.uleb128 0x3a
 1414 00fb 0B       		.uleb128 0xb
 1415 00fc 3B       		.uleb128 0x3b
 1416 00fd 0B       		.uleb128 0xb
 1417 00fe 27       		.uleb128 0x27
 1418 00ff 19       		.uleb128 0x19
 1419 0100 20       		.uleb128 0x20
 1420 0101 0B       		.uleb128 0xb
 1421 0102 01       		.uleb128 0x1
 1422 0103 13       		.uleb128 0x13
ARM GAS  /tmp/ccZk1WAU.s 			page 26


 1423 0104 00       		.byte	0
 1424 0105 00       		.byte	0
 1425 0106 17       		.uleb128 0x17
 1426 0107 05       		.uleb128 0x5
 1427 0108 00       		.byte	0
 1428 0109 03       		.uleb128 0x3
 1429 010a 0E       		.uleb128 0xe
 1430 010b 3A       		.uleb128 0x3a
 1431 010c 0B       		.uleb128 0xb
 1432 010d 3B       		.uleb128 0x3b
 1433 010e 0B       		.uleb128 0xb
 1434 010f 49       		.uleb128 0x49
 1435 0110 13       		.uleb128 0x13
 1436 0111 00       		.byte	0
 1437 0112 00       		.byte	0
 1438 0113 18       		.uleb128 0x18
 1439 0114 2E       		.uleb128 0x2e
 1440 0115 01       		.byte	0x1
 1441 0116 3F       		.uleb128 0x3f
 1442 0117 19       		.uleb128 0x19
 1443 0118 03       		.uleb128 0x3
 1444 0119 0E       		.uleb128 0xe
 1445 011a 3A       		.uleb128 0x3a
 1446 011b 0B       		.uleb128 0xb
 1447 011c 3B       		.uleb128 0x3b
 1448 011d 0B       		.uleb128 0xb
 1449 011e 27       		.uleb128 0x27
 1450 011f 19       		.uleb128 0x19
 1451 0120 11       		.uleb128 0x11
 1452 0121 01       		.uleb128 0x1
 1453 0122 12       		.uleb128 0x12
 1454 0123 06       		.uleb128 0x6
 1455 0124 40       		.uleb128 0x40
 1456 0125 18       		.uleb128 0x18
 1457 0126 9642     		.uleb128 0x2116
 1458 0128 19       		.uleb128 0x19
 1459 0129 01       		.uleb128 0x1
 1460 012a 13       		.uleb128 0x13
 1461 012b 00       		.byte	0
 1462 012c 00       		.byte	0
 1463 012d 19       		.uleb128 0x19
 1464 012e 34       		.uleb128 0x34
 1465 012f 00       		.byte	0
 1466 0130 03       		.uleb128 0x3
 1467 0131 0E       		.uleb128 0xe
 1468 0132 3A       		.uleb128 0x3a
 1469 0133 0B       		.uleb128 0xb
 1470 0134 3B       		.uleb128 0x3b
 1471 0135 0B       		.uleb128 0xb
 1472 0136 49       		.uleb128 0x49
 1473 0137 13       		.uleb128 0x13
 1474 0138 02       		.uleb128 0x2
 1475 0139 17       		.uleb128 0x17
 1476 013a 00       		.byte	0
 1477 013b 00       		.byte	0
 1478 013c 1A       		.uleb128 0x1a
 1479 013d 1D       		.uleb128 0x1d
ARM GAS  /tmp/ccZk1WAU.s 			page 27


 1480 013e 01       		.byte	0x1
 1481 013f 31       		.uleb128 0x31
 1482 0140 13       		.uleb128 0x13
 1483 0141 52       		.uleb128 0x52
 1484 0142 01       		.uleb128 0x1
 1485 0143 55       		.uleb128 0x55
 1486 0144 17       		.uleb128 0x17
 1487 0145 58       		.uleb128 0x58
 1488 0146 0B       		.uleb128 0xb
 1489 0147 59       		.uleb128 0x59
 1490 0148 0B       		.uleb128 0xb
 1491 0149 01       		.uleb128 0x1
 1492 014a 13       		.uleb128 0x13
 1493 014b 00       		.byte	0
 1494 014c 00       		.byte	0
 1495 014d 1B       		.uleb128 0x1b
 1496 014e 05       		.uleb128 0x5
 1497 014f 00       		.byte	0
 1498 0150 31       		.uleb128 0x31
 1499 0151 13       		.uleb128 0x13
 1500 0152 02       		.uleb128 0x2
 1501 0153 17       		.uleb128 0x17
 1502 0154 00       		.byte	0
 1503 0155 00       		.byte	0
 1504 0156 1C       		.uleb128 0x1c
 1505 0157 1D       		.uleb128 0x1d
 1506 0158 01       		.byte	0x1
 1507 0159 31       		.uleb128 0x31
 1508 015a 13       		.uleb128 0x13
 1509 015b 11       		.uleb128 0x11
 1510 015c 01       		.uleb128 0x1
 1511 015d 12       		.uleb128 0x12
 1512 015e 06       		.uleb128 0x6
 1513 015f 58       		.uleb128 0x58
 1514 0160 0B       		.uleb128 0xb
 1515 0161 59       		.uleb128 0x59
 1516 0162 0B       		.uleb128 0xb
 1517 0163 00       		.byte	0
 1518 0164 00       		.byte	0
 1519 0165 1D       		.uleb128 0x1d
 1520 0166 898201   		.uleb128 0x4109
 1521 0169 01       		.byte	0x1
 1522 016a 11       		.uleb128 0x11
 1523 016b 01       		.uleb128 0x1
 1524 016c 31       		.uleb128 0x31
 1525 016d 13       		.uleb128 0x13
 1526 016e 00       		.byte	0
 1527 016f 00       		.byte	0
 1528 0170 1E       		.uleb128 0x1e
 1529 0171 8A8201   		.uleb128 0x410a
 1530 0174 00       		.byte	0
 1531 0175 02       		.uleb128 0x2
 1532 0176 18       		.uleb128 0x18
 1533 0177 9142     		.uleb128 0x2111
 1534 0179 18       		.uleb128 0x18
 1535 017a 00       		.byte	0
 1536 017b 00       		.byte	0
ARM GAS  /tmp/ccZk1WAU.s 			page 28


 1537 017c 1F       		.uleb128 0x1f
 1538 017d 2E       		.uleb128 0x2e
 1539 017e 01       		.byte	0x1
 1540 017f 3F       		.uleb128 0x3f
 1541 0180 19       		.uleb128 0x19
 1542 0181 03       		.uleb128 0x3
 1543 0182 0E       		.uleb128 0xe
 1544 0183 3A       		.uleb128 0x3a
 1545 0184 0B       		.uleb128 0xb
 1546 0185 3B       		.uleb128 0x3b
 1547 0186 05       		.uleb128 0x5
 1548 0187 27       		.uleb128 0x27
 1549 0188 19       		.uleb128 0x19
 1550 0189 11       		.uleb128 0x11
 1551 018a 01       		.uleb128 0x1
 1552 018b 12       		.uleb128 0x12
 1553 018c 06       		.uleb128 0x6
 1554 018d 40       		.uleb128 0x40
 1555 018e 18       		.uleb128 0x18
 1556 018f 9742     		.uleb128 0x2117
 1557 0191 19       		.uleb128 0x19
 1558 0192 01       		.uleb128 0x1
 1559 0193 13       		.uleb128 0x13
 1560 0194 00       		.byte	0
 1561 0195 00       		.byte	0
 1562 0196 20       		.uleb128 0x20
 1563 0197 2E       		.uleb128 0x2e
 1564 0198 01       		.byte	0x1
 1565 0199 3F       		.uleb128 0x3f
 1566 019a 19       		.uleb128 0x19
 1567 019b 03       		.uleb128 0x3
 1568 019c 0E       		.uleb128 0xe
 1569 019d 3A       		.uleb128 0x3a
 1570 019e 0B       		.uleb128 0xb
 1571 019f 3B       		.uleb128 0x3b
 1572 01a0 05       		.uleb128 0x5
 1573 01a1 27       		.uleb128 0x27
 1574 01a2 19       		.uleb128 0x19
 1575 01a3 11       		.uleb128 0x11
 1576 01a4 01       		.uleb128 0x1
 1577 01a5 12       		.uleb128 0x12
 1578 01a6 06       		.uleb128 0x6
 1579 01a7 40       		.uleb128 0x40
 1580 01a8 18       		.uleb128 0x18
 1581 01a9 9642     		.uleb128 0x2116
 1582 01ab 19       		.uleb128 0x19
 1583 01ac 01       		.uleb128 0x1
 1584 01ad 13       		.uleb128 0x13
 1585 01ae 00       		.byte	0
 1586 01af 00       		.byte	0
 1587 01b0 21       		.uleb128 0x21
 1588 01b1 05       		.uleb128 0x5
 1589 01b2 00       		.byte	0
 1590 01b3 03       		.uleb128 0x3
 1591 01b4 0E       		.uleb128 0xe
 1592 01b5 3A       		.uleb128 0x3a
 1593 01b6 0B       		.uleb128 0xb
ARM GAS  /tmp/ccZk1WAU.s 			page 29


 1594 01b7 3B       		.uleb128 0x3b
 1595 01b8 05       		.uleb128 0x5
 1596 01b9 49       		.uleb128 0x49
 1597 01ba 13       		.uleb128 0x13
 1598 01bb 02       		.uleb128 0x2
 1599 01bc 17       		.uleb128 0x17
 1600 01bd 00       		.byte	0
 1601 01be 00       		.byte	0
 1602 01bf 22       		.uleb128 0x22
 1603 01c0 34       		.uleb128 0x34
 1604 01c1 00       		.byte	0
 1605 01c2 03       		.uleb128 0x3
 1606 01c3 08       		.uleb128 0x8
 1607 01c4 3A       		.uleb128 0x3a
 1608 01c5 0B       		.uleb128 0xb
 1609 01c6 3B       		.uleb128 0x3b
 1610 01c7 05       		.uleb128 0x5
 1611 01c8 49       		.uleb128 0x49
 1612 01c9 13       		.uleb128 0x13
 1613 01ca 02       		.uleb128 0x2
 1614 01cb 17       		.uleb128 0x17
 1615 01cc 00       		.byte	0
 1616 01cd 00       		.byte	0
 1617 01ce 23       		.uleb128 0x23
 1618 01cf 05       		.uleb128 0x5
 1619 01d0 00       		.byte	0
 1620 01d1 03       		.uleb128 0x3
 1621 01d2 0E       		.uleb128 0xe
 1622 01d3 3A       		.uleb128 0x3a
 1623 01d4 0B       		.uleb128 0xb
 1624 01d5 3B       		.uleb128 0x3b
 1625 01d6 05       		.uleb128 0x5
 1626 01d7 49       		.uleb128 0x49
 1627 01d8 13       		.uleb128 0x13
 1628 01d9 02       		.uleb128 0x2
 1629 01da 18       		.uleb128 0x18
 1630 01db 00       		.byte	0
 1631 01dc 00       		.byte	0
 1632 01dd 24       		.uleb128 0x24
 1633 01de 2E       		.uleb128 0x2e
 1634 01df 01       		.byte	0x1
 1635 01e0 31       		.uleb128 0x31
 1636 01e1 13       		.uleb128 0x13
 1637 01e2 11       		.uleb128 0x11
 1638 01e3 01       		.uleb128 0x1
 1639 01e4 12       		.uleb128 0x12
 1640 01e5 06       		.uleb128 0x6
 1641 01e6 40       		.uleb128 0x40
 1642 01e7 18       		.uleb128 0x18
 1643 01e8 9742     		.uleb128 0x2117
 1644 01ea 19       		.uleb128 0x19
 1645 01eb 01       		.uleb128 0x1
 1646 01ec 13       		.uleb128 0x13
 1647 01ed 00       		.byte	0
 1648 01ee 00       		.byte	0
 1649 01ef 25       		.uleb128 0x25
 1650 01f0 05       		.uleb128 0x5
ARM GAS  /tmp/ccZk1WAU.s 			page 30


 1651 01f1 00       		.byte	0
 1652 01f2 31       		.uleb128 0x31
 1653 01f3 13       		.uleb128 0x13
 1654 01f4 02       		.uleb128 0x2
 1655 01f5 18       		.uleb128 0x18
 1656 01f6 00       		.byte	0
 1657 01f7 00       		.byte	0
 1658 01f8 26       		.uleb128 0x26
 1659 01f9 34       		.uleb128 0x34
 1660 01fa 00       		.byte	0
 1661 01fb 03       		.uleb128 0x3
 1662 01fc 0E       		.uleb128 0xe
 1663 01fd 3A       		.uleb128 0x3a
 1664 01fe 0B       		.uleb128 0xb
 1665 01ff 3B       		.uleb128 0x3b
 1666 0200 0B       		.uleb128 0xb
 1667 0201 49       		.uleb128 0x49
 1668 0202 13       		.uleb128 0x13
 1669 0203 3F       		.uleb128 0x3f
 1670 0204 19       		.uleb128 0x19
 1671 0205 02       		.uleb128 0x2
 1672 0206 18       		.uleb128 0x18
 1673 0207 00       		.byte	0
 1674 0208 00       		.byte	0
 1675 0209 27       		.uleb128 0x27
 1676 020a 2E       		.uleb128 0x2e
 1677 020b 00       		.byte	0
 1678 020c 3F       		.uleb128 0x3f
 1679 020d 19       		.uleb128 0x19
 1680 020e 3C       		.uleb128 0x3c
 1681 020f 19       		.uleb128 0x19
 1682 0210 6E       		.uleb128 0x6e
 1683 0211 0E       		.uleb128 0xe
 1684 0212 03       		.uleb128 0x3
 1685 0213 0E       		.uleb128 0xe
 1686 0214 3A       		.uleb128 0x3a
 1687 0215 0B       		.uleb128 0xb
 1688 0216 3B       		.uleb128 0x3b
 1689 0217 05       		.uleb128 0x5
 1690 0218 00       		.byte	0
 1691 0219 00       		.byte	0
 1692 021a 28       		.uleb128 0x28
 1693 021b 2E       		.uleb128 0x2e
 1694 021c 00       		.byte	0
 1695 021d 3F       		.uleb128 0x3f
 1696 021e 19       		.uleb128 0x19
 1697 021f 3C       		.uleb128 0x3c
 1698 0220 19       		.uleb128 0x19
 1699 0221 6E       		.uleb128 0x6e
 1700 0222 0E       		.uleb128 0xe
 1701 0223 03       		.uleb128 0x3
 1702 0224 0E       		.uleb128 0xe
 1703 0225 3A       		.uleb128 0x3a
 1704 0226 0B       		.uleb128 0xb
 1705 0227 3B       		.uleb128 0x3b
 1706 0228 0B       		.uleb128 0xb
 1707 0229 00       		.byte	0
ARM GAS  /tmp/ccZk1WAU.s 			page 31


 1708 022a 00       		.byte	0
 1709 022b 00       		.byte	0
 1710              		.section	.debug_loc,"",%progbits
 1711              	.Ldebug_loc0:
 1712              	.LLST0:
 1713 0000 04000000 		.4byte	.LVL0
 1714 0004 2E000000 		.4byte	.LVL5
 1715 0008 0100     		.2byte	0x1
 1716 000a 54       		.byte	0x54
 1717 000b 00000000 		.4byte	0
 1718 000f 00000000 		.4byte	0
 1719              	.LLST1:
 1720 0013 04000000 		.4byte	.LVL0
 1721 0017 28000000 		.4byte	.LVL3
 1722 001b 0600     		.2byte	0x6
 1723 001d 03       		.byte	0x3
 1724 001e 00000000 		.4byte	GPTD3
 1725 0022 9F       		.byte	0x9f
 1726 0023 00000000 		.4byte	0
 1727 0027 00000000 		.4byte	0
 1728              	.LLST2:
 1729 002b 16000000 		.4byte	.LVL1
 1730 002f 22000000 		.4byte	.LVL2
 1731 0033 0600     		.2byte	0x6
 1732 0035 03       		.byte	0x3
 1733 0036 00000000 		.4byte	GPTD3
 1734 003a 9F       		.byte	0x9f
 1735 003b 00000000 		.4byte	0
 1736 003f 00000000 		.4byte	0
 1737              	.LLST3:
 1738 0043 00000000 		.4byte	.LVL7
 1739 0047 0A000000 		.4byte	.LVL8
 1740 004b 0100     		.2byte	0x1
 1741 004d 50       		.byte	0x50
 1742 004e 0A000000 		.4byte	.LVL8
 1743 0052 2A000000 		.4byte	.LVL11
 1744 0056 0100     		.2byte	0x1
 1745 0058 54       		.byte	0x54
 1746 0059 2A000000 		.4byte	.LVL11
 1747 005d 2C000000 		.4byte	.LVL12
 1748 0061 0400     		.2byte	0x4
 1749 0063 F3       		.byte	0xf3
 1750 0064 01       		.uleb128 0x1
 1751 0065 50       		.byte	0x50
 1752 0066 9F       		.byte	0x9f
 1753 0067 2C000000 		.4byte	.LVL12
 1754 006b 38000000 		.4byte	.LVL13
 1755 006f 0100     		.2byte	0x1
 1756 0071 50       		.byte	0x50
 1757 0072 38000000 		.4byte	.LVL13
 1758 0076 60000000 		.4byte	.LFE43
 1759 007a 0100     		.2byte	0x1
 1760 007c 54       		.byte	0x54
 1761 007d 00000000 		.4byte	0
 1762 0081 00000000 		.4byte	0
 1763              	.LLST4:
 1764 0085 24000000 		.4byte	.LVL10
ARM GAS  /tmp/ccZk1WAU.s 			page 32


 1765 0089 2C000000 		.4byte	.LVL12
 1766 008d 0100     		.2byte	0x1
 1767 008f 50       		.byte	0x50
 1768 0090 00000000 		.4byte	0
 1769 0094 00000000 		.4byte	0
 1770              	.LLST5:
 1771 0098 00000000 		.4byte	.LVL15
 1772 009c 08000000 		.4byte	.LVL16
 1773 00a0 0100     		.2byte	0x1
 1774 00a2 50       		.byte	0x50
 1775 00a3 08000000 		.4byte	.LVL16
 1776 00a7 0A000000 		.4byte	.LVL17
 1777 00ab 0400     		.2byte	0x4
 1778 00ad F3       		.byte	0xf3
 1779 00ae 01       		.uleb128 0x1
 1780 00af 50       		.byte	0x50
 1781 00b0 9F       		.byte	0x9f
 1782 00b1 0A000000 		.4byte	.LVL17
 1783 00b5 1C000000 		.4byte	.LVL18
 1784 00b9 0100     		.2byte	0x1
 1785 00bb 50       		.byte	0x50
 1786 00bc 1C000000 		.4byte	.LVL18
 1787 00c0 34000000 		.4byte	.LFE44
 1788 00c4 0400     		.2byte	0x4
 1789 00c6 F3       		.byte	0xf3
 1790 00c7 01       		.uleb128 0x1
 1791 00c8 50       		.byte	0x50
 1792 00c9 9F       		.byte	0x9f
 1793 00ca 00000000 		.4byte	0
 1794 00ce 00000000 		.4byte	0
 1795              	.LLST6:
 1796 00d2 00000000 		.4byte	.LVL20
 1797 00d6 04000000 		.4byte	.LVL21
 1798 00da 0100     		.2byte	0x1
 1799 00dc 51       		.byte	0x51
 1800 00dd 04000000 		.4byte	.LVL21
 1801 00e1 0A000000 		.4byte	.LVL22
 1802 00e5 0300     		.2byte	0x3
 1803 00e7 71       		.byte	0x71
 1804 00e8 01       		.sleb128 1
 1805 00e9 9F       		.byte	0x9f
 1806 00ea 0A000000 		.4byte	.LVL22
 1807 00ee 0C000000 		.4byte	.LVL23
 1808 00f2 0600     		.2byte	0x6
 1809 00f4 73       		.byte	0x73
 1810 00f5 2C       		.sleb128 44
 1811 00f6 06       		.byte	0x6
 1812 00f7 23       		.byte	0x23
 1813 00f8 01       		.uleb128 0x1
 1814 00f9 9F       		.byte	0x9f
 1815 00fa 0C000000 		.4byte	.LVL23
 1816 00fe 1C000000 		.4byte	.LFE45
 1817 0102 0400     		.2byte	0x4
 1818 0104 F3       		.byte	0xf3
 1819 0105 01       		.uleb128 0x1
 1820 0106 51       		.byte	0x51
 1821 0107 9F       		.byte	0x9f
ARM GAS  /tmp/ccZk1WAU.s 			page 33


 1822 0108 00000000 		.4byte	0
 1823 010c 00000000 		.4byte	0
 1824              	.LLST7:
 1825 0110 00000000 		.4byte	.LVL25
 1826 0114 06000000 		.4byte	.LVL26
 1827 0118 0100     		.2byte	0x1
 1828 011a 51       		.byte	0x51
 1829 011b 06000000 		.4byte	.LVL26
 1830 011f 0E000000 		.4byte	.LVL27
 1831 0123 0300     		.2byte	0x3
 1832 0125 71       		.byte	0x71
 1833 0126 01       		.sleb128 1
 1834 0127 9F       		.byte	0x9f
 1835 0128 0E000000 		.4byte	.LVL27
 1836 012c 1C000000 		.4byte	.LFE47
 1837 0130 0400     		.2byte	0x4
 1838 0132 F3       		.byte	0xf3
 1839 0133 01       		.uleb128 0x1
 1840 0134 51       		.byte	0x51
 1841 0135 9F       		.byte	0x9f
 1842 0136 00000000 		.4byte	0
 1843 013a 00000000 		.4byte	0
 1844              		.section	.debug_aranges,"",%progbits
 1845 0000 4C000000 		.4byte	0x4c
 1846 0004 0200     		.2byte	0x2
 1847 0006 00000000 		.4byte	.Ldebug_info0
 1848 000a 04       		.byte	0x4
 1849 000b 00       		.byte	0
 1850 000c 0000     		.2byte	0
 1851 000e 0000     		.2byte	0
 1852 0010 00000000 		.4byte	.LFB41
 1853 0014 34000000 		.4byte	.LFE41-.LFB41
 1854 0018 00000000 		.4byte	.LFB42
 1855 001c 18000000 		.4byte	.LFE42-.LFB42
 1856 0020 00000000 		.4byte	.LFB43
 1857 0024 60000000 		.4byte	.LFE43-.LFB43
 1858 0028 00000000 		.4byte	.LFB44
 1859 002c 34000000 		.4byte	.LFE44-.LFB44
 1860 0030 00000000 		.4byte	.LFB45
 1861 0034 1C000000 		.4byte	.LFE45-.LFB45
 1862 0038 00000000 		.4byte	.LFB46
 1863 003c 12000000 		.4byte	.LFE46-.LFB46
 1864 0040 00000000 		.4byte	.LFB47
 1865 0044 1C000000 		.4byte	.LFE47-.LFB47
 1866 0048 00000000 		.4byte	0
 1867 004c 00000000 		.4byte	0
 1868              		.section	.debug_ranges,"",%progbits
 1869              	.Ldebug_ranges0:
 1870 0000 04000000 		.4byte	.LBB8
 1871 0004 24000000 		.4byte	.LBE8
 1872 0008 24000000 		.4byte	.LBB13
 1873 000c 28000000 		.4byte	.LBE13
 1874 0010 00000000 		.4byte	0
 1875 0014 00000000 		.4byte	0
 1876 0018 00000000 		.4byte	.LFB41
 1877 001c 34000000 		.4byte	.LFE41
 1878 0020 00000000 		.4byte	.LFB42
ARM GAS  /tmp/ccZk1WAU.s 			page 34


 1879 0024 18000000 		.4byte	.LFE42
 1880 0028 00000000 		.4byte	.LFB43
 1881 002c 60000000 		.4byte	.LFE43
 1882 0030 00000000 		.4byte	.LFB44
 1883 0034 34000000 		.4byte	.LFE44
 1884 0038 00000000 		.4byte	.LFB45
 1885 003c 1C000000 		.4byte	.LFE45
 1886 0040 00000000 		.4byte	.LFB46
 1887 0044 12000000 		.4byte	.LFE46
 1888 0048 00000000 		.4byte	.LFB47
 1889 004c 1C000000 		.4byte	.LFE47
 1890 0050 00000000 		.4byte	0
 1891 0054 00000000 		.4byte	0
 1892              		.section	.debug_line,"",%progbits
 1893              	.Ldebug_line0:
 1894 0000 B6020000 		.section	.debug_str,"MS",%progbits,1
 1894      0200C101 
 1894      00000201 
 1894      FB0E0D00 
 1894      01010101 
 1895              	.LASF44:
 1896 0000 43434552 		.ascii	"CCER\000"
 1896      00
 1897              	.LASF29:
 1898 0005 4750545F 		.ascii	"GPT_UNINIT\000"
 1898      554E494E 
 1898      495400
 1899              	.LASF20:
 1900 0010 41504231 		.ascii	"APB1RSTR\000"
 1900      52535452 
 1900      00
 1901              	.LASF68:
 1902 0019 6E766963 		.ascii	"nvicEnableVector\000"
 1902      456E6162 
 1902      6C655665 
 1902      63746F72 
 1902      00
 1903              	.LASF46:
 1904 002a 444D4152 		.ascii	"DMAR\000"
 1904      00
 1905              	.LASF42:
 1906 002f 43434D52 		.ascii	"CCMR1\000"
 1906      3100
 1907              	.LASF43:
 1908 0035 43434D52 		.ascii	"CCMR2\000"
 1908      3200
 1909              	.LASF63:
 1910 003b 6770745F 		.ascii	"gpt_lld_start_timer\000"
 1910      6C6C645F 
 1910      73746172 
 1910      745F7469 
 1910      6D657200 
 1911              	.LASF67:
 1912 004f 6770744F 		.ascii	"gptObjectInit\000"
 1912      626A6563 
 1912      74496E69 
 1912      7400
ARM GAS  /tmp/ccZk1WAU.s 			page 35


 1913              	.LASF24:
 1914 005d 42444352 		.ascii	"BDCR\000"
 1914      00
 1915              	.LASF69:
 1916 0062 6E766963 		.ascii	"nvicDisableVector\000"
 1916      44697361 
 1916      626C6556 
 1916      6563746F 
 1916      7200
 1917              	.LASF39:
 1918 0074 67707463 		.ascii	"gptcallback_t\000"
 1918      616C6C62 
 1918      61636B5F 
 1918      7400
 1919              	.LASF65:
 1920 0082 6770745F 		.ascii	"gpt_lld_polled_delay\000"
 1920      6C6C645F 
 1920      706F6C6C 
 1920      65645F64 
 1920      656C6179 
 1921              	.LASF9:
 1922 0097 5F5F7569 		.ascii	"__uint32_t\000"
 1922      6E743332 
 1922      5F7400
 1923              	.LASF52:
 1924 00a2 67707463 		.ascii	"gptcnt_t\000"
 1924      6E745F74 
 1924      00
 1925              	.LASF8:
 1926 00ab 5F5F7569 		.ascii	"__uint16_t\000"
 1926      6E743136 
 1926      5F7400
 1927              	.LASF5:
 1928 00b6 73686F72 		.ascii	"short int\000"
 1928      7420696E 
 1928      7400
 1929              	.LASF37:
 1930 00c0 636F6E66 		.ascii	"config\000"
 1930      696700
 1931              	.LASF18:
 1932 00c7 43464752 		.ascii	"CFGR\000"
 1932      00
 1933              	.LASF33:
 1934 00cc 4750545F 		.ascii	"GPT_ONESHOT\000"
 1934      4F4E4553 
 1934      484F5400 
 1935              	.LASF15:
 1936 00d8 72656761 		.ascii	"regarm_t\000"
 1936      726D5F74 
 1936      00
 1937              	.LASF23:
 1938 00e1 41504231 		.ascii	"APB1ENR\000"
 1938      454E5200 
 1939              	.LASF71:
 1940 00e9 2E2E2F2E 		.ascii	"../../os/hal/platforms/STM32/TIMv1/gpt_lld.c\000"
 1940      2E2F6F73 
 1940      2F68616C 
ARM GAS  /tmp/ccZk1WAU.s 			page 36


 1940      2F706C61 
 1940      74666F72 
 1941              	.LASF72:
 1942 0116 2F686F6D 		.ascii	"/home/lithium/Documentos/BikeTracker/ChibiOS_2.6.8/"
 1942      652F6C69 
 1942      74686975 
 1942      6D2F446F 
 1942      63756D65 
 1943 0149 64656D6F 		.ascii	"demos/BikeTracker\000"
 1943      732F4269 
 1943      6B655472 
 1943      61636B65 
 1943      7200
 1944              	.LASF34:
 1945 015b 67707473 		.ascii	"gptstate_t\000"
 1945      74617465 
 1945      5F7400
 1946              	.LASF75:
 1947 0166 47505444 		.ascii	"GPTD3\000"
 1947      3300
 1948              	.LASF59:
 1949 016c 6770745F 		.ascii	"gpt_lld_init\000"
 1949      6C6C645F 
 1949      696E6974 
 1949      00
 1950              	.LASF25:
 1951 0179 41484252 		.ascii	"AHBRSTR\000"
 1951      53545200 
 1952              	.LASF1:
 1953 0181 6C6F6E67 		.ascii	"long long int\000"
 1953      206C6F6E 
 1953      6720696E 
 1953      7400
 1954              	.LASF17:
 1955 018f 63686172 		.ascii	"char\000"
 1955      00
 1956              	.LASF7:
 1957 0194 6C6F6E67 		.ascii	"long int\000"
 1957      20696E74 
 1957      00
 1958              	.LASF48:
 1959 019d 43435235 		.ascii	"CCR5\000"
 1959      00
 1960              	.LASF28:
 1961 01a2 5243435F 		.ascii	"RCC_TypeDef\000"
 1961      54797065 
 1961      44656600 
 1962              	.LASF21:
 1963 01ae 41484245 		.ascii	"AHBENR\000"
 1963      4E5200
 1964              	.LASF19:
 1965 01b5 41504232 		.ascii	"APB2RSTR\000"
 1965      52535452 
 1965      00
 1966              	.LASF47:
 1967 01be 43434D52 		.ascii	"CCMR3\000"
 1967      3300
ARM GAS  /tmp/ccZk1WAU.s 			page 37


 1968              	.LASF2:
 1969 01c4 6C6F6E67 		.ascii	"long double\000"
 1969      20646F75 
 1969      626C6500 
 1970              	.LASF40:
 1971 01d0 534D4352 		.ascii	"SMCR\000"
 1971      00
 1972              	.LASF66:
 1973 01d5 5F706F72 		.ascii	"_port_irq_epilogue\000"
 1973      745F6972 
 1973      715F6570 
 1973      696C6F67 
 1973      756500
 1974              	.LASF4:
 1975 01e8 756E7369 		.ascii	"unsigned char\000"
 1975      676E6564 
 1975      20636861 
 1975      7200
 1976              	.LASF22:
 1977 01f6 41504232 		.ascii	"APB2ENR\000"
 1977      454E5200 
 1978              	.LASF49:
 1979 01fe 43435236 		.ascii	"CCR6\000"
 1979      00
 1980              	.LASF3:
 1981 0203 7369676E 		.ascii	"signed char\000"
 1981      65642063 
 1981      68617200 
 1982              	.LASF11:
 1983 020f 6C6F6E67 		.ascii	"long long unsigned int\000"
 1983      206C6F6E 
 1983      6720756E 
 1983      7369676E 
 1983      65642069 
 1984              	.LASF13:
 1985 0226 75696E74 		.ascii	"uint32_t\000"
 1985      33325F74 
 1985      00
 1986              	.LASF0:
 1987 022f 756E7369 		.ascii	"unsigned int\000"
 1987      676E6564 
 1987      20696E74 
 1987      00
 1988              	.LASF26:
 1989 023c 43464752 		.ascii	"CFGR2\000"
 1989      3200
 1990              	.LASF27:
 1991 0242 43464752 		.ascii	"CFGR3\000"
 1991      3300
 1992              	.LASF60:
 1993 0248 6770745F 		.ascii	"gpt_lld_start\000"
 1993      6C6C645F 
 1993      73746172 
 1993      7400
 1994              	.LASF41:
 1995 0256 44494552 		.ascii	"DIER\000"
 1995      00
ARM GAS  /tmp/ccZk1WAU.s 			page 38


 1996              	.LASF6:
 1997 025b 73686F72 		.ascii	"short unsigned int\000"
 1997      7420756E 
 1997      7369676E 
 1997      65642069 
 1997      6E7400
 1998              	.LASF12:
 1999 026e 75696E74 		.ascii	"uint16_t\000"
 1999      31365F74 
 1999      00
 2000              	.LASF50:
 2001 0277 73746D33 		.ascii	"stm32_tim_t\000"
 2001      325F7469 
 2001      6D5F7400 
 2002              	.LASF45:
 2003 0283 42445452 		.ascii	"BDTR\000"
 2003      00
 2004              	.LASF14:
 2005 0288 5F426F6F 		.ascii	"_Bool\000"
 2005      6C00
 2006              	.LASF32:
 2007 028e 4750545F 		.ascii	"GPT_CONTINUOUS\000"
 2007      434F4E54 
 2007      494E554F 
 2007      555300
 2008              	.LASF31:
 2009 029d 4750545F 		.ascii	"GPT_READY\000"
 2009      52454144 
 2009      5900
 2010              	.LASF35:
 2011 02a7 47505444 		.ascii	"GPTDriver\000"
 2011      72697665 
 2011      7200
 2012              	.LASF58:
 2013 02b1 56656374 		.ascii	"Vector80\000"
 2013      6F723830 
 2013      00
 2014              	.LASF10:
 2015 02ba 6C6F6E67 		.ascii	"long unsigned int\000"
 2015      20756E73 
 2015      69676E65 
 2015      6420696E 
 2015      7400
 2016              	.LASF38:
 2017 02cc 636C6F63 		.ascii	"clock\000"
 2017      6B00
 2018              	.LASF64:
 2019 02d2 696E7465 		.ascii	"interval\000"
 2019      7276616C 
 2019      00
 2020              	.LASF36:
 2021 02db 73746174 		.ascii	"state\000"
 2021      6500
 2022              	.LASF62:
 2023 02e1 6770745F 		.ascii	"gpt_lld_stop\000"
 2023      6C6C645F 
 2023      73746F70 
ARM GAS  /tmp/ccZk1WAU.s 			page 39


 2023      00
 2024              	.LASF57:
 2025 02ee 67707470 		.ascii	"gptp\000"
 2025      00
 2026              	.LASF56:
 2027 02f3 47505443 		.ascii	"GPTConfig\000"
 2027      6F6E6669 
 2027      6700
 2028              	.LASF55:
 2029 02fd 64696572 		.ascii	"dier\000"
 2029      00
 2030              	.LASF16:
 2031 0302 73697A65 		.ascii	"sizetype\000"
 2031      74797065 
 2031      00
 2032              	.LASF53:
 2033 030b 66726571 		.ascii	"frequency\000"
 2033      75656E63 
 2033      7900
 2034              	.LASF73:
 2035 0315 6770745F 		.ascii	"gpt_lld_stop_timer\000"
 2035      6C6C645F 
 2035      73746F70 
 2035      5F74696D 
 2035      657200
 2036              	.LASF51:
 2037 0328 67707466 		.ascii	"gptfreq_t\000"
 2037      7265715F 
 2037      7400
 2038              	.LASF30:
 2039 0332 4750545F 		.ascii	"GPT_STOP\000"
 2039      53544F50 
 2039      00
 2040              	.LASF70:
 2041 033b 474E5520 		.ascii	"GNU C11 5.3.1 20160307 (release) [ARM/embedded-5-br"
 2041      43313120 
 2041      352E332E 
 2041      31203230 
 2041      31363033 
 2042 036e 616E6368 		.ascii	"anch revision 234589] -mcpu=cortex-m0 -mno-thumb-in"
 2042      20726576 
 2042      6973696F 
 2042      6E203233 
 2042      34353839 
 2043 03a1 74657277 		.ascii	"terwork -mthumb -ggdb -O2 -fomit-frame-pointer -fal"
 2043      6F726B20 
 2043      2D6D7468 
 2043      756D6220 
 2043      2D676764 
 2044 03d4 69676E2D 		.ascii	"ign-functions=16 -ffunction-sections -fdata-section"
 2044      66756E63 
 2044      74696F6E 
 2044      733D3136 
 2044      202D6666 
 2045 0407 73202D66 		.ascii	"s -fno-common\000"
 2045      6E6F2D63 
 2045      6F6D6D6F 
ARM GAS  /tmp/ccZk1WAU.s 			page 40


 2045      6E00
 2046              	.LASF74:
 2047 0415 6770745F 		.ascii	"gpt_lld_serve_interrupt\000"
 2047      6C6C645F 
 2047      73657276 
 2047      655F696E 
 2047      74657272 
 2048              	.LASF54:
 2049 042d 63616C6C 		.ascii	"callback\000"
 2049      6261636B 
 2049      00
 2050              	.LASF61:
 2051 0436 5F736176 		.ascii	"_saved_lr\000"
 2051      65645F6C 
 2051      7200
 2052              		.ident	"GCC: (GNU Tools for ARM Embedded Processors) 5.3.1 20160307 (release) [ARM/embedded-5-bran
ARM GAS  /tmp/ccZk1WAU.s 			page 41


DEFINED SYMBOLS
                            *ABS*:00000000 gpt_lld.c
     /tmp/ccZk1WAU.s:20     .text.Vector80:00000000 $t
     /tmp/ccZk1WAU.s:26     .text.Vector80:00000000 Vector80
     /tmp/ccZk1WAU.s:101    .text.Vector80:00000030 $d
     /tmp/ccZk1WAU.s:106    .text.gpt_lld_init:00000000 $t
     /tmp/ccZk1WAU.s:112    .text.gpt_lld_init:00000000 gpt_lld_init
     /tmp/ccZk1WAU.s:137    .text.gpt_lld_init:00000010 $d
     /tmp/ccZk1WAU.s:144    .text.gpt_lld_start:00000000 $t
     /tmp/ccZk1WAU.s:150    .text.gpt_lld_start:00000000 gpt_lld_start
     /tmp/ccZk1WAU.s:242    .text.gpt_lld_start:00000054 $d
     /tmp/ccZk1WAU.s:249    .text.gpt_lld_stop:00000000 $t
     /tmp/ccZk1WAU.s:255    .text.gpt_lld_stop:00000000 gpt_lld_stop
     /tmp/ccZk1WAU.s:304    .text.gpt_lld_stop:0000002c $d
     /tmp/ccZk1WAU.s:310    .text.gpt_lld_start_timer:00000000 $t
     /tmp/ccZk1WAU.s:316    .text.gpt_lld_start_timer:00000000 gpt_lld_start_timer
     /tmp/ccZk1WAU.s:357    .text.gpt_lld_stop_timer:00000000 $t
     /tmp/ccZk1WAU.s:363    .text.gpt_lld_stop_timer:00000000 gpt_lld_stop_timer
     /tmp/ccZk1WAU.s:393    .text.gpt_lld_polled_delay:00000000 $t
     /tmp/ccZk1WAU.s:399    .text.gpt_lld_polled_delay:00000000 gpt_lld_polled_delay
     /tmp/ccZk1WAU.s:443    .bss.GPTD3:00000000 GPTD3
     /tmp/ccZk1WAU.s:439    .bss.GPTD3:00000000 $d
                     .debug_frame:00000010 $d

UNDEFINED SYMBOLS
_port_irq_epilogue
gptObjectInit
__aeabi_uidiv
nvicEnableVector
nvicDisableVector
