ARM GAS  /tmp/ccZk1WAU.s 			page 1


   1              		.syntax unified
   2              		.cpu cortex-m0
   3              		.fpu softvfp
   4              		.eabi_attribute 20, 1
   5              		.eabi_attribute 21, 1
   6              		.eabi_attribute 23, 3
   7              		.eabi_attribute 24, 1
   8              		.eabi_attribute 25, 1
   9              		.eabi_attribute 26, 1
  10              		.eabi_attribute 30, 2
  11              		.eabi_attribute 34, 0
  12              		.eabi_attribute 18, 4
  13              		.thumb
  14              		.syntax unified
  15              		.file	"gpt_lld.c"
  16              		.text
  17              	.Ltext0:
  18              		.cfi_sections	.debug_frame
  19              		.section	.text.Vector80,"ax",%progbits
  20              		.align	2
  21              		.p2align 4,,15
  22              		.global	Vector80
  23              		.code	16
  24              		.thumb_func
  25              		.type	Vector80, %function
  26              	Vector80:
  27              	.LFB41:
  28              		.file 1 "../../os/hal/platforms/STM32/TIMv1/gpt_lld.c"
  29              		.loc 1 208 0
  30              		.cfi_startproc
  31              		@ args = 0, pretend = 0, frame = 0
  32              		@ frame_needed = 0, uses_anonymous_args = 0
  33 0000 10B5     		push	{r4, lr}
  34              		.cfi_def_cfa_offset 8
  35              		.cfi_offset 4, -8
  36              		.cfi_offset 14, -4
  37              		.loc 1 210 0
  38              		.syntax divided
  39              	@ 210 "../../os/hal/platforms/STM32/TIMv1/gpt_lld.c" 1
  40 0002 7446     		mov     r4, lr
  41              	@ 0 "" 2
  42              	.LVL0:
  43              		.thumb
  44              		.syntax unified
  45              	.LBB8:
  46              	.LBB9:
  47              		.loc 1 149 0
  48 0004 0022     		movs	r2, #0
  49 0006 0A48     		ldr	r0, .L4
  50 0008 C368     		ldr	r3, [r0, #12]
  51              		.loc 1 150 0
  52 000a 0178     		ldrb	r1, [r0]
  53              		.loc 1 149 0
  54 000c 1A61     		str	r2, [r3, #16]
  55              		.loc 1 150 0
  56 000e 0429     		cmp	r1, #4
  57 0010 07D1     		bne	.L2
ARM GAS  /tmp/ccZk1WAU.s 			page 2


  58              		.loc 1 151 0
  59 0012 0239     		subs	r1, r1, #2
  60 0014 0170     		strb	r1, [r0]
  61              	.LVL1:
  62              	.LBB10:
  63              	.LBB11:
  64              		.loc 1 745 0
  65 0016 1A60     		str	r2, [r3]
  66              		.loc 1 746 0
  67 0018 1A61     		str	r2, [r3, #16]
  68              		.loc 1 749 0
  69 001a DA68     		ldr	r2, [r3, #12]
  70 001c FD31     		adds	r1, r1, #253
  71 001e 8A43     		bics	r2, r1
  72 0020 DA60     		str	r2, [r3, #12]
  73              	.LVL2:
  74              	.L2:
  75              	.LBE11:
  76              	.LBE10:
  77              		.loc 1 154 0
  78 0022 4368     		ldr	r3, [r0, #4]
  79              	.LBE9:
  80              	.LBE8:
  81              		.loc 1 215 0
  82              		@ sp needed
  83              	.LBB13:
  84              	.LBB12:
  85              		.loc 1 154 0
  86 0024 5B68     		ldr	r3, [r3, #4]
  87 0026 9847     		blx	r3
  88              	.LVL3:
  89              	.LBE12:
  90              	.LBE13:
  91              		.loc 1 214 0
  92 0028 2000     		movs	r0, r4
  93 002a FFF7FEFF 		bl	_port_irq_epilogue
  94              	.LVL4:
  95              	.LVL5:
  96              		.loc 1 215 0
  97 002e 10BD     		pop	{r4, pc}
  98              	.L5:
  99              		.align	2
 100              	.L4:
 101 0030 00000000 		.word	.LANCHOR0
 102              		.cfi_endproc
 103              	.LFE41:
 104              		.size	Vector80, .-Vector80
 105              		.section	.text.gpt_lld_init,"ax",%progbits
 106              		.align	2
 107              		.p2align 4,,15
 108              		.global	gpt_lld_init
 109              		.code	16
 110              		.thumb_func
 111              		.type	gpt_lld_init, %function
 112              	gpt_lld_init:
 113              	.LFB42:
 114              		.loc 1 398 0
ARM GAS  /tmp/ccZk1WAU.s 			page 3


 115              		.cfi_startproc
 116              		@ args = 0, pretend = 0, frame = 0
 117              		@ frame_needed = 0, uses_anonymous_args = 0
 118 0000 10B5     		push	{r4, lr}
 119              		.cfi_def_cfa_offset 8
 120              		.cfi_offset 4, -8
 121              		.cfi_offset 14, -4
 122              		.loc 1 414 0
 123 0002 0348     		ldr	r0, .L7
 124 0004 034B     		ldr	r3, .L7+4
 125              		.loc 1 471 0
 126              		@ sp needed
 127              		.loc 1 414 0
 128 0006 C360     		str	r3, [r0, #12]
 129              		.loc 1 415 0
 130 0008 FFF7FEFF 		bl	gptObjectInit
 131              	.LVL6:
 132              		.loc 1 471 0
 133 000c 10BD     		pop	{r4, pc}
 134              	.L8:
 135 000e C046     		.align	2
 136              	.L7:
 137 0010 00000000 		.word	.LANCHOR0
 138 0014 00040040 		.word	1073742848
 139              		.cfi_endproc
 140              	.LFE42:
 141              		.size	gpt_lld_init, .-gpt_lld_init
 142              		.global	__aeabi_uidiv
 143              		.section	.text.gpt_lld_start,"ax",%progbits
 144              		.align	2
 145              		.p2align 4,,15
 146              		.global	gpt_lld_start
 147              		.code	16
 148              		.thumb_func
 149              		.type	gpt_lld_start, %function
 150              	gpt_lld_start:
 151              	.LFB43:
 152              		.loc 1 480 0
 153              		.cfi_startproc
 154              		@ args = 0, pretend = 0, frame = 0
 155              		@ frame_needed = 0, uses_anonymous_args = 0
 156              	.LVL7:
 157              		.loc 1 483 0
 158 0000 0378     		ldrb	r3, [r0]
 159              		.loc 1 480 0
 160 0002 70B5     		push	{r4, r5, r6, lr}
 161              		.cfi_def_cfa_offset 16
 162              		.cfi_offset 4, -16
 163              		.cfi_offset 5, -12
 164              		.cfi_offset 6, -8
 165              		.cfi_offset 14, -4
 166              		.loc 1 480 0
 167 0004 0400     		movs	r4, r0
 168              		.loc 1 483 0
 169 0006 012B     		cmp	r3, #1
 170 0008 10D0     		beq	.L11
 171              	.LVL8:
ARM GAS  /tmp/ccZk1WAU.s 			page 4


 172              	.L10:
 173              		.loc 1 612 0
 174 000a 6568     		ldr	r5, [r4, #4]
 175 000c A068     		ldr	r0, [r4, #8]
 176 000e 2968     		ldr	r1, [r5]
 177 0010 FFF7FEFF 		bl	__aeabi_uidiv
 178              	.LVL9:
 179              		.loc 1 617 0
 180 0014 0022     		movs	r2, #0
 181              		.loc 1 618 0
 182 0016 0821     		movs	r1, #8
 183              		.loc 1 617 0
 184 0018 E368     		ldr	r3, [r4, #12]
 185              		.loc 1 612 0
 186 001a 0138     		subs	r0, r0, #1
 187              		.loc 1 617 0
 188 001c 1A60     		str	r2, [r3]
 189              		.loc 1 618 0
 190 001e 5960     		str	r1, [r3, #4]
 191              		.loc 1 620 0
 192 0020 297A     		ldrb	r1, [r5, #8]
 193              		.loc 1 612 0
 194 0022 80B2     		uxth	r0, r0
 195              	.LVL10:
 196              		.loc 1 619 0
 197 0024 9862     		str	r0, [r3, #40]
 198              		.loc 1 623 0
 199              		@ sp needed
 200              		.loc 1 620 0
 201 0026 D960     		str	r1, [r3, #12]
 202              		.loc 1 622 0
 203 0028 1A61     		str	r2, [r3, #16]
 204              	.LVL11:
 205              		.loc 1 623 0
 206 002a 70BD     		pop	{r4, r5, r6, pc}
 207              	.LVL12:
 208              	.L11:
 209              		.loc 1 508 0
 210 002c 094B     		ldr	r3, .L12
 211 002e 9842     		cmp	r0, r3
 212 0030 EBD1     		bne	.L10
 213              		.loc 1 509 0
 214 0032 0222     		movs	r2, #2
 215 0034 084B     		ldr	r3, .L12+4
 216              		.loc 1 511 0
 217 0036 1020     		movs	r0, #16
 218              	.LVL13:
 219              		.loc 1 509 0
 220 0038 D969     		ldr	r1, [r3, #28]
 221 003a 1143     		orrs	r1, r2
 222 003c D961     		str	r1, [r3, #28]
 223              		.loc 1 510 0
 224 003e 1969     		ldr	r1, [r3, #16]
 225 0040 0A43     		orrs	r2, r1
 226 0042 1A61     		str	r2, [r3, #16]
 227 0044 0022     		movs	r2, #0
 228              		.loc 1 511 0
ARM GAS  /tmp/ccZk1WAU.s 			page 5


 229 0046 8021     		movs	r1, #128
 230              		.loc 1 510 0
 231 0048 1A61     		str	r2, [r3, #16]
 232              		.loc 1 511 0
 233 004a FFF7FEFF 		bl	nvicEnableVector
 234              	.LVL14:
 235              		.loc 1 513 0
 236 004e 034B     		ldr	r3, .L12+8
 237 0050 A360     		str	r3, [r4, #8]
 238 0052 DAE7     		b	.L10
 239              	.L13:
 240              		.align	2
 241              	.L12:
 242 0054 00000000 		.word	.LANCHOR0
 243 0058 00100240 		.word	1073876992
 244 005c 006CDC02 		.word	48000000
 245              		.cfi_endproc
 246              	.LFE43:
 247              		.size	gpt_lld_start, .-gpt_lld_start
 248              		.section	.text.gpt_lld_stop,"ax",%progbits
 249              		.align	2
 250              		.p2align 4,,15
 251              		.global	gpt_lld_stop
 252              		.code	16
 253              		.thumb_func
 254              		.type	gpt_lld_stop, %function
 255              	gpt_lld_stop:
 256              	.LFB44:
 257              		.loc 1 632 0
 258              		.cfi_startproc
 259              		@ args = 0, pretend = 0, frame = 0
 260              		@ frame_needed = 0, uses_anonymous_args = 0
 261              	.LVL15:
 262 0000 10B5     		push	{r4, lr}
 263              		.cfi_def_cfa_offset 8
 264              		.cfi_offset 4, -8
 265              		.cfi_offset 14, -4
 266              		.loc 1 634 0
 267 0002 0478     		ldrb	r4, [r0]
 268 0004 022C     		cmp	r4, #2
 269 0006 00D0     		beq	.L18
 270              	.LVL16:
 271              	.L14:
 272              		.loc 1 712 0
 273              		@ sp needed
 274 0008 10BD     		pop	{r4, pc}
 275              	.LVL17:
 276              	.L18:
 277              		.loc 1 635 0
 278 000a 0022     		movs	r2, #0
 279 000c C368     		ldr	r3, [r0, #12]
 280 000e 1A60     		str	r2, [r3]
 281              		.loc 1 636 0
 282 0010 DA60     		str	r2, [r3, #12]
 283              		.loc 1 637 0
 284 0012 1A61     		str	r2, [r3, #16]
 285              		.loc 1 652 0
ARM GAS  /tmp/ccZk1WAU.s 			page 6


 286 0014 054B     		ldr	r3, .L19
 287 0016 9842     		cmp	r0, r3
 288 0018 F6D1     		bne	.L14
 289              		.loc 1 653 0
 290 001a 1020     		movs	r0, #16
 291              	.LVL18:
 292 001c FFF7FEFF 		bl	nvicDisableVector
 293              	.LVL19:
 294              		.loc 1 654 0
 295 0020 034A     		ldr	r2, .L19+4
 296 0022 D369     		ldr	r3, [r2, #28]
 297 0024 A343     		bics	r3, r4
 298 0026 D361     		str	r3, [r2, #28]
 299              		.loc 1 712 0
 300 0028 EEE7     		b	.L14
 301              	.L20:
 302 002a C046     		.align	2
 303              	.L19:
 304 002c 00000000 		.word	.LANCHOR0
 305 0030 00100240 		.word	1073876992
 306              		.cfi_endproc
 307              	.LFE44:
 308              		.size	gpt_lld_stop, .-gpt_lld_stop
 309              		.section	.text.gpt_lld_start_timer,"ax",%progbits
 310              		.align	2
 311              		.p2align 4,,15
 312              		.global	gpt_lld_start_timer
 313              		.code	16
 314              		.thumb_func
 315              		.type	gpt_lld_start_timer, %function
 316              	gpt_lld_start_timer:
 317              	.LFB45:
 318              		.loc 1 722 0
 319              		.cfi_startproc
 320              		@ args = 0, pretend = 0, frame = 0
 321              		@ frame_needed = 0, uses_anonymous_args = 0
 322              		@ link register save eliminated.
 323              	.LVL20:
 324              		.loc 1 724 0
 325 0000 C368     		ldr	r3, [r0, #12]
 326 0002 0139     		subs	r1, r1, #1
 327              	.LVL21:
 328 0004 D962     		str	r1, [r3, #44]
 329              		.loc 1 725 0
 330 0006 0122     		movs	r2, #1
 331              		.loc 1 726 0
 332 0008 0021     		movs	r1, #0
 333              	.LVL22:
 334              		.loc 1 725 0
 335 000a 5A61     		str	r2, [r3, #20]
 336              	.LVL23:
 337              		.loc 1 726 0
 338 000c 5962     		str	r1, [r3, #36]
 339              		.loc 1 731 0
 340 000e 1961     		str	r1, [r3, #16]
 341              		.loc 1 732 0
 342 0010 D968     		ldr	r1, [r3, #12]
ARM GAS  /tmp/ccZk1WAU.s 			page 7


 343              		.loc 1 734 0
 344              		@ sp needed
 345              		.loc 1 732 0
 346 0012 0A43     		orrs	r2, r1
 347 0014 DA60     		str	r2, [r3, #12]
 348              		.loc 1 733 0
 349 0016 0522     		movs	r2, #5
 350 0018 1A60     		str	r2, [r3]
 351              		.loc 1 734 0
 352 001a 7047     		bx	lr
 353              		.cfi_endproc
 354              	.LFE45:
 355              		.size	gpt_lld_start_timer, .-gpt_lld_start_timer
 356              		.section	.text.gpt_lld_stop_timer,"ax",%progbits
 357              		.align	2
 358              		.p2align 4,,15
 359              		.global	gpt_lld_stop_timer
 360              		.code	16
 361              		.thumb_func
 362              		.type	gpt_lld_stop_timer, %function
 363              	gpt_lld_stop_timer:
 364              	.LFB46:
 365              		.loc 1 743 0
 366              		.cfi_startproc
 367              		@ args = 0, pretend = 0, frame = 0
 368              		@ frame_needed = 0, uses_anonymous_args = 0
 369              		@ link register save eliminated.
 370              	.LVL24:
 371              		.loc 1 745 0
 372 0000 0022     		movs	r2, #0
 373              		.loc 1 749 0
 374 0002 FF21     		movs	r1, #255
 375              		.loc 1 745 0
 376 0004 C368     		ldr	r3, [r0, #12]
 377              		.loc 1 750 0
 378              		@ sp needed
 379              		.loc 1 745 0
 380 0006 1A60     		str	r2, [r3]
 381              		.loc 1 746 0
 382 0008 1A61     		str	r2, [r3, #16]
 383              		.loc 1 749 0
 384 000a DA68     		ldr	r2, [r3, #12]
 385 000c 8A43     		bics	r2, r1
 386 000e DA60     		str	r2, [r3, #12]
 387              		.loc 1 750 0
 388 0010 7047     		bx	lr
 389              		.cfi_endproc
 390              	.LFE46:
 391              		.size	gpt_lld_stop_timer, .-gpt_lld_stop_timer
 392 0012 C046     		.section	.text.gpt_lld_polled_delay,"ax",%progbits
 393              		.align	2
 394              		.p2align 4,,15
 395              		.global	gpt_lld_polled_delay
 396              		.code	16
 397              		.thumb_func
 398              		.type	gpt_lld_polled_delay, %function
 399              	gpt_lld_polled_delay:
ARM GAS  /tmp/ccZk1WAU.s 			page 8


 400              	.LFB47:
 401              		.loc 1 763 0
 402              		.cfi_startproc
 403              		@ args = 0, pretend = 0, frame = 0
 404              		@ frame_needed = 0, uses_anonymous_args = 0
 405              		@ link register save eliminated.
 406              	.LVL25:
 407              		.loc 1 766 0
 408 0000 0123     		movs	r3, #1
 409              		.loc 1 765 0
 410 0002 C268     		ldr	r2, [r0, #12]
 411 0004 0139     		subs	r1, r1, #1
 412              	.LVL26:
 413 0006 D162     		str	r1, [r2, #44]
 414              		.loc 1 766 0
 415 0008 5361     		str	r3, [r2, #20]
 416              		.loc 1 767 0
 417 000a 0023     		movs	r3, #0
 418              		.loc 1 769 0
 419 000c 0121     		movs	r1, #1
 420              	.LVL27:
 421              		.loc 1 767 0
 422 000e 1361     		str	r3, [r2, #16]
 423              		.loc 1 768 0
 424 0010 0D33     		adds	r3, r3, #13
 425 0012 1360     		str	r3, [r2]
 426              	.L24:
 427              		.loc 1 769 0 discriminator 1
 428 0014 1369     		ldr	r3, [r2, #16]
 429 0016 1942     		tst	r1, r3
 430 0018 FCD0     		beq	.L24
 431              		.loc 1 771 0
 432              		@ sp needed
 433 001a 7047     		bx	lr
 434              		.cfi_endproc
 435              	.LFE47:
 436              		.size	gpt_lld_polled_delay, .-gpt_lld_polled_delay
 437              		.global	GPTD3
 438              		.section	.bss.GPTD3,"aw",%nobits
 439              		.align	2
 440              		.set	.LANCHOR0,. + 0
 441              		.type	GPTD3, %object
 442              		.size	GPTD3, 16
 443              	GPTD3:
 444 0000 00000000 		.space	16
 444      00000000 
 444      00000000 
 444      00000000 
 445              		.text
 446              	.Letext0:
 447              		.file 2 "/home/lithium/Descargas/gcc-arm-none-eabi-5_3-2016q1/arm-none-eabi/include/machine/_defau
 448              		.file 3 "/home/lithium/Descargas/gcc-arm-none-eabi-5_3-2016q1/arm-none-eabi/include/sys/_stdint.h"
 449              		.file 4 "../../os/ports/GCC/ARMCMx/chcore_v6m.h"
 450              		.file 5 "../../os/hal/platforms/STM32F0xx/stm32f0xx.h"
 451              		.file 6 "../../os/hal/include/gpt.h"
 452              		.file 7 "../../os/hal/platforms/STM32/TIMv1/gpt_lld.h"
 453              		.file 8 "../../os/hal/platforms/STM32/TIMv1/stm32_tim.h"
ARM GAS  /tmp/ccZk1WAU.s 			page 9


 454              		.file 9 "../../os/ports/common/ARMCMx/nvic.h"