ARM GAS  /tmp/cc1xcmoB.s 			page 1


   1              		.syntax unified
   2              		.cpu cortex-m0
   3              		.fpu softvfp
   4              		.eabi_attribute 20, 1
   5              		.eabi_attribute 21, 1
   6              		.eabi_attribute 23, 3
   7              		.eabi_attribute 24, 1
   8              		.eabi_attribute 25, 1
   9              		.eabi_attribute 26, 1
  10              		.eabi_attribute 30, 2
  11              		.eabi_attribute 34, 0
  12              		.eabi_attribute 18, 4
  13              		.thumb
  14              		.syntax unified
  15              		.file	"i2c_lld.c"
  16              		.text
  17              	.Ltext0:
  18              		.cfi_sections	.debug_frame
  19              		.section	.text.i2c_lld_abort_operation,"ax",%progbits
  20              		.align	2
  21              		.p2align 4,,15
  22              		.code	16
  23              		.thumb_func
  24              		.type	i2c_lld_abort_operation, %function
  25              	i2c_lld_abort_operation:
  26              	.LFB40:
  27              		.file 1 "../../os/hal/platforms/STM32/I2Cv2/i2c_lld.c"
  28              		.loc 1 122 0
  29              		.cfi_startproc
  30              		@ args = 0, pretend = 0, frame = 0
  31              		@ frame_needed = 0, uses_anonymous_args = 0
  32              	.LVL0:
  33              		.loc 1 125 0
  34 0000 0123     		movs	r3, #1
  35              		.loc 1 123 0
  36 0002 426B     		ldr	r2, [r0, #52]
  37              	.LVL1:
  38              		.loc 1 122 0
  39 0004 10B5     		push	{r4, lr}
  40              		.cfi_def_cfa_offset 8
  41              		.cfi_offset 4, -8
  42              		.cfi_offset 14, -4
  43              		.loc 1 125 0
  44 0006 1168     		ldr	r1, [r2]
  45 0008 0B42     		tst	r3, r1
  46 000a 10D0     		beq	.L2
  47              		.loc 1 127 0
  48 000c 1168     		ldr	r1, [r2]
  49 000e 9943     		bics	r1, r3
  50 0010 1160     		str	r1, [r2]
  51              		.loc 1 128 0
  52 0012 1468     		ldr	r4, [r2]
  53              		.loc 1 129 0
  54 0014 0121     		movs	r1, #1
  55              		.loc 1 128 0
  56 0016 2342     		tst	r3, r4
  57 0018 05D0     		beq	.L4
ARM GAS  /tmp/cc1xcmoB.s 			page 2


  58              	.L7:
  59              		.loc 1 129 0
  60 001a 1368     		ldr	r3, [r2]
  61 001c 8B43     		bics	r3, r1
  62 001e 1360     		str	r3, [r2]
  63              		.loc 1 128 0
  64 0020 1368     		ldr	r3, [r2]
  65 0022 1942     		tst	r1, r3
  66 0024 F9D1     		bne	.L7
  67              	.L4:
  68              		.loc 1 130 0
  69 0026 0123     		movs	r3, #1
  70 0028 1168     		ldr	r1, [r2]
  71 002a 0B43     		orrs	r3, r1
  72 002c 1360     		str	r3, [r2]
  73              	.L2:
  74              		.loc 1 134 0
  75 002e 0F23     		movs	r3, #15
  76 0030 026B     		ldr	r2, [r0, #48]
  77              	.LVL2:
  78              		.loc 1 136 0
  79              		@ sp needed
  80              		.loc 1 134 0
  81 0032 1468     		ldr	r4, [r2]
  82 0034 2168     		ldr	r1, [r4]
  83 0036 9943     		bics	r1, r3
  84 0038 2160     		str	r1, [r4]
  85 003a 1C00     		movs	r4, r3
  86 003c 5168     		ldr	r1, [r2, #4]
  87 003e 127A     		ldrb	r2, [r2, #8]
  88 0040 9440     		lsls	r4, r4, r2
  89              		.loc 1 135 0
  90 0042 C26A     		ldr	r2, [r0, #44]
  91              		.loc 1 134 0
  92 0044 0C60     		str	r4, [r1]
  93              		.loc 1 135 0
  94 0046 1068     		ldr	r0, [r2]
  95              	.LVL3:
  96 0048 0168     		ldr	r1, [r0]
  97 004a 9943     		bics	r1, r3
  98 004c 0160     		str	r1, [r0]
  99 004e 5168     		ldr	r1, [r2, #4]
 100 0050 127A     		ldrb	r2, [r2, #8]
 101 0052 9340     		lsls	r3, r3, r2
 102 0054 0B60     		str	r3, [r1]
 103              		.loc 1 136 0
 104 0056 10BD     		pop	{r4, pc}
 105              		.cfi_endproc
 106              	.LFE40:
 107              		.size	i2c_lld_abort_operation, .-i2c_lld_abort_operation
 108              		.section	.text.i2c_lld_safety_timeout,"ax",%progbits
 109              		.align	2
 110              		.p2align 4,,15
 111              		.code	16
 112              		.thumb_func
 113              		.type	i2c_lld_safety_timeout, %function
 114              	i2c_lld_safety_timeout:
ARM GAS  /tmp/cc1xcmoB.s 			page 3


 115              	.LFB41:
 116              		.loc 1 145 0
 117              		.cfi_startproc
 118              		@ args = 0, pretend = 0, frame = 0
 119              		@ frame_needed = 0, uses_anonymous_args = 0
 120              	.LVL4:
 121 0000 70B5     		push	{r4, r5, r6, lr}
 122              		.cfi_def_cfa_offset 16
 123              		.cfi_offset 4, -16
 124              		.cfi_offset 5, -12
 125              		.cfi_offset 6, -8
 126              		.cfi_offset 14, -4
 127              		.loc 1 145 0
 128 0002 0500     		movs	r5, r0
 129              		.loc 1 148 0
 130              		.syntax divided
 131              	@ 148 "../../os/hal/platforms/STM32/I2Cv2/i2c_lld.c" 1
 132 0004 72B6     		cpsid   i
 133              	@ 0 "" 2
 134              		.loc 1 149 0
 135              		.thumb
 136              		.syntax unified
 137 0006 C469     		ldr	r4, [r0, #28]
 138 0008 002C     		cmp	r4, #0
 139 000a 08D0     		beq	.L12
 140              	.LVL5:
 141              	.LBB6:
 142              		.loc 1 151 0
 143 000c FFF7FEFF 		bl	i2c_lld_abort_operation
 144              	.LVL6:
 145              		.loc 1 152 0
 146 0010 0023     		movs	r3, #0
 147 0012 EB61     		str	r3, [r5, #28]
 148              		.loc 1 153 0
 149 0014 013B     		subs	r3, r3, #1
 150 0016 6362     		str	r3, [r4, #36]
 151              		.loc 1 154 0
 152 0018 2000     		movs	r0, r4
 153 001a FFF7FEFF 		bl	chSchReadyI
 154              	.LVL7:
 155              	.L12:
 156              	.LBE6:
 157              		.loc 1 156 0
 158              		.syntax divided
 159              	@ 156 "../../os/hal/platforms/STM32/I2Cv2/i2c_lld.c" 1
 160 001e 62B6     		cpsie   i
 161              	@ 0 "" 2
 162              		.loc 1 157 0
 163              		.thumb
 164              		.syntax unified
 165              		@ sp needed
 166              	.LVL8:
 167 0020 70BD     		pop	{r4, r5, r6, pc}
 168              		.cfi_endproc
 169              	.LFE41:
 170              		.size	i2c_lld_safety_timeout, .-i2c_lld_safety_timeout
 171 0022 C046     		.section	.text.i2c_lld_serve_tx_end_irq,"ax",%progbits
ARM GAS  /tmp/cc1xcmoB.s 			page 4


 172              		.align	2
 173              		.p2align 4,,15
 174              		.code	16
 175              		.thumb_func
 176              		.type	i2c_lld_serve_tx_end_irq, %function
 177              	i2c_lld_serve_tx_end_irq:
 178              	.LFB44:
 179              		.loc 1 247 0
 180              		.cfi_startproc
 181              		@ args = 0, pretend = 0, frame = 0
 182              		@ frame_needed = 0, uses_anonymous_args = 0
 183              	.LVL9:
 184 0000 10B5     		push	{r4, lr}
 185              		.cfi_def_cfa_offset 8
 186              		.cfi_offset 4, -8
 187              		.cfi_offset 14, -4
 188              		.loc 1 247 0
 189 0002 0400     		movs	r4, r0
 190              		.loc 1 251 0
 191 0004 0B07     		lsls	r3, r1, #28
 192 0006 01D5     		bpl	.L17
 193              		.loc 1 252 0
 194 0008 FFF7FEFF 		bl	port_halt
 195              	.LVL10:
 196              	.L17:
 197              		.loc 1 258 0
 198 000c 0F23     		movs	r3, #15
 199 000e 226B     		ldr	r2, [r4, #48]
 200              		.loc 1 259 0
 201              		@ sp needed
 202              		.loc 1 258 0
 203 0010 1068     		ldr	r0, [r2]
 204 0012 0168     		ldr	r1, [r0]
 205 0014 9943     		bics	r1, r3
 206 0016 0160     		str	r1, [r0]
 207 0018 5168     		ldr	r1, [r2, #4]
 208 001a 127A     		ldrb	r2, [r2, #8]
 209 001c 9340     		lsls	r3, r3, r2
 210 001e 0B60     		str	r3, [r1]
 211              	.LVL11:
 212              		.loc 1 259 0
 213 0020 10BD     		pop	{r4, pc}
 214              		.cfi_endproc
 215              	.LFE44:
 216              		.size	i2c_lld_serve_tx_end_irq, .-i2c_lld_serve_tx_end_irq
 217 0022 C046     		.section	.text.i2c_lld_serve_rx_end_irq,"ax",%progbits
 218              		.align	2
 219              		.p2align 4,,15
 220              		.code	16
 221              		.thumb_func
 222              		.type	i2c_lld_serve_rx_end_irq, %function
 223              	i2c_lld_serve_rx_end_irq:
 224              	.LFB43:
 225              		.loc 1 223 0
 226              		.cfi_startproc
 227              		@ args = 0, pretend = 0, frame = 0
 228              		@ frame_needed = 0, uses_anonymous_args = 0
ARM GAS  /tmp/cc1xcmoB.s 			page 5


 229              	.LVL12:
 230 0000 70B5     		push	{r4, r5, r6, lr}
 231              		.cfi_def_cfa_offset 16
 232              		.cfi_offset 4, -16
 233              		.cfi_offset 5, -12
 234              		.cfi_offset 6, -8
 235              		.cfi_offset 14, -4
 236              		.loc 1 223 0
 237 0002 0400     		movs	r4, r0
 238              		.loc 1 224 0
 239 0004 456B     		ldr	r5, [r0, #52]
 240              	.LVL13:
 241              		.loc 1 228 0
 242 0006 0B07     		lsls	r3, r1, #28
 243 0008 19D4     		bmi	.L30
 244              	.LVL14:
 245              	.L22:
 246              		.loc 1 235 0
 247 000a 0F23     		movs	r3, #15
 248 000c E26A     		ldr	r2, [r4, #44]
 249 000e 1068     		ldr	r0, [r2]
 250 0010 0168     		ldr	r1, [r0]
 251 0012 9943     		bics	r1, r3
 252 0014 0160     		str	r1, [r0]
 253 0016 5168     		ldr	r1, [r2, #4]
 254 0018 127A     		ldrb	r2, [r2, #8]
 255 001a 9340     		lsls	r3, r3, r2
 256              		.loc 1 236 0
 257 001c 8022     		movs	r2, #128
 258              		.loc 1 235 0
 259 001e 0B60     		str	r3, [r1]
 260              		.loc 1 236 0
 261 0020 6B68     		ldr	r3, [r5, #4]
 262 0022 D201     		lsls	r2, r2, #7
 263 0024 1343     		orrs	r3, r2
 264 0026 6B60     		str	r3, [r5, #4]
 265              		.loc 1 237 0
 266              		.syntax divided
 267              	@ 237 "../../os/hal/platforms/STM32/I2Cv2/i2c_lld.c" 1
 268 0028 72B6     		cpsid   i
 269              	@ 0 "" 2
 270              		.thumb
 271              		.syntax unified
 272 002a E069     		ldr	r0, [r4, #28]
 273 002c 0028     		cmp	r0, #0
 274 002e 04D0     		beq	.L23
 275              	.LVL15:
 276              	.LBB7:
 277              		.loc 1 237 0 is_stmt 0 discriminator 1
 278 0030 0023     		movs	r3, #0
 279 0032 E361     		str	r3, [r4, #28]
 280 0034 4362     		str	r3, [r0, #36]
 281 0036 FFF7FEFF 		bl	chSchReadyI
 282              	.LVL16:
 283              	.L23:
 284              	.LBE7:
 285              		.loc 1 237 0 discriminator 3
ARM GAS  /tmp/cc1xcmoB.s 			page 6


 286              		.syntax divided
 287              	@ 237 "../../os/hal/platforms/STM32/I2Cv2/i2c_lld.c" 1
 288 003a 62B6     		cpsie   i
 289              	@ 0 "" 2
 290              		.loc 1 238 0 is_stmt 1 discriminator 3
 291              		.thumb
 292              		.syntax unified
 293              		@ sp needed
 294              	.LVL17:
 295              	.LVL18:
 296 003c 70BD     		pop	{r4, r5, r6, pc}
 297              	.LVL19:
 298              	.L30:
 299              		.loc 1 229 0
 300 003e FFF7FEFF 		bl	port_halt
 301              	.LVL20:
 302 0042 E2E7     		b	.L22
 303              		.cfi_endproc
 304              	.LFE43:
 305              		.size	i2c_lld_serve_rx_end_irq, .-i2c_lld_serve_rx_end_irq
 306              		.section	.text.Vector9C,"ax",%progbits
 307              		.align	2
 308              		.p2align 4,,15
 309              		.global	Vector9C
 310              		.code	16
 311              		.thumb_func
 312              		.type	Vector9C, %function
 313              	Vector9C:
 314              	.LFB46:
 315              		.loc 1 303 0
 316              		.cfi_startproc
 317              		@ args = 0, pretend = 0, frame = 0
 318              		@ frame_needed = 0, uses_anonymous_args = 0
 319 0000 F8B5     		push	{r3, r4, r5, r6, r7, lr}
 320              		.cfi_def_cfa_offset 24
 321              		.cfi_offset 3, -24
 322              		.cfi_offset 4, -20
 323              		.cfi_offset 5, -16
 324              		.cfi_offset 6, -12
 325              		.cfi_offset 7, -8
 326              		.cfi_offset 14, -4
 327              		.loc 1 304 0
 328 0002 544B     		ldr	r3, .L79
 329 0004 5A6B     		ldr	r2, [r3, #52]
 330 0006 9269     		ldr	r2, [r2, #24]
 331              	.LVL21:
 332              		.loc 1 306 0
 333              		.syntax divided
 334              	@ 306 "../../os/hal/platforms/STM32/I2Cv2/i2c_lld.c" 1
 335 0008 7446     		mov     r4, lr
 336              	@ 0 "" 2
 337              	.LVL22:
 338              		.loc 1 311 0
 339              		.thumb
 340              		.syntax unified
 341 000a FC20     		movs	r0, #252
 342              		.loc 1 309 0
ARM GAS  /tmp/cc1xcmoB.s 			page 7


 343 000c 596B     		ldr	r1, [r3, #52]
 344              		.loc 1 311 0
 345 000e 8001     		lsls	r0, r0, #6
 346              		.loc 1 309 0
 347 0010 CA61     		str	r2, [r1, #28]
 348              		.loc 1 311 0
 349 0012 0242     		tst	r2, r0
 350 0014 3AD1     		bne	.L76
 351              		.loc 1 313 0
 352 0016 FE20     		movs	r0, #254
 353 0018 1042     		tst	r0, r2
 354 001a 03D1     		bne	.L77
 355              	.LVL23:
 356              	.L40:
 357              		.loc 1 316 0
 358 001c 2000     		movs	r0, r4
 359 001e FFF7FEFF 		bl	_port_irq_epilogue
 360              	.LVL24:
 361              		.loc 1 317 0
 362              		@ sp needed
 363              	.LVL25:
 364 0022 F8BD     		pop	{r3, r4, r5, r6, r7, pc}
 365              	.LVL26:
 366              	.L77:
 367              	.LBB16:
 368              	.LBB17:
 369              		.loc 1 170 0
 370 0024 BE38     		subs	r0, r0, #190
 371 0026 1042     		tst	r0, r2
 372 0028 02D0     		beq	.L43
 373 002a 1D78     		ldrb	r5, [r3]
 374 002c 032D     		cmp	r5, #3
 375 002e 6AD0     		beq	.L78
 376              	.L43:
 377              		.loc 1 195 0
 378 0030 D006     		lsls	r0, r2, #27
 379 0032 08D5     		bpl	.L45
 380              		.loc 1 197 0
 381 0034 8025     		movs	r5, #128
 382 0036 4868     		ldr	r0, [r1, #4]
 383 0038 ED01     		lsls	r5, r5, #7
 384 003a 2843     		orrs	r0, r5
 385 003c 4860     		str	r0, [r1, #4]
 386              		.loc 1 199 0
 387 003e 0421     		movs	r1, #4
 388              	.LVL27:
 389 0040 9868     		ldr	r0, [r3, #8]
 390 0042 0143     		orrs	r1, r0
 391 0044 9960     		str	r1, [r3, #8]
 392              	.L45:
 393              		.loc 1 201 0
 394 0046 9206     		lsls	r2, r2, #26
 395 0048 E8D5     		bpl	.L40
 396              	.LVL28:
 397              		.loc 1 203 0
 398 004a 0F22     		movs	r2, #15
 399 004c 196B     		ldr	r1, [r3, #48]
ARM GAS  /tmp/cc1xcmoB.s 			page 8


 400 004e 0D68     		ldr	r5, [r1]
 401 0050 2868     		ldr	r0, [r5]
 402 0052 9043     		bics	r0, r2
 403 0054 2860     		str	r0, [r5]
 404 0056 1500     		movs	r5, r2
 405 0058 4868     		ldr	r0, [r1, #4]
 406 005a 097A     		ldrb	r1, [r1, #8]
 407 005c 8D40     		lsls	r5, r5, r1
 408              		.loc 1 204 0
 409 005e D96A     		ldr	r1, [r3, #44]
 410              		.loc 1 203 0
 411 0060 0560     		str	r5, [r0]
 412              		.loc 1 204 0
 413 0062 0D68     		ldr	r5, [r1]
 414 0064 2868     		ldr	r0, [r5]
 415 0066 9043     		bics	r0, r2
 416 0068 2860     		str	r0, [r5]
 417 006a 4868     		ldr	r0, [r1, #4]
 418 006c 097A     		ldrb	r1, [r1, #8]
 419 006e 8A40     		lsls	r2, r2, r1
 420 0070 0260     		str	r2, [r0]
 421              		.loc 1 206 0
 422 0072 9A68     		ldr	r2, [r3, #8]
 423 0074 002A     		cmp	r2, #0
 424 0076 2FD1     		bne	.L75
 425              		.loc 1 210 0
 426              		.syntax divided
 427              	@ 210 "../../os/hal/platforms/STM32/I2Cv2/i2c_lld.c" 1
 428 0078 72B6     		cpsid   i
 429              	@ 0 "" 2
 430              		.thumb
 431              		.syntax unified
 432 007a D869     		ldr	r0, [r3, #28]
 433 007c 0028     		cmp	r0, #0
 434 007e 03D0     		beq	.L48
 435              	.LVL29:
 436              	.LBB18:
 437 0080 4262     		str	r2, [r0, #36]
 438 0082 DA61     		str	r2, [r3, #28]
 439 0084 FFF7FEFF 		bl	chSchReadyI
 440              	.LVL30:
 441              	.L48:
 442              	.LBE18:
 443              		.syntax divided
 444              	@ 210 "../../os/hal/platforms/STM32/I2Cv2/i2c_lld.c" 1
 445 0088 62B6     		cpsie   i
 446              	@ 0 "" 2
 447              		.thumb
 448              		.syntax unified
 449 008a C7E7     		b	.L40
 450              	.LVL31:
 451              	.L76:
 452              	.LBE17:
 453              	.LBE16:
 454              	.LBB23:
 455              	.LBB24:
 456              		.loc 1 272 0
ARM GAS  /tmp/cc1xcmoB.s 			page 9


 457 008c 0F21     		movs	r1, #15
 458 008e 186B     		ldr	r0, [r3, #48]
 459 0090 0668     		ldr	r6, [r0]
 460 0092 3568     		ldr	r5, [r6]
 461 0094 8D43     		bics	r5, r1
 462 0096 3560     		str	r5, [r6]
 463 0098 0E00     		movs	r6, r1
 464 009a 4568     		ldr	r5, [r0, #4]
 465 009c 007A     		ldrb	r0, [r0, #8]
 466 009e 8640     		lsls	r6, r6, r0
 467              		.loc 1 273 0
 468 00a0 D86A     		ldr	r0, [r3, #44]
 469              		.loc 1 272 0
 470 00a2 2E60     		str	r6, [r5]
 471              		.loc 1 273 0
 472 00a4 0668     		ldr	r6, [r0]
 473 00a6 3568     		ldr	r5, [r6]
 474 00a8 8D43     		bics	r5, r1
 475 00aa 3560     		str	r5, [r6]
 476 00ac 4568     		ldr	r5, [r0, #4]
 477 00ae 007A     		ldrb	r0, [r0, #8]
 478 00b0 8140     		lsls	r1, r1, r0
 479 00b2 2960     		str	r1, [r5]
 480              		.loc 1 275 0
 481 00b4 D105     		lsls	r1, r2, #23
 482 00b6 1BD4     		bmi	.L33
 483 00b8 9968     		ldr	r1, [r3, #8]
 484              	.L34:
 485              		.loc 1 278 0
 486 00ba 9005     		lsls	r0, r2, #22
 487 00bc 02D5     		bpl	.L35
 488              		.loc 1 279 0
 489 00be 0220     		movs	r0, #2
 490 00c0 0143     		orrs	r1, r0
 491 00c2 9960     		str	r1, [r3, #8]
 492              	.L35:
 493              		.loc 1 281 0
 494 00c4 5005     		lsls	r0, r2, #21
 495 00c6 18D5     		bpl	.L36
 496              		.loc 1 282 0
 497 00c8 0820     		movs	r0, #8
 498 00ca 0143     		orrs	r1, r0
 499 00cc 9960     		str	r1, [r3, #8]
 500              		.loc 1 284 0
 501 00ce D204     		lsls	r2, r2, #19
 502 00d0 02D5     		bpl	.L75
 503              	.LVL32:
 504              	.L37:
 505              		.loc 1 285 0
 506 00d2 2022     		movs	r2, #32
 507 00d4 1143     		orrs	r1, r2
 508 00d6 9960     		str	r1, [r3, #8]
 509              	.LVL33:
 510              	.L75:
 511              	.LBE24:
 512              	.LBE23:
 513              	.LBB26:
ARM GAS  /tmp/cc1xcmoB.s 			page 10


 514              	.LBB21:
 515              		.loc 1 207 0
 516              		.syntax divided
 517              	@ 207 "../../os/hal/platforms/STM32/I2Cv2/i2c_lld.c" 1
 518 00d8 72B6     		cpsid   i
 519              	@ 0 "" 2
 520              		.thumb
 521              		.syntax unified
 522 00da D869     		ldr	r0, [r3, #28]
 523 00dc 0028     		cmp	r0, #0
 524 00de D3D0     		beq	.L48
 525              	.LVL34:
 526              	.LBB19:
 527 00e0 0022     		movs	r2, #0
 528 00e2 DA61     		str	r2, [r3, #28]
 529 00e4 0223     		movs	r3, #2
 530 00e6 5B42     		rsbs	r3, r3, #0
 531 00e8 4362     		str	r3, [r0, #36]
 532 00ea FFF7FEFF 		bl	chSchReadyI
 533              	.LVL35:
 534 00ee CBE7     		b	.L48
 535              	.LVL36:
 536              	.L33:
 537              	.LBE19:
 538              	.LBE21:
 539              	.LBE26:
 540              	.LBB27:
 541              	.LBB25:
 542              		.loc 1 276 0
 543 00f0 0121     		movs	r1, #1
 544 00f2 9868     		ldr	r0, [r3, #8]
 545 00f4 0143     		orrs	r1, r0
 546 00f6 9960     		str	r1, [r3, #8]
 547 00f8 DFE7     		b	.L34
 548              	.L36:
 549              		.loc 1 284 0
 550 00fa D204     		lsls	r2, r2, #19
 551 00fc E9D4     		bmi	.L37
 552              	.LVL37:
 553              		.loc 1 288 0
 554 00fe 0029     		cmp	r1, #0
 555 0100 00D1     		bne	.LCB476
 556 0102 8BE7     		b	.L40	@long jump
 557              	.LCB476:
 558 0104 E8E7     		b	.L75
 559              	.LVL38:
 560              	.L78:
 561              	.LBE25:
 562              	.LBE27:
 563              	.LBB28:
 564              	.LBB22:
 565              	.LBB20:
 566              		.loc 1 174 0
 567 0106 0D68     		ldr	r5, [r1]
 568 0108 8543     		bics	r5, r0
 569              		.loc 1 176 0
 570 010a D86A     		ldr	r0, [r3, #44]
ARM GAS  /tmp/cc1xcmoB.s 			page 11


 571              		.loc 1 174 0
 572 010c 0D60     		str	r5, [r1]
 573              		.loc 1 176 0
 574 010e 0568     		ldr	r5, [r0]
 575 0110 6868     		ldr	r0, [r5, #4]
 576              	.LVL39:
 577              		.loc 1 177 0
 578 0112 0028     		cmp	r0, #0
 579 0114 18D0     		beq	.L44
 580              		.loc 1 178 0
 581 0116 0426     		movs	r6, #4
 582              		.loc 1 181 0
 583 0118 2F68     		ldr	r7, [r5]
 584              		.loc 1 178 0
 585 011a 1E70     		strb	r6, [r3]
 586              		.loc 1 181 0
 587 011c 033E     		subs	r6, r6, #3
 588 011e 3E43     		orrs	r6, r7
 589 0120 2E60     		str	r6, [r5]
 590              		.loc 1 183 0
 591 0122 4E68     		ldr	r6, [r1, #4]
 592 0124 0C4D     		ldr	r5, .L79+4
 593              		.loc 1 184 0
 594 0126 0004     		lsls	r0, r0, #16
 595              	.LVL40:
 596              		.loc 1 183 0
 597 0128 3540     		ands	r5, r6
 598 012a 4D60     		str	r5, [r1, #4]
 599              		.loc 1 184 0
 600 012c 4D68     		ldr	r5, [r1, #4]
 601 012e 2843     		orrs	r0, r5
 602              		.loc 1 187 0
 603 0130 8025     		movs	r5, #128
 604              		.loc 1 184 0
 605 0132 4860     		str	r0, [r1, #4]
 606              		.loc 1 187 0
 607 0134 4868     		ldr	r0, [r1, #4]
 608 0136 ED00     		lsls	r5, r5, #3
 609 0138 2843     		orrs	r0, r5
 610              		.loc 1 188 0
 611 013a 8025     		movs	r5, #128
 612              		.loc 1 187 0
 613 013c 4860     		str	r0, [r1, #4]
 614              		.loc 1 188 0
 615 013e 4868     		ldr	r0, [r1, #4]
 616 0140 AD01     		lsls	r5, r5, #6
 617 0142 2843     		orrs	r0, r5
 618 0144 4860     		str	r0, [r1, #4]
 619 0146 73E7     		b	.L43
 620              	.LVL41:
 621              	.L44:
 622              		.loc 1 192 0
 623 0148 8025     		movs	r5, #128
 624 014a 4868     		ldr	r0, [r1, #4]
 625              	.LVL42:
 626 014c ED01     		lsls	r5, r5, #7
 627 014e 2843     		orrs	r0, r5
ARM GAS  /tmp/cc1xcmoB.s 			page 12


 628 0150 4860     		str	r0, [r1, #4]
 629 0152 6DE7     		b	.L43
 630              	.L80:
 631              		.align	2
 632              	.L79:
 633 0154 00000000 		.word	.LANCHOR0
 634 0158 FFFF00FF 		.word	-16711681
 635              	.LBE20:
 636              	.LBE22:
 637              	.LBE28:
 638              		.cfi_endproc
 639              	.LFE46:
 640              		.size	Vector9C, .-Vector9C
 641              		.section	.text.i2c_lld_init,"ax",%progbits
 642              		.align	2
 643              		.p2align 4,,15
 644              		.global	i2c_lld_init
 645              		.code	16
 646              		.thumb_func
 647              		.type	i2c_lld_init, %function
 648              	i2c_lld_init:
 649              	.LFB47:
 650              		.loc 1 415 0
 651              		.cfi_startproc
 652              		@ args = 0, pretend = 0, frame = 0
 653              		@ frame_needed = 0, uses_anonymous_args = 0
 654 0000 10B5     		push	{r4, lr}
 655              		.cfi_def_cfa_offset 8
 656              		.cfi_offset 4, -8
 657              		.cfi_offset 14, -4
 658              		.loc 1 418 0
 659 0002 064C     		ldr	r4, .L82
 660              		.loc 1 432 0
 661              		@ sp needed
 662              		.loc 1 418 0
 663 0004 2000     		movs	r0, r4
 664 0006 FFF7FEFF 		bl	i2cObjectInit
 665              	.LVL43:
 666              		.loc 1 419 0
 667 000a 0023     		movs	r3, #0
 668 000c E361     		str	r3, [r4, #28]
 669              		.loc 1 420 0
 670 000e 044B     		ldr	r3, .L82+4
 671 0010 6363     		str	r3, [r4, #52]
 672              		.loc 1 421 0
 673 0012 044B     		ldr	r3, .L82+8
 674 0014 E362     		str	r3, [r4, #44]
 675              		.loc 1 422 0
 676 0016 0C3B     		subs	r3, r3, #12
 677 0018 2363     		str	r3, [r4, #48]
 678              		.loc 1 432 0
 679 001a 10BD     		pop	{r4, pc}
 680              	.L83:
 681              		.align	2
 682              	.L82:
 683 001c 00000000 		.word	.LANCHOR0
 684 0020 00540040 		.word	1073763328
ARM GAS  /tmp/cc1xcmoB.s 			page 13


 685 0024 18000000 		.word	_stm32_dma_streams+24
 686              		.cfi_endproc
 687              	.LFE47:
 688              		.size	i2c_lld_init, .-i2c_lld_init
 689              		.section	.text.i2c_lld_start,"ax",%progbits
 690              		.align	2
 691              		.p2align 4,,15
 692              		.global	i2c_lld_start
 693              		.code	16
 694              		.thumb_func
 695              		.type	i2c_lld_start, %function
 696              	i2c_lld_start:
 697              	.LFB48:
 698              		.loc 1 441 0
 699              		.cfi_startproc
 700              		@ args = 0, pretend = 0, frame = 0
 701              		@ frame_needed = 0, uses_anonymous_args = 0
 702              	.LVL44:
 703 0000 F8B5     		push	{r3, r4, r5, r6, r7, lr}
 704              		.cfi_def_cfa_offset 24
 705              		.cfi_offset 3, -24
 706              		.cfi_offset 4, -20
 707              		.cfi_offset 5, -16
 708              		.cfi_offset 6, -12
 709              		.cfi_offset 7, -8
 710              		.cfi_offset 14, -4
 711              		.loc 1 444 0
 712 0002 9A23     		movs	r3, #154
 713              		.loc 1 448 0
 714 0004 0122     		movs	r2, #1
 715              		.loc 1 442 0
 716 0006 446B     		ldr	r4, [r0, #52]
 717              	.LVL45:
 718              		.loc 1 444 0
 719 0008 8362     		str	r3, [r0, #40]
 720              		.loc 1 445 0
 721 000a 103B     		subs	r3, r3, #16
 722 000c 4362     		str	r3, [r0, #36]
 723              		.loc 1 448 0
 724 000e 2368     		ldr	r3, [r4]
 725              		.loc 1 441 0
 726 0010 0500     		movs	r5, r0
 727              		.loc 1 448 0
 728 0012 9343     		bics	r3, r2
 729 0014 2360     		str	r3, [r4]
 730              		.loc 1 451 0
 731 0016 0378     		ldrb	r3, [r0]
 732 0018 012B     		cmp	r3, #1
 733 001a 18D0     		beq	.L86
 734              	.LVL46:
 735              	.L85:
 736              		.loc 1 527 0
 737 001c 2200     		movs	r2, r4
 738 001e EB6A     		ldr	r3, [r5, #44]
 739 0020 2432     		adds	r2, r2, #36
 740 0022 1B68     		ldr	r3, [r3]
 741              		.loc 1 542 0
ARM GAS  /tmp/cc1xcmoB.s 			page 14


 742              		@ sp needed
 743              		.loc 1 527 0
 744 0024 9A60     		str	r2, [r3, #8]
 745              		.loc 1 528 0
 746 0026 2B6B     		ldr	r3, [r5, #48]
 747 0028 0432     		adds	r2, r2, #4
 748 002a 1B68     		ldr	r3, [r3]
 749 002c 9A60     		str	r2, [r3, #8]
 750              		.loc 1 531 0
 751 002e 6A68     		ldr	r2, [r5, #4]
 752              		.loc 1 532 0
 753 0030 1A4B     		ldr	r3, .L87
 754 0032 5168     		ldr	r1, [r2, #4]
 755 0034 0B43     		orrs	r3, r1
 756              		.loc 1 531 0
 757 0036 2360     		str	r3, [r4]
 758              		.loc 1 535 0
 759 0038 9368     		ldr	r3, [r2, #8]
 760 003a 9B0A     		lsrs	r3, r3, #10
 761 003c 9B02     		lsls	r3, r3, #10
 762 003e 6360     		str	r3, [r4, #4]
 763              		.loc 1 538 0
 764 0040 1368     		ldr	r3, [r2]
 765 0042 2361     		str	r3, [r4, #16]
 766              		.loc 1 541 0
 767 0044 0123     		movs	r3, #1
 768 0046 2268     		ldr	r2, [r4]
 769 0048 1343     		orrs	r3, r2
 770 004a 2360     		str	r3, [r4]
 771              	.LVL47:
 772              	.LVL48:
 773              		.loc 1 542 0
 774 004c F8BD     		pop	{r3, r4, r5, r6, r7, pc}
 775              	.LVL49:
 776              	.L86:
 777              		.loc 1 454 0
 778 004e 144B     		ldr	r3, .L87+4
 779 0050 9842     		cmp	r0, r3
 780 0052 E3D1     		bne	.L85
 781              	.LBB29:
 782              		.loc 1 457 0
 783 0054 8027     		movs	r7, #128
 784 0056 134E     		ldr	r6, .L87+8
 785 0058 BF03     		lsls	r7, r7, #14
 786 005a 3369     		ldr	r3, [r6, #16]
 787              		.loc 1 458 0
 788 005c 124A     		ldr	r2, .L87+12
 789              		.loc 1 457 0
 790 005e 3B43     		orrs	r3, r7
 791 0060 3361     		str	r3, [r6, #16]
 792 0062 0023     		movs	r3, #0
 793              		.loc 1 458 0
 794 0064 0321     		movs	r1, #3
 795              		.loc 1 457 0
 796 0066 3361     		str	r3, [r6, #16]
 797              		.loc 1 458 0
 798 0068 0300     		movs	r3, r0
ARM GAS  /tmp/cc1xcmoB.s 			page 15


 799 006a C06A     		ldr	r0, [r0, #44]
 800              	.LVL50:
 801 006c FFF7FEFF 		bl	dmaStreamAllocate
 802              	.LVL51:
 803              		.loc 1 463 0
 804 0070 0E4A     		ldr	r2, .L87+16
 805 0072 2B00     		movs	r3, r5
 806 0074 0321     		movs	r1, #3
 807 0076 286B     		ldr	r0, [r5, #48]
 808 0078 FFF7FEFF 		bl	dmaStreamAllocate
 809              	.LVL52:
 810              		.loc 1 468 0
 811 007c F369     		ldr	r3, [r6, #28]
 812              		.loc 1 471 0
 813 007e C021     		movs	r1, #192
 814              		.loc 1 468 0
 815 0080 3B43     		orrs	r3, r7
 816 0082 F361     		str	r3, [r6, #28]
 817              		.loc 1 471 0
 818 0084 1720     		movs	r0, #23
 819 0086 FFF7FEFF 		bl	nvicEnableVector
 820              	.LVL53:
 821              		.loc 1 482 0
 822 008a 8023     		movs	r3, #128
 823 008c 6A6A     		ldr	r2, [r5, #36]
 824 008e 5B01     		lsls	r3, r3, #5
 825 0090 1A43     		orrs	r2, r3
 826 0092 6A62     		str	r2, [r5, #36]
 827              		.loc 1 484 0
 828 0094 AA6A     		ldr	r2, [r5, #40]
 829 0096 1343     		orrs	r3, r2
 830 0098 AB62     		str	r3, [r5, #40]
 831 009a BFE7     		b	.L85
 832              	.L88:
 833              		.align	2
 834              	.L87:
 835 009c B0C00000 		.word	49328
 836 00a0 00000000 		.word	.LANCHOR0
 837 00a4 00100240 		.word	1073876992
 838 00a8 00000000 		.word	i2c_lld_serve_rx_end_irq
 839 00ac 00000000 		.word	i2c_lld_serve_tx_end_irq
 840              	.LBE29:
 841              		.cfi_endproc
 842              	.LFE48:
 843              		.size	i2c_lld_start, .-i2c_lld_start
 844              		.section	.text.i2c_lld_stop,"ax",%progbits
 845              		.align	2
 846              		.p2align 4,,15
 847              		.global	i2c_lld_stop
 848              		.code	16
 849              		.thumb_func
 850              		.type	i2c_lld_stop, %function
 851              	i2c_lld_stop:
 852              	.LFB49:
 853              		.loc 1 551 0
 854              		.cfi_startproc
 855              		@ args = 0, pretend = 0, frame = 0
ARM GAS  /tmp/cc1xcmoB.s 			page 16


 856              		@ frame_needed = 0, uses_anonymous_args = 0
 857              	.LVL54:
 858              		.loc 1 554 0
 859 0000 0378     		ldrb	r3, [r0]
 860              		.loc 1 551 0
 861 0002 10B5     		push	{r4, lr}
 862              		.cfi_def_cfa_offset 8
 863              		.cfi_offset 4, -8
 864              		.cfi_offset 14, -4
 865              		.loc 1 551 0
 866 0004 0400     		movs	r4, r0
 867              		.loc 1 554 0
 868 0006 012B     		cmp	r3, #1
 869 0008 0AD0     		beq	.L89
 870              		.loc 1 557 0
 871 000a FFF7FEFF 		bl	i2c_lld_abort_operation
 872              	.LVL55:
 873              		.loc 1 558 0
 874 000e 206B     		ldr	r0, [r4, #48]
 875 0010 FFF7FEFF 		bl	dmaStreamRelease
 876              	.LVL56:
 877              		.loc 1 559 0
 878 0014 E06A     		ldr	r0, [r4, #44]
 879 0016 FFF7FEFF 		bl	dmaStreamRelease
 880              	.LVL57:
 881              		.loc 1 562 0
 882 001a 064B     		ldr	r3, .L94
 883 001c 9C42     		cmp	r4, r3
 884 001e 00D0     		beq	.L93
 885              	.L89:
 886              		.loc 1 591 0
 887              		@ sp needed
 888              	.LVL58:
 889 0020 10BD     		pop	{r4, pc}
 890              	.LVL59:
 891              	.L93:
 892              		.loc 1 564 0
 893 0022 1720     		movs	r0, #23
 894 0024 FFF7FEFF 		bl	nvicDisableVector
 895              	.LVL60:
 896              		.loc 1 572 0
 897 0028 034A     		ldr	r2, .L94+4
 898 002a 044B     		ldr	r3, .L94+8
 899 002c D169     		ldr	r1, [r2, #28]
 900 002e 0B40     		ands	r3, r1
 901 0030 D361     		str	r3, [r2, #28]
 902              		.loc 1 591 0
 903 0032 F5E7     		b	.L89
 904              	.L95:
 905              		.align	2
 906              	.L94:
 907 0034 00000000 		.word	.LANCHOR0
 908 0038 00100240 		.word	1073876992
 909 003c FFFFDFFF 		.word	-2097153
 910              		.cfi_endproc
 911              	.LFE49:
 912              		.size	i2c_lld_stop, .-i2c_lld_stop
ARM GAS  /tmp/cc1xcmoB.s 			page 17


 913              		.section	.text.i2c_lld_master_receive_timeout,"ax",%progbits
 914              		.align	2
 915              		.p2align 4,,15
 916              		.global	i2c_lld_master_receive_timeout
 917              		.code	16
 918              		.thumb_func
 919              		.type	i2c_lld_master_receive_timeout, %function
 920              	i2c_lld_master_receive_timeout:
 921              	.LFB50:
 922              		.loc 1 618 0
 923              		.cfi_startproc
 924              		@ args = 4, pretend = 0, frame = 32
 925              		@ frame_needed = 0, uses_anonymous_args = 0
 926              	.LVL61:
 927 0000 F0B5     		push	{r4, r5, r6, r7, lr}
 928              		.cfi_def_cfa_offset 20
 929              		.cfi_offset 4, -20
 930              		.cfi_offset 5, -16
 931              		.cfi_offset 6, -12
 932              		.cfi_offset 7, -8
 933              		.cfi_offset 14, -4
 934 0002 4F46     		mov	r7, r9
 935 0004 4646     		mov	r6, r8
 936 0006 C0B4     		push	{r6, r7}
 937              		.cfi_def_cfa_offset 28
 938              		.cfi_offset 8, -28
 939              		.cfi_offset 9, -24
 940 0008 1F00     		movs	r7, r3
 941              		.loc 1 626 0
 942 000a 0023     		movs	r3, #0
 943              	.LVL62:
 944              		.loc 1 618 0
 945 000c 89B0     		sub	sp, sp, #36
 946              		.cfi_def_cfa_offset 64
 947              		.loc 1 618 0
 948 000e 109D     		ldr	r5, [sp, #64]
 949 0010 0600     		movs	r6, r0
 950 0012 8946     		mov	r9, r1
 951 0014 9046     		mov	r8, r2
 952              		.loc 1 619 0
 953 0016 446B     		ldr	r4, [r0, #52]
 954              	.LVL63:
 955              		.loc 1 626 0
 956 0018 8360     		str	r3, [r0, #8]
 957              		.loc 1 629 0
 958 001a 6B1C     		adds	r3, r5, #1
 959 001c 05D0     		beq	.L97
 960              		.loc 1 630 0
 961 001e 0300     		movs	r3, r0
 962 0020 374A     		ldr	r2, .L122
 963              	.LVL64:
 964 0022 2900     		movs	r1, r5
 965              	.LVL65:
 966 0024 03A8     		add	r0, sp, #12
 967              	.LVL66:
 968 0026 FFF7FEFF 		bl	chVTSetI
 969              	.LVL67:
ARM GAS  /tmp/cc1xcmoB.s 			page 18


 970              	.L97:
 971              		.loc 1 633 0
 972              		.syntax divided
 973              	@ 633 "../../os/hal/platforms/STM32/I2Cv2/i2c_lld.c" 1
 974 002a 62B6     		cpsie   i
 975              	@ 0 "" 2
 976              		.loc 1 637 0
 977              		.thumb
 978              		.syntax unified
 979 002c 8023     		movs	r3, #128
 980 002e A169     		ldr	r1, [r4, #24]
 981 0030 1B02     		lsls	r3, r3, #8
 982 0032 1A00     		movs	r2, r3
 983 0034 1942     		tst	r1, r3
 984 0036 09D0     		beq	.L103
 985              	.L115:
 986              		.loc 1 638 0
 987              		.syntax divided
 988              	@ 638 "../../os/hal/platforms/STM32/I2Cv2/i2c_lld.c" 1
 989 0038 72B6     		cpsid   i
 990              	@ 0 "" 2
 991              		.loc 1 639 0
 992              		.thumb
 993              		.syntax unified
 994 003a 6B1C     		adds	r3, r5, #1
 995 003c 02D0     		beq	.L101
 996              		.loc 1 639 0 is_stmt 0 discriminator 1
 997 003e 069B     		ldr	r3, [sp, #24]
 998 0040 002B     		cmp	r3, #0
 999 0042 49D0     		beq	.L105
 1000              	.L101:
 1001              		.loc 1 641 0 is_stmt 1
 1002              		.syntax divided
 1003              	@ 641 "../../os/hal/platforms/STM32/I2Cv2/i2c_lld.c" 1
 1004 0044 62B6     		cpsie   i
 1005              	@ 0 "" 2
 1006              		.loc 1 637 0
 1007              		.thumb
 1008              		.syntax unified
 1009 0046 A369     		ldr	r3, [r4, #24]
 1010 0048 1342     		tst	r3, r2
 1011 004a F5D1     		bne	.L115
 1012              	.L103:
 1013              		.loc 1 621 0
 1014 004c 4B46     		mov	r3, r9
 1015 004e 9905     		lsls	r1, r3, #22
 1016 0050 890D     		lsrs	r1, r1, #22
 1017              		.loc 1 645 0
 1018              		.syntax divided
 1019              	@ 645 "../../os/hal/platforms/STM32/I2Cv2/i2c_lld.c" 1
 1020 0052 72B6     		cpsid   i
 1021              	@ 0 "" 2
 1022              		.loc 1 648 0
 1023              		.thumb
 1024              		.syntax unified
 1025 0054 7368     		ldr	r3, [r6, #4]
 1026 0056 9B68     		ldr	r3, [r3, #8]
ARM GAS  /tmp/cc1xcmoB.s 			page 19


 1027 0058 1B05     		lsls	r3, r3, #20
 1028 005a 39D5     		bpl	.L99
 1029              	.LVL68:
 1030              	.L100:
 1031              		.loc 1 652 0
 1032 005c 6268     		ldr	r2, [r4, #4]
 1033 005e 294B     		ldr	r3, .L122+4
 1034 0060 1340     		ands	r3, r2
 1035 0062 6360     		str	r3, [r4, #4]
 1036              		.loc 1 653 0
 1037 0064 6368     		ldr	r3, [r4, #4]
 1038 0066 3A04     		lsls	r2, r7, #16
 1039 0068 1343     		orrs	r3, r2
 1040 006a 1943     		orrs	r1, r3
 1041              	.LVL69:
 1042              		.loc 1 656 0
 1043 006c 0023     		movs	r3, #0
 1044              		.loc 1 653 0
 1045 006e 6160     		str	r1, [r4, #4]
 1046              		.loc 1 656 0
 1047 0070 B360     		str	r3, [r6, #8]
 1048              		.loc 1 659 0
 1049 0072 F36A     		ldr	r3, [r6, #44]
 1050 0074 726A     		ldr	r2, [r6, #36]
 1051 0076 1B68     		ldr	r3, [r3]
 1052 0078 1A60     		str	r2, [r3]
 1053              		.loc 1 660 0
 1054 007a 4246     		mov	r2, r8
 1055 007c DA60     		str	r2, [r3, #12]
 1056              		.loc 1 664 0
 1057 007e 0122     		movs	r2, #1
 1058              		.loc 1 661 0
 1059 0080 5F60     		str	r7, [r3, #4]
 1060              		.loc 1 664 0
 1061 0082 1968     		ldr	r1, [r3]
 1062 0084 0A43     		orrs	r2, r1
 1063 0086 1A60     		str	r2, [r3]
 1064              		.loc 1 668 0
 1065 0088 6B1C     		adds	r3, r5, #1
 1066 008a 28D0     		beq	.L104
 1067              		.loc 1 668 0 is_stmt 0 discriminator 1
 1068 008c 069B     		ldr	r3, [sp, #24]
 1069 008e 0193     		str	r3, [sp, #4]
 1070 0090 002B     		cmp	r3, #0
 1071 0092 21D0     		beq	.L105
 1072              		.loc 1 672 0 is_stmt 1
 1073 0094 8022     		movs	r2, #128
 1074 0096 6368     		ldr	r3, [r4, #4]
 1075 0098 D200     		lsls	r2, r2, #3
 1076 009a 1343     		orrs	r3, r2
 1077              		.loc 1 673 0
 1078 009c 8022     		movs	r2, #128
 1079              		.loc 1 672 0
 1080 009e 6360     		str	r3, [r4, #4]
 1081              		.loc 1 673 0
 1082 00a0 6368     		ldr	r3, [r4, #4]
 1083 00a2 9201     		lsls	r2, r2, #6
ARM GAS  /tmp/cc1xcmoB.s 			page 20


 1084 00a4 1343     		orrs	r3, r2
 1085 00a6 6360     		str	r3, [r4, #4]
 1086              		.loc 1 676 0
 1087 00a8 174C     		ldr	r4, .L122+8
 1088              	.LVL70:
 1089              		.loc 1 677 0
 1090 00aa 0220     		movs	r0, #2
 1091              		.loc 1 676 0
 1092 00ac A369     		ldr	r3, [r4, #24]
 1093 00ae F361     		str	r3, [r6, #28]
 1094              		.loc 1 677 0
 1095 00b0 FFF7FEFF 		bl	chSchGoSleepS
 1096              	.LVL71:
 1097              		.loc 1 678 0
 1098 00b4 069B     		ldr	r3, [sp, #24]
 1099 00b6 0193     		str	r3, [sp, #4]
 1100 00b8 002B     		cmp	r3, #0
 1101 00ba 02D0     		beq	.L108
 1102              		.loc 1 679 0
 1103 00bc 03A8     		add	r0, sp, #12
 1104 00be FFF7FEFF 		bl	chVTResetI
 1105              	.LVL72:
 1106              	.L108:
 1107              		.loc 1 681 0
 1108 00c2 A369     		ldr	r3, [r4, #24]
 1109 00c4 586A     		ldr	r0, [r3, #36]
 1110              	.L120:
 1111              		.loc 1 682 0
 1112 00c6 09B0     		add	sp, sp, #36
 1113              		@ sp needed
 1114              	.LVL73:
 1115              	.LVL74:
 1116              	.LVL75:
 1117 00c8 0CBC     		pop	{r2, r3}
 1118 00ca 9046     		mov	r8, r2
 1119 00cc 9946     		mov	r9, r3
 1120 00ce F0BD     		pop	{r4, r5, r6, r7, pc}
 1121              	.LVL76:
 1122              	.L99:
 1123              		.loc 1 649 0
 1124 00d0 FF23     		movs	r3, #255
 1125 00d2 4900     		lsls	r1, r1, #1
 1126 00d4 1940     		ands	r1, r3
 1127              	.LVL77:
 1128 00d6 C1E7     		b	.L100
 1129              	.LVL78:
 1130              	.L105:
 1131              		.loc 1 640 0
 1132 00d8 0120     		movs	r0, #1
 1133 00da 4042     		rsbs	r0, r0, #0
 1134 00dc F3E7     		b	.L120
 1135              	.L104:
 1136              		.loc 1 672 0
 1137 00de 8022     		movs	r2, #128
 1138 00e0 6368     		ldr	r3, [r4, #4]
 1139 00e2 D200     		lsls	r2, r2, #3
 1140 00e4 1343     		orrs	r3, r2
ARM GAS  /tmp/cc1xcmoB.s 			page 21


 1141              		.loc 1 673 0
 1142 00e6 8022     		movs	r2, #128
 1143              		.loc 1 672 0
 1144 00e8 6360     		str	r3, [r4, #4]
 1145              		.loc 1 673 0
 1146 00ea 6368     		ldr	r3, [r4, #4]
 1147 00ec 9201     		lsls	r2, r2, #6
 1148 00ee 1343     		orrs	r3, r2
 1149 00f0 6360     		str	r3, [r4, #4]
 1150              		.loc 1 676 0
 1151 00f2 054C     		ldr	r4, .L122+8
 1152              	.LVL79:
 1153              		.loc 1 677 0
 1154 00f4 0220     		movs	r0, #2
 1155              		.loc 1 676 0
 1156 00f6 A369     		ldr	r3, [r4, #24]
 1157 00f8 F361     		str	r3, [r6, #28]
 1158              		.loc 1 677 0
 1159 00fa FFF7FEFF 		bl	chSchGoSleepS
 1160              	.LVL80:
 1161 00fe E0E7     		b	.L108
 1162              	.L123:
 1163              		.align	2
 1164              	.L122:
 1165 0100 00000000 		.word	i2c_lld_safety_timeout
 1166 0104 00FC00FF 		.word	-16712704
 1167 0108 00000000 		.word	rlist
 1168              		.cfi_endproc
 1169              	.LFE50:
 1170              		.size	i2c_lld_master_receive_timeout, .-i2c_lld_master_receive_timeout
 1171              		.section	.text.i2c_lld_master_transmit_timeout,"ax",%progbits
 1172              		.align	2
 1173              		.p2align 4,,15
 1174              		.global	i2c_lld_master_transmit_timeout
 1175              		.code	16
 1176              		.thumb_func
 1177              		.type	i2c_lld_master_transmit_timeout, %function
 1178              	i2c_lld_master_transmit_timeout:
 1179              	.LFB51:
 1180              		.loc 1 712 0
 1181              		.cfi_startproc
 1182              		@ args = 12, pretend = 0, frame = 32
 1183              		@ frame_needed = 0, uses_anonymous_args = 0
 1184              	.LVL81:
 1185 0000 F0B5     		push	{r4, r5, r6, r7, lr}
 1186              		.cfi_def_cfa_offset 20
 1187              		.cfi_offset 4, -20
 1188              		.cfi_offset 5, -16
 1189              		.cfi_offset 6, -12
 1190              		.cfi_offset 7, -8
 1191              		.cfi_offset 14, -4
 1192 0002 4F46     		mov	r7, r9
 1193 0004 4646     		mov	r6, r8
 1194 0006 C0B4     		push	{r6, r7}
 1195              		.cfi_def_cfa_offset 28
 1196              		.cfi_offset 8, -28
 1197              		.cfi_offset 9, -24
ARM GAS  /tmp/cc1xcmoB.s 			page 22


 1198 0008 1F00     		movs	r7, r3
 1199              		.loc 1 721 0
 1200 000a 0023     		movs	r3, #0
 1201              	.LVL82:
 1202              		.loc 1 712 0
 1203 000c 89B0     		sub	sp, sp, #36
 1204              		.cfi_def_cfa_offset 64
 1205              		.loc 1 712 0
 1206 000e 129D     		ldr	r5, [sp, #72]
 1207 0010 0600     		movs	r6, r0
 1208 0012 8946     		mov	r9, r1
 1209 0014 9046     		mov	r8, r2
 1210              		.loc 1 713 0
 1211 0016 446B     		ldr	r4, [r0, #52]
 1212              	.LVL83:
 1213              		.loc 1 721 0
 1214 0018 8360     		str	r3, [r0, #8]
 1215              		.loc 1 724 0
 1216 001a 6B1C     		adds	r3, r5, #1
 1217 001c 05D0     		beq	.L125
 1218              		.loc 1 725 0
 1219 001e 0300     		movs	r3, r0
 1220 0020 3E4A     		ldr	r2, .L150
 1221              	.LVL84:
 1222 0022 2900     		movs	r1, r5
 1223              	.LVL85:
 1224 0024 03A8     		add	r0, sp, #12
 1225              	.LVL86:
 1226 0026 FFF7FEFF 		bl	chVTSetI
 1227              	.LVL87:
 1228              	.L125:
 1229              		.loc 1 728 0
 1230              		.syntax divided
 1231              	@ 728 "../../os/hal/platforms/STM32/I2Cv2/i2c_lld.c" 1
 1232 002a 62B6     		cpsie   i
 1233              	@ 0 "" 2
 1234              		.loc 1 732 0
 1235              		.thumb
 1236              		.syntax unified
 1237 002c 8023     		movs	r3, #128
 1238 002e A169     		ldr	r1, [r4, #24]
 1239 0030 1B02     		lsls	r3, r3, #8
 1240 0032 1A00     		movs	r2, r3
 1241 0034 1942     		tst	r1, r3
 1242 0036 09D0     		beq	.L131
 1243              	.L143:
 1244              		.loc 1 733 0
 1245              		.syntax divided
 1246              	@ 733 "../../os/hal/platforms/STM32/I2Cv2/i2c_lld.c" 1
 1247 0038 72B6     		cpsid   i
 1248              	@ 0 "" 2
 1249              		.loc 1 734 0
 1250              		.thumb
 1251              		.syntax unified
 1252 003a 6B1C     		adds	r3, r5, #1
 1253 003c 02D0     		beq	.L129
 1254              		.loc 1 734 0 is_stmt 0 discriminator 1
ARM GAS  /tmp/cc1xcmoB.s 			page 23


 1255 003e 069B     		ldr	r3, [sp, #24]
 1256 0040 002B     		cmp	r3, #0
 1257 0042 54D0     		beq	.L133
 1258              	.L129:
 1259              		.loc 1 736 0 is_stmt 1
 1260              		.syntax divided
 1261              	@ 736 "../../os/hal/platforms/STM32/I2Cv2/i2c_lld.c" 1
 1262 0044 62B6     		cpsie   i
 1263              	@ 0 "" 2
 1264              		.loc 1 732 0
 1265              		.thumb
 1266              		.syntax unified
 1267 0046 A369     		ldr	r3, [r4, #24]
 1268 0048 1342     		tst	r3, r2
 1269 004a F5D1     		bne	.L143
 1270              	.L131:
 1271              		.loc 1 715 0
 1272 004c 4B46     		mov	r3, r9
 1273 004e 9905     		lsls	r1, r3, #22
 1274 0050 890D     		lsrs	r1, r1, #22
 1275              		.loc 1 740 0
 1276              		.syntax divided
 1277              	@ 740 "../../os/hal/platforms/STM32/I2Cv2/i2c_lld.c" 1
 1278 0052 72B6     		cpsid   i
 1279              	@ 0 "" 2
 1280              		.loc 1 743 0
 1281              		.thumb
 1282              		.syntax unified
 1283 0054 7368     		ldr	r3, [r6, #4]
 1284 0056 9B68     		ldr	r3, [r3, #8]
 1285 0058 1B05     		lsls	r3, r3, #20
 1286 005a 44D5     		bpl	.L127
 1287              	.LVL88:
 1288              	.L128:
 1289              		.loc 1 747 0
 1290 005c 6268     		ldr	r2, [r4, #4]
 1291 005e 304B     		ldr	r3, .L150+4
 1292 0060 1340     		ands	r3, r2
 1293 0062 6360     		str	r3, [r4, #4]
 1294              		.loc 1 748 0
 1295 0064 6368     		ldr	r3, [r4, #4]
 1296 0066 3A04     		lsls	r2, r7, #16
 1297 0068 1343     		orrs	r3, r2
 1298 006a 1943     		orrs	r1, r3
 1299              	.LVL89:
 1300              		.loc 1 751 0
 1301 006c 0023     		movs	r3, #0
 1302              		.loc 1 748 0
 1303 006e 6160     		str	r1, [r4, #4]
 1304              		.loc 1 751 0
 1305 0070 B360     		str	r3, [r6, #8]
 1306              		.loc 1 754 0
 1307 0072 336B     		ldr	r3, [r6, #48]
 1308 0074 B26A     		ldr	r2, [r6, #40]
 1309 0076 1B68     		ldr	r3, [r3]
 1310              		.loc 1 759 0
 1311 0078 716A     		ldr	r1, [r6, #36]
ARM GAS  /tmp/cc1xcmoB.s 			page 24


 1312              		.loc 1 754 0
 1313 007a 1A60     		str	r2, [r3]
 1314              		.loc 1 755 0
 1315 007c 4246     		mov	r2, r8
 1316 007e DA60     		str	r2, [r3, #12]
 1317              		.loc 1 759 0
 1318 0080 F26A     		ldr	r2, [r6, #44]
 1319              		.loc 1 756 0
 1320 0082 5F60     		str	r7, [r3, #4]
 1321              		.loc 1 759 0
 1322 0084 1268     		ldr	r2, [r2]
 1323 0086 1160     		str	r1, [r2]
 1324              		.loc 1 760 0
 1325 0088 1099     		ldr	r1, [sp, #64]
 1326 008a D160     		str	r1, [r2, #12]
 1327              		.loc 1 761 0
 1328 008c 1199     		ldr	r1, [sp, #68]
 1329 008e 5160     		str	r1, [r2, #4]
 1330              		.loc 1 764 0
 1331 0090 0122     		movs	r2, #1
 1332 0092 1968     		ldr	r1, [r3]
 1333 0094 0A43     		orrs	r2, r1
 1334 0096 1A60     		str	r2, [r3]
 1335              		.loc 1 768 0
 1336 0098 6B1C     		adds	r3, r5, #1
 1337 009a 2BD0     		beq	.L132
 1338              		.loc 1 768 0 is_stmt 0 discriminator 1
 1339 009c 069B     		ldr	r3, [sp, #24]
 1340 009e 0193     		str	r3, [sp, #4]
 1341 00a0 002B     		cmp	r3, #0
 1342 00a2 24D0     		beq	.L133
 1343              		.loc 1 772 0 is_stmt 1
 1344 00a4 4023     		movs	r3, #64
 1345 00a6 2268     		ldr	r2, [r4]
 1346              		.loc 1 780 0
 1347 00a8 0220     		movs	r0, #2
 1348              		.loc 1 772 0
 1349 00aa 1343     		orrs	r3, r2
 1350 00ac 2360     		str	r3, [r4]
 1351              		.loc 1 775 0
 1352 00ae 6268     		ldr	r2, [r4, #4]
 1353 00b0 1C4B     		ldr	r3, .L150+8
 1354 00b2 1340     		ands	r3, r2
 1355              		.loc 1 776 0
 1356 00b4 8022     		movs	r2, #128
 1357              		.loc 1 775 0
 1358 00b6 6360     		str	r3, [r4, #4]
 1359              		.loc 1 776 0
 1360 00b8 6368     		ldr	r3, [r4, #4]
 1361 00ba 9201     		lsls	r2, r2, #6
 1362 00bc 1343     		orrs	r3, r2
 1363 00be 6360     		str	r3, [r4, #4]
 1364              		.loc 1 779 0
 1365 00c0 194C     		ldr	r4, .L150+12
 1366              	.LVL90:
 1367 00c2 A369     		ldr	r3, [r4, #24]
 1368 00c4 F361     		str	r3, [r6, #28]
ARM GAS  /tmp/cc1xcmoB.s 			page 25


 1369              		.loc 1 780 0
 1370 00c6 FFF7FEFF 		bl	chSchGoSleepS
 1371              	.LVL91:
 1372              		.loc 1 781 0
 1373 00ca 069B     		ldr	r3, [sp, #24]
 1374 00cc 0193     		str	r3, [sp, #4]
 1375 00ce 002B     		cmp	r3, #0
 1376 00d0 02D0     		beq	.L136
 1377              		.loc 1 782 0
 1378 00d2 03A8     		add	r0, sp, #12
 1379 00d4 FFF7FEFF 		bl	chVTResetI
 1380              	.LVL92:
 1381              	.L136:
 1382              		.loc 1 784 0
 1383 00d8 A369     		ldr	r3, [r4, #24]
 1384 00da 586A     		ldr	r0, [r3, #36]
 1385              	.L148:
 1386              		.loc 1 785 0
 1387 00dc 09B0     		add	sp, sp, #36
 1388              		@ sp needed
 1389              	.LVL93:
 1390              	.LVL94:
 1391              	.LVL95:
 1392 00de 0CBC     		pop	{r2, r3}
 1393 00e0 9046     		mov	r8, r2
 1394 00e2 9946     		mov	r9, r3
 1395 00e4 F0BD     		pop	{r4, r5, r6, r7, pc}
 1396              	.LVL96:
 1397              	.L127:
 1398              		.loc 1 744 0
 1399 00e6 FF23     		movs	r3, #255
 1400 00e8 4900     		lsls	r1, r1, #1
 1401 00ea 1940     		ands	r1, r3
 1402              	.LVL97:
 1403 00ec B6E7     		b	.L128
 1404              	.LVL98:
 1405              	.L133:
 1406              		.loc 1 735 0
 1407 00ee 0120     		movs	r0, #1
 1408 00f0 4042     		rsbs	r0, r0, #0
 1409 00f2 F3E7     		b	.L148
 1410              	.L132:
 1411              		.loc 1 772 0
 1412 00f4 4023     		movs	r3, #64
 1413 00f6 2268     		ldr	r2, [r4]
 1414              		.loc 1 780 0
 1415 00f8 0220     		movs	r0, #2
 1416              		.loc 1 772 0
 1417 00fa 1343     		orrs	r3, r2
 1418 00fc 2360     		str	r3, [r4]
 1419              		.loc 1 775 0
 1420 00fe 6268     		ldr	r2, [r4, #4]
 1421 0100 084B     		ldr	r3, .L150+8
 1422 0102 1340     		ands	r3, r2
 1423              		.loc 1 776 0
 1424 0104 8022     		movs	r2, #128
 1425              		.loc 1 775 0
ARM GAS  /tmp/cc1xcmoB.s 			page 26


 1426 0106 6360     		str	r3, [r4, #4]
 1427              		.loc 1 776 0
 1428 0108 6368     		ldr	r3, [r4, #4]
 1429 010a 9201     		lsls	r2, r2, #6
 1430 010c 1343     		orrs	r3, r2
 1431 010e 6360     		str	r3, [r4, #4]
 1432              		.loc 1 779 0
 1433 0110 054C     		ldr	r4, .L150+12
 1434              	.LVL99:
 1435 0112 A369     		ldr	r3, [r4, #24]
 1436 0114 F361     		str	r3, [r6, #28]
 1437              		.loc 1 780 0
 1438 0116 FFF7FEFF 		bl	chSchGoSleepS
 1439              	.LVL100:
 1440 011a DDE7     		b	.L136
 1441              	.L151:
 1442              		.align	2
 1443              	.L150:
 1444 011c 00000000 		.word	i2c_lld_safety_timeout
 1445 0120 00FC00FF 		.word	-16712704
 1446 0124 FFFBFFFF 		.word	-1025
 1447 0128 00000000 		.word	rlist
 1448              		.cfi_endproc
 1449              	.LFE51:
 1450              		.size	i2c_lld_master_transmit_timeout, .-i2c_lld_master_transmit_timeout
 1451              		.global	I2CD1
 1452              		.section	.bss.I2CD1,"aw",%nobits
 1453              		.align	2
 1454              		.set	.LANCHOR0,. + 0
 1455              		.type	I2CD1, %object
 1456              		.size	I2CD1, 56
 1457              	I2CD1:
 1458 0000 00000000 		.space	56
 1458      00000000 
 1458      00000000 
 1458      00000000 
 1458      00000000 
 1459              		.text
 1460              	.Letext0:
 1461              		.file 2 "/home/lithium/Descargas/gcc-arm-none-eabi-5_3-2016q1/lib/gcc/arm-none-eabi/5.3.1/include/
 1462              		.file 3 "/home/lithium/Descargas/gcc-arm-none-eabi-5_3-2016q1/arm-none-eabi/include/machine/_defau
 1463              		.file 4 "/home/lithium/Descargas/gcc-arm-none-eabi-5_3-2016q1/arm-none-eabi/include/sys/_stdint.h"
 1464              		.file 5 "../../os/ports/GCC/ARMCMx/chtypes.h"
 1465              		.file 6 "../../os/kernel/include/chlists.h"
 1466              		.file 7 "../../os/kernel/include/chthreads.h"
 1467              		.file 8 "../../os/ports/GCC/ARMCMx/chcore_v6m.h"
 1468              		.file 9 "../../os/kernel/include/chvt.h"
 1469              		.file 10 "../../os/kernel/include/chschd.h"
 1470              		.file 11 "../../os/kernel/include/chmtx.h"
 1471              		.file 12 "../../os/hal/platforms/STM32F0xx/stm32f0xx.h"
 1472              		.file 13 "../../os/hal/platforms/STM32F0xx/stm32_dma.h"
 1473              		.file 14 "../../os/hal/include/i2c.h"
 1474              		.file 15 "../../os/hal/platforms/STM32/I2Cv2/i2c_lld.h"
 1475              		.file 16 "../../os/ports/common/ARMCMx/nvic.h"