ARM GAS  /tmp/ccrtfgA7.s 			page 1


   1              		.syntax unified
   2              		.cpu cortex-m0
   3              		.fpu softvfp
   4              		.eabi_attribute 20, 1
   5              		.eabi_attribute 21, 1
   6              		.eabi_attribute 23, 3
   7              		.eabi_attribute 24, 1
   8              		.eabi_attribute 25, 1
   9              		.eabi_attribute 26, 1
  10              		.eabi_attribute 30, 2
  11              		.eabi_attribute 34, 0
  12              		.eabi_attribute 18, 4
  13              		.thumb
  14              		.syntax unified
  15              		.file	"pal.c"
  16              		.text
  17              	.Ltext0:
  18              		.cfi_sections	.debug_frame
  19              		.section	.text.palReadBus,"ax",%progbits
  20              		.align	2
  21              		.p2align 4,,15
  22              		.global	palReadBus
  23              		.code	16
  24              		.thumb_func
  25              		.type	palReadBus, %function
  26              	palReadBus:
  27              	.LFB40:
  28              		.file 1 "../../os/hal/src/pal.c"
  29              		.loc 1 77 0
  30              		.cfi_startproc
  31              		@ args = 0, pretend = 0, frame = 0
  32              		@ frame_needed = 0, uses_anonymous_args = 0
  33              		@ link register save eliminated.
  34              	.LVL0:
  35              		.loc 1 82 0
  36 0000 0368     		ldr	r3, [r0]
  37 0002 8268     		ldr	r2, [r0, #8]
  38 0004 1B69     		ldr	r3, [r3, #16]
  39 0006 4068     		ldr	r0, [r0, #4]
  40              	.LVL1:
  41 0008 D340     		lsrs	r3, r3, r2
  42              		.loc 1 83 0
  43              		@ sp needed
  44              		.loc 1 82 0
  45 000a 1840     		ands	r0, r3
  46              		.loc 1 83 0
  47 000c 7047     		bx	lr
  48              		.cfi_endproc
  49              	.LFE40:
  50              		.size	palReadBus, .-palReadBus
  51 000e C046     		.section	.text.palWriteBus,"ax",%progbits
  52              		.align	2
  53              		.p2align 4,,15
  54              		.global	palWriteBus
  55              		.code	16
  56              		.thumb_func
  57              		.type	palWriteBus, %function
ARM GAS  /tmp/ccrtfgA7.s 			page 2


  58              	palWriteBus:
  59              	.LFB41:
  60              		.loc 1 103 0
  61              		.cfi_startproc
  62              		@ args = 0, pretend = 0, frame = 0
  63              		@ frame_needed = 0, uses_anonymous_args = 0
  64              	.LVL2:
  65 0000 30B5     		push	{r4, r5, lr}
  66              		.cfi_def_cfa_offset 12
  67              		.cfi_offset 4, -12
  68              		.cfi_offset 5, -8
  69              		.cfi_offset 14, -4
  70              		.loc 1 108 0
  71 0002 8268     		ldr	r2, [r0, #8]
  72 0004 4468     		ldr	r4, [r0, #4]
  73 0006 0568     		ldr	r5, [r0]
  74 0008 2300     		movs	r3, r4
  75 000a 1000     		movs	r0, r2
  76              	.LVL3:
  77 000c 8B43     		bics	r3, r1
  78 000e 1030     		adds	r0, r0, #16
  79 0010 2140     		ands	r1, r4
  80              	.LVL4:
  81 0012 8340     		lsls	r3, r3, r0
  82 0014 9140     		lsls	r1, r1, r2
  83 0016 1943     		orrs	r1, r3
  84 0018 A961     		str	r1, [r5, #24]
  85              		.loc 1 109 0
  86              		@ sp needed
  87 001a 30BD     		pop	{r4, r5, pc}
  88              		.cfi_endproc
  89              	.LFE41:
  90              		.size	palWriteBus, .-palWriteBus
  91              		.section	.text.palSetBusMode,"ax",%progbits
  92              		.align	2
  93              		.p2align 4,,15
  94              		.global	palSetBusMode
  95              		.code	16
  96              		.thumb_func
  97              		.type	palSetBusMode, %function
  98              	palSetBusMode:
  99              	.LFB42:
 100              		.loc 1 127 0
 101              		.cfi_startproc
 102              		@ args = 0, pretend = 0, frame = 0
 103              		@ frame_needed = 0, uses_anonymous_args = 0
 104              	.LVL5:
 105 0000 10B5     		push	{r4, lr}
 106              		.cfi_def_cfa_offset 8
 107              		.cfi_offset 4, -8
 108              		.cfi_offset 14, -4
 109              		.loc 1 132 0
 110 0002 8368     		ldr	r3, [r0, #8]
 111              		.loc 1 127 0
 112 0004 0A00     		movs	r2, r1
 113              		.loc 1 132 0
 114 0006 4168     		ldr	r1, [r0, #4]
ARM GAS  /tmp/ccrtfgA7.s 			page 3


 115              	.LVL6:
 116 0008 0068     		ldr	r0, [r0]
 117              	.LVL7:
 118 000a 9940     		lsls	r1, r1, r3
 119 000c FFF7FEFF 		bl	_pal_lld_setgroupmode
 120              	.LVL8:
 121              		.loc 1 133 0
 122              		@ sp needed
 123 0010 10BD     		pop	{r4, pc}
 124              		.cfi_endproc
 125              	.LFE42:
 126              		.size	palSetBusMode, .-palSetBusMode
 127 0012 C046     		.text
 128              	.Letext0:
 129              		.file 2 "/home/lithium/Descargas/gcc-arm-none-eabi-5_3-2016q1/arm-none-eabi/include/machine/_defau
 130              		.file 3 "/home/lithium/Descargas/gcc-arm-none-eabi-5_3-2016q1/arm-none-eabi/include/sys/_stdint.h"
 131              		.file 4 "/home/lithium/Descargas/gcc-arm-none-eabi-5_3-2016q1/arm-none-eabi/include/stdint.h"
 132              		.file 5 "../../os/hal/platforms/STM32/GPIOv2/pal_lld.h"
 133              		.file 6 "../../os/hal/include/pal.h"