ARM GAS  /tmp/cc4EDIHk.s 			page 1


   1              		.syntax unified
   2              		.cpu cortex-m0
   3              		.fpu softvfp
   4              		.eabi_attribute 20, 1
   5              		.eabi_attribute 21, 1
   6              		.eabi_attribute 23, 3
   7              		.eabi_attribute 24, 1
   8              		.eabi_attribute 25, 1
   9              		.eabi_attribute 26, 1
  10              		.eabi_attribute 30, 2
  11              		.eabi_attribute 34, 0
  12              		.eabi_attribute 18, 4
  13              		.thumb
  14              		.syntax unified
  15              		.file	"stm32_dma.c"
  16              		.text
  17              	.Ltext0:
  18              		.cfi_sections	.debug_frame
  19              		.section	.text.Vector64,"ax",%progbits
  20              		.align	2
  21              		.p2align 4,,15
  22              		.global	Vector64
  23              		.code	16
  24              		.thumb_func
  25              		.type	Vector64, %function
  26              	Vector64:
  27              	.LFB40:
  28              		.file 1 "../../os/hal/platforms/STM32F0xx/stm32_dma.c"
  29              		.loc 1 112 0
  30              		.cfi_startproc
  31              		@ args = 0, pretend = 0, frame = 0
  32              		@ frame_needed = 0, uses_anonymous_args = 0
  33 0000 10B5     		push	{r4, lr}
  34              		.cfi_def_cfa_offset 8
  35              		.cfi_offset 4, -8
  36              		.cfi_offset 14, -4
  37              		.loc 1 115 0
  38              		.syntax divided
  39              	@ 115 "../../os/hal/platforms/STM32F0xx/stm32_dma.c" 1
  40 0002 7446     		mov     r4, lr
  41              	@ 0 "" 2
  42              	.LVL0:
  43              		.loc 1 117 0
  44              		.thumb
  45              		.syntax unified
  46 0004 0F21     		movs	r1, #15
  47 0006 074A     		ldr	r2, .L7
  48 0008 1368     		ldr	r3, [r2]
  49 000a 1940     		ands	r1, r3
  50              	.LVL1:
  51              		.loc 1 118 0
  52 000c 5160     		str	r1, [r2, #4]
  53              		.loc 1 119 0
  54 000e 064A     		ldr	r2, .L7+4
  55 0010 1368     		ldr	r3, [r2]
  56 0012 002B     		cmp	r3, #0
  57 0014 01D0     		beq	.L2
ARM GAS  /tmp/cc4EDIHk.s 			page 2


  58              		.loc 1 120 0
  59 0016 5068     		ldr	r0, [r2, #4]
  60 0018 9847     		blx	r3
  61              	.LVL2:
  62              	.L2:
  63              		.loc 1 122 0
  64 001a 2000     		movs	r0, r4
  65 001c FFF7FEFF 		bl	_port_irq_epilogue
  66              	.LVL3:
  67              		.loc 1 123 0
  68              		@ sp needed
  69              	.LVL4:
  70 0020 10BD     		pop	{r4, pc}
  71              	.L8:
  72 0022 C046     		.align	2
  73              	.L7:
  74 0024 00000240 		.word	1073872896
  75 0028 00000000 		.word	.LANCHOR0
  76              		.cfi_endproc
  77              	.LFE40:
  78              		.size	Vector64, .-Vector64
  79              		.section	.text.Vector68,"ax",%progbits
  80              		.align	2
  81              		.p2align 4,,15
  82              		.global	Vector68
  83              		.code	16
  84              		.thumb_func
  85              		.type	Vector68, %function
  86              	Vector68:
  87              	.LFB41:
  88              		.loc 1 130 0
  89              		.cfi_startproc
  90              		@ args = 0, pretend = 0, frame = 0
  91              		@ frame_needed = 0, uses_anonymous_args = 0
  92 0000 10B5     		push	{r4, lr}
  93              		.cfi_def_cfa_offset 8
  94              		.cfi_offset 4, -8
  95              		.cfi_offset 14, -4
  96              		.loc 1 133 0
  97              		.syntax divided
  98              	@ 133 "../../os/hal/platforms/STM32F0xx/stm32_dma.c" 1
  99 0002 7446     		mov     r4, lr
 100              	@ 0 "" 2
 101              	.LVL5:
 102              		.loc 1 136 0
 103              		.thumb
 104              		.syntax unified
 105 0004 0E4B     		ldr	r3, .L22
 106 0006 1968     		ldr	r1, [r3]
 107 0008 0906     		lsls	r1, r1, #24
 108 000a 090F     		lsrs	r1, r1, #28
 109              	.LVL6:
 110              		.loc 1 137 0
 111 000c 07D0     		beq	.L11
 112              		.loc 1 138 0
 113 000e 0A01     		lsls	r2, r1, #4
 114 0010 5A60     		str	r2, [r3, #4]
ARM GAS  /tmp/cc4EDIHk.s 			page 3


 115              		.loc 1 139 0
 116 0012 0C4A     		ldr	r2, .L22+4
 117 0014 9368     		ldr	r3, [r2, #8]
 118 0016 002B     		cmp	r3, #0
 119 0018 01D0     		beq	.L11
 120              		.loc 1 140 0
 121 001a D068     		ldr	r0, [r2, #12]
 122 001c 9847     		blx	r3
 123              	.LVL7:
 124              	.L11:
 125              		.loc 1 144 0
 126 001e 084B     		ldr	r3, .L22
 127 0020 1968     		ldr	r1, [r3]
 128 0022 0905     		lsls	r1, r1, #20
 129 0024 090F     		lsrs	r1, r1, #28
 130              	.LVL8:
 131              		.loc 1 145 0
 132 0026 07D0     		beq	.L14
 133              		.loc 1 146 0
 134 0028 0A02     		lsls	r2, r1, #8
 135 002a 5A60     		str	r2, [r3, #4]
 136              		.loc 1 147 0
 137 002c 054A     		ldr	r2, .L22+4
 138 002e 1369     		ldr	r3, [r2, #16]
 139 0030 002B     		cmp	r3, #0
 140 0032 01D0     		beq	.L14
 141              		.loc 1 148 0
 142 0034 5069     		ldr	r0, [r2, #20]
 143 0036 9847     		blx	r3
 144              	.LVL9:
 145              	.L14:
 146              		.loc 1 151 0
 147 0038 2000     		movs	r0, r4
 148 003a FFF7FEFF 		bl	_port_irq_epilogue
 149              	.LVL10:
 150              		.loc 1 152 0
 151              		@ sp needed
 152              	.LVL11:
 153 003e 10BD     		pop	{r4, pc}
 154              	.L23:
 155              		.align	2
 156              	.L22:
 157 0040 00000240 		.word	1073872896
 158 0044 00000000 		.word	.LANCHOR0
 159              		.cfi_endproc
 160              	.LFE41:
 161              		.size	Vector68, .-Vector68
 162              		.section	.text.Vector6C,"ax",%progbits
 163              		.align	2
 164              		.p2align 4,,15
 165              		.global	Vector6C
 166              		.code	16
 167              		.thumb_func
 168              		.type	Vector6C, %function
 169              	Vector6C:
 170              	.LFB42:
 171              		.loc 1 159 0
ARM GAS  /tmp/cc4EDIHk.s 			page 4


 172              		.cfi_startproc
 173              		@ args = 0, pretend = 0, frame = 0
 174              		@ frame_needed = 0, uses_anonymous_args = 0
 175 0000 10B5     		push	{r4, lr}
 176              		.cfi_def_cfa_offset 8
 177              		.cfi_offset 4, -8
 178              		.cfi_offset 14, -4
 179              		.loc 1 162 0
 180              		.syntax divided
 181              	@ 162 "../../os/hal/platforms/STM32F0xx/stm32_dma.c" 1
 182 0002 7446     		mov     r4, lr
 183              	@ 0 "" 2
 184              	.LVL12:
 185              		.loc 1 165 0
 186              		.thumb
 187              		.syntax unified
 188 0004 0E4B     		ldr	r3, .L37
 189 0006 1968     		ldr	r1, [r3]
 190 0008 0904     		lsls	r1, r1, #16
 191 000a 090F     		lsrs	r1, r1, #28
 192              	.LVL13:
 193              		.loc 1 166 0
 194 000c 07D0     		beq	.L26
 195              		.loc 1 167 0
 196 000e 0A03     		lsls	r2, r1, #12
 197 0010 5A60     		str	r2, [r3, #4]
 198              		.loc 1 168 0
 199 0012 0C4A     		ldr	r2, .L37+4
 200 0014 9369     		ldr	r3, [r2, #24]
 201 0016 002B     		cmp	r3, #0
 202 0018 01D0     		beq	.L26
 203              		.loc 1 169 0
 204 001a D069     		ldr	r0, [r2, #28]
 205 001c 9847     		blx	r3
 206              	.LVL14:
 207              	.L26:
 208              		.loc 1 173 0
 209 001e 084B     		ldr	r3, .L37
 210 0020 1968     		ldr	r1, [r3]
 211 0022 0903     		lsls	r1, r1, #12
 212 0024 090F     		lsrs	r1, r1, #28
 213              	.LVL15:
 214              		.loc 1 174 0
 215 0026 07D0     		beq	.L29
 216              		.loc 1 175 0
 217 0028 0A04     		lsls	r2, r1, #16
 218 002a 5A60     		str	r2, [r3, #4]
 219              		.loc 1 176 0
 220 002c 054A     		ldr	r2, .L37+4
 221 002e 136A     		ldr	r3, [r2, #32]
 222 0030 002B     		cmp	r3, #0
 223 0032 01D0     		beq	.L29
 224              		.loc 1 177 0
 225 0034 506A     		ldr	r0, [r2, #36]
 226 0036 9847     		blx	r3
 227              	.LVL16:
 228              	.L29:
ARM GAS  /tmp/cc4EDIHk.s 			page 5


 229              		.loc 1 180 0
 230 0038 2000     		movs	r0, r4
 231 003a FFF7FEFF 		bl	_port_irq_epilogue
 232              	.LVL17:
 233              		.loc 1 181 0
 234              		@ sp needed
 235              	.LVL18:
 236 003e 10BD     		pop	{r4, pc}
 237              	.L38:
 238              		.align	2
 239              	.L37:
 240 0040 00000240 		.word	1073872896
 241 0044 00000000 		.word	.LANCHOR0
 242              		.cfi_endproc
 243              	.LFE42:
 244              		.size	Vector6C, .-Vector6C
 245              		.section	.text.dmaInit,"ax",%progbits
 246              		.align	2
 247              		.p2align 4,,15
 248              		.global	dmaInit
 249              		.code	16
 250              		.thumb_func
 251              		.type	dmaInit, %function
 252              	dmaInit:
 253              	.LFB43:
 254              		.loc 1 192 0
 255              		.cfi_startproc
 256              		@ args = 0, pretend = 0, frame = 0
 257              		@ frame_needed = 0, uses_anonymous_args = 0
 258              		@ link register save eliminated.
 259              		.loc 1 195 0
 260 0000 0023     		movs	r3, #0
 261 0002 0B4A     		ldr	r2, .L40
 262              		.loc 1 197 0
 263 0004 0B49     		ldr	r1, .L40+4
 264              		.loc 1 195 0
 265 0006 1360     		str	r3, [r2]
 266              	.LVL19:
 267              		.loc 1 197 0
 268 0008 0B4A     		ldr	r2, .L40+8
 269              		.loc 1 201 0
 270              		@ sp needed
 271              		.loc 1 197 0
 272 000a 1360     		str	r3, [r2]
 273              		.loc 1 198 0
 274 000c 0B4A     		ldr	r2, .L40+12
 275 000e 1360     		str	r3, [r2]
 276              	.LVL20:
 277              		.loc 1 197 0
 278 0010 0B60     		str	r3, [r1]
 279 0012 0B49     		ldr	r1, .L40+16
 280              		.loc 1 198 0
 281 0014 9360     		str	r3, [r2, #8]
 282              	.LVL21:
 283              		.loc 1 197 0
 284 0016 0B60     		str	r3, [r1]
 285 0018 0A49     		ldr	r1, .L40+20
ARM GAS  /tmp/cc4EDIHk.s 			page 6


 286              		.loc 1 198 0
 287 001a 1361     		str	r3, [r2, #16]
 288              	.LVL22:
 289              		.loc 1 197 0
 290 001c 0B60     		str	r3, [r1]
 291 001e 0A49     		ldr	r1, .L40+24
 292              		.loc 1 198 0
 293 0020 9361     		str	r3, [r2, #24]
 294              	.LVL23:
 295              		.loc 1 197 0
 296 0022 0B60     		str	r3, [r1]
 297              		.loc 1 198 0
 298 0024 1362     		str	r3, [r2, #32]
 299              	.LVL24:
 300              		.loc 1 200 0
 301 0026 0122     		movs	r2, #1
 302 0028 084B     		ldr	r3, .L40+28
 303 002a 5242     		rsbs	r2, r2, #0
 304 002c 5A60     		str	r2, [r3, #4]
 305              		.loc 1 201 0
 306 002e 7047     		bx	lr
 307              	.L41:
 308              		.align	2
 309              	.L40:
 310 0030 00000000 		.word	.LANCHOR1
 311 0034 1C000240 		.word	1073872924
 312 0038 08000240 		.word	1073872904
 313 003c 00000000 		.word	.LANCHOR0
 314 0040 30000240 		.word	1073872944
 315 0044 44000240 		.word	1073872964
 316 0048 58000240 		.word	1073872984
 317 004c 00000240 		.word	1073872896
 318              		.cfi_endproc
 319              	.LFE43:
 320              		.size	dmaInit, .-dmaInit
 321              		.section	.text.dmaStreamAllocate,"ax",%progbits
 322              		.align	2
 323              		.p2align 4,,15
 324              		.global	dmaStreamAllocate
 325              		.code	16
 326              		.thumb_func
 327              		.type	dmaStreamAllocate, %function
 328              	dmaStreamAllocate:
 329              	.LFB44:
 330              		.loc 1 230 0
 331              		.cfi_startproc
 332              		@ args = 0, pretend = 0, frame = 0
 333              		@ frame_needed = 0, uses_anonymous_args = 0
 334              	.LVL25:
 335 0000 F8B5     		push	{r3, r4, r5, r6, r7, lr}
 336              		.cfi_def_cfa_offset 24
 337              		.cfi_offset 3, -24
 338              		.cfi_offset 4, -20
 339              		.cfi_offset 5, -16
 340              		.cfi_offset 6, -12
 341              		.cfi_offset 7, -8
 342              		.cfi_offset 14, -4
ARM GAS  /tmp/cc4EDIHk.s 			page 7


 343 0002 4F46     		mov	r7, r9
 344 0004 4646     		mov	r6, r8
 345 0006 9846     		mov	r8, r3
 346              		.loc 1 235 0
 347 0008 0123     		movs	r3, #1
 348              	.LVL26:
 349              		.loc 1 230 0
 350 000a C0B4     		push	{r6, r7}
 351              		.cfi_def_cfa_offset 32
 352              		.cfi_offset 8, -32
 353              		.cfi_offset 9, -28
 354              		.loc 1 235 0
 355 000c 447A     		ldrb	r4, [r0, #9]
 356 000e 9946     		mov	r9, r3
 357              		.loc 1 236 0
 358 0010 0126     		movs	r6, #1
 359              		.loc 1 235 0
 360 0012 A340     		lsls	r3, r3, r4
 361 0014 174F     		ldr	r7, .L50
 362              		.loc 1 236 0
 363 0016 B446     		mov	ip, r6
 364              		.loc 1 235 0
 365 0018 3D68     		ldr	r5, [r7]
 366 001a 1D42     		tst	r5, r3
 367 001c 22D1     		bne	.L43
 368              		.loc 1 239 0
 369 001e 164E     		ldr	r6, .L50+4
 370 0020 E400     		lsls	r4, r4, #3
 371 0022 B446     		mov	ip, r6
 372 0024 A251     		str	r2, [r4, r6]
 373              		.loc 1 240 0
 374 0026 4646     		mov	r6, r8
 375 0028 6444     		add	r4, r4, ip
 376              		.loc 1 241 0
 377 002a 1D43     		orrs	r5, r3
 378              		.loc 1 240 0
 379 002c 6660     		str	r6, [r4, #4]
 380              		.loc 1 241 0
 381 002e 3D60     		str	r5, [r7]
 382              		.loc 1 244 0
 383 0030 6B06     		lsls	r3, r5, #25
 384 0032 04D0     		beq	.L44
 385              		.loc 1 245 0
 386 0034 4E46     		mov	r6, r9
 387 0036 114B     		ldr	r3, .L50+8
 388 0038 5C69     		ldr	r4, [r3, #20]
 389 003a 2643     		orrs	r6, r4
 390 003c 5E61     		str	r6, [r3, #20]
 391              	.L44:
 392              		.loc 1 248 0
 393 003e 0F23     		movs	r3, #15
 394 0040 0468     		ldr	r4, [r0]
 395 0042 2568     		ldr	r5, [r4]
 396 0044 9D43     		bics	r5, r3
 397 0046 2560     		str	r5, [r4]
 398 0048 067A     		ldrb	r6, [r0, #8]
 399 004a 4568     		ldr	r5, [r0, #4]
ARM GAS  /tmp/cc4EDIHk.s 			page 8


 400 004c B340     		lsls	r3, r3, r6
 401 004e 2B60     		str	r3, [r5]
 402              		.loc 1 249 0
 403 0050 0023     		movs	r3, #0
 404 0052 2360     		str	r3, [r4]
 405              		.loc 1 252 0
 406 0054 002A     		cmp	r2, #0
 407 0056 0AD0     		beq	.L46
 408              		.loc 1 253 0
 409 0058 8901     		lsls	r1, r1, #6
 410              	.LVL27:
 411 005a 807A     		ldrb	r0, [r0, #10]
 412              	.LVL28:
 413 005c FFF7FEFF 		bl	nvicEnableVector
 414              	.LVL29:
 415              		.loc 1 255 0
 416 0060 0023     		movs	r3, #0
 417 0062 9C46     		mov	ip, r3
 418              	.L43:
 419              		.loc 1 256 0
 420 0064 6046     		mov	r0, ip
 421              		@ sp needed
 422              	.LVL30:
 423 0066 0CBC     		pop	{r2, r3}
 424 0068 9046     		mov	r8, r2
 425 006a 9946     		mov	r9, r3
 426 006c F8BD     		pop	{r3, r4, r5, r6, r7, pc}
 427              	.LVL31:
 428              	.L46:
 429              		.loc 1 255 0
 430 006e 0023     		movs	r3, #0
 431 0070 9C46     		mov	ip, r3
 432 0072 F7E7     		b	.L43
 433              	.L51:
 434              		.align	2
 435              	.L50:
 436 0074 00000000 		.word	.LANCHOR1
 437 0078 00000000 		.word	.LANCHOR0
 438 007c 00100240 		.word	1073876992
 439              		.cfi_endproc
 440              	.LFE44:
 441              		.size	dmaStreamAllocate, .-dmaStreamAllocate
 442              		.section	.text.dmaStreamRelease,"ax",%progbits
 443              		.align	2
 444              		.p2align 4,,15
 445              		.global	dmaStreamRelease
 446              		.code	16
 447              		.thumb_func
 448              		.type	dmaStreamRelease, %function
 449              	dmaStreamRelease:
 450              	.LFB45:
 451              		.loc 1 271 0
 452              		.cfi_startproc
 453              		@ args = 0, pretend = 0, frame = 0
 454              		@ frame_needed = 0, uses_anonymous_args = 0
 455              	.LVL32:
 456 0000 10B5     		push	{r4, lr}
ARM GAS  /tmp/cc4EDIHk.s 			page 9


 457              		.cfi_def_cfa_offset 8
 458              		.cfi_offset 4, -8
 459              		.cfi_offset 14, -4
 460              		.loc 1 271 0
 461 0002 0400     		movs	r4, r0
 462              		.loc 1 280 0
 463 0004 807A     		ldrb	r0, [r0, #10]
 464              	.LVL33:
 465 0006 FFF7FEFF 		bl	nvicDisableVector
 466              	.LVL34:
 467              		.loc 1 283 0
 468 000a 0121     		movs	r1, #1
 469 000c 0A00     		movs	r2, r1
 470 000e 637A     		ldrb	r3, [r4, #9]
 471 0010 9A40     		lsls	r2, r2, r3
 472 0012 1300     		movs	r3, r2
 473 0014 054A     		ldr	r2, .L54
 474 0016 1068     		ldr	r0, [r2]
 475 0018 9843     		bics	r0, r3
 476 001a 0300     		movs	r3, r0
 477 001c 1060     		str	r0, [r2]
 478              		.loc 1 286 0
 479 001e 5B06     		lsls	r3, r3, #25
 480 0020 03D1     		bne	.L52
 481              		.loc 1 287 0
 482 0022 034A     		ldr	r2, .L54+4
 483 0024 5369     		ldr	r3, [r2, #20]
 484 0026 8B43     		bics	r3, r1
 485 0028 5361     		str	r3, [r2, #20]
 486              	.L52:
 487              		.loc 1 288 0
 488              		@ sp needed
 489              	.LVL35:
 490 002a 10BD     		pop	{r4, pc}
 491              	.L55:
 492              		.align	2
 493              	.L54:
 494 002c 00000000 		.word	.LANCHOR1
 495 0030 00100240 		.word	1073876992
 496              		.cfi_endproc
 497              	.LFE45:
 498              		.size	dmaStreamRelease, .-dmaStreamRelease
 499              		.global	_stm32_dma_streams
 500              		.section	.bss.dma_isr_redir,"aw",%nobits
 501              		.align	2
 502              		.set	.LANCHOR0,. + 0
 503              		.type	dma_isr_redir, %object
 504              		.size	dma_isr_redir, 40
 505              	dma_isr_redir:
 506 0000 00000000 		.space	40
 506      00000000 
 506      00000000 
 506      00000000 
 506      00000000 
 507              		.section	.rodata._stm32_dma_streams,"a",%progbits
 508              		.align	2
 509              		.type	_stm32_dma_streams, %object
ARM GAS  /tmp/cc4EDIHk.s 			page 10


 510              		.size	_stm32_dma_streams, 60
 511              	_stm32_dma_streams:
 512 0000 08000240 		.word	1073872904
 513 0004 04000240 		.word	1073872900
 514 0008 00       		.byte	0
 515 0009 00       		.byte	0
 516 000a 09       		.byte	9
 517 000b 00       		.space	1
 518 000c 1C000240 		.word	1073872924
 519 0010 04000240 		.word	1073872900
 520 0014 04       		.byte	4
 521 0015 01       		.byte	1
 522 0016 0A       		.byte	10
 523 0017 00       		.space	1
 524 0018 30000240 		.word	1073872944
 525 001c 04000240 		.word	1073872900
 526 0020 08       		.byte	8
 527 0021 02       		.byte	2
 528 0022 0A       		.byte	10
 529 0023 00       		.space	1
 530 0024 44000240 		.word	1073872964
 531 0028 04000240 		.word	1073872900
 532 002c 0C       		.byte	12
 533 002d 03       		.byte	3
 534 002e 0B       		.byte	11
 535 002f 00       		.space	1
 536 0030 58000240 		.word	1073872984
 537 0034 04000240 		.word	1073872900
 538 0038 10       		.byte	16
 539 0039 04       		.byte	4
 540 003a 0B       		.byte	11
 541 003b 00       		.space	1
 542              		.section	.bss.dma_streams_mask,"aw",%nobits
 543              		.align	2
 544              		.set	.LANCHOR1,. + 0
 545              		.type	dma_streams_mask, %object
 546              		.size	dma_streams_mask, 4
 547              	dma_streams_mask:
 548 0000 00000000 		.space	4
 549              		.text
 550              	.Letext0:
 551              		.file 2 "/home/lithium/Descargas/gcc-arm-none-eabi-5_3-2016q1/arm-none-eabi/include/machine/_defau
 552              		.file 3 "/home/lithium/Descargas/gcc-arm-none-eabi-5_3-2016q1/arm-none-eabi/include/sys/_stdint.h"
 553              		.file 4 "../../os/ports/GCC/ARMCMx/chtypes.h"
 554              		.file 5 "../../os/ports/GCC/ARMCMx/chcore_v6m.h"
 555              		.file 6 "../../os/hal/platforms/STM32F0xx/stm32f0xx.h"
 556              		.file 7 "../../os/hal/platforms/STM32F0xx/stm32_dma.h"
 557              		.file 8 "../../os/ports/common/ARMCMx/nvic.h"