ARM GAS  /tmp/ccCURI9o.s 			page 1


   1              		.syntax unified
   2              		.cpu cortex-m0
   3              		.fpu softvfp
   4              		.eabi_attribute 20, 1
   5              		.eabi_attribute 21, 1
   6              		.eabi_attribute 23, 3
   7              		.eabi_attribute 24, 1
   8              		.eabi_attribute 25, 1
   9              		.eabi_attribute 26, 1
  10              		.eabi_attribute 30, 2
  11              		.eabi_attribute 34, 0
  12              		.eabi_attribute 18, 4
  13              		.thumb
  14              		.syntax unified
  15              		.file	"uart.c"
  16              		.text
  17              	.Ltext0:
  18              		.cfi_sections	.debug_frame
  19              		.section	.text.uartInit,"ax",%progbits
  20              		.align	2
  21              		.p2align 4,,15
  22              		.global	uartInit
  23              		.code	16
  24              		.thumb_func
  25              		.type	uartInit, %function
  26              	uartInit:
  27              	.LFB40:
  28              		.file 1 "../../os/hal/src/uart.c"
  29              		.loc 1 68 0
  30              		.cfi_startproc
  31              		@ args = 0, pretend = 0, frame = 0
  32              		@ frame_needed = 0, uses_anonymous_args = 0
  33 0000 10B5     		push	{r4, lr}
  34              		.cfi_def_cfa_offset 8
  35              		.cfi_offset 4, -8
  36              		.cfi_offset 14, -4
  37              		.loc 1 70 0
  38 0002 FFF7FEFF 		bl	uart_lld_init
  39              	.LVL0:
  40              		.loc 1 71 0
  41              		@ sp needed
  42 0006 10BD     		pop	{r4, pc}
  43              		.cfi_endproc
  44              	.LFE40:
  45              		.size	uartInit, .-uartInit
  46              		.section	.text.uartObjectInit,"ax",%progbits
  47              		.align	2
  48              		.p2align 4,,15
  49              		.global	uartObjectInit
  50              		.code	16
  51              		.thumb_func
  52              		.type	uartObjectInit, %function
  53              	uartObjectInit:
  54              	.LFB41:
  55              		.loc 1 80 0
  56              		.cfi_startproc
  57              		@ args = 0, pretend = 0, frame = 0
ARM GAS  /tmp/ccCURI9o.s 			page 2


  58              		@ frame_needed = 0, uses_anonymous_args = 0
  59              		@ link register save eliminated.
  60              	.LVL1:
  61              		.loc 1 82 0
  62 0000 0123     		movs	r3, #1
  63 0002 0370     		strb	r3, [r0]
  64              		.loc 1 83 0
  65 0004 0023     		movs	r3, #0
  66              		.loc 1 90 0
  67              		@ sp needed
  68              		.loc 1 83 0
  69 0006 4370     		strb	r3, [r0, #1]
  70              		.loc 1 84 0
  71 0008 8370     		strb	r3, [r0, #2]
  72              		.loc 1 85 0
  73 000a 4360     		str	r3, [r0, #4]
  74              		.loc 1 90 0
  75 000c 7047     		bx	lr
  76              		.cfi_endproc
  77              	.LFE41:
  78              		.size	uartObjectInit, .-uartObjectInit
  79 000e C046     		.section	.text.uartStart,"ax",%progbits
  80              		.align	2
  81              		.p2align 4,,15
  82              		.global	uartStart
  83              		.code	16
  84              		.thumb_func
  85              		.type	uartStart, %function
  86              	uartStart:
  87              	.LFB42:
  88              		.loc 1 100 0
  89              		.cfi_startproc
  90              		@ args = 0, pretend = 0, frame = 0
  91              		@ frame_needed = 0, uses_anonymous_args = 0
  92              	.LVL2:
  93 0000 10B5     		push	{r4, lr}
  94              		.cfi_def_cfa_offset 8
  95              		.cfi_offset 4, -8
  96              		.cfi_offset 14, -4
  97              		.loc 1 100 0
  98 0002 0400     		movs	r4, r0
  99              		.loc 1 104 0
 100              		.syntax divided
 101              	@ 104 "../../os/hal/src/uart.c" 1
 102 0004 72B6     		cpsid   i
 103              	@ 0 "" 2
 104              		.loc 1 108 0
 105              		.thumb
 106              		.syntax unified
 107 0006 4160     		str	r1, [r0, #4]
 108              		.loc 1 109 0
 109 0008 FFF7FEFF 		bl	uart_lld_start
 110              	.LVL3:
 111              		.loc 1 110 0
 112 000c 0223     		movs	r3, #2
 113 000e 2370     		strb	r3, [r4]
 114              		.loc 1 111 0
ARM GAS  /tmp/ccCURI9o.s 			page 3


 115              		.syntax divided
 116              	@ 111 "../../os/hal/src/uart.c" 1
 117 0010 62B6     		cpsie   i
 118              	@ 0 "" 2
 119              		.loc 1 112 0
 120              		.thumb
 121              		.syntax unified
 122              		@ sp needed
 123              	.LVL4:
 124 0012 10BD     		pop	{r4, pc}
 125              		.cfi_endproc
 126              	.LFE42:
 127              		.size	uartStart, .-uartStart
 128              		.section	.text.uartStop,"ax",%progbits
 129              		.align	2
 130              		.p2align 4,,15
 131              		.global	uartStop
 132              		.code	16
 133              		.thumb_func
 134              		.type	uartStop, %function
 135              	uartStop:
 136              	.LFB43:
 137              		.loc 1 121 0
 138              		.cfi_startproc
 139              		@ args = 0, pretend = 0, frame = 0
 140              		@ frame_needed = 0, uses_anonymous_args = 0
 141              	.LVL5:
 142 0000 10B5     		push	{r4, lr}
 143              		.cfi_def_cfa_offset 8
 144              		.cfi_offset 4, -8
 145              		.cfi_offset 14, -4
 146              		.loc 1 121 0
 147 0002 0400     		movs	r4, r0
 148              		.loc 1 125 0
 149              		.syntax divided
 150              	@ 125 "../../os/hal/src/uart.c" 1
 151 0004 72B6     		cpsid   i
 152              	@ 0 "" 2
 153              		.loc 1 129 0
 154              		.thumb
 155              		.syntax unified
 156 0006 FFF7FEFF 		bl	uart_lld_stop
 157              	.LVL6:
 158              		.loc 1 130 0
 159 000a 0123     		movs	r3, #1
 160 000c 2370     		strb	r3, [r4]
 161              		.loc 1 131 0
 162 000e 0023     		movs	r3, #0
 163 0010 6370     		strb	r3, [r4, #1]
 164              		.loc 1 132 0
 165 0012 A370     		strb	r3, [r4, #2]
 166              		.loc 1 133 0
 167              		.syntax divided
 168              	@ 133 "../../os/hal/src/uart.c" 1
 169 0014 62B6     		cpsie   i
 170              	@ 0 "" 2
 171              		.loc 1 134 0
ARM GAS  /tmp/ccCURI9o.s 			page 4


 172              		.thumb
 173              		.syntax unified
 174              		@ sp needed
 175              	.LVL7:
 176 0016 10BD     		pop	{r4, pc}
 177              		.cfi_endproc
 178              	.LFE43:
 179              		.size	uartStop, .-uartStop
 180              		.section	.text.uartStartSend,"ax",%progbits
 181              		.align	2
 182              		.p2align 4,,15
 183              		.global	uartStartSend
 184              		.code	16
 185              		.thumb_func
 186              		.type	uartStartSend, %function
 187              	uartStartSend:
 188              	.LFB44:
 189              		.loc 1 147 0
 190              		.cfi_startproc
 191              		@ args = 0, pretend = 0, frame = 0
 192              		@ frame_needed = 0, uses_anonymous_args = 0
 193              	.LVL8:
 194 0000 10B5     		push	{r4, lr}
 195              		.cfi_def_cfa_offset 8
 196              		.cfi_offset 4, -8
 197              		.cfi_offset 14, -4
 198              		.loc 1 147 0
 199 0002 0400     		movs	r4, r0
 200              		.loc 1 152 0
 201              		.syntax divided
 202              	@ 152 "../../os/hal/src/uart.c" 1
 203 0004 72B6     		cpsid   i
 204              	@ 0 "" 2
 205              		.loc 1 158 0
 206              		.thumb
 207              		.syntax unified
 208 0006 FFF7FEFF 		bl	uart_lld_start_send
 209              	.LVL9:
 210              		.loc 1 159 0
 211 000a 0123     		movs	r3, #1
 212 000c 6370     		strb	r3, [r4, #1]
 213              		.loc 1 160 0
 214              		.syntax divided
 215              	@ 160 "../../os/hal/src/uart.c" 1
 216 000e 62B6     		cpsie   i
 217              	@ 0 "" 2
 218              		.loc 1 161 0
 219              		.thumb
 220              		.syntax unified
 221              		@ sp needed
 222              	.LVL10:
 223 0010 10BD     		pop	{r4, pc}
 224              		.cfi_endproc
 225              	.LFE44:
 226              		.size	uartStartSend, .-uartStartSend
 227 0012 C046     		.section	.text.uartStartSendI,"ax",%progbits
 228              		.align	2
ARM GAS  /tmp/ccCURI9o.s 			page 5


 229              		.p2align 4,,15
 230              		.global	uartStartSendI
 231              		.code	16
 232              		.thumb_func
 233              		.type	uartStartSendI, %function
 234              	uartStartSendI:
 235              	.LFB45:
 236              		.loc 1 175 0
 237              		.cfi_startproc
 238              		@ args = 0, pretend = 0, frame = 0
 239              		@ frame_needed = 0, uses_anonymous_args = 0
 240              	.LVL11:
 241 0000 10B5     		push	{r4, lr}
 242              		.cfi_def_cfa_offset 8
 243              		.cfi_offset 4, -8
 244              		.cfi_offset 14, -4
 245              		.loc 1 175 0
 246 0002 0400     		movs	r4, r0
 247              		.loc 1 185 0
 248 0004 FFF7FEFF 		bl	uart_lld_start_send
 249              	.LVL12:
 250              		.loc 1 186 0
 251 0008 0123     		movs	r3, #1
 252              		.loc 1 187 0
 253              		@ sp needed
 254              		.loc 1 186 0
 255 000a 6370     		strb	r3, [r4, #1]
 256              	.LVL13:
 257              		.loc 1 187 0
 258 000c 10BD     		pop	{r4, pc}
 259              		.cfi_endproc
 260              	.LFE45:
 261              		.size	uartStartSendI, .-uartStartSendI
 262 000e C046     		.section	.text.uartStopSend,"ax",%progbits
 263              		.align	2
 264              		.p2align 4,,15
 265              		.global	uartStopSend
 266              		.code	16
 267              		.thumb_func
 268              		.type	uartStopSend, %function
 269              	uartStopSend:
 270              	.LFB46:
 271              		.loc 1 201 0
 272              		.cfi_startproc
 273              		@ args = 0, pretend = 0, frame = 0
 274              		@ frame_needed = 0, uses_anonymous_args = 0
 275              	.LVL14:
 276 0000 10B5     		push	{r4, lr}
 277              		.cfi_def_cfa_offset 8
 278              		.cfi_offset 4, -8
 279              		.cfi_offset 14, -4
 280              		.loc 1 201 0
 281 0002 0400     		movs	r4, r0
 282              		.loc 1 206 0
 283              		.syntax divided
 284              	@ 206 "../../os/hal/src/uart.c" 1
 285 0004 72B6     		cpsid   i
ARM GAS  /tmp/ccCURI9o.s 			page 6


 286              	@ 0 "" 2
 287              		.loc 1 209 0
 288              		.thumb
 289              		.syntax unified
 290 0006 4378     		ldrb	r3, [r0, #1]
 291              		.loc 1 214 0
 292 0008 0020     		movs	r0, #0
 293              	.LVL15:
 294              		.loc 1 209 0
 295 000a 012B     		cmp	r3, #1
 296 000c 01D0     		beq	.L11
 297              	.L8:
 298              	.LVL16:
 299              		.loc 1 215 0
 300              		.syntax divided
 301              	@ 215 "../../os/hal/src/uart.c" 1
 302 000e 62B6     		cpsie   i
 303              	@ 0 "" 2
 304              		.loc 1 217 0
 305              		.thumb
 306              		.syntax unified
 307              		@ sp needed
 308              	.LVL17:
 309 0010 10BD     		pop	{r4, pc}
 310              	.LVL18:
 311              	.L11:
 312              		.loc 1 210 0
 313 0012 2000     		movs	r0, r4
 314 0014 FFF7FEFF 		bl	uart_lld_stop_send
 315              	.LVL19:
 316              		.loc 1 211 0
 317 0018 0023     		movs	r3, #0
 318 001a 6370     		strb	r3, [r4, #1]
 319 001c F7E7     		b	.L8
 320              		.cfi_endproc
 321              	.LFE46:
 322              		.size	uartStopSend, .-uartStopSend
 323 001e C046     		.section	.text.uartStopSendI,"ax",%progbits
 324              		.align	2
 325              		.p2align 4,,15
 326              		.global	uartStopSendI
 327              		.code	16
 328              		.thumb_func
 329              		.type	uartStopSendI, %function
 330              	uartStopSendI:
 331              	.LFB47:
 332              		.loc 1 232 0
 333              		.cfi_startproc
 334              		@ args = 0, pretend = 0, frame = 0
 335              		@ frame_needed = 0, uses_anonymous_args = 0
 336              	.LVL20:
 337 0000 70B5     		push	{r4, r5, r6, lr}
 338              		.cfi_def_cfa_offset 16
 339              		.cfi_offset 4, -16
 340              		.cfi_offset 5, -12
 341              		.cfi_offset 6, -8
 342              		.cfi_offset 14, -4
ARM GAS  /tmp/ccCURI9o.s 			page 7


 343              		.loc 1 238 0
 344 0002 4378     		ldrb	r3, [r0, #1]
 345              		.loc 1 232 0
 346 0004 0500     		movs	r5, r0
 347              		.loc 1 243 0
 348 0006 0024     		movs	r4, #0
 349              		.loc 1 238 0
 350 0008 012B     		cmp	r3, #1
 351 000a 01D0     		beq	.L15
 352              	.LVL21:
 353              	.L13:
 354              		.loc 1 244 0
 355 000c 2000     		movs	r0, r4
 356              		@ sp needed
 357              	.LVL22:
 358 000e 70BD     		pop	{r4, r5, r6, pc}
 359              	.LVL23:
 360              	.L15:
 361              	.LBB2:
 362              		.loc 1 239 0
 363 0010 FFF7FEFF 		bl	uart_lld_stop_send
 364              	.LVL24:
 365              		.loc 1 240 0
 366 0014 6C70     		strb	r4, [r5, #1]
 367              		.loc 1 241 0
 368 0016 0400     		movs	r4, r0
 369 0018 F8E7     		b	.L13
 370              	.LBE2:
 371              		.cfi_endproc
 372              	.LFE47:
 373              		.size	uartStopSendI, .-uartStopSendI
 374 001a C046     		.section	.text.uartStartReceive,"ax",%progbits
 375              		.align	2
 376              		.p2align 4,,15
 377              		.global	uartStartReceive
 378              		.code	16
 379              		.thumb_func
 380              		.type	uartStartReceive, %function
 381              	uartStartReceive:
 382              	.LFB48:
 383              		.loc 1 257 0
 384              		.cfi_startproc
 385              		@ args = 0, pretend = 0, frame = 0
 386              		@ frame_needed = 0, uses_anonymous_args = 0
 387              	.LVL25:
 388 0000 10B5     		push	{r4, lr}
 389              		.cfi_def_cfa_offset 8
 390              		.cfi_offset 4, -8
 391              		.cfi_offset 14, -4
 392              		.loc 1 257 0
 393 0002 0400     		movs	r4, r0
 394              		.loc 1 262 0
 395              		.syntax divided
 396              	@ 262 "../../os/hal/src/uart.c" 1
 397 0004 72B6     		cpsid   i
 398              	@ 0 "" 2
 399              		.loc 1 268 0
ARM GAS  /tmp/ccCURI9o.s 			page 8


 400              		.thumb
 401              		.syntax unified
 402 0006 FFF7FEFF 		bl	uart_lld_start_receive
 403              	.LVL26:
 404              		.loc 1 269 0
 405 000a 0123     		movs	r3, #1
 406 000c A370     		strb	r3, [r4, #2]
 407              		.loc 1 270 0
 408              		.syntax divided
 409              	@ 270 "../../os/hal/src/uart.c" 1
 410 000e 62B6     		cpsie   i
 411              	@ 0 "" 2
 412              		.loc 1 271 0
 413              		.thumb
 414              		.syntax unified
 415              		@ sp needed
 416              	.LVL27:
 417 0010 10BD     		pop	{r4, pc}
 418              		.cfi_endproc
 419              	.LFE48:
 420              		.size	uartStartReceive, .-uartStartReceive
 421 0012 C046     		.section	.text.uartStartReceiveI,"ax",%progbits
 422              		.align	2
 423              		.p2align 4,,15
 424              		.global	uartStartReceiveI
 425              		.code	16
 426              		.thumb_func
 427              		.type	uartStartReceiveI, %function
 428              	uartStartReceiveI:
 429              	.LFB49:
 430              		.loc 1 285 0
 431              		.cfi_startproc
 432              		@ args = 0, pretend = 0, frame = 0
 433              		@ frame_needed = 0, uses_anonymous_args = 0
 434              	.LVL28:
 435 0000 10B5     		push	{r4, lr}
 436              		.cfi_def_cfa_offset 8
 437              		.cfi_offset 4, -8
 438              		.cfi_offset 14, -4
 439              		.loc 1 285 0
 440 0002 0400     		movs	r4, r0
 441              		.loc 1 295 0
 442 0004 FFF7FEFF 		bl	uart_lld_start_receive
 443              	.LVL29:
 444              		.loc 1 296 0
 445 0008 0123     		movs	r3, #1
 446              		.loc 1 297 0
 447              		@ sp needed
 448              		.loc 1 296 0
 449 000a A370     		strb	r3, [r4, #2]
 450              	.LVL30:
 451              		.loc 1 297 0
 452 000c 10BD     		pop	{r4, pc}
 453              		.cfi_endproc
 454              	.LFE49:
 455              		.size	uartStartReceiveI, .-uartStartReceiveI
 456 000e C046     		.section	.text.uartStopReceive,"ax",%progbits
ARM GAS  /tmp/ccCURI9o.s 			page 9


 457              		.align	2
 458              		.p2align 4,,15
 459              		.global	uartStopReceive
 460              		.code	16
 461              		.thumb_func
 462              		.type	uartStopReceive, %function
 463              	uartStopReceive:
 464              	.LFB50:
 465              		.loc 1 311 0
 466              		.cfi_startproc
 467              		@ args = 0, pretend = 0, frame = 0
 468              		@ frame_needed = 0, uses_anonymous_args = 0
 469              	.LVL31:
 470 0000 10B5     		push	{r4, lr}
 471              		.cfi_def_cfa_offset 8
 472              		.cfi_offset 4, -8
 473              		.cfi_offset 14, -4
 474              		.loc 1 311 0
 475 0002 0400     		movs	r4, r0
 476              		.loc 1 316 0
 477              		.syntax divided
 478              	@ 316 "../../os/hal/src/uart.c" 1
 479 0004 72B6     		cpsid   i
 480              	@ 0 "" 2
 481              		.loc 1 320 0
 482              		.thumb
 483              		.syntax unified
 484 0006 8378     		ldrb	r3, [r0, #2]
 485              		.loc 1 325 0
 486 0008 0020     		movs	r0, #0
 487              	.LVL32:
 488              		.loc 1 320 0
 489 000a 012B     		cmp	r3, #1
 490 000c 01D0     		beq	.L21
 491              	.L19:
 492              	.LVL33:
 493              		.loc 1 326 0
 494              		.syntax divided
 495              	@ 326 "../../os/hal/src/uart.c" 1
 496 000e 62B6     		cpsie   i
 497              	@ 0 "" 2
 498              		.loc 1 328 0
 499              		.thumb
 500              		.syntax unified
 501              		@ sp needed
 502              	.LVL34:
 503 0010 10BD     		pop	{r4, pc}
 504              	.LVL35:
 505              	.L21:
 506              		.loc 1 321 0
 507 0012 2000     		movs	r0, r4
 508 0014 FFF7FEFF 		bl	uart_lld_stop_receive
 509              	.LVL36:
 510              		.loc 1 322 0
 511 0018 0023     		movs	r3, #0
 512 001a A370     		strb	r3, [r4, #2]
 513 001c F7E7     		b	.L19
ARM GAS  /tmp/ccCURI9o.s 			page 10


 514              		.cfi_endproc
 515              	.LFE50:
 516              		.size	uartStopReceive, .-uartStopReceive
 517 001e C046     		.section	.text.uartStopReceiveI,"ax",%progbits
 518              		.align	2
 519              		.p2align 4,,15
 520              		.global	uartStopReceiveI
 521              		.code	16
 522              		.thumb_func
 523              		.type	uartStopReceiveI, %function
 524              	uartStopReceiveI:
 525              	.LFB51:
 526              		.loc 1 343 0
 527              		.cfi_startproc
 528              		@ args = 0, pretend = 0, frame = 0
 529              		@ frame_needed = 0, uses_anonymous_args = 0
 530              	.LVL37:
 531 0000 70B5     		push	{r4, r5, r6, lr}
 532              		.cfi_def_cfa_offset 16
 533              		.cfi_offset 4, -16
 534              		.cfi_offset 5, -12
 535              		.cfi_offset 6, -8
 536              		.cfi_offset 14, -4
 537              		.loc 1 350 0
 538 0002 8378     		ldrb	r3, [r0, #2]
 539              		.loc 1 343 0
 540 0004 0500     		movs	r5, r0
 541              		.loc 1 355 0
 542 0006 0024     		movs	r4, #0
 543              		.loc 1 350 0
 544 0008 012B     		cmp	r3, #1
 545 000a 01D0     		beq	.L25
 546              	.LVL38:
 547              	.L23:
 548              		.loc 1 356 0
 549 000c 2000     		movs	r0, r4
 550              		@ sp needed
 551              	.LVL39:
 552 000e 70BD     		pop	{r4, r5, r6, pc}
 553              	.LVL40:
 554              	.L25:
 555              	.LBB3:
 556              		.loc 1 351 0
 557 0010 FFF7FEFF 		bl	uart_lld_stop_receive
 558              	.LVL41:
 559              		.loc 1 352 0
 560 0014 AC70     		strb	r4, [r5, #2]
 561              		.loc 1 353 0
 562 0016 0400     		movs	r4, r0
 563 0018 F8E7     		b	.L23
 564              	.LBE3:
 565              		.cfi_endproc
 566              	.LFE51:
 567              		.size	uartStopReceiveI, .-uartStopReceiveI
 568 001a C046     		.text
 569              	.Letext0:
 570              		.file 2 "/home/lithium/Descargas/gcc-arm-none-eabi-5_3-2016q1/lib/gcc/arm-none-eabi/5.3.1/include/
ARM GAS  /tmp/ccCURI9o.s 			page 11


 571              		.file 3 "/home/lithium/Descargas/gcc-arm-none-eabi-5_3-2016q1/arm-none-eabi/include/machine/_defau
 572              		.file 4 "/home/lithium/Descargas/gcc-arm-none-eabi-5_3-2016q1/arm-none-eabi/include/sys/_stdint.h"
 573              		.file 5 "../../os/hal/platforms/STM32F0xx/stm32f0xx.h"
 574              		.file 6 "../../os/hal/platforms/STM32F0xx/stm32_dma.h"
 575              		.file 7 "../../os/hal/include/uart.h"
 576              		.file 8 "../../os/hal/platforms/STM32/USARTv2/uart_lld.h"