ARM GAS  /tmp/ccCURI9o.s 			page 1


   1              		.syntax unified
   2              		.cpu cortex-m0
   3              		.fpu softvfp
   4              		.eabi_attribute 20, 1
   5              		.eabi_attribute 21, 1
   6              		.eabi_attribute 23, 3
   7              		.eabi_attribute 24, 1
   8              		.eabi_attribute 25, 1
   9              		.eabi_attribute 26, 1
  10              		.eabi_attribute 30, 2
  11              		.eabi_attribute 34, 0
  12              		.eabi_attribute 18, 4
  13              		.thumb
  14              		.syntax unified
  15              		.file	"uart.c"
  16              		.text
  17              	.Ltext0:
  18              		.cfi_sections	.debug_frame
  19              		.section	.text.uartInit,"ax",%progbits
  20              		.align	2
  21              		.p2align 4,,15
  22              		.global	uartInit
  23              		.code	16
  24              		.thumb_func
  25              		.type	uartInit, %function
  26              	uartInit:
  27              	.LFB40:
  28              		.file 1 "../../os/hal/src/uart.c"
  29              		.loc 1 68 0
  30              		.cfi_startproc
  31              		@ args = 0, pretend = 0, frame = 0
  32              		@ frame_needed = 0, uses_anonymous_args = 0
  33 0000 10B5     		push	{r4, lr}
  34              		.cfi_def_cfa_offset 8
  35              		.cfi_offset 4, -8
  36              		.cfi_offset 14, -4
  37              		.loc 1 70 0
  38 0002 FFF7FEFF 		bl	uart_lld_init
  39              	.LVL0:
  40              		.loc 1 71 0
  41              		@ sp needed
  42 0006 10BD     		pop	{r4, pc}
  43              		.cfi_endproc
  44              	.LFE40:
  45              		.size	uartInit, .-uartInit
  46              		.section	.text.uartObjectInit,"ax",%progbits
  47              		.align	2
  48              		.p2align 4,,15
  49              		.global	uartObjectInit
  50              		.code	16
  51              		.thumb_func
  52              		.type	uartObjectInit, %function
  53              	uartObjectInit:
  54              	.LFB41:
  55              		.loc 1 80 0
  56              		.cfi_startproc
  57              		@ args = 0, pretend = 0, frame = 0
ARM GAS  /tmp/ccCURI9o.s 			page 2


  58              		@ frame_needed = 0, uses_anonymous_args = 0
  59              		@ link register save eliminated.
  60              	.LVL1:
  61              		.loc 1 82 0
  62 0000 0123     		movs	r3, #1
  63 0002 0370     		strb	r3, [r0]
  64              		.loc 1 83 0
  65 0004 0023     		movs	r3, #0
  66              		.loc 1 90 0
  67              		@ sp needed
  68              		.loc 1 83 0
  69 0006 4370     		strb	r3, [r0, #1]
  70              		.loc 1 84 0
  71 0008 8370     		strb	r3, [r0, #2]
  72              		.loc 1 85 0
  73 000a 4360     		str	r3, [r0, #4]
  74              		.loc 1 90 0
  75 000c 7047     		bx	lr
  76              		.cfi_endproc
  77              	.LFE41:
  78              		.size	uartObjectInit, .-uartObjectInit
  79 000e C046     		.section	.text.uartStart,"ax",%progbits
  80              		.align	2
  81              		.p2align 4,,15
  82              		.global	uartStart
  83              		.code	16
  84              		.thumb_func
  85              		.type	uartStart, %function
  86              	uartStart:
  87              	.LFB42:
  88              		.loc 1 100 0
  89              		.cfi_startproc
  90              		@ args = 0, pretend = 0, frame = 0
  91              		@ frame_needed = 0, uses_anonymous_args = 0
  92              	.LVL2:
  93 0000 10B5     		push	{r4, lr}
  94              		.cfi_def_cfa_offset 8
  95              		.cfi_offset 4, -8
  96              		.cfi_offset 14, -4
  97              		.loc 1 100 0
  98 0002 0400     		movs	r4, r0
  99              		.loc 1 104 0
 100              		.syntax divided
 101              	@ 104 "../../os/hal/src/uart.c" 1
 102 0004 72B6     		cpsid   i
 103              	@ 0 "" 2
 104              		.loc 1 108 0
 105              		.thumb
 106              		.syntax unified
 107 0006 4160     		str	r1, [r0, #4]
 108              		.loc 1 109 0
 109 0008 FFF7FEFF 		bl	uart_lld_start
 110              	.LVL3:
 111              		.loc 1 110 0
 112 000c 0223     		movs	r3, #2
 113 000e 2370     		strb	r3, [r4]
 114              		.loc 1 111 0
ARM GAS  /tmp/ccCURI9o.s 			page 3


 115              		.syntax divided
 116              	@ 111 "../../os/hal/src/uart.c" 1
 117 0010 62B6     		cpsie   i
 118              	@ 0 "" 2
 119              		.loc 1 112 0
 120              		.thumb
 121              		.syntax unified
 122              		@ sp needed
 123              	.LVL4:
 124 0012 10BD     		pop	{r4, pc}
 125              		.cfi_endproc
 126              	.LFE42:
 127              		.size	uartStart, .-uartStart
 128              		.section	.text.uartStop,"ax",%progbits
 129              		.align	2
 130              		.p2align 4,,15
 131              		.global	uartStop
 132              		.code	16
 133              		.thumb_func
 134              		.type	uartStop, %function
 135              	uartStop:
 136              	.LFB43:
 137              		.loc 1 121 0
 138              		.cfi_startproc
 139              		@ args = 0, pretend = 0, frame = 0
 140              		@ frame_needed = 0, uses_anonymous_args = 0
 141              	.LVL5:
 142 0000 10B5     		push	{r4, lr}
 143              		.cfi_def_cfa_offset 8
 144              		.cfi_offset 4, -8
 145              		.cfi_offset 14, -4
 146              		.loc 1 121 0
 147 0002 0400     		movs	r4, r0
 148              		.loc 1 125 0
 149              		.syntax divided
 150              	@ 125 "../../os/hal/src/uart.c" 1
 151 0004 72B6     		cpsid   i
 152              	@ 0 "" 2
 153              		.loc 1 129 0
 154              		.thumb
 155              		.syntax unified
 156 0006 FFF7FEFF 		bl	uart_lld_stop
 157              	.LVL6:
 158              		.loc 1 130 0
 159 000a 0123     		movs	r3, #1
 160 000c 2370     		strb	r3, [r4]
 161              		.loc 1 131 0
 162 000e 0023     		movs	r3, #0
 163 0010 6370     		strb	r3, [r4, #1]
 164              		.loc 1 132 0
 165 0012 A370     		strb	r3, [r4, #2]
 166              		.loc 1 133 0
 167              		.syntax divided
 168              	@ 133 "../../os/hal/src/uart.c" 1
 169 0014 62B6     		cpsie   i
 170              	@ 0 "" 2
 171              		.loc 1 134 0
ARM GAS  /tmp/ccCURI9o.s 			page 4


 172              		.thumb
 173              		.syntax unified
 174              		@ sp needed
 175              	.LVL7:
 176 0016 10BD     		pop	{r4, pc}
 177              		.cfi_endproc
 178              	.LFE43:
 179              		.size	uartStop, .-uartStop
 180              		.section	.text.uartStartSend,"ax",%progbits
 181              		.align	2
 182              		.p2align 4,,15
 183              		.global	uartStartSend
 184              		.code	16
 185              		.thumb_func
 186              		.type	uartStartSend, %function
 187              	uartStartSend:
 188              	.LFB44:
 189              		.loc 1 147 0
 190              		.cfi_startproc
 191              		@ args = 0, pretend = 0, frame = 0
 192              		@ frame_needed = 0, uses_anonymous_args = 0
 193              	.LVL8:
 194 0000 10B5     		push	{r4, lr}
 195              		.cfi_def_cfa_offset 8
 196              		.cfi_offset 4, -8
 197              		.cfi_offset 14, -4
 198              		.loc 1 147 0
 199 0002 0400     		movs	r4, r0
 200              		.loc 1 152 0
 201              		.syntax divided
 202              	@ 152 "../../os/hal/src/uart.c" 1
 203 0004 72B6     		cpsid   i
 204              	@ 0 "" 2
 205              		.loc 1 158 0
 206              		.thumb
 207              		.syntax unified
 208 0006 FFF7FEFF 		bl	uart_lld_start_send
 209              	.LVL9:
 210              		.loc 1 159 0
 211 000a 0123     		movs	r3, #1
 212 000c 6370     		strb	r3, [r4, #1]
 213              		.loc 1 160 0
 214              		.syntax divided
 215              	@ 160 "../../os/hal/src/uart.c" 1
 216 000e 62B6     		cpsie   i
 217              	@ 0 "" 2
 218              		.loc 1 161 0
 219              		.thumb
 220              		.syntax unified
 221              		@ sp needed
 222              	.LVL10:
 223 0010 10BD     		pop	{r4, pc}
 224              		.cfi_endproc
 225              	.LFE44:
 226              		.size	uartStartSend, .-uartStartSend
 227 0012 C046     		.section	.text.uartStartSendI,"ax",%progbits
 228              		.align	2
ARM GAS  /tmp/ccCURI9o.s 			page 5


 229              		.p2align 4,,15
 230              		.global	uartStartSendI
 231              		.code	16
 232              		.thumb_func
 233              		.type	uartStartSendI, %function
 234              	uartStartSendI:
 235              	.LFB45:
 236              		.loc 1 175 0
 237              		.cfi_startproc
 238              		@ args = 0, pretend = 0, frame = 0
 239              		@ frame_needed = 0, uses_anonymous_args = 0
 240              	.LVL11:
 241 0000 10B5     		push	{r4, lr}
 242              		.cfi_def_cfa_offset 8
 243              		.cfi_offset 4, -8
 244              		.cfi_offset 14, -4
 245              		.loc 1 175 0
 246 0002 0400     		movs	r4, r0
 247              		.loc 1 185 0
 248 0004 FFF7FEFF 		bl	uart_lld_start_send
 249              	.LVL12:
 250              		.loc 1 186 0
 251 0008 0123     		movs	r3, #1
 252              		.loc 1 187 0
 253              		@ sp needed
 254              		.loc 1 186 0
 255 000a 6370     		strb	r3, [r4, #1]
 256              	.LVL13:
 257              		.loc 1 187 0
 258 000c 10BD     		pop	{r4, pc}
 259              		.cfi_endproc
 260              	.LFE45:
 261              		.size	uartStartSendI, .-uartStartSendI
 262 000e C046     		.section	.text.uartStopSend,"ax",%progbits
 263              		.align	2
 264              		.p2align 4,,15
 265              		.global	uartStopSend
 266              		.code	16
 267              		.thumb_func
 268              		.type	uartStopSend, %function
 269              	uartStopSend:
 270              	.LFB46:
 271              		.loc 1 201 0
 272              		.cfi_startproc
 273              		@ args = 0, pretend = 0, frame = 0
 274              		@ frame_needed = 0, uses_anonymous_args = 0
 275              	.LVL14:
 276 0000 10B5     		push	{r4, lr}
 277              		.cfi_def_cfa_offset 8
 278              		.cfi_offset 4, -8
 279              		.cfi_offset 14, -4
 280              		.loc 1 201 0
 281 0002 0400     		movs	r4, r0
 282              		.loc 1 206 0
 283              		.syntax divided
 284              	@ 206 "../../os/hal/src/uart.c" 1
 285 0004 72B6     		cpsid   i
ARM GAS  /tmp/ccCURI9o.s 			page 6


 286              	@ 0 "" 2
 287              		.loc 1 209 0
 288              		.thumb
 289              		.syntax unified
 290 0006 4378     		ldrb	r3, [r0, #1]
 291              		.loc 1 214 0
 292 0008 0020     		movs	r0, #0
 293              	.LVL15:
 294              		.loc 1 209 0
 295 000a 012B     		cmp	r3, #1
 296 000c 01D0     		beq	.L11
 297              	.L8:
 298              	.LVL16:
 299              		.loc 1 215 0
 300              		.syntax divided
 301              	@ 215 "../../os/hal/src/uart.c" 1
 302 000e 62B6     		cpsie   i
 303              	@ 0 "" 2
 304              		.loc 1 217 0
 305              		.thumb
 306              		.syntax unified
 307              		@ sp needed
 308              	.LVL17:
 309 0010 10BD     		pop	{r4, pc}
 310              	.LVL18:
 311              	.L11:
 312              		.loc 1 210 0
 313 0012 2000     		movs	r0, r4
 314 0014 FFF7FEFF 		bl	uart_lld_stop_send
 315              	.LVL19:
 316              		.loc 1 211 0
 317 0018 0023     		movs	r3, #0
 318 001a 6370     		strb	r3, [r4, #1]
 319 001c F7E7     		b	.L8
 320              		.cfi_endproc
 321              	.LFE46:
 322              		.size	uartStopSend, .-uartStopSend
 323 001e C046     		.section	.text.uartStopSendI,"ax",%progbits
 324              		.align	2
 325              		.p2align 4,,15
 326              		.global	uartStopSendI
 327              		.code	16
 328              		.thumb_func
 329              		.type	uartStopSendI, %function
 330              	uartStopSendI:
 331              	.LFB47:
 332              		.loc 1 232 0
 333              		.cfi_startproc
 334              		@ args = 0, pretend = 0, frame = 0
 335              		@ frame_needed = 0, uses_anonymous_args = 0
 336              	.LVL20:
 337 0000 70B5     		push	{r4, r5, r6, lr}
 338              		.cfi_def_cfa_offset 16
 339              		.cfi_offset 4, -16
 340              		.cfi_offset 5, -12
 341              		.cfi_offset 6, -8
 342              		.cfi_offset 14, -4
ARM GAS  /tmp/ccCURI9o.s 			page 7


 343              		.loc 1 238 0
 344 0002 4378     		ldrb	r3, [r0, #1]
 345              		.loc 1 232 0
 346 0004 0500     		movs	r5, r0
 347              		.loc 1 243 0
 348 0006 0024     		movs	r4, #0
 349              		.loc 1 238 0
 350 0008 012B     		cmp	r3, #1
 351 000a 01D0     		beq	.L15
 352              	.LVL21:
 353              	.L13:
 354              		.loc 1 244 0
 355 000c 2000     		movs	r0, r4
 356              		@ sp needed
 357              	.LVL22:
 358 000e 70BD     		pop	{r4, r5, r6, pc}
 359              	.LVL23:
 360              	.L15:
 361              	.LBB2:
 362              		.loc 1 239 0
 363 0010 FFF7FEFF 		bl	uart_lld_stop_send
 364              	.LVL24:
 365              		.loc 1 240 0
 366 0014 6C70     		strb	r4, [r5, #1]
 367              		.loc 1 241 0
 368 0016 0400     		movs	r4, r0
 369 0018 F8E7     		b	.L13
 370              	.LBE2:
 371              		.cfi_endproc
 372              	.LFE47:
 373              		.size	uartStopSendI, .-uartStopSendI
 374 001a C046     		.section	.text.uartStartReceive,"ax",%progbits
 375              		.align	2
 376              		.p2align 4,,15
 377              		.global	uartStartReceive
 378              		.code	16
 379              		.thumb_func
 380              		.type	uartStartReceive, %function
 381              	uartStartReceive:
 382              	.LFB48:
 383              		.loc 1 257 0
 384              		.cfi_startproc
 385              		@ args = 0, pretend = 0, frame = 0
 386              		@ frame_needed = 0, uses_anonymous_args = 0
 387              	.LVL25:
 388 0000 10B5     		push	{r4, lr}
 389              		.cfi_def_cfa_offset 8
 390              		.cfi_offset 4, -8
 391              		.cfi_offset 14, -4
 392              		.loc 1 257 0
 393 0002 0400     		movs	r4, r0
 394              		.loc 1 262 0
 395              		.syntax divided
 396              	@ 262 "../../os/hal/src/uart.c" 1
 397 0004 72B6     		cpsid   i
 398              	@ 0 "" 2
 399              		.loc 1 268 0
ARM GAS  /tmp/ccCURI9o.s 			page 8


 400              		.thumb
 401              		.syntax unified
 402 0006 FFF7FEFF 		bl	uart_lld_start_receive
 403              	.LVL26:
 404              		.loc 1 269 0
 405 000a 0123     		movs	r3, #1
 406 000c A370     		strb	r3, [r4, #2]
 407              		.loc 1 270 0
 408              		.syntax divided
 409              	@ 270 "../../os/hal/src/uart.c" 1
 410 000e 62B6     		cpsie   i
 411              	@ 0 "" 2
 412              		.loc 1 271 0
 413              		.thumb
 414              		.syntax unified
 415              		@ sp needed
 416              	.LVL27:
 417 0010 10BD     		pop	{r4, pc}
 418              		.cfi_endproc
 419              	.LFE48:
 420              		.size	uartStartReceive, .-uartStartReceive
 421 0012 C046     		.section	.text.uartStartReceiveI,"ax",%progbits
 422              		.align	2
 423              		.p2align 4,,15
 424              		.global	uartStartReceiveI
 425              		.code	16
 426              		.thumb_func
 427              		.type	uartStartReceiveI, %function
 428              	uartStartReceiveI:
 429              	.LFB49:
 430              		.loc 1 285 0
 431              		.cfi_startproc
 432              		@ args = 0, pretend = 0, frame = 0
 433              		@ frame_needed = 0, uses_anonymous_args = 0
 434              	.LVL28:
 435 0000 10B5     		push	{r4, lr}
 436              		.cfi_def_cfa_offset 8
 437              		.cfi_offset 4, -8
 438              		.cfi_offset 14, -4
 439              		.loc 1 285 0
 440 0002 0400     		movs	r4, r0
 441              		.loc 1 295 0
 442 0004 FFF7FEFF 		bl	uart_lld_start_receive
 443              	.LVL29:
 444              		.loc 1 296 0
 445 0008 0123     		movs	r3, #1
 446              		.loc 1 297 0
 447              		@ sp needed
 448              		.loc 1 296 0
 449 000a A370     		strb	r3, [r4, #2]
 450              	.LVL30:
 451              		.loc 1 297 0
 452 000c 10BD     		pop	{r4, pc}
 453              		.cfi_endproc
 454              	.LFE49:
 455              		.size	uartStartReceiveI, .-uartStartReceiveI
 456 000e C046     		.section	.text.uartStopReceive,"ax",%progbits
ARM GAS  /tmp/ccCURI9o.s 			page 9


 457              		.align	2
 458              		.p2align 4,,15
 459              		.global	uartStopReceive
 460              		.code	16
 461              		.thumb_func
 462              		.type	uartStopReceive, %function
 463              	uartStopReceive:
 464              	.LFB50:
 465              		.loc 1 311 0
 466              		.cfi_startproc
 467              		@ args = 0, pretend = 0, frame = 0
 468              		@ frame_needed = 0, uses_anonymous_args = 0
 469              	.LVL31:
 470 0000 10B5     		push	{r4, lr}
 471              		.cfi_def_cfa_offset 8
 472              		.cfi_offset 4, -8
 473              		.cfi_offset 14, -4
 474              		.loc 1 311 0
 475 0002 0400     		movs	r4, r0
 476              		.loc 1 316 0
 477              		.syntax divided
 478              	@ 316 "../../os/hal/src/uart.c" 1
 479 0004 72B6     		cpsid   i
 480              	@ 0 "" 2
 481              		.loc 1 320 0
 482              		.thumb
 483              		.syntax unified
 484 0006 8378     		ldrb	r3, [r0, #2]
 485              		.loc 1 325 0
 486 0008 0020     		movs	r0, #0
 487              	.LVL32:
 488              		.loc 1 320 0
 489 000a 012B     		cmp	r3, #1
 490 000c 01D0     		beq	.L21
 491              	.L19:
 492              	.LVL33:
 493              		.loc 1 326 0
 494              		.syntax divided
 495              	@ 326 "../../os/hal/src/uart.c" 1
 496 000e 62B6     		cpsie   i
 497              	@ 0 "" 2
 498              		.loc 1 328 0
 499              		.thumb
 500              		.syntax unified
 501              		@ sp needed
 502              	.LVL34:
 503 0010 10BD     		pop	{r4, pc}
 504              	.LVL35:
 505              	.L21:
 506              		.loc 1 321 0
 507 0012 2000     		movs	r0, r4
 508 0014 FFF7FEFF 		bl	uart_lld_stop_receive
 509              	.LVL36:
 510              		.loc 1 322 0
 511 0018 0023     		movs	r3, #0
 512 001a A370     		strb	r3, [r4, #2]
 513 001c F7E7     		b	.L19
ARM GAS  /tmp/ccCURI9o.s 			page 10


 514              		.cfi_endproc
 515              	.LFE50:
 516              		.size	uartStopReceive, .-uartStopReceive
 517 001e C046     		.section	.text.uartStopReceiveI,"ax",%progbits
 518              		.align	2
 519              		.p2align 4,,15
 520              		.global	uartStopReceiveI
 521              		.code	16
 522              		.thumb_func
 523              		.type	uartStopReceiveI, %function
 524              	uartStopReceiveI:
 525              	.LFB51:
 526              		.loc 1 343 0
 527              		.cfi_startproc
 528              		@ args = 0, pretend = 0, frame = 0
 529              		@ frame_needed = 0, uses_anonymous_args = 0
 530              	.LVL37:
 531 0000 70B5     		push	{r4, r5, r6, lr}
 532              		.cfi_def_cfa_offset 16
 533              		.cfi_offset 4, -16
 534              		.cfi_offset 5, -12
 535              		.cfi_offset 6, -8
 536              		.cfi_offset 14, -4
 537              		.loc 1 350 0
 538 0002 8378     		ldrb	r3, [r0, #2]
 539              		.loc 1 343 0
 540 0004 0500     		movs	r5, r0
 541              		.loc 1 355 0
 542 0006 0024     		movs	r4, #0
 543              		.loc 1 350 0
 544 0008 012B     		cmp	r3, #1
 545 000a 01D0     		beq	.L25
 546              	.LVL38:
 547              	.L23:
 548              		.loc 1 356 0
 549 000c 2000     		movs	r0, r4
 550              		@ sp needed
 551              	.LVL39:
 552 000e 70BD     		pop	{r4, r5, r6, pc}
 553              	.LVL40:
 554              	.L25:
 555              	.LBB3:
 556              		.loc 1 351 0
 557 0010 FFF7FEFF 		bl	uart_lld_stop_receive
 558              	.LVL41:
 559              		.loc 1 352 0
 560 0014 AC70     		strb	r4, [r5, #2]
 561              		.loc 1 353 0
 562 0016 0400     		movs	r4, r0
 563 0018 F8E7     		b	.L23
 564              	.LBE3:
 565              		.cfi_endproc
 566              	.LFE51:
 567              		.size	uartStopReceiveI, .-uartStopReceiveI
 568 001a C046     		.text
 569              	.Letext0:
 570              		.file 2 "/home/lithium/Descargas/gcc-arm-none-eabi-5_3-2016q1/lib/gcc/arm-none-eabi/5.3.1/include/
ARM GAS  /tmp/ccCURI9o.s 			page 11


 571              		.file 3 "/home/lithium/Descargas/gcc-arm-none-eabi-5_3-2016q1/arm-none-eabi/include/machine/_defau
 572              		.file 4 "/home/lithium/Descargas/gcc-arm-none-eabi-5_3-2016q1/arm-none-eabi/include/sys/_stdint.h"
 573              		.file 5 "../../os/hal/platforms/STM32F0xx/stm32f0xx.h"
 574              		.file 6 "../../os/hal/platforms/STM32F0xx/stm32_dma.h"
 575              		.file 7 "../../os/hal/include/uart.h"
 576              		.file 8 "../../os/hal/platforms/STM32/USARTv2/uart_lld.h"
 577              		.section	.debug_info,"",%progbits
 578              	.Ldebug_info0:
 579 0000 4A080000 		.4byte	0x84a
 580 0004 0400     		.2byte	0x4
 581 0006 00000000 		.4byte	.Ldebug_abbrev0
 582 000a 04       		.byte	0x4
 583 000b 01       		.uleb128 0x1
 584 000c 45040000 		.4byte	.LASF92
 585 0010 0C       		.byte	0xc
 586 0011 DD020000 		.4byte	.LASF93
 587 0015 BF030000 		.4byte	.LASF94
 588 0019 00000000 		.4byte	.Ldebug_ranges0+0
 589 001d 00000000 		.4byte	0
 590 0021 00000000 		.4byte	.Ldebug_line0
 591 0025 02       		.uleb128 0x2
 592 0026 04       		.byte	0x4
 593 0027 05       		.byte	0x5
 594 0028 696E7400 		.ascii	"int\000"
 595 002c 03       		.uleb128 0x3
 596 002d 71000000 		.4byte	.LASF4
 597 0031 02       		.byte	0x2
 598 0032 D8       		.byte	0xd8
 599 0033 37000000 		.4byte	0x37
 600 0037 04       		.uleb128 0x4
 601 0038 04       		.byte	0x4
 602 0039 07       		.byte	0x7
 603 003a 57020000 		.4byte	.LASF0
 604 003e 04       		.uleb128 0x4
 605 003f 08       		.byte	0x8
 606 0040 05       		.byte	0x5
 607 0041 73010000 		.4byte	.LASF1
 608 0045 04       		.uleb128 0x4
 609 0046 08       		.byte	0x8
 610 0047 04       		.byte	0x4
 611 0048 F4010000 		.4byte	.LASF2
 612 004c 04       		.uleb128 0x4
 613 004d 01       		.byte	0x1
 614 004e 06       		.byte	0x6
 615 004f 50010000 		.4byte	.LASF3
 616 0053 03       		.uleb128 0x3
 617 0054 CC010000 		.4byte	.LASF5
 618 0058 03       		.byte	0x3
 619 0059 1D       		.byte	0x1d
 620 005a 5E000000 		.4byte	0x5e
 621 005e 04       		.uleb128 0x4
 622 005f 01       		.byte	0x1
 623 0060 08       		.byte	0x8
 624 0061 00020000 		.4byte	.LASF6
 625 0065 04       		.uleb128 0x4
 626 0066 02       		.byte	0x2
 627 0067 05       		.byte	0x5
ARM GAS  /tmp/ccCURI9o.s 			page 12


 628 0068 D6000000 		.4byte	.LASF7
 629 006c 03       		.uleb128 0x3
 630 006d BD000000 		.4byte	.LASF8
 631 0071 03       		.byte	0x3
 632 0072 2B       		.byte	0x2b
 633 0073 77000000 		.4byte	0x77
 634 0077 04       		.uleb128 0x4
 635 0078 02       		.byte	0x2
 636 0079 07       		.byte	0x7
 637 007a A0020000 		.4byte	.LASF9
 638 007e 04       		.uleb128 0x4
 639 007f 04       		.byte	0x4
 640 0080 05       		.byte	0x5
 641 0081 AC010000 		.4byte	.LASF10
 642 0085 03       		.uleb128 0x3
 643 0086 A8000000 		.4byte	.LASF11
 644 008a 03       		.byte	0x3
 645 008b 41       		.byte	0x41
 646 008c 90000000 		.4byte	0x90
 647 0090 04       		.uleb128 0x4
 648 0091 04       		.byte	0x4
 649 0092 07       		.byte	0x7
 650 0093 5E030000 		.4byte	.LASF12
 651 0097 04       		.uleb128 0x4
 652 0098 08       		.byte	0x8
 653 0099 07       		.byte	0x7
 654 009a 25020000 		.4byte	.LASF13
 655 009e 03       		.uleb128 0x3
 656 009f 28010000 		.4byte	.LASF14
 657 00a3 04       		.byte	0x4
 658 00a4 14       		.byte	0x14
 659 00a5 53000000 		.4byte	0x53
 660 00a9 03       		.uleb128 0x3
 661 00aa 64020000 		.4byte	.LASF15
 662 00ae 04       		.byte	0x4
 663 00af 1A       		.byte	0x1a
 664 00b0 6C000000 		.4byte	0x6c
 665 00b4 03       		.uleb128 0x3
 666 00b5 44020000 		.4byte	.LASF16
 667 00b9 04       		.byte	0x4
 668 00ba 20       		.byte	0x20
 669 00bb 85000000 		.4byte	0x85
 670 00bf 04       		.uleb128 0x4
 671 00c0 01       		.byte	0x1
 672 00c1 02       		.byte	0x2
 673 00c2 0D030000 		.4byte	.LASF17
 674 00c6 05       		.uleb128 0x5
 675 00c7 04       		.byte	0x4
 676 00c8 06       		.uleb128 0x6
 677 00c9 B4000000 		.4byte	0xb4
 678 00cd 04       		.uleb128 0x4
 679 00ce 04       		.byte	0x4
 680 00cf 07       		.byte	0x7
 681 00d0 81000000 		.4byte	.LASF18
 682 00d4 04       		.uleb128 0x4
 683 00d5 01       		.byte	0x1
 684 00d6 08       		.byte	0x8
ARM GAS  /tmp/ccCURI9o.s 			page 13


 685 00d7 D8020000 		.4byte	.LASF19
 686 00db 07       		.uleb128 0x7
 687 00dc 10       		.byte	0x10
 688 00dd 05       		.byte	0x5
 689 00de 8A01     		.2byte	0x18a
 690 00e0 19010000 		.4byte	0x119
 691 00e4 08       		.uleb128 0x8
 692 00e5 43435200 		.ascii	"CCR\000"
 693 00e9 05       		.byte	0x5
 694 00ea 8C01     		.2byte	0x18c
 695 00ec C8000000 		.4byte	0xc8
 696 00f0 00       		.byte	0
 697 00f1 09       		.uleb128 0x9
 698 00f2 D2020000 		.4byte	.LASF20
 699 00f6 05       		.byte	0x5
 700 00f7 8D01     		.2byte	0x18d
 701 00f9 C8000000 		.4byte	0xc8
 702 00fd 04       		.byte	0x4
 703 00fe 09       		.uleb128 0x9
 704 00ff EF010000 		.4byte	.LASF21
 705 0103 05       		.byte	0x5
 706 0104 8E01     		.2byte	0x18e
 707 0106 C8000000 		.4byte	0xc8
 708 010a 08       		.byte	0x8
 709 010b 09       		.uleb128 0x9
 710 010c 8D030000 		.4byte	.LASF22
 711 0110 05       		.byte	0x5
 712 0111 8F01     		.2byte	0x18f
 713 0113 C8000000 		.4byte	0xc8
 714 0117 0C       		.byte	0xc
 715 0118 00       		.byte	0
 716 0119 0A       		.uleb128 0xa
 717 011a B8020000 		.4byte	.LASF23
 718 011e 05       		.byte	0x5
 719 011f 9001     		.2byte	0x190
 720 0121 DB000000 		.4byte	0xdb
 721 0125 06       		.uleb128 0x6
 722 0126 A9000000 		.4byte	0xa9
 723 012a 07       		.uleb128 0x7
 724 012b 2C       		.byte	0x2c
 725 012c 05       		.byte	0x5
 726 012d AA02     		.2byte	0x2aa
 727 012f 04020000 		.4byte	0x204
 728 0133 08       		.uleb128 0x8
 729 0134 43523100 		.ascii	"CR1\000"
 730 0138 05       		.byte	0x5
 731 0139 AC02     		.2byte	0x2ac
 732 013b C8000000 		.4byte	0xc8
 733 013f 00       		.byte	0
 734 0140 08       		.uleb128 0x8
 735 0141 43523200 		.ascii	"CR2\000"
 736 0145 05       		.byte	0x5
 737 0146 AD02     		.2byte	0x2ad
 738 0148 C8000000 		.4byte	0xc8
 739 014c 04       		.byte	0x4
 740 014d 08       		.uleb128 0x8
 741 014e 43523300 		.ascii	"CR3\000"
ARM GAS  /tmp/ccCURI9o.s 			page 14


 742 0152 05       		.byte	0x5
 743 0153 AE02     		.2byte	0x2ae
 744 0155 C8000000 		.4byte	0xc8
 745 0159 08       		.byte	0x8
 746 015a 08       		.uleb128 0x8
 747 015b 42525200 		.ascii	"BRR\000"
 748 015f 05       		.byte	0x5
 749 0160 AF02     		.2byte	0x2af
 750 0162 25010000 		.4byte	0x125
 751 0166 0C       		.byte	0xc
 752 0167 09       		.uleb128 0x9
 753 0168 2C030000 		.4byte	.LASF24
 754 016c 05       		.byte	0x5
 755 016d B002     		.2byte	0x2b0
 756 016f A9000000 		.4byte	0xa9
 757 0173 0E       		.byte	0xe
 758 0174 09       		.uleb128 0x9
 759 0175 11000000 		.4byte	.LASF25
 760 0179 05       		.byte	0x5
 761 017a B102     		.2byte	0x2b1
 762 017c 25010000 		.4byte	0x125
 763 0180 10       		.byte	0x10
 764 0181 09       		.uleb128 0x9
 765 0182 36030000 		.4byte	.LASF26
 766 0186 05       		.byte	0x5
 767 0187 B202     		.2byte	0x2b2
 768 0189 A9000000 		.4byte	0xa9
 769 018d 12       		.byte	0x12
 770 018e 09       		.uleb128 0x9
 771 018f B3020000 		.4byte	.LASF27
 772 0193 05       		.byte	0x5
 773 0194 B302     		.2byte	0x2b3
 774 0196 C8000000 		.4byte	0xc8
 775 019a 14       		.byte	0x14
 776 019b 08       		.uleb128 0x8
 777 019c 52515200 		.ascii	"RQR\000"
 778 01a0 05       		.byte	0x5
 779 01a1 B402     		.2byte	0x2b4
 780 01a3 25010000 		.4byte	0x125
 781 01a7 18       		.byte	0x18
 782 01a8 09       		.uleb128 0x9
 783 01a9 40030000 		.4byte	.LASF28
 784 01ad 05       		.byte	0x5
 785 01ae B502     		.2byte	0x2b5
 786 01b0 A9000000 		.4byte	0xa9
 787 01b4 1A       		.byte	0x1a
 788 01b5 08       		.uleb128 0x8
 789 01b6 49535200 		.ascii	"ISR\000"
 790 01ba 05       		.byte	0x5
 791 01bb B602     		.2byte	0x2b6
 792 01bd C8000000 		.4byte	0xc8
 793 01c1 1C       		.byte	0x1c
 794 01c2 08       		.uleb128 0x8
 795 01c3 49435200 		.ascii	"ICR\000"
 796 01c7 05       		.byte	0x5
 797 01c8 B702     		.2byte	0x2b7
 798 01ca C8000000 		.4byte	0xc8
ARM GAS  /tmp/ccCURI9o.s 			page 15


 799 01ce 20       		.byte	0x20
 800 01cf 08       		.uleb128 0x8
 801 01d0 52445200 		.ascii	"RDR\000"
 802 01d4 05       		.byte	0x5
 803 01d5 B802     		.2byte	0x2b8
 804 01d7 25010000 		.4byte	0x125
 805 01db 24       		.byte	0x24
 806 01dc 09       		.uleb128 0x9
 807 01dd 4A030000 		.4byte	.LASF29
 808 01e1 05       		.byte	0x5
 809 01e2 B902     		.2byte	0x2b9
 810 01e4 A9000000 		.4byte	0xa9
 811 01e8 26       		.byte	0x26
 812 01e9 08       		.uleb128 0x8
 813 01ea 54445200 		.ascii	"TDR\000"
 814 01ee 05       		.byte	0x5
 815 01ef BA02     		.2byte	0x2ba
 816 01f1 25010000 		.4byte	0x125
 817 01f5 28       		.byte	0x28
 818 01f6 09       		.uleb128 0x9
 819 01f7 54030000 		.4byte	.LASF30
 820 01fb 05       		.byte	0x5
 821 01fc BB02     		.2byte	0x2bb
 822 01fe A9000000 		.4byte	0xa9
 823 0202 2A       		.byte	0x2a
 824 0203 00       		.byte	0
 825 0204 0A       		.uleb128 0xa
 826 0205 C8000000 		.4byte	.LASF31
 827 0209 05       		.byte	0x5
 828 020a BC02     		.2byte	0x2bc
 829 020c 2A010000 		.4byte	0x12a
 830 0210 0B       		.uleb128 0xb
 831 0211 0C       		.byte	0xc
 832 0212 06       		.byte	0x6
 833 0213 B6       		.byte	0xb6
 834 0214 55020000 		.4byte	0x255
 835 0218 0C       		.uleb128 0xc
 836 0219 13030000 		.4byte	.LASF32
 837 021d 06       		.byte	0x6
 838 021e B7       		.byte	0xb7
 839 021f 55020000 		.4byte	0x255
 840 0223 00       		.byte	0
 841 0224 0C       		.uleb128 0xc
 842 0225 2A050000 		.4byte	.LASF33
 843 0229 06       		.byte	0x6
 844 022a B8       		.byte	0xb8
 845 022b 5B020000 		.4byte	0x25b
 846 022f 04       		.byte	0x4
 847 0230 0C       		.uleb128 0xc
 848 0231 95010000 		.4byte	.LASF34
 849 0235 06       		.byte	0x6
 850 0236 B9       		.byte	0xb9
 851 0237 9E000000 		.4byte	0x9e
 852 023b 08       		.byte	0x8
 853 023c 0C       		.uleb128 0xc
 854 023d 4D020000 		.4byte	.LASF35
 855 0241 06       		.byte	0x6
ARM GAS  /tmp/ccCURI9o.s 			page 16


 856 0242 BB       		.byte	0xbb
 857 0243 9E000000 		.4byte	0x9e
 858 0247 09       		.byte	0x9
 859 0248 0C       		.uleb128 0xc
 860 0249 30010000 		.4byte	.LASF36
 861 024d 06       		.byte	0x6
 862 024e BC       		.byte	0xbc
 863 024f 9E000000 		.4byte	0x9e
 864 0253 0A       		.byte	0xa
 865 0254 00       		.byte	0
 866 0255 0D       		.uleb128 0xd
 867 0256 04       		.byte	0x4
 868 0257 19010000 		.4byte	0x119
 869 025b 0D       		.uleb128 0xd
 870 025c 04       		.byte	0x4
 871 025d C8000000 		.4byte	0xc8
 872 0261 03       		.uleb128 0x3
 873 0262 F5000000 		.4byte	.LASF37
 874 0266 06       		.byte	0x6
 875 0267 BD       		.byte	0xbd
 876 0268 10020000 		.4byte	0x210
 877 026c 0D       		.uleb128 0xd
 878 026d 04       		.byte	0x4
 879 026e 72020000 		.4byte	0x272
 880 0272 0E       		.uleb128 0xe
 881 0273 61020000 		.4byte	0x261
 882 0277 0F       		.uleb128 0xf
 883 0278 01       		.byte	0x1
 884 0279 5E000000 		.4byte	0x5e
 885 027d 07       		.byte	0x7
 886 027e 48       		.byte	0x48
 887 027f 96020000 		.4byte	0x296
 888 0283 10       		.uleb128 0x10
 889 0284 F8030000 		.4byte	.LASF38
 890 0288 00       		.byte	0
 891 0289 10       		.uleb128 0x10
 892 028a 50000000 		.4byte	.LASF39
 893 028e 01       		.byte	0x1
 894 028f 10       		.uleb128 0x10
 895 0290 92030000 		.4byte	.LASF40
 896 0294 02       		.byte	0x2
 897 0295 00       		.byte	0
 898 0296 03       		.uleb128 0x3
 899 0297 44000000 		.4byte	.LASF41
 900 029b 07       		.byte	0x7
 901 029c 4C       		.byte	0x4c
 902 029d 77020000 		.4byte	0x277
 903 02a1 0F       		.uleb128 0xf
 904 02a2 01       		.byte	0x1
 905 02a3 5E000000 		.4byte	0x5e
 906 02a7 07       		.byte	0x7
 907 02a8 51       		.byte	0x51
 908 02a9 C0020000 		.4byte	0x2c0
 909 02ad 10       		.uleb128 0x10
 910 02ae 25040000 		.4byte	.LASF42
 911 02b2 00       		.byte	0
 912 02b3 10       		.uleb128 0x10
ARM GAS  /tmp/ccCURI9o.s 			page 17


 913 02b4 08010000 		.4byte	.LASF43
 914 02b8 01       		.byte	0x1
 915 02b9 10       		.uleb128 0x10
 916 02ba 00000000 		.4byte	.LASF44
 917 02be 02       		.byte	0x2
 918 02bf 00       		.byte	0
 919 02c0 03       		.uleb128 0x3
 920 02c1 92020000 		.4byte	.LASF45
 921 02c5 07       		.byte	0x7
 922 02c6 55       		.byte	0x55
 923 02c7 A1020000 		.4byte	0x2a1
 924 02cb 0F       		.uleb128 0xf
 925 02cc 01       		.byte	0x1
 926 02cd 5E000000 		.4byte	0x5e
 927 02d1 07       		.byte	0x7
 928 02d2 5A       		.byte	0x5a
 929 02d3 EA020000 		.4byte	0x2ea
 930 02d7 10       		.uleb128 0x10
 931 02d8 9D030000 		.4byte	.LASF46
 932 02dc 00       		.byte	0
 933 02dd 10       		.uleb128 0x10
 934 02de 37010000 		.4byte	.LASF47
 935 02e2 01       		.byte	0x1
 936 02e3 10       		.uleb128 0x10
 937 02e4 1B030000 		.4byte	.LASF48
 938 02e8 02       		.byte	0x2
 939 02e9 00       		.byte	0
 940 02ea 03       		.uleb128 0x3
 941 02eb BE010000 		.4byte	.LASF49
 942 02ef 07       		.byte	0x7
 943 02f0 5E       		.byte	0x5e
 944 02f1 CB020000 		.4byte	0x2cb
 945 02f5 0A       		.uleb128 0xa
 946 02f6 7D020000 		.4byte	.LASF50
 947 02fa 08       		.byte	0x8
 948 02fb 2C01     		.2byte	0x12c
 949 02fd B4000000 		.4byte	0xb4
 950 0301 0A       		.uleb128 0xa
 951 0302 1F050000 		.4byte	.LASF51
 952 0306 08       		.byte	0x8
 953 0307 3101     		.2byte	0x131
 954 0309 0D030000 		.4byte	0x30d
 955 030d 11       		.uleb128 0x11
 956 030e 1F050000 		.4byte	.LASF51
 957 0312 1C       		.byte	0x1c
 958 0313 08       		.byte	0x8
 959 0314 7901     		.2byte	0x179
 960 0316 90030000 		.4byte	0x390
 961 031a 09       		.uleb128 0x9
 962 031b 70030000 		.4byte	.LASF52
 963 031f 08       		.byte	0x8
 964 0320 7D01     		.2byte	0x17d
 965 0322 96020000 		.4byte	0x296
 966 0326 00       		.byte	0
 967 0327 09       		.uleb128 0x9
 968 0328 A0000000 		.4byte	.LASF53
 969 032c 08       		.byte	0x8
ARM GAS  /tmp/ccCURI9o.s 			page 18


 970 032d 8101     		.2byte	0x181
 971 032f C0020000 		.4byte	0x2c0
 972 0333 01       		.byte	0x1
 973 0334 09       		.uleb128 0x9
 974 0335 6B010000 		.4byte	.LASF54
 975 0339 08       		.byte	0x8
 976 033a 8501     		.2byte	0x185
 977 033c EA020000 		.4byte	0x2ea
 978 0340 02       		.byte	0x2
 979 0341 09       		.uleb128 0x9
 980 0342 E0000000 		.4byte	.LASF55
 981 0346 08       		.byte	0x8
 982 0347 8901     		.2byte	0x189
 983 0349 82040000 		.4byte	0x482
 984 034d 04       		.byte	0x4
 985 034e 09       		.uleb128 0x9
 986 034f 1C000000 		.4byte	.LASF56
 987 0353 08       		.byte	0x8
 988 0354 9101     		.2byte	0x191
 989 0356 8D040000 		.4byte	0x48d
 990 035a 08       		.byte	0x8
 991 035b 09       		.uleb128 0x9
 992 035c 3C020000 		.4byte	.LASF57
 993 0360 08       		.byte	0x8
 994 0361 9501     		.2byte	0x195
 995 0363 B4000000 		.4byte	0xb4
 996 0367 0C       		.byte	0xc
 997 0368 09       		.uleb128 0x9
 998 0369 16000000 		.4byte	.LASF58
 999 036d 08       		.byte	0x8
 1000 036e 9901     		.2byte	0x199
 1001 0370 6C020000 		.4byte	0x26c
 1002 0374 10       		.byte	0x10
 1003 0375 09       		.uleb128 0x9
 1004 0376 1F020000 		.4byte	.LASF59
 1005 037a 08       		.byte	0x8
 1006 037b 9D01     		.2byte	0x19d
 1007 037d 6C020000 		.4byte	0x26c
 1008 0381 14       		.byte	0x14
 1009 0382 09       		.uleb128 0x9
 1010 0383 0D040000 		.4byte	.LASF60
 1011 0387 08       		.byte	0x8
 1012 0388 A101     		.2byte	0x1a1
 1013 038a 25010000 		.4byte	0x125
 1014 038e 18       		.byte	0x18
 1015 038f 00       		.byte	0
 1016 0390 0A       		.uleb128 0xa
 1017 0391 B5010000 		.4byte	.LASF61
 1018 0395 08       		.byte	0x8
 1019 0396 3801     		.2byte	0x138
 1020 0398 9C030000 		.4byte	0x39c
 1021 039c 0D       		.uleb128 0xd
 1022 039d 04       		.byte	0x4
 1023 039e A2030000 		.4byte	0x3a2
 1024 03a2 12       		.uleb128 0x12
 1025 03a3 AD030000 		.4byte	0x3ad
 1026 03a7 13       		.uleb128 0x13
ARM GAS  /tmp/ccCURI9o.s 			page 19


 1027 03a8 AD030000 		.4byte	0x3ad
 1028 03ac 00       		.byte	0
 1029 03ad 0D       		.uleb128 0xd
 1030 03ae 04       		.byte	0x4
 1031 03af 01030000 		.4byte	0x301
 1032 03b3 0A       		.uleb128 0xa
 1033 03b4 6D020000 		.4byte	.LASF62
 1034 03b8 08       		.byte	0x8
 1035 03b9 4001     		.2byte	0x140
 1036 03bb BF030000 		.4byte	0x3bf
 1037 03bf 0D       		.uleb128 0xd
 1038 03c0 04       		.byte	0x4
 1039 03c1 C5030000 		.4byte	0x3c5
 1040 03c5 12       		.uleb128 0x12
 1041 03c6 D5030000 		.4byte	0x3d5
 1042 03ca 13       		.uleb128 0x13
 1043 03cb AD030000 		.4byte	0x3ad
 1044 03cf 13       		.uleb128 0x13
 1045 03d0 A9000000 		.4byte	0xa9
 1046 03d4 00       		.byte	0
 1047 03d5 0A       		.uleb128 0xa
 1048 03d6 46010000 		.4byte	.LASF63
 1049 03da 08       		.byte	0x8
 1050 03db 4801     		.2byte	0x148
 1051 03dd E1030000 		.4byte	0x3e1
 1052 03e1 0D       		.uleb128 0xd
 1053 03e2 04       		.byte	0x4
 1054 03e3 E7030000 		.4byte	0x3e7
 1055 03e7 12       		.uleb128 0x12
 1056 03e8 F7030000 		.4byte	0x3f7
 1057 03ec 13       		.uleb128 0x13
 1058 03ed AD030000 		.4byte	0x3ad
 1059 03f1 13       		.uleb128 0x13
 1060 03f2 F5020000 		.4byte	0x2f5
 1061 03f6 00       		.byte	0
 1062 03f7 07       		.uleb128 0x7
 1063 03f8 24       		.byte	0x24
 1064 03f9 08       		.byte	0x8
 1065 03fa 4E01     		.2byte	0x14e
 1066 03fc 76040000 		.4byte	0x476
 1067 0400 09       		.uleb128 0x9
 1068 0401 B3000000 		.4byte	.LASF64
 1069 0405 08       		.byte	0x8
 1070 0406 5201     		.2byte	0x152
 1071 0408 90030000 		.4byte	0x390
 1072 040c 00       		.byte	0
 1073 040d 09       		.uleb128 0x9
 1074 040e D6010000 		.4byte	.LASF65
 1075 0412 08       		.byte	0x8
 1076 0413 5601     		.2byte	0x156
 1077 0415 90030000 		.4byte	0x390
 1078 0419 04       		.byte	0x4
 1079 041a 09       		.uleb128 0x9
 1080 041b 5A000000 		.4byte	.LASF66
 1081 041f 08       		.byte	0x8
 1082 0420 5A01     		.2byte	0x15a
 1083 0422 90030000 		.4byte	0x390
ARM GAS  /tmp/ccCURI9o.s 			page 20


 1084 0426 08       		.byte	0x8
 1085 0427 09       		.uleb128 0x9
 1086 0428 AA030000 		.4byte	.LASF67
 1087 042c 08       		.byte	0x8
 1088 042d 5E01     		.2byte	0x15e
 1089 042f B3030000 		.4byte	0x3b3
 1090 0433 0C       		.byte	0xc
 1091 0434 09       		.uleb128 0x9
 1092 0435 78000000 		.4byte	.LASF68
 1093 0439 08       		.byte	0x8
 1094 043a 6201     		.2byte	0x162
 1095 043c D5030000 		.4byte	0x3d5
 1096 0440 10       		.byte	0x10
 1097 0441 09       		.uleb128 0x9
 1098 0442 77020000 		.4byte	.LASF69
 1099 0446 08       		.byte	0x8
 1100 0447 6701     		.2byte	0x167
 1101 0449 B4000000 		.4byte	0xb4
 1102 044d 14       		.byte	0x14
 1103 044e 08       		.uleb128 0x8
 1104 044f 63723100 		.ascii	"cr1\000"
 1105 0453 08       		.byte	0x8
 1106 0454 6B01     		.2byte	0x16b
 1107 0456 B4000000 		.4byte	0xb4
 1108 045a 18       		.byte	0x18
 1109 045b 08       		.uleb128 0x8
 1110 045c 63723200 		.ascii	"cr2\000"
 1111 0460 08       		.byte	0x8
 1112 0461 6F01     		.2byte	0x16f
 1113 0463 B4000000 		.4byte	0xb4
 1114 0467 1C       		.byte	0x1c
 1115 0468 08       		.uleb128 0x8
 1116 0469 63723300 		.ascii	"cr3\000"
 1117 046d 08       		.byte	0x8
 1118 046e 7301     		.2byte	0x173
 1119 0470 B4000000 		.4byte	0xb4
 1120 0474 20       		.byte	0x20
 1121 0475 00       		.byte	0
 1122 0476 0A       		.uleb128 0xa
 1123 0477 B4030000 		.4byte	.LASF70
 1124 047b 08       		.byte	0x8
 1125 047c 7401     		.2byte	0x174
 1126 047e F7030000 		.4byte	0x3f7
 1127 0482 0D       		.uleb128 0xd
 1128 0483 04       		.byte	0x4
 1129 0484 88040000 		.4byte	0x488
 1130 0488 0E       		.uleb128 0xe
 1131 0489 76040000 		.4byte	0x476
 1132 048d 0D       		.uleb128 0xd
 1133 048e 04       		.byte	0x4
 1134 048f 04020000 		.4byte	0x204
 1135 0493 14       		.uleb128 0x14
 1136 0494 89020000 		.4byte	.LASF71
 1137 0498 01       		.byte	0x1
 1138 0499 44       		.byte	0x44
 1139 049a 00000000 		.4byte	.LFB40
 1140 049e 08000000 		.4byte	.LFE40-.LFB40
ARM GAS  /tmp/ccCURI9o.s 			page 21


 1141 04a2 01       		.uleb128 0x1
 1142 04a3 9C       		.byte	0x9c
 1143 04a4 B2040000 		.4byte	0x4b2
 1144 04a8 15       		.uleb128 0x15
 1145 04a9 06000000 		.4byte	.LVL0
 1146 04ad F9070000 		.4byte	0x7f9
 1147 04b1 00       		.byte	0
 1148 04b2 14       		.uleb128 0x14
 1149 04b3 5C010000 		.4byte	.LASF72
 1150 04b7 01       		.byte	0x1
 1151 04b8 50       		.byte	0x50
 1152 04b9 00000000 		.4byte	.LFB41
 1153 04bd 0E000000 		.4byte	.LFE41-.LFB41
 1154 04c1 01       		.uleb128 0x1
 1155 04c2 9C       		.byte	0x9c
 1156 04c3 D5040000 		.4byte	0x4d5
 1157 04c7 16       		.uleb128 0x16
 1158 04c8 3F040000 		.4byte	.LASF74
 1159 04cc 01       		.byte	0x1
 1160 04cd 50       		.byte	0x50
 1161 04ce AD030000 		.4byte	0x3ad
 1162 04d2 01       		.uleb128 0x1
 1163 04d3 50       		.byte	0x50
 1164 04d4 00       		.byte	0
 1165 04d5 14       		.uleb128 0x14
 1166 04d6 F5020000 		.4byte	.LASF73
 1167 04da 01       		.byte	0x1
 1168 04db 64       		.byte	0x64
 1169 04dc 00000000 		.4byte	.LFB42
 1170 04e0 14000000 		.4byte	.LFE42-.LFB42
 1171 04e4 01       		.uleb128 0x1
 1172 04e5 9C       		.byte	0x9c
 1173 04e6 19050000 		.4byte	0x519
 1174 04ea 17       		.uleb128 0x17
 1175 04eb 3F040000 		.4byte	.LASF74
 1176 04ef 01       		.byte	0x1
 1177 04f0 64       		.byte	0x64
 1178 04f1 AD030000 		.4byte	0x3ad
 1179 04f5 00000000 		.4byte	.LLST0
 1180 04f9 17       		.uleb128 0x17
 1181 04fa E0000000 		.4byte	.LASF55
 1182 04fe 01       		.byte	0x1
 1183 04ff 64       		.byte	0x64
 1184 0500 82040000 		.4byte	0x482
 1185 0504 2C000000 		.4byte	.LLST1
 1186 0508 18       		.uleb128 0x18
 1187 0509 0C000000 		.4byte	.LVL3
 1188 050d 05080000 		.4byte	0x805
 1189 0511 19       		.uleb128 0x19
 1190 0512 01       		.uleb128 0x1
 1191 0513 50       		.byte	0x50
 1192 0514 02       		.uleb128 0x2
 1193 0515 74       		.byte	0x74
 1194 0516 00       		.sleb128 0
 1195 0517 00       		.byte	0
 1196 0518 00       		.byte	0
 1197 0519 14       		.uleb128 0x14
ARM GAS  /tmp/ccCURI9o.s 			page 22


 1198 051a 04040000 		.4byte	.LASF75
 1199 051e 01       		.byte	0x1
 1200 051f 79       		.byte	0x79
 1201 0520 00000000 		.4byte	.LFB43
 1202 0524 18000000 		.4byte	.LFE43-.LFB43
 1203 0528 01       		.uleb128 0x1
 1204 0529 9C       		.byte	0x9c
 1205 052a 4E050000 		.4byte	0x54e
 1206 052e 17       		.uleb128 0x17
 1207 052f 3F040000 		.4byte	.LASF74
 1208 0533 01       		.byte	0x1
 1209 0534 79       		.byte	0x79
 1210 0535 AD030000 		.4byte	0x3ad
 1211 0539 4D000000 		.4byte	.LLST2
 1212 053d 18       		.uleb128 0x18
 1213 053e 0A000000 		.4byte	.LVL6
 1214 0542 11080000 		.4byte	0x811
 1215 0546 19       		.uleb128 0x19
 1216 0547 01       		.uleb128 0x1
 1217 0548 50       		.byte	0x50
 1218 0549 02       		.uleb128 0x2
 1219 054a 74       		.byte	0x74
 1220 054b 00       		.sleb128 0
 1221 054c 00       		.byte	0
 1222 054d 00       		.byte	0
 1223 054e 14       		.uleb128 0x14
 1224 054f E7000000 		.4byte	.LASF76
 1225 0553 01       		.byte	0x1
 1226 0554 93       		.byte	0x93
 1227 0555 00000000 		.4byte	.LFB44
 1228 0559 12000000 		.4byte	.LFE44-.LFB44
 1229 055d 01       		.uleb128 0x1
 1230 055e 9C       		.byte	0x9c
 1231 055f AD050000 		.4byte	0x5ad
 1232 0563 17       		.uleb128 0x17
 1233 0564 3F040000 		.4byte	.LASF74
 1234 0568 01       		.byte	0x1
 1235 0569 93       		.byte	0x93
 1236 056a AD030000 		.4byte	0x3ad
 1237 056e 79000000 		.4byte	.LLST3
 1238 0572 1A       		.uleb128 0x1a
 1239 0573 6E00     		.ascii	"n\000"
 1240 0575 01       		.byte	0x1
 1241 0576 93       		.byte	0x93
 1242 0577 2C000000 		.4byte	0x2c
 1243 057b A5000000 		.4byte	.LLST4
 1244 057f 17       		.uleb128 0x17
 1245 0580 CC020000 		.4byte	.LASF77
 1246 0584 01       		.byte	0x1
 1247 0585 93       		.byte	0x93
 1248 0586 AD050000 		.4byte	0x5ad
 1249 058a C6000000 		.4byte	.LLST5
 1250 058e 18       		.uleb128 0x18
 1251 058f 0A000000 		.4byte	.LVL9
 1252 0593 1D080000 		.4byte	0x81d
 1253 0597 19       		.uleb128 0x19
 1254 0598 01       		.uleb128 0x1
ARM GAS  /tmp/ccCURI9o.s 			page 23


 1255 0599 50       		.byte	0x50
 1256 059a 02       		.uleb128 0x2
 1257 059b 74       		.byte	0x74
 1258 059c 00       		.sleb128 0
 1259 059d 19       		.uleb128 0x19
 1260 059e 01       		.uleb128 0x1
 1261 059f 51       		.byte	0x51
 1262 05a0 03       		.uleb128 0x3
 1263 05a1 F3       		.byte	0xf3
 1264 05a2 01       		.uleb128 0x1
 1265 05a3 51       		.byte	0x51
 1266 05a4 19       		.uleb128 0x19
 1267 05a5 01       		.uleb128 0x1
 1268 05a6 52       		.byte	0x52
 1269 05a7 03       		.uleb128 0x3
 1270 05a8 F3       		.byte	0xf3
 1271 05a9 01       		.uleb128 0x1
 1272 05aa 52       		.byte	0x52
 1273 05ab 00       		.byte	0
 1274 05ac 00       		.byte	0
 1275 05ad 0D       		.uleb128 0xd
 1276 05ae 04       		.byte	0x4
 1277 05af B3050000 		.4byte	0x5b3
 1278 05b3 1B       		.uleb128 0x1b
 1279 05b4 14       		.uleb128 0x14
 1280 05b5 35000000 		.4byte	.LASF78
 1281 05b9 01       		.byte	0x1
 1282 05ba AF       		.byte	0xaf
 1283 05bb 00000000 		.4byte	.LFB45
 1284 05bf 0E000000 		.4byte	.LFE45-.LFB45
 1285 05c3 01       		.uleb128 0x1
 1286 05c4 9C       		.byte	0x9c
 1287 05c5 13060000 		.4byte	0x613
 1288 05c9 17       		.uleb128 0x17
 1289 05ca 3F040000 		.4byte	.LASF74
 1290 05ce 01       		.byte	0x1
 1291 05cf AF       		.byte	0xaf
 1292 05d0 AD030000 		.4byte	0x3ad
 1293 05d4 E7000000 		.4byte	.LLST6
 1294 05d8 1A       		.uleb128 0x1a
 1295 05d9 6E00     		.ascii	"n\000"
 1296 05db 01       		.byte	0x1
 1297 05dc AF       		.byte	0xaf
 1298 05dd 2C000000 		.4byte	0x2c
 1299 05e1 13010000 		.4byte	.LLST7
 1300 05e5 17       		.uleb128 0x17
 1301 05e6 CC020000 		.4byte	.LASF77
 1302 05ea 01       		.byte	0x1
 1303 05eb AF       		.byte	0xaf
 1304 05ec AD050000 		.4byte	0x5ad
 1305 05f0 34010000 		.4byte	.LLST8
 1306 05f4 18       		.uleb128 0x18
 1307 05f5 08000000 		.4byte	.LVL12
 1308 05f9 1D080000 		.4byte	0x81d
 1309 05fd 19       		.uleb128 0x19
 1310 05fe 01       		.uleb128 0x1
 1311 05ff 50       		.byte	0x50
ARM GAS  /tmp/ccCURI9o.s 			page 24


 1312 0600 02       		.uleb128 0x2
 1313 0601 74       		.byte	0x74
 1314 0602 00       		.sleb128 0
 1315 0603 19       		.uleb128 0x19
 1316 0604 01       		.uleb128 0x1
 1317 0605 51       		.byte	0x51
 1318 0606 03       		.uleb128 0x3
 1319 0607 F3       		.byte	0xf3
 1320 0608 01       		.uleb128 0x1
 1321 0609 51       		.byte	0x51
 1322 060a 19       		.uleb128 0x19
 1323 060b 01       		.uleb128 0x1
 1324 060c 52       		.byte	0x52
 1325 060d 03       		.uleb128 0x3
 1326 060e F3       		.byte	0xf3
 1327 060f 01       		.uleb128 0x1
 1328 0610 52       		.byte	0x52
 1329 0611 00       		.byte	0
 1330 0612 00       		.byte	0
 1331 0613 1C       		.uleb128 0x1c
 1332 0614 32040000 		.4byte	.LASF79
 1333 0618 01       		.byte	0x1
 1334 0619 C9       		.byte	0xc9
 1335 061a 2C000000 		.4byte	0x2c
 1336 061e 00000000 		.4byte	.LFB46
 1337 0622 1E000000 		.4byte	.LFE46-.LFB46
 1338 0626 01       		.uleb128 0x1
 1339 0627 9C       		.byte	0x9c
 1340 0628 59060000 		.4byte	0x659
 1341 062c 17       		.uleb128 0x17
 1342 062d 3F040000 		.4byte	.LASF74
 1343 0631 01       		.byte	0x1
 1344 0632 C9       		.byte	0xc9
 1345 0633 AD030000 		.4byte	0x3ad
 1346 0637 55010000 		.4byte	.LLST9
 1347 063b 1D       		.uleb128 0x1d
 1348 063c 6E00     		.ascii	"n\000"
 1349 063e 01       		.byte	0x1
 1350 063f CA       		.byte	0xca
 1351 0640 2C000000 		.4byte	0x2c
 1352 0644 8C010000 		.4byte	.LLST10
 1353 0648 18       		.uleb128 0x18
 1354 0649 18000000 		.4byte	.LVL19
 1355 064d 29080000 		.4byte	0x829
 1356 0651 19       		.uleb128 0x19
 1357 0652 01       		.uleb128 0x1
 1358 0653 50       		.byte	0x50
 1359 0654 02       		.uleb128 0x2
 1360 0655 74       		.byte	0x74
 1361 0656 00       		.sleb128 0
 1362 0657 00       		.byte	0
 1363 0658 00       		.byte	0
 1364 0659 1C       		.uleb128 0x1c
 1365 065a 63000000 		.4byte	.LASF80
 1366 065e 01       		.byte	0x1
 1367 065f E8       		.byte	0xe8
 1368 0660 2C000000 		.4byte	0x2c
ARM GAS  /tmp/ccCURI9o.s 			page 25


 1369 0664 00000000 		.4byte	.LFB47
 1370 0668 1A000000 		.4byte	.LFE47-.LFB47
 1371 066c 01       		.uleb128 0x1
 1372 066d 9C       		.byte	0x9c
 1373 066e A0060000 		.4byte	0x6a0
 1374 0672 17       		.uleb128 0x17
 1375 0673 3F040000 		.4byte	.LASF74
 1376 0677 01       		.byte	0x1
 1377 0678 E8       		.byte	0xe8
 1378 0679 AD030000 		.4byte	0x3ad
 1379 067d AA010000 		.4byte	.LLST11
 1380 0681 1E       		.uleb128 0x1e
 1381 0682 10000000 		.4byte	.LBB2
 1382 0686 0A000000 		.4byte	.LBE2-.LBB2
 1383 068a 1F       		.uleb128 0x1f
 1384 068b 6E00     		.ascii	"n\000"
 1385 068d 01       		.byte	0x1
 1386 068e EF       		.byte	0xef
 1387 068f 2C000000 		.4byte	0x2c
 1388 0693 01       		.uleb128 0x1
 1389 0694 50       		.byte	0x50
 1390 0695 15       		.uleb128 0x15
 1391 0696 14000000 		.4byte	.LVL24
 1392 069a 29080000 		.4byte	0x829
 1393 069e 00       		.byte	0
 1394 069f 00       		.byte	0
 1395 06a0 20       		.uleb128 0x20
 1396 06a1 17010000 		.4byte	.LASF81
 1397 06a5 01       		.byte	0x1
 1398 06a6 0101     		.2byte	0x101
 1399 06a8 00000000 		.4byte	.LFB48
 1400 06ac 12000000 		.4byte	.LFE48-.LFB48
 1401 06b0 01       		.uleb128 0x1
 1402 06b1 9C       		.byte	0x9c
 1403 06b2 03070000 		.4byte	0x703
 1404 06b6 21       		.uleb128 0x21
 1405 06b7 3F040000 		.4byte	.LASF74
 1406 06bb 01       		.byte	0x1
 1407 06bc 0101     		.2byte	0x101
 1408 06be AD030000 		.4byte	0x3ad
 1409 06c2 EC010000 		.4byte	.LLST12
 1410 06c6 22       		.uleb128 0x22
 1411 06c7 6E00     		.ascii	"n\000"
 1412 06c9 01       		.byte	0x1
 1413 06ca 0101     		.2byte	0x101
 1414 06cc 2C000000 		.4byte	0x2c
 1415 06d0 18020000 		.4byte	.LLST13
 1416 06d4 21       		.uleb128 0x21
 1417 06d5 0D040000 		.4byte	.LASF60
 1418 06d9 01       		.byte	0x1
 1419 06da 0101     		.2byte	0x101
 1420 06dc C6000000 		.4byte	0xc6
 1421 06e0 39020000 		.4byte	.LLST14
 1422 06e4 18       		.uleb128 0x18
 1423 06e5 0A000000 		.4byte	.LVL26
 1424 06e9 35080000 		.4byte	0x835
 1425 06ed 19       		.uleb128 0x19
ARM GAS  /tmp/ccCURI9o.s 			page 26


 1426 06ee 01       		.uleb128 0x1
 1427 06ef 50       		.byte	0x50
 1428 06f0 02       		.uleb128 0x2
 1429 06f1 74       		.byte	0x74
 1430 06f2 00       		.sleb128 0
 1431 06f3 19       		.uleb128 0x19
 1432 06f4 01       		.uleb128 0x1
 1433 06f5 51       		.byte	0x51
 1434 06f6 03       		.uleb128 0x3
 1435 06f7 F3       		.byte	0xf3
 1436 06f8 01       		.uleb128 0x1
 1437 06f9 51       		.byte	0x51
 1438 06fa 19       		.uleb128 0x19
 1439 06fb 01       		.uleb128 0x1
 1440 06fc 52       		.byte	0x52
 1441 06fd 03       		.uleb128 0x3
 1442 06fe F3       		.byte	0xf3
 1443 06ff 01       		.uleb128 0x1
 1444 0700 52       		.byte	0x52
 1445 0701 00       		.byte	0
 1446 0702 00       		.byte	0
 1447 0703 20       		.uleb128 0x20
 1448 0704 13040000 		.4byte	.LASF82
 1449 0708 01       		.byte	0x1
 1450 0709 1D01     		.2byte	0x11d
 1451 070b 00000000 		.4byte	.LFB49
 1452 070f 0E000000 		.4byte	.LFE49-.LFB49
 1453 0713 01       		.uleb128 0x1
 1454 0714 9C       		.byte	0x9c
 1455 0715 66070000 		.4byte	0x766
 1456 0719 21       		.uleb128 0x21
 1457 071a 3F040000 		.4byte	.LASF74
 1458 071e 01       		.byte	0x1
 1459 071f 1D01     		.2byte	0x11d
 1460 0721 AD030000 		.4byte	0x3ad
 1461 0725 5A020000 		.4byte	.LLST15
 1462 0729 22       		.uleb128 0x22
 1463 072a 6E00     		.ascii	"n\000"
 1464 072c 01       		.byte	0x1
 1465 072d 1D01     		.2byte	0x11d
 1466 072f 2C000000 		.4byte	0x2c
 1467 0733 86020000 		.4byte	.LLST16
 1468 0737 21       		.uleb128 0x21
 1469 0738 0D040000 		.4byte	.LASF60
 1470 073c 01       		.byte	0x1
 1471 073d 1D01     		.2byte	0x11d
 1472 073f C6000000 		.4byte	0xc6
 1473 0743 A7020000 		.4byte	.LLST17
 1474 0747 18       		.uleb128 0x18
 1475 0748 08000000 		.4byte	.LVL29
 1476 074c 35080000 		.4byte	0x835
 1477 0750 19       		.uleb128 0x19
 1478 0751 01       		.uleb128 0x1
 1479 0752 50       		.byte	0x50
 1480 0753 02       		.uleb128 0x2
 1481 0754 74       		.byte	0x74
 1482 0755 00       		.sleb128 0
ARM GAS  /tmp/ccCURI9o.s 			page 27


 1483 0756 19       		.uleb128 0x19
 1484 0757 01       		.uleb128 0x1
 1485 0758 51       		.byte	0x51
 1486 0759 03       		.uleb128 0x3
 1487 075a F3       		.byte	0xf3
 1488 075b 01       		.uleb128 0x1
 1489 075c 51       		.byte	0x51
 1490 075d 19       		.uleb128 0x19
 1491 075e 01       		.uleb128 0x1
 1492 075f 52       		.byte	0x52
 1493 0760 03       		.uleb128 0x3
 1494 0761 F3       		.byte	0xf3
 1495 0762 01       		.uleb128 0x1
 1496 0763 52       		.byte	0x52
 1497 0764 00       		.byte	0
 1498 0765 00       		.byte	0
 1499 0766 23       		.uleb128 0x23
 1500 0767 9C010000 		.4byte	.LASF83
 1501 076b 01       		.byte	0x1
 1502 076c 3701     		.2byte	0x137
 1503 076e 2C000000 		.4byte	0x2c
 1504 0772 00000000 		.4byte	.LFB50
 1505 0776 1E000000 		.4byte	.LFE50-.LFB50
 1506 077a 01       		.uleb128 0x1
 1507 077b 9C       		.byte	0x9c
 1508 077c AF070000 		.4byte	0x7af
 1509 0780 21       		.uleb128 0x21
 1510 0781 3F040000 		.4byte	.LASF74
 1511 0785 01       		.byte	0x1
 1512 0786 3701     		.2byte	0x137
 1513 0788 AD030000 		.4byte	0x3ad
 1514 078c C8020000 		.4byte	.LLST18
 1515 0790 24       		.uleb128 0x24
 1516 0791 6E00     		.ascii	"n\000"
 1517 0793 01       		.byte	0x1
 1518 0794 3801     		.2byte	0x138
 1519 0796 2C000000 		.4byte	0x2c
 1520 079a FF020000 		.4byte	.LLST19
 1521 079e 18       		.uleb128 0x18
 1522 079f 18000000 		.4byte	.LVL36
 1523 07a3 41080000 		.4byte	0x841
 1524 07a7 19       		.uleb128 0x19
 1525 07a8 01       		.uleb128 0x1
 1526 07a9 50       		.byte	0x50
 1527 07aa 02       		.uleb128 0x2
 1528 07ab 74       		.byte	0x74
 1529 07ac 00       		.sleb128 0
 1530 07ad 00       		.byte	0
 1531 07ae 00       		.byte	0
 1532 07af 23       		.uleb128 0x23
 1533 07b0 0E020000 		.4byte	.LASF84
 1534 07b4 01       		.byte	0x1
 1535 07b5 5701     		.2byte	0x157
 1536 07b7 2C000000 		.4byte	0x2c
 1537 07bb 00000000 		.4byte	.LFB51
 1538 07bf 1A000000 		.4byte	.LFE51-.LFB51
 1539 07c3 01       		.uleb128 0x1
ARM GAS  /tmp/ccCURI9o.s 			page 28


 1540 07c4 9C       		.byte	0x9c
 1541 07c5 F9070000 		.4byte	0x7f9
 1542 07c9 21       		.uleb128 0x21
 1543 07ca 3F040000 		.4byte	.LASF74
 1544 07ce 01       		.byte	0x1
 1545 07cf 5701     		.2byte	0x157
 1546 07d1 AD030000 		.4byte	0x3ad
 1547 07d5 1D030000 		.4byte	.LLST20
 1548 07d9 1E       		.uleb128 0x1e
 1549 07da 10000000 		.4byte	.LBB3
 1550 07de 0A000000 		.4byte	.LBE3-.LBB3
 1551 07e2 25       		.uleb128 0x25
 1552 07e3 6E00     		.ascii	"n\000"
 1553 07e5 01       		.byte	0x1
 1554 07e6 5F01     		.2byte	0x15f
 1555 07e8 2C000000 		.4byte	0x2c
 1556 07ec 01       		.uleb128 0x1
 1557 07ed 50       		.byte	0x50
 1558 07ee 15       		.uleb128 0x15
 1559 07ef 14000000 		.4byte	.LVL41
 1560 07f3 41080000 		.4byte	0x841
 1561 07f7 00       		.byte	0
 1562 07f8 00       		.byte	0
 1563 07f9 26       		.uleb128 0x26
 1564 07fa FF020000 		.4byte	.LASF85
 1565 07fe FF020000 		.4byte	.LASF85
 1566 0802 08       		.byte	0x8
 1567 0803 BB01     		.2byte	0x1bb
 1568 0805 26       		.uleb128 0x26
 1569 0806 E0010000 		.4byte	.LASF86
 1570 080a E0010000 		.4byte	.LASF86
 1571 080e 08       		.byte	0x8
 1572 080f BC01     		.2byte	0x1bc
 1573 0811 26       		.uleb128 0x26
 1574 0812 2F050000 		.4byte	.LASF87
 1575 0816 2F050000 		.4byte	.LASF87
 1576 081a 08       		.byte	0x8
 1577 081b BD01     		.2byte	0x1bd
 1578 081d 26       		.uleb128 0x26
 1579 081e 81010000 		.4byte	.LASF88
 1580 0822 81010000 		.4byte	.LASF88
 1581 0826 08       		.byte	0x8
 1582 0827 BE01     		.2byte	0x1be
 1583 0829 26       		.uleb128 0x26
 1584 082a 22000000 		.4byte	.LASF89
 1585 082e 22000000 		.4byte	.LASF89
 1586 0832 08       		.byte	0x8
 1587 0833 BF01     		.2byte	0x1bf
 1588 0835 26       		.uleb128 0x26
 1589 0836 76030000 		.4byte	.LASF90
 1590 083a 76030000 		.4byte	.LASF90
 1591 083e 08       		.byte	0x8
 1592 083f C001     		.2byte	0x1c0
 1593 0841 26       		.uleb128 0x26
 1594 0842 8A000000 		.4byte	.LASF91
 1595 0846 8A000000 		.4byte	.LASF91
 1596 084a 08       		.byte	0x8
ARM GAS  /tmp/ccCURI9o.s 			page 29


 1597 084b C101     		.2byte	0x1c1
 1598 084d 00       		.byte	0
 1599              		.section	.debug_abbrev,"",%progbits
 1600              	.Ldebug_abbrev0:
 1601 0000 01       		.uleb128 0x1
 1602 0001 11       		.uleb128 0x11
 1603 0002 01       		.byte	0x1
 1604 0003 25       		.uleb128 0x25
 1605 0004 0E       		.uleb128 0xe
 1606 0005 13       		.uleb128 0x13
 1607 0006 0B       		.uleb128 0xb
 1608 0007 03       		.uleb128 0x3
 1609 0008 0E       		.uleb128 0xe
 1610 0009 1B       		.uleb128 0x1b
 1611 000a 0E       		.uleb128 0xe
 1612 000b 55       		.uleb128 0x55
 1613 000c 17       		.uleb128 0x17
 1614 000d 11       		.uleb128 0x11
 1615 000e 01       		.uleb128 0x1
 1616 000f 10       		.uleb128 0x10
 1617 0010 17       		.uleb128 0x17
 1618 0011 00       		.byte	0
 1619 0012 00       		.byte	0
 1620 0013 02       		.uleb128 0x2
 1621 0014 24       		.uleb128 0x24
 1622 0015 00       		.byte	0
 1623 0016 0B       		.uleb128 0xb
 1624 0017 0B       		.uleb128 0xb
 1625 0018 3E       		.uleb128 0x3e
 1626 0019 0B       		.uleb128 0xb
 1627 001a 03       		.uleb128 0x3
 1628 001b 08       		.uleb128 0x8
 1629 001c 00       		.byte	0
 1630 001d 00       		.byte	0
 1631 001e 03       		.uleb128 0x3
 1632 001f 16       		.uleb128 0x16
 1633 0020 00       		.byte	0
 1634 0021 03       		.uleb128 0x3
 1635 0022 0E       		.uleb128 0xe
 1636 0023 3A       		.uleb128 0x3a
 1637 0024 0B       		.uleb128 0xb
 1638 0025 3B       		.uleb128 0x3b
 1639 0026 0B       		.uleb128 0xb
 1640 0027 49       		.uleb128 0x49
 1641 0028 13       		.uleb128 0x13
 1642 0029 00       		.byte	0
 1643 002a 00       		.byte	0
 1644 002b 04       		.uleb128 0x4
 1645 002c 24       		.uleb128 0x24
 1646 002d 00       		.byte	0
 1647 002e 0B       		.uleb128 0xb
 1648 002f 0B       		.uleb128 0xb
 1649 0030 3E       		.uleb128 0x3e
 1650 0031 0B       		.uleb128 0xb
 1651 0032 03       		.uleb128 0x3
 1652 0033 0E       		.uleb128 0xe
 1653 0034 00       		.byte	0
ARM GAS  /tmp/ccCURI9o.s 			page 30


 1654 0035 00       		.byte	0
 1655 0036 05       		.uleb128 0x5
 1656 0037 0F       		.uleb128 0xf
 1657 0038 00       		.byte	0
 1658 0039 0B       		.uleb128 0xb
 1659 003a 0B       		.uleb128 0xb
 1660 003b 00       		.byte	0
 1661 003c 00       		.byte	0
 1662 003d 06       		.uleb128 0x6
 1663 003e 35       		.uleb128 0x35
 1664 003f 00       		.byte	0
 1665 0040 49       		.uleb128 0x49
 1666 0041 13       		.uleb128 0x13
 1667 0042 00       		.byte	0
 1668 0043 00       		.byte	0
 1669 0044 07       		.uleb128 0x7
 1670 0045 13       		.uleb128 0x13
 1671 0046 01       		.byte	0x1
 1672 0047 0B       		.uleb128 0xb
 1673 0048 0B       		.uleb128 0xb
 1674 0049 3A       		.uleb128 0x3a
 1675 004a 0B       		.uleb128 0xb
 1676 004b 3B       		.uleb128 0x3b
 1677 004c 05       		.uleb128 0x5
 1678 004d 01       		.uleb128 0x1
 1679 004e 13       		.uleb128 0x13
 1680 004f 00       		.byte	0
 1681 0050 00       		.byte	0
 1682 0051 08       		.uleb128 0x8
 1683 0052 0D       		.uleb128 0xd
 1684 0053 00       		.byte	0
 1685 0054 03       		.uleb128 0x3
 1686 0055 08       		.uleb128 0x8
 1687 0056 3A       		.uleb128 0x3a
 1688 0057 0B       		.uleb128 0xb
 1689 0058 3B       		.uleb128 0x3b
 1690 0059 05       		.uleb128 0x5
 1691 005a 49       		.uleb128 0x49
 1692 005b 13       		.uleb128 0x13
 1693 005c 38       		.uleb128 0x38
 1694 005d 0B       		.uleb128 0xb
 1695 005e 00       		.byte	0
 1696 005f 00       		.byte	0
 1697 0060 09       		.uleb128 0x9
 1698 0061 0D       		.uleb128 0xd
 1699 0062 00       		.byte	0
 1700 0063 03       		.uleb128 0x3
 1701 0064 0E       		.uleb128 0xe
 1702 0065 3A       		.uleb128 0x3a
 1703 0066 0B       		.uleb128 0xb
 1704 0067 3B       		.uleb128 0x3b
 1705 0068 05       		.uleb128 0x5
 1706 0069 49       		.uleb128 0x49
 1707 006a 13       		.uleb128 0x13
 1708 006b 38       		.uleb128 0x38
 1709 006c 0B       		.uleb128 0xb
 1710 006d 00       		.byte	0
ARM GAS  /tmp/ccCURI9o.s 			page 31


 1711 006e 00       		.byte	0
 1712 006f 0A       		.uleb128 0xa
 1713 0070 16       		.uleb128 0x16
 1714 0071 00       		.byte	0
 1715 0072 03       		.uleb128 0x3
 1716 0073 0E       		.uleb128 0xe
 1717 0074 3A       		.uleb128 0x3a
 1718 0075 0B       		.uleb128 0xb
 1719 0076 3B       		.uleb128 0x3b
 1720 0077 05       		.uleb128 0x5
 1721 0078 49       		.uleb128 0x49
 1722 0079 13       		.uleb128 0x13
 1723 007a 00       		.byte	0
 1724 007b 00       		.byte	0
 1725 007c 0B       		.uleb128 0xb
 1726 007d 13       		.uleb128 0x13
 1727 007e 01       		.byte	0x1
 1728 007f 0B       		.uleb128 0xb
 1729 0080 0B       		.uleb128 0xb
 1730 0081 3A       		.uleb128 0x3a
 1731 0082 0B       		.uleb128 0xb
 1732 0083 3B       		.uleb128 0x3b
 1733 0084 0B       		.uleb128 0xb
 1734 0085 01       		.uleb128 0x1
 1735 0086 13       		.uleb128 0x13
 1736 0087 00       		.byte	0
 1737 0088 00       		.byte	0
 1738 0089 0C       		.uleb128 0xc
 1739 008a 0D       		.uleb128 0xd
 1740 008b 00       		.byte	0
 1741 008c 03       		.uleb128 0x3
 1742 008d 0E       		.uleb128 0xe
 1743 008e 3A       		.uleb128 0x3a
 1744 008f 0B       		.uleb128 0xb
 1745 0090 3B       		.uleb128 0x3b
 1746 0091 0B       		.uleb128 0xb
 1747 0092 49       		.uleb128 0x49
 1748 0093 13       		.uleb128 0x13
 1749 0094 38       		.uleb128 0x38
 1750 0095 0B       		.uleb128 0xb
 1751 0096 00       		.byte	0
 1752 0097 00       		.byte	0
 1753 0098 0D       		.uleb128 0xd
 1754 0099 0F       		.uleb128 0xf
 1755 009a 00       		.byte	0
 1756 009b 0B       		.uleb128 0xb
 1757 009c 0B       		.uleb128 0xb
 1758 009d 49       		.uleb128 0x49
 1759 009e 13       		.uleb128 0x13
 1760 009f 00       		.byte	0
 1761 00a0 00       		.byte	0
 1762 00a1 0E       		.uleb128 0xe
 1763 00a2 26       		.uleb128 0x26
 1764 00a3 00       		.byte	0
 1765 00a4 49       		.uleb128 0x49
 1766 00a5 13       		.uleb128 0x13
 1767 00a6 00       		.byte	0
ARM GAS  /tmp/ccCURI9o.s 			page 32


 1768 00a7 00       		.byte	0
 1769 00a8 0F       		.uleb128 0xf
 1770 00a9 04       		.uleb128 0x4
 1771 00aa 01       		.byte	0x1
 1772 00ab 0B       		.uleb128 0xb
 1773 00ac 0B       		.uleb128 0xb
 1774 00ad 49       		.uleb128 0x49
 1775 00ae 13       		.uleb128 0x13
 1776 00af 3A       		.uleb128 0x3a
 1777 00b0 0B       		.uleb128 0xb
 1778 00b1 3B       		.uleb128 0x3b
 1779 00b2 0B       		.uleb128 0xb
 1780 00b3 01       		.uleb128 0x1
 1781 00b4 13       		.uleb128 0x13
 1782 00b5 00       		.byte	0
 1783 00b6 00       		.byte	0
 1784 00b7 10       		.uleb128 0x10
 1785 00b8 28       		.uleb128 0x28
 1786 00b9 00       		.byte	0
 1787 00ba 03       		.uleb128 0x3
 1788 00bb 0E       		.uleb128 0xe
 1789 00bc 1C       		.uleb128 0x1c
 1790 00bd 0B       		.uleb128 0xb
 1791 00be 00       		.byte	0
 1792 00bf 00       		.byte	0
 1793 00c0 11       		.uleb128 0x11
 1794 00c1 13       		.uleb128 0x13
 1795 00c2 01       		.byte	0x1
 1796 00c3 03       		.uleb128 0x3
 1797 00c4 0E       		.uleb128 0xe
 1798 00c5 0B       		.uleb128 0xb
 1799 00c6 0B       		.uleb128 0xb
 1800 00c7 3A       		.uleb128 0x3a
 1801 00c8 0B       		.uleb128 0xb
 1802 00c9 3B       		.uleb128 0x3b
 1803 00ca 05       		.uleb128 0x5
 1804 00cb 01       		.uleb128 0x1
 1805 00cc 13       		.uleb128 0x13
 1806 00cd 00       		.byte	0
 1807 00ce 00       		.byte	0
 1808 00cf 12       		.uleb128 0x12
 1809 00d0 15       		.uleb128 0x15
 1810 00d1 01       		.byte	0x1
 1811 00d2 27       		.uleb128 0x27
 1812 00d3 19       		.uleb128 0x19
 1813 00d4 01       		.uleb128 0x1
 1814 00d5 13       		.uleb128 0x13
 1815 00d6 00       		.byte	0
 1816 00d7 00       		.byte	0
 1817 00d8 13       		.uleb128 0x13
 1818 00d9 05       		.uleb128 0x5
 1819 00da 00       		.byte	0
 1820 00db 49       		.uleb128 0x49
 1821 00dc 13       		.uleb128 0x13
 1822 00dd 00       		.byte	0
 1823 00de 00       		.byte	0
 1824 00df 14       		.uleb128 0x14
ARM GAS  /tmp/ccCURI9o.s 			page 33


 1825 00e0 2E       		.uleb128 0x2e
 1826 00e1 01       		.byte	0x1
 1827 00e2 3F       		.uleb128 0x3f
 1828 00e3 19       		.uleb128 0x19
 1829 00e4 03       		.uleb128 0x3
 1830 00e5 0E       		.uleb128 0xe
 1831 00e6 3A       		.uleb128 0x3a
 1832 00e7 0B       		.uleb128 0xb
 1833 00e8 3B       		.uleb128 0x3b
 1834 00e9 0B       		.uleb128 0xb
 1835 00ea 27       		.uleb128 0x27
 1836 00eb 19       		.uleb128 0x19
 1837 00ec 11       		.uleb128 0x11
 1838 00ed 01       		.uleb128 0x1
 1839 00ee 12       		.uleb128 0x12
 1840 00ef 06       		.uleb128 0x6
 1841 00f0 40       		.uleb128 0x40
 1842 00f1 18       		.uleb128 0x18
 1843 00f2 9742     		.uleb128 0x2117
 1844 00f4 19       		.uleb128 0x19
 1845 00f5 01       		.uleb128 0x1
 1846 00f6 13       		.uleb128 0x13
 1847 00f7 00       		.byte	0
 1848 00f8 00       		.byte	0
 1849 00f9 15       		.uleb128 0x15
 1850 00fa 898201   		.uleb128 0x4109
 1851 00fd 00       		.byte	0
 1852 00fe 11       		.uleb128 0x11
 1853 00ff 01       		.uleb128 0x1
 1854 0100 31       		.uleb128 0x31
 1855 0101 13       		.uleb128 0x13
 1856 0102 00       		.byte	0
 1857 0103 00       		.byte	0
 1858 0104 16       		.uleb128 0x16
 1859 0105 05       		.uleb128 0x5
 1860 0106 00       		.byte	0
 1861 0107 03       		.uleb128 0x3
 1862 0108 0E       		.uleb128 0xe
 1863 0109 3A       		.uleb128 0x3a
 1864 010a 0B       		.uleb128 0xb
 1865 010b 3B       		.uleb128 0x3b
 1866 010c 0B       		.uleb128 0xb
 1867 010d 49       		.uleb128 0x49
 1868 010e 13       		.uleb128 0x13
 1869 010f 02       		.uleb128 0x2
 1870 0110 18       		.uleb128 0x18
 1871 0111 00       		.byte	0
 1872 0112 00       		.byte	0
 1873 0113 17       		.uleb128 0x17
 1874 0114 05       		.uleb128 0x5
 1875 0115 00       		.byte	0
 1876 0116 03       		.uleb128 0x3
 1877 0117 0E       		.uleb128 0xe
 1878 0118 3A       		.uleb128 0x3a
 1879 0119 0B       		.uleb128 0xb
 1880 011a 3B       		.uleb128 0x3b
 1881 011b 0B       		.uleb128 0xb
ARM GAS  /tmp/ccCURI9o.s 			page 34


 1882 011c 49       		.uleb128 0x49
 1883 011d 13       		.uleb128 0x13
 1884 011e 02       		.uleb128 0x2
 1885 011f 17       		.uleb128 0x17
 1886 0120 00       		.byte	0
 1887 0121 00       		.byte	0
 1888 0122 18       		.uleb128 0x18
 1889 0123 898201   		.uleb128 0x4109
 1890 0126 01       		.byte	0x1
 1891 0127 11       		.uleb128 0x11
 1892 0128 01       		.uleb128 0x1
 1893 0129 31       		.uleb128 0x31
 1894 012a 13       		.uleb128 0x13
 1895 012b 00       		.byte	0
 1896 012c 00       		.byte	0
 1897 012d 19       		.uleb128 0x19
 1898 012e 8A8201   		.uleb128 0x410a
 1899 0131 00       		.byte	0
 1900 0132 02       		.uleb128 0x2
 1901 0133 18       		.uleb128 0x18
 1902 0134 9142     		.uleb128 0x2111
 1903 0136 18       		.uleb128 0x18
 1904 0137 00       		.byte	0
 1905 0138 00       		.byte	0
 1906 0139 1A       		.uleb128 0x1a
 1907 013a 05       		.uleb128 0x5
 1908 013b 00       		.byte	0
 1909 013c 03       		.uleb128 0x3
 1910 013d 08       		.uleb128 0x8
 1911 013e 3A       		.uleb128 0x3a
 1912 013f 0B       		.uleb128 0xb
 1913 0140 3B       		.uleb128 0x3b
 1914 0141 0B       		.uleb128 0xb
 1915 0142 49       		.uleb128 0x49
 1916 0143 13       		.uleb128 0x13
 1917 0144 02       		.uleb128 0x2
 1918 0145 17       		.uleb128 0x17
 1919 0146 00       		.byte	0
 1920 0147 00       		.byte	0
 1921 0148 1B       		.uleb128 0x1b
 1922 0149 26       		.uleb128 0x26
 1923 014a 00       		.byte	0
 1924 014b 00       		.byte	0
 1925 014c 00       		.byte	0
 1926 014d 1C       		.uleb128 0x1c
 1927 014e 2E       		.uleb128 0x2e
 1928 014f 01       		.byte	0x1
 1929 0150 3F       		.uleb128 0x3f
 1930 0151 19       		.uleb128 0x19
 1931 0152 03       		.uleb128 0x3
 1932 0153 0E       		.uleb128 0xe
 1933 0154 3A       		.uleb128 0x3a
 1934 0155 0B       		.uleb128 0xb
 1935 0156 3B       		.uleb128 0x3b
 1936 0157 0B       		.uleb128 0xb
 1937 0158 27       		.uleb128 0x27
 1938 0159 19       		.uleb128 0x19
ARM GAS  /tmp/ccCURI9o.s 			page 35


 1939 015a 49       		.uleb128 0x49
 1940 015b 13       		.uleb128 0x13
 1941 015c 11       		.uleb128 0x11
 1942 015d 01       		.uleb128 0x1
 1943 015e 12       		.uleb128 0x12
 1944 015f 06       		.uleb128 0x6
 1945 0160 40       		.uleb128 0x40
 1946 0161 18       		.uleb128 0x18
 1947 0162 9742     		.uleb128 0x2117
 1948 0164 19       		.uleb128 0x19
 1949 0165 01       		.uleb128 0x1
 1950 0166 13       		.uleb128 0x13
 1951 0167 00       		.byte	0
 1952 0168 00       		.byte	0
 1953 0169 1D       		.uleb128 0x1d
 1954 016a 34       		.uleb128 0x34
 1955 016b 00       		.byte	0
 1956 016c 03       		.uleb128 0x3
 1957 016d 08       		.uleb128 0x8
 1958 016e 3A       		.uleb128 0x3a
 1959 016f 0B       		.uleb128 0xb
 1960 0170 3B       		.uleb128 0x3b
 1961 0171 0B       		.uleb128 0xb
 1962 0172 49       		.uleb128 0x49
 1963 0173 13       		.uleb128 0x13
 1964 0174 02       		.uleb128 0x2
 1965 0175 17       		.uleb128 0x17
 1966 0176 00       		.byte	0
 1967 0177 00       		.byte	0
 1968 0178 1E       		.uleb128 0x1e
 1969 0179 0B       		.uleb128 0xb
 1970 017a 01       		.byte	0x1
 1971 017b 11       		.uleb128 0x11
 1972 017c 01       		.uleb128 0x1
 1973 017d 12       		.uleb128 0x12
 1974 017e 06       		.uleb128 0x6
 1975 017f 00       		.byte	0
 1976 0180 00       		.byte	0
 1977 0181 1F       		.uleb128 0x1f
 1978 0182 34       		.uleb128 0x34
 1979 0183 00       		.byte	0
 1980 0184 03       		.uleb128 0x3
 1981 0185 08       		.uleb128 0x8
 1982 0186 3A       		.uleb128 0x3a
 1983 0187 0B       		.uleb128 0xb
 1984 0188 3B       		.uleb128 0x3b
 1985 0189 0B       		.uleb128 0xb
 1986 018a 49       		.uleb128 0x49
 1987 018b 13       		.uleb128 0x13
 1988 018c 02       		.uleb128 0x2
 1989 018d 18       		.uleb128 0x18
 1990 018e 00       		.byte	0
 1991 018f 00       		.byte	0
 1992 0190 20       		.uleb128 0x20
 1993 0191 2E       		.uleb128 0x2e
 1994 0192 01       		.byte	0x1
 1995 0193 3F       		.uleb128 0x3f
ARM GAS  /tmp/ccCURI9o.s 			page 36


 1996 0194 19       		.uleb128 0x19
 1997 0195 03       		.uleb128 0x3
 1998 0196 0E       		.uleb128 0xe
 1999 0197 3A       		.uleb128 0x3a
 2000 0198 0B       		.uleb128 0xb
 2001 0199 3B       		.uleb128 0x3b
 2002 019a 05       		.uleb128 0x5
 2003 019b 27       		.uleb128 0x27
 2004 019c 19       		.uleb128 0x19
 2005 019d 11       		.uleb128 0x11
 2006 019e 01       		.uleb128 0x1
 2007 019f 12       		.uleb128 0x12
 2008 01a0 06       		.uleb128 0x6
 2009 01a1 40       		.uleb128 0x40
 2010 01a2 18       		.uleb128 0x18
 2011 01a3 9742     		.uleb128 0x2117
 2012 01a5 19       		.uleb128 0x19
 2013 01a6 01       		.uleb128 0x1
 2014 01a7 13       		.uleb128 0x13
 2015 01a8 00       		.byte	0
 2016 01a9 00       		.byte	0
 2017 01aa 21       		.uleb128 0x21
 2018 01ab 05       		.uleb128 0x5
 2019 01ac 00       		.byte	0
 2020 01ad 03       		.uleb128 0x3
 2021 01ae 0E       		.uleb128 0xe
 2022 01af 3A       		.uleb128 0x3a
 2023 01b0 0B       		.uleb128 0xb
 2024 01b1 3B       		.uleb128 0x3b
 2025 01b2 05       		.uleb128 0x5
 2026 01b3 49       		.uleb128 0x49
 2027 01b4 13       		.uleb128 0x13
 2028 01b5 02       		.uleb128 0x2
 2029 01b6 17       		.uleb128 0x17
 2030 01b7 00       		.byte	0
 2031 01b8 00       		.byte	0
 2032 01b9 22       		.uleb128 0x22
 2033 01ba 05       		.uleb128 0x5
 2034 01bb 00       		.byte	0
 2035 01bc 03       		.uleb128 0x3
 2036 01bd 08       		.uleb128 0x8
 2037 01be 3A       		.uleb128 0x3a
 2038 01bf 0B       		.uleb128 0xb
 2039 01c0 3B       		.uleb128 0x3b
 2040 01c1 05       		.uleb128 0x5
 2041 01c2 49       		.uleb128 0x49
 2042 01c3 13       		.uleb128 0x13
 2043 01c4 02       		.uleb128 0x2
 2044 01c5 17       		.uleb128 0x17
 2045 01c6 00       		.byte	0
 2046 01c7 00       		.byte	0
 2047 01c8 23       		.uleb128 0x23
 2048 01c9 2E       		.uleb128 0x2e
 2049 01ca 01       		.byte	0x1
 2050 01cb 3F       		.uleb128 0x3f
 2051 01cc 19       		.uleb128 0x19
 2052 01cd 03       		.uleb128 0x3
ARM GAS  /tmp/ccCURI9o.s 			page 37


 2053 01ce 0E       		.uleb128 0xe
 2054 01cf 3A       		.uleb128 0x3a
 2055 01d0 0B       		.uleb128 0xb
 2056 01d1 3B       		.uleb128 0x3b
 2057 01d2 05       		.uleb128 0x5
 2058 01d3 27       		.uleb128 0x27
 2059 01d4 19       		.uleb128 0x19
 2060 01d5 49       		.uleb128 0x49
 2061 01d6 13       		.uleb128 0x13
 2062 01d7 11       		.uleb128 0x11
 2063 01d8 01       		.uleb128 0x1
 2064 01d9 12       		.uleb128 0x12
 2065 01da 06       		.uleb128 0x6
 2066 01db 40       		.uleb128 0x40
 2067 01dc 18       		.uleb128 0x18
 2068 01dd 9742     		.uleb128 0x2117
 2069 01df 19       		.uleb128 0x19
 2070 01e0 01       		.uleb128 0x1
 2071 01e1 13       		.uleb128 0x13
 2072 01e2 00       		.byte	0
 2073 01e3 00       		.byte	0
 2074 01e4 24       		.uleb128 0x24
 2075 01e5 34       		.uleb128 0x34
 2076 01e6 00       		.byte	0
 2077 01e7 03       		.uleb128 0x3
 2078 01e8 08       		.uleb128 0x8
 2079 01e9 3A       		.uleb128 0x3a
 2080 01ea 0B       		.uleb128 0xb
 2081 01eb 3B       		.uleb128 0x3b
 2082 01ec 05       		.uleb128 0x5
 2083 01ed 49       		.uleb128 0x49
 2084 01ee 13       		.uleb128 0x13
 2085 01ef 02       		.uleb128 0x2
 2086 01f0 17       		.uleb128 0x17
 2087 01f1 00       		.byte	0
 2088 01f2 00       		.byte	0
 2089 01f3 25       		.uleb128 0x25
 2090 01f4 34       		.uleb128 0x34
 2091 01f5 00       		.byte	0
 2092 01f6 03       		.uleb128 0x3
 2093 01f7 08       		.uleb128 0x8
 2094 01f8 3A       		.uleb128 0x3a
 2095 01f9 0B       		.uleb128 0xb
 2096 01fa 3B       		.uleb128 0x3b
 2097 01fb 05       		.uleb128 0x5
 2098 01fc 49       		.uleb128 0x49
 2099 01fd 13       		.uleb128 0x13
 2100 01fe 02       		.uleb128 0x2
 2101 01ff 18       		.uleb128 0x18
 2102 0200 00       		.byte	0
 2103 0201 00       		.byte	0
 2104 0202 26       		.uleb128 0x26
 2105 0203 2E       		.uleb128 0x2e
 2106 0204 00       		.byte	0
 2107 0205 3F       		.uleb128 0x3f
 2108 0206 19       		.uleb128 0x19
 2109 0207 3C       		.uleb128 0x3c
ARM GAS  /tmp/ccCURI9o.s 			page 38


 2110 0208 19       		.uleb128 0x19
 2111 0209 6E       		.uleb128 0x6e
 2112 020a 0E       		.uleb128 0xe
 2113 020b 03       		.uleb128 0x3
 2114 020c 0E       		.uleb128 0xe
 2115 020d 3A       		.uleb128 0x3a
 2116 020e 0B       		.uleb128 0xb
 2117 020f 3B       		.uleb128 0x3b
 2118 0210 05       		.uleb128 0x5
 2119 0211 00       		.byte	0
 2120 0212 00       		.byte	0
 2121 0213 00       		.byte	0
 2122              		.section	.debug_loc,"",%progbits
 2123              	.Ldebug_loc0:
 2124              	.LLST0:
 2125 0000 00000000 		.4byte	.LVL2
 2126 0004 0B000000 		.4byte	.LVL3-1
 2127 0008 0100     		.2byte	0x1
 2128 000a 50       		.byte	0x50
 2129 000b 0B000000 		.4byte	.LVL3-1
 2130 000f 12000000 		.4byte	.LVL4
 2131 0013 0100     		.2byte	0x1
 2132 0015 54       		.byte	0x54
 2133 0016 12000000 		.4byte	.LVL4
 2134 001a 14000000 		.4byte	.LFE42
 2135 001e 0400     		.2byte	0x4
 2136 0020 F3       		.byte	0xf3
 2137 0021 01       		.uleb128 0x1
 2138 0022 50       		.byte	0x50
 2139 0023 9F       		.byte	0x9f
 2140 0024 00000000 		.4byte	0
 2141 0028 00000000 		.4byte	0
 2142              	.LLST1:
 2143 002c 00000000 		.4byte	.LVL2
 2144 0030 0B000000 		.4byte	.LVL3-1
 2145 0034 0100     		.2byte	0x1
 2146 0036 51       		.byte	0x51
 2147 0037 0B000000 		.4byte	.LVL3-1
 2148 003b 14000000 		.4byte	.LFE42
 2149 003f 0400     		.2byte	0x4
 2150 0041 F3       		.byte	0xf3
 2151 0042 01       		.uleb128 0x1
 2152 0043 51       		.byte	0x51
 2153 0044 9F       		.byte	0x9f
 2154 0045 00000000 		.4byte	0
 2155 0049 00000000 		.4byte	0
 2156              	.LLST2:
 2157 004d 00000000 		.4byte	.LVL5
 2158 0051 09000000 		.4byte	.LVL6-1
 2159 0055 0100     		.2byte	0x1
 2160 0057 50       		.byte	0x50
 2161 0058 09000000 		.4byte	.LVL6-1
 2162 005c 16000000 		.4byte	.LVL7
 2163 0060 0100     		.2byte	0x1
 2164 0062 54       		.byte	0x54
 2165 0063 16000000 		.4byte	.LVL7
 2166 0067 18000000 		.4byte	.LFE43
ARM GAS  /tmp/ccCURI9o.s 			page 39


 2167 006b 0400     		.2byte	0x4
 2168 006d F3       		.byte	0xf3
 2169 006e 01       		.uleb128 0x1
 2170 006f 50       		.byte	0x50
 2171 0070 9F       		.byte	0x9f
 2172 0071 00000000 		.4byte	0
 2173 0075 00000000 		.4byte	0
 2174              	.LLST3:
 2175 0079 00000000 		.4byte	.LVL8
 2176 007d 09000000 		.4byte	.LVL9-1
 2177 0081 0100     		.2byte	0x1
 2178 0083 50       		.byte	0x50
 2179 0084 09000000 		.4byte	.LVL9-1
 2180 0088 10000000 		.4byte	.LVL10
 2181 008c 0100     		.2byte	0x1
 2182 008e 54       		.byte	0x54
 2183 008f 10000000 		.4byte	.LVL10
 2184 0093 12000000 		.4byte	.LFE44
 2185 0097 0400     		.2byte	0x4
 2186 0099 F3       		.byte	0xf3
 2187 009a 01       		.uleb128 0x1
 2188 009b 50       		.byte	0x50
 2189 009c 9F       		.byte	0x9f
 2190 009d 00000000 		.4byte	0
 2191 00a1 00000000 		.4byte	0
 2192              	.LLST4:
 2193 00a5 00000000 		.4byte	.LVL8
 2194 00a9 09000000 		.4byte	.LVL9-1
 2195 00ad 0100     		.2byte	0x1
 2196 00af 51       		.byte	0x51
 2197 00b0 09000000 		.4byte	.LVL9-1
 2198 00b4 12000000 		.4byte	.LFE44
 2199 00b8 0400     		.2byte	0x4
 2200 00ba F3       		.byte	0xf3
 2201 00bb 01       		.uleb128 0x1
 2202 00bc 51       		.byte	0x51
 2203 00bd 9F       		.byte	0x9f
 2204 00be 00000000 		.4byte	0
 2205 00c2 00000000 		.4byte	0
 2206              	.LLST5:
 2207 00c6 00000000 		.4byte	.LVL8
 2208 00ca 09000000 		.4byte	.LVL9-1
 2209 00ce 0100     		.2byte	0x1
 2210 00d0 52       		.byte	0x52
 2211 00d1 09000000 		.4byte	.LVL9-1
 2212 00d5 12000000 		.4byte	.LFE44
 2213 00d9 0400     		.2byte	0x4
 2214 00db F3       		.byte	0xf3
 2215 00dc 01       		.uleb128 0x1
 2216 00dd 52       		.byte	0x52
 2217 00de 9F       		.byte	0x9f
 2218 00df 00000000 		.4byte	0
 2219 00e3 00000000 		.4byte	0
 2220              	.LLST6:
 2221 00e7 00000000 		.4byte	.LVL11
 2222 00eb 07000000 		.4byte	.LVL12-1
 2223 00ef 0100     		.2byte	0x1
ARM GAS  /tmp/ccCURI9o.s 			page 40


 2224 00f1 50       		.byte	0x50
 2225 00f2 07000000 		.4byte	.LVL12-1
 2226 00f6 0C000000 		.4byte	.LVL13
 2227 00fa 0100     		.2byte	0x1
 2228 00fc 54       		.byte	0x54
 2229 00fd 0C000000 		.4byte	.LVL13
 2230 0101 0E000000 		.4byte	.LFE45
 2231 0105 0400     		.2byte	0x4
 2232 0107 F3       		.byte	0xf3
 2233 0108 01       		.uleb128 0x1
 2234 0109 50       		.byte	0x50
 2235 010a 9F       		.byte	0x9f
 2236 010b 00000000 		.4byte	0
 2237 010f 00000000 		.4byte	0
 2238              	.LLST7:
 2239 0113 00000000 		.4byte	.LVL11
 2240 0117 07000000 		.4byte	.LVL12-1
 2241 011b 0100     		.2byte	0x1
 2242 011d 51       		.byte	0x51
 2243 011e 07000000 		.4byte	.LVL12-1
 2244 0122 0E000000 		.4byte	.LFE45
 2245 0126 0400     		.2byte	0x4
 2246 0128 F3       		.byte	0xf3
 2247 0129 01       		.uleb128 0x1
 2248 012a 51       		.byte	0x51
 2249 012b 9F       		.byte	0x9f
 2250 012c 00000000 		.4byte	0
 2251 0130 00000000 		.4byte	0
 2252              	.LLST8:
 2253 0134 00000000 		.4byte	.LVL11
 2254 0138 07000000 		.4byte	.LVL12-1
 2255 013c 0100     		.2byte	0x1
 2256 013e 52       		.byte	0x52
 2257 013f 07000000 		.4byte	.LVL12-1
 2258 0143 0E000000 		.4byte	.LFE45
 2259 0147 0400     		.2byte	0x4
 2260 0149 F3       		.byte	0xf3
 2261 014a 01       		.uleb128 0x1
 2262 014b 52       		.byte	0x52
 2263 014c 9F       		.byte	0x9f
 2264 014d 00000000 		.4byte	0
 2265 0151 00000000 		.4byte	0
 2266              	.LLST9:
 2267 0155 00000000 		.4byte	.LVL14
 2268 0159 0A000000 		.4byte	.LVL15
 2269 015d 0100     		.2byte	0x1
 2270 015f 50       		.byte	0x50
 2271 0160 0A000000 		.4byte	.LVL15
 2272 0164 10000000 		.4byte	.LVL17
 2273 0168 0100     		.2byte	0x1
 2274 016a 54       		.byte	0x54
 2275 016b 10000000 		.4byte	.LVL17
 2276 016f 12000000 		.4byte	.LVL18
 2277 0173 0400     		.2byte	0x4
 2278 0175 F3       		.byte	0xf3
 2279 0176 01       		.uleb128 0x1
 2280 0177 50       		.byte	0x50
ARM GAS  /tmp/ccCURI9o.s 			page 41


 2281 0178 9F       		.byte	0x9f
 2282 0179 12000000 		.4byte	.LVL18
 2283 017d 1E000000 		.4byte	.LFE46
 2284 0181 0100     		.2byte	0x1
 2285 0183 54       		.byte	0x54
 2286 0184 00000000 		.4byte	0
 2287 0188 00000000 		.4byte	0
 2288              	.LLST10:
 2289 018c 0E000000 		.4byte	.LVL16
 2290 0190 12000000 		.4byte	.LVL18
 2291 0194 0100     		.2byte	0x1
 2292 0196 50       		.byte	0x50
 2293 0197 18000000 		.4byte	.LVL19
 2294 019b 1E000000 		.4byte	.LFE46
 2295 019f 0100     		.2byte	0x1
 2296 01a1 50       		.byte	0x50
 2297 01a2 00000000 		.4byte	0
 2298 01a6 00000000 		.4byte	0
 2299              	.LLST11:
 2300 01aa 00000000 		.4byte	.LVL20
 2301 01ae 0C000000 		.4byte	.LVL21
 2302 01b2 0100     		.2byte	0x1
 2303 01b4 50       		.byte	0x50
 2304 01b5 0C000000 		.4byte	.LVL21
 2305 01b9 0E000000 		.4byte	.LVL22
 2306 01bd 0100     		.2byte	0x1
 2307 01bf 55       		.byte	0x55
 2308 01c0 0E000000 		.4byte	.LVL22
 2309 01c4 10000000 		.4byte	.LVL23
 2310 01c8 0400     		.2byte	0x4
 2311 01ca F3       		.byte	0xf3
 2312 01cb 01       		.uleb128 0x1
 2313 01cc 50       		.byte	0x50
 2314 01cd 9F       		.byte	0x9f
 2315 01ce 10000000 		.4byte	.LVL23
 2316 01d2 13000000 		.4byte	.LVL24-1
 2317 01d6 0100     		.2byte	0x1
 2318 01d8 50       		.byte	0x50
 2319 01d9 13000000 		.4byte	.LVL24-1
 2320 01dd 1A000000 		.4byte	.LFE47
 2321 01e1 0100     		.2byte	0x1
 2322 01e3 55       		.byte	0x55
 2323 01e4 00000000 		.4byte	0
 2324 01e8 00000000 		.4byte	0
 2325              	.LLST12:
 2326 01ec 00000000 		.4byte	.LVL25
 2327 01f0 09000000 		.4byte	.LVL26-1
 2328 01f4 0100     		.2byte	0x1
 2329 01f6 50       		.byte	0x50
 2330 01f7 09000000 		.4byte	.LVL26-1
 2331 01fb 10000000 		.4byte	.LVL27
 2332 01ff 0100     		.2byte	0x1
 2333 0201 54       		.byte	0x54
 2334 0202 10000000 		.4byte	.LVL27
 2335 0206 12000000 		.4byte	.LFE48
 2336 020a 0400     		.2byte	0x4
 2337 020c F3       		.byte	0xf3
ARM GAS  /tmp/ccCURI9o.s 			page 42


 2338 020d 01       		.uleb128 0x1
 2339 020e 50       		.byte	0x50
 2340 020f 9F       		.byte	0x9f
 2341 0210 00000000 		.4byte	0
 2342 0214 00000000 		.4byte	0
 2343              	.LLST13:
 2344 0218 00000000 		.4byte	.LVL25
 2345 021c 09000000 		.4byte	.LVL26-1
 2346 0220 0100     		.2byte	0x1
 2347 0222 51       		.byte	0x51
 2348 0223 09000000 		.4byte	.LVL26-1
 2349 0227 12000000 		.4byte	.LFE48
 2350 022b 0400     		.2byte	0x4
 2351 022d F3       		.byte	0xf3
 2352 022e 01       		.uleb128 0x1
 2353 022f 51       		.byte	0x51
 2354 0230 9F       		.byte	0x9f
 2355 0231 00000000 		.4byte	0
 2356 0235 00000000 		.4byte	0
 2357              	.LLST14:
 2358 0239 00000000 		.4byte	.LVL25
 2359 023d 09000000 		.4byte	.LVL26-1
 2360 0241 0100     		.2byte	0x1
 2361 0243 52       		.byte	0x52
 2362 0244 09000000 		.4byte	.LVL26-1
 2363 0248 12000000 		.4byte	.LFE48
 2364 024c 0400     		.2byte	0x4
 2365 024e F3       		.byte	0xf3
 2366 024f 01       		.uleb128 0x1
 2367 0250 52       		.byte	0x52
 2368 0251 9F       		.byte	0x9f
 2369 0252 00000000 		.4byte	0
 2370 0256 00000000 		.4byte	0
 2371              	.LLST15:
 2372 025a 00000000 		.4byte	.LVL28
 2373 025e 07000000 		.4byte	.LVL29-1
 2374 0262 0100     		.2byte	0x1
 2375 0264 50       		.byte	0x50
 2376 0265 07000000 		.4byte	.LVL29-1
 2377 0269 0C000000 		.4byte	.LVL30
 2378 026d 0100     		.2byte	0x1
 2379 026f 54       		.byte	0x54
 2380 0270 0C000000 		.4byte	.LVL30
 2381 0274 0E000000 		.4byte	.LFE49
 2382 0278 0400     		.2byte	0x4
 2383 027a F3       		.byte	0xf3
 2384 027b 01       		.uleb128 0x1
 2385 027c 50       		.byte	0x50
 2386 027d 9F       		.byte	0x9f
 2387 027e 00000000 		.4byte	0
 2388 0282 00000000 		.4byte	0
 2389              	.LLST16:
 2390 0286 00000000 		.4byte	.LVL28
 2391 028a 07000000 		.4byte	.LVL29-1
 2392 028e 0100     		.2byte	0x1
 2393 0290 51       		.byte	0x51
 2394 0291 07000000 		.4byte	.LVL29-1
ARM GAS  /tmp/ccCURI9o.s 			page 43


 2395 0295 0E000000 		.4byte	.LFE49
 2396 0299 0400     		.2byte	0x4
 2397 029b F3       		.byte	0xf3
 2398 029c 01       		.uleb128 0x1
 2399 029d 51       		.byte	0x51
 2400 029e 9F       		.byte	0x9f
 2401 029f 00000000 		.4byte	0
 2402 02a3 00000000 		.4byte	0
 2403              	.LLST17:
 2404 02a7 00000000 		.4byte	.LVL28
 2405 02ab 07000000 		.4byte	.LVL29-1
 2406 02af 0100     		.2byte	0x1
 2407 02b1 52       		.byte	0x52
 2408 02b2 07000000 		.4byte	.LVL29-1
 2409 02b6 0E000000 		.4byte	.LFE49
 2410 02ba 0400     		.2byte	0x4
 2411 02bc F3       		.byte	0xf3
 2412 02bd 01       		.uleb128 0x1
 2413 02be 52       		.byte	0x52
 2414 02bf 9F       		.byte	0x9f
 2415 02c0 00000000 		.4byte	0
 2416 02c4 00000000 		.4byte	0
 2417              	.LLST18:
 2418 02c8 00000000 		.4byte	.LVL31
 2419 02cc 0A000000 		.4byte	.LVL32
 2420 02d0 0100     		.2byte	0x1
 2421 02d2 50       		.byte	0x50
 2422 02d3 0A000000 		.4byte	.LVL32
 2423 02d7 10000000 		.4byte	.LVL34
 2424 02db 0100     		.2byte	0x1
 2425 02dd 54       		.byte	0x54
 2426 02de 10000000 		.4byte	.LVL34
 2427 02e2 12000000 		.4byte	.LVL35
 2428 02e6 0400     		.2byte	0x4
 2429 02e8 F3       		.byte	0xf3
 2430 02e9 01       		.uleb128 0x1
 2431 02ea 50       		.byte	0x50
 2432 02eb 9F       		.byte	0x9f
 2433 02ec 12000000 		.4byte	.LVL35
 2434 02f0 1E000000 		.4byte	.LFE50
 2435 02f4 0100     		.2byte	0x1
 2436 02f6 54       		.byte	0x54
 2437 02f7 00000000 		.4byte	0
 2438 02fb 00000000 		.4byte	0
 2439              	.LLST19:
 2440 02ff 0E000000 		.4byte	.LVL33
 2441 0303 12000000 		.4byte	.LVL35
 2442 0307 0100     		.2byte	0x1
 2443 0309 50       		.byte	0x50
 2444 030a 18000000 		.4byte	.LVL36
 2445 030e 1E000000 		.4byte	.LFE50
 2446 0312 0100     		.2byte	0x1
 2447 0314 50       		.byte	0x50
 2448 0315 00000000 		.4byte	0
 2449 0319 00000000 		.4byte	0
 2450              	.LLST20:
 2451 031d 00000000 		.4byte	.LVL37
ARM GAS  /tmp/ccCURI9o.s 			page 44


 2452 0321 0C000000 		.4byte	.LVL38
 2453 0325 0100     		.2byte	0x1
 2454 0327 50       		.byte	0x50
 2455 0328 0C000000 		.4byte	.LVL38
 2456 032c 0E000000 		.4byte	.LVL39
 2457 0330 0100     		.2byte	0x1
 2458 0332 55       		.byte	0x55
 2459 0333 0E000000 		.4byte	.LVL39
 2460 0337 10000000 		.4byte	.LVL40
 2461 033b 0400     		.2byte	0x4
 2462 033d F3       		.byte	0xf3
 2463 033e 01       		.uleb128 0x1
 2464 033f 50       		.byte	0x50
 2465 0340 9F       		.byte	0x9f
 2466 0341 10000000 		.4byte	.LVL40
 2467 0345 13000000 		.4byte	.LVL41-1
 2468 0349 0100     		.2byte	0x1
 2469 034b 50       		.byte	0x50
 2470 034c 13000000 		.4byte	.LVL41-1
 2471 0350 1A000000 		.4byte	.LFE51
 2472 0354 0100     		.2byte	0x1
 2473 0356 55       		.byte	0x55
 2474 0357 00000000 		.4byte	0
 2475 035b 00000000 		.4byte	0
 2476              		.section	.debug_aranges,"",%progbits
 2477 0000 74000000 		.4byte	0x74
 2478 0004 0200     		.2byte	0x2
 2479 0006 00000000 		.4byte	.Ldebug_info0
 2480 000a 04       		.byte	0x4
 2481 000b 00       		.byte	0
 2482 000c 0000     		.2byte	0
 2483 000e 0000     		.2byte	0
 2484 0010 00000000 		.4byte	.LFB40
 2485 0014 08000000 		.4byte	.LFE40-.LFB40
 2486 0018 00000000 		.4byte	.LFB41
 2487 001c 0E000000 		.4byte	.LFE41-.LFB41
 2488 0020 00000000 		.4byte	.LFB42
 2489 0024 14000000 		.4byte	.LFE42-.LFB42
 2490 0028 00000000 		.4byte	.LFB43
 2491 002c 18000000 		.4byte	.LFE43-.LFB43
 2492 0030 00000000 		.4byte	.LFB44
 2493 0034 12000000 		.4byte	.LFE44-.LFB44
 2494 0038 00000000 		.4byte	.LFB45
 2495 003c 0E000000 		.4byte	.LFE45-.LFB45
 2496 0040 00000000 		.4byte	.LFB46
 2497 0044 1E000000 		.4byte	.LFE46-.LFB46
 2498 0048 00000000 		.4byte	.LFB47
 2499 004c 1A000000 		.4byte	.LFE47-.LFB47
 2500 0050 00000000 		.4byte	.LFB48
 2501 0054 12000000 		.4byte	.LFE48-.LFB48
 2502 0058 00000000 		.4byte	.LFB49
 2503 005c 0E000000 		.4byte	.LFE49-.LFB49
 2504 0060 00000000 		.4byte	.LFB50
 2505 0064 1E000000 		.4byte	.LFE50-.LFB50
 2506 0068 00000000 		.4byte	.LFB51
 2507 006c 1A000000 		.4byte	.LFE51-.LFB51
 2508 0070 00000000 		.4byte	0
ARM GAS  /tmp/ccCURI9o.s 			page 45


 2509 0074 00000000 		.4byte	0
 2510              		.section	.debug_ranges,"",%progbits
 2511              	.Ldebug_ranges0:
 2512 0000 00000000 		.4byte	.LFB40
 2513 0004 08000000 		.4byte	.LFE40
 2514 0008 00000000 		.4byte	.LFB41
 2515 000c 0E000000 		.4byte	.LFE41
 2516 0010 00000000 		.4byte	.LFB42
 2517 0014 14000000 		.4byte	.LFE42
 2518 0018 00000000 		.4byte	.LFB43
 2519 001c 18000000 		.4byte	.LFE43
 2520 0020 00000000 		.4byte	.LFB44
 2521 0024 12000000 		.4byte	.LFE44
 2522 0028 00000000 		.4byte	.LFB45
 2523 002c 0E000000 		.4byte	.LFE45
 2524 0030 00000000 		.4byte	.LFB46
 2525 0034 1E000000 		.4byte	.LFE46
 2526 0038 00000000 		.4byte	.LFB47
 2527 003c 1A000000 		.4byte	.LFE47
 2528 0040 00000000 		.4byte	.LFB48
 2529 0044 12000000 		.4byte	.LFE48
 2530 0048 00000000 		.4byte	.LFB49
 2531 004c 0E000000 		.4byte	.LFE49
 2532 0050 00000000 		.4byte	.LFB50
 2533 0054 1E000000 		.4byte	.LFE50
 2534 0058 00000000 		.4byte	.LFB51
 2535 005c 1A000000 		.4byte	.LFE51
 2536 0060 00000000 		.4byte	0
 2537 0064 00000000 		.4byte	0
 2538              		.section	.debug_line,"",%progbits
 2539              	.Ldebug_line0:
 2540 0000 11030000 		.section	.debug_str,"MS",%progbits,1
 2540      0200E701 
 2540      00000201 
 2540      FB0E0D00 
 2540      01010101 
 2541              	.LASF44:
 2542 0000 55415254 		.ascii	"UART_TX_COMPLETE\000"
 2542      5F54585F 
 2542      434F4D50 
 2542      4C455445 
 2542      00
 2543              	.LASF25:
 2544 0011 47545052 		.ascii	"GTPR\000"
 2544      00
 2545              	.LASF58:
 2546 0016 646D6172 		.ascii	"dmarx\000"
 2546      7800
 2547              	.LASF56:
 2548 001c 75736172 		.ascii	"usart\000"
 2548      7400
 2549              	.LASF89:
 2550 0022 75617274 		.ascii	"uart_lld_stop_send\000"
 2550      5F6C6C64 
 2550      5F73746F 
 2550      705F7365 
 2550      6E6400
ARM GAS  /tmp/ccCURI9o.s 			page 46


 2551              	.LASF78:
 2552 0035 75617274 		.ascii	"uartStartSendI\000"
 2552      53746172 
 2552      7453656E 
 2552      644900
 2553              	.LASF41:
 2554 0044 75617274 		.ascii	"uartstate_t\000"
 2554      73746174 
 2554      655F7400 
 2555              	.LASF39:
 2556 0050 55415254 		.ascii	"UART_STOP\000"
 2556      5F53544F 
 2556      5000
 2557              	.LASF66:
 2558 005a 7278656E 		.ascii	"rxend_cb\000"
 2558      645F6362 
 2558      00
 2559              	.LASF80:
 2560 0063 75617274 		.ascii	"uartStopSendI\000"
 2560      53746F70 
 2560      53656E64 
 2560      4900
 2561              	.LASF4:
 2562 0071 73697A65 		.ascii	"size_t\000"
 2562      5F7400
 2563              	.LASF68:
 2564 0078 72786572 		.ascii	"rxerr_cb\000"
 2564      725F6362 
 2564      00
 2565              	.LASF18:
 2566 0081 73697A65 		.ascii	"sizetype\000"
 2566      74797065 
 2566      00
 2567              	.LASF91:
 2568 008a 75617274 		.ascii	"uart_lld_stop_receive\000"
 2568      5F6C6C64 
 2568      5F73746F 
 2568      705F7265 
 2568      63656976 
 2569              	.LASF53:
 2570 00a0 74787374 		.ascii	"txstate\000"
 2570      61746500 
 2571              	.LASF11:
 2572 00a8 5F5F7569 		.ascii	"__uint32_t\000"
 2572      6E743332 
 2572      5F7400
 2573              	.LASF64:
 2574 00b3 7478656E 		.ascii	"txend1_cb\000"
 2574      64315F63 
 2574      6200
 2575              	.LASF8:
 2576 00bd 5F5F7569 		.ascii	"__uint16_t\000"
 2576      6E743136 
 2576      5F7400
 2577              	.LASF31:
 2578 00c8 55534152 		.ascii	"USART_TypeDef\000"
 2578      545F5479 
ARM GAS  /tmp/ccCURI9o.s 			page 47


 2578      70654465 
 2578      6600
 2579              	.LASF7:
 2580 00d6 73686F72 		.ascii	"short int\000"
 2580      7420696E 
 2580      7400
 2581              	.LASF55:
 2582 00e0 636F6E66 		.ascii	"config\000"
 2582      696700
 2583              	.LASF76:
 2584 00e7 75617274 		.ascii	"uartStartSend\000"
 2584      53746172 
 2584      7453656E 
 2584      6400
 2585              	.LASF37:
 2586 00f5 73746D33 		.ascii	"stm32_dma_stream_t\000"
 2586      325F646D 
 2586      615F7374 
 2586      7265616D 
 2586      5F7400
 2587              	.LASF43:
 2588 0108 55415254 		.ascii	"UART_TX_ACTIVE\000"
 2588      5F54585F 
 2588      41435449 
 2588      564500
 2589              	.LASF81:
 2590 0117 75617274 		.ascii	"uartStartReceive\000"
 2590      53746172 
 2590      74526563 
 2590      65697665 
 2590      00
 2591              	.LASF14:
 2592 0128 75696E74 		.ascii	"uint8_t\000"
 2592      385F7400 
 2593              	.LASF36:
 2594 0130 76656374 		.ascii	"vector\000"
 2594      6F7200
 2595              	.LASF47:
 2596 0137 55415254 		.ascii	"UART_RX_ACTIVE\000"
 2596      5F52585F 
 2596      41435449 
 2596      564500
 2597              	.LASF63:
 2598 0146 75617274 		.ascii	"uartecb_t\000"
 2598      6563625F 
 2598      7400
 2599              	.LASF3:
 2600 0150 7369676E 		.ascii	"signed char\000"
 2600      65642063 
 2600      68617200 
 2601              	.LASF72:
 2602 015c 75617274 		.ascii	"uartObjectInit\000"
 2602      4F626A65 
 2602      6374496E 
 2602      697400
 2603              	.LASF54:
 2604 016b 72787374 		.ascii	"rxstate\000"
ARM GAS  /tmp/ccCURI9o.s 			page 48


 2604      61746500 
 2605              	.LASF1:
 2606 0173 6C6F6E67 		.ascii	"long long int\000"
 2606      206C6F6E 
 2606      6720696E 
 2606      7400
 2607              	.LASF88:
 2608 0181 75617274 		.ascii	"uart_lld_start_send\000"
 2608      5F6C6C64 
 2608      5F737461 
 2608      72745F73 
 2608      656E6400 
 2609              	.LASF34:
 2610 0195 69736869 		.ascii	"ishift\000"
 2610      667400
 2611              	.LASF83:
 2612 019c 75617274 		.ascii	"uartStopReceive\000"
 2612      53746F70 
 2612      52656365 
 2612      69766500 
 2613              	.LASF10:
 2614 01ac 6C6F6E67 		.ascii	"long int\000"
 2614      20696E74 
 2614      00
 2615              	.LASF61:
 2616 01b5 75617274 		.ascii	"uartcb_t\000"
 2616      63625F74 
 2616      00
 2617              	.LASF49:
 2618 01be 75617274 		.ascii	"uartrxstate_t\000"
 2618      72787374 
 2618      6174655F 
 2618      7400
 2619              	.LASF5:
 2620 01cc 5F5F7569 		.ascii	"__uint8_t\000"
 2620      6E74385F 
 2620      7400
 2621              	.LASF65:
 2622 01d6 7478656E 		.ascii	"txend2_cb\000"
 2622      64325F63 
 2622      6200
 2623              	.LASF86:
 2624 01e0 75617274 		.ascii	"uart_lld_start\000"
 2624      5F6C6C64 
 2624      5F737461 
 2624      727400
 2625              	.LASF21:
 2626 01ef 43504152 		.ascii	"CPAR\000"
 2626      00
 2627              	.LASF2:
 2628 01f4 6C6F6E67 		.ascii	"long double\000"
 2628      20646F75 
 2628      626C6500 
 2629              	.LASF6:
 2630 0200 756E7369 		.ascii	"unsigned char\000"
 2630      676E6564 
 2630      20636861 
ARM GAS  /tmp/ccCURI9o.s 			page 49


 2630      7200
 2631              	.LASF84:
 2632 020e 75617274 		.ascii	"uartStopReceiveI\000"
 2632      53746F70 
 2632      52656365 
 2632      69766549 
 2632      00
 2633              	.LASF59:
 2634 021f 646D6174 		.ascii	"dmatx\000"
 2634      7800
 2635              	.LASF13:
 2636 0225 6C6F6E67 		.ascii	"long long unsigned int\000"
 2636      206C6F6E 
 2636      6720756E 
 2636      7369676E 
 2636      65642069 
 2637              	.LASF57:
 2638 023c 646D616D 		.ascii	"dmamode\000"
 2638      6F646500 
 2639              	.LASF16:
 2640 0244 75696E74 		.ascii	"uint32_t\000"
 2640      33325F74 
 2640      00
 2641              	.LASF35:
 2642 024d 73656C66 		.ascii	"selfindex\000"
 2642      696E6465 
 2642      7800
 2643              	.LASF0:
 2644 0257 756E7369 		.ascii	"unsigned int\000"
 2644      676E6564 
 2644      20696E74 
 2644      00
 2645              	.LASF15:
 2646 0264 75696E74 		.ascii	"uint16_t\000"
 2646      31365F74 
 2646      00
 2647              	.LASF62:
 2648 026d 75617274 		.ascii	"uartccb_t\000"
 2648      6363625F 
 2648      7400
 2649              	.LASF69:
 2650 0277 73706565 		.ascii	"speed\000"
 2650      6400
 2651              	.LASF50:
 2652 027d 75617274 		.ascii	"uartflags_t\000"
 2652      666C6167 
 2652      735F7400 
 2653              	.LASF71:
 2654 0289 75617274 		.ascii	"uartInit\000"
 2654      496E6974 
 2654      00
 2655              	.LASF45:
 2656 0292 75617274 		.ascii	"uarttxstate_t\000"
 2656      74787374 
 2656      6174655F 
 2656      7400
 2657              	.LASF9:
ARM GAS  /tmp/ccCURI9o.s 			page 50


 2658 02a0 73686F72 		.ascii	"short unsigned int\000"
 2658      7420756E 
 2658      7369676E 
 2658      65642069 
 2658      6E7400
 2659              	.LASF27:
 2660 02b3 52544F52 		.ascii	"RTOR\000"
 2660      00
 2661              	.LASF23:
 2662 02b8 444D415F 		.ascii	"DMA_Channel_TypeDef\000"
 2662      4368616E 
 2662      6E656C5F 
 2662      54797065 
 2662      44656600 
 2663              	.LASF77:
 2664 02cc 74786275 		.ascii	"txbuf\000"
 2664      6600
 2665              	.LASF20:
 2666 02d2 434E4454 		.ascii	"CNDTR\000"
 2666      5200
 2667              	.LASF19:
 2668 02d8 63686172 		.ascii	"char\000"
 2668      00
 2669              	.LASF93:
 2670 02dd 2E2E2F2E 		.ascii	"../../os/hal/src/uart.c\000"
 2670      2E2F6F73 
 2670      2F68616C 
 2670      2F737263 
 2670      2F756172 
 2671              	.LASF73:
 2672 02f5 75617274 		.ascii	"uartStart\000"
 2672      53746172 
 2672      7400
 2673              	.LASF85:
 2674 02ff 75617274 		.ascii	"uart_lld_init\000"
 2674      5F6C6C64 
 2674      5F696E69 
 2674      7400
 2675              	.LASF17:
 2676 030d 5F426F6F 		.ascii	"_Bool\000"
 2676      6C00
 2677              	.LASF32:
 2678 0313 6368616E 		.ascii	"channel\000"
 2678      6E656C00 
 2679              	.LASF48:
 2680 031b 55415254 		.ascii	"UART_RX_COMPLETE\000"
 2680      5F52585F 
 2680      434F4D50 
 2680      4C455445 
 2680      00
 2681              	.LASF24:
 2682 032c 52455345 		.ascii	"RESERVED1\000"
 2682      52564544 
 2682      3100
 2683              	.LASF26:
 2684 0336 52455345 		.ascii	"RESERVED2\000"
 2684      52564544 
ARM GAS  /tmp/ccCURI9o.s 			page 51


 2684      3200
 2685              	.LASF28:
 2686 0340 52455345 		.ascii	"RESERVED3\000"
 2686      52564544 
 2686      3300
 2687              	.LASF29:
 2688 034a 52455345 		.ascii	"RESERVED4\000"
 2688      52564544 
 2688      3400
 2689              	.LASF30:
 2690 0354 52455345 		.ascii	"RESERVED5\000"
 2690      52564544 
 2690      3500
 2691              	.LASF12:
 2692 035e 6C6F6E67 		.ascii	"long unsigned int\000"
 2692      20756E73 
 2692      69676E65 
 2692      6420696E 
 2692      7400
 2693              	.LASF52:
 2694 0370 73746174 		.ascii	"state\000"
 2694      6500
 2695              	.LASF90:
 2696 0376 75617274 		.ascii	"uart_lld_start_receive\000"
 2696      5F6C6C64 
 2696      5F737461 
 2696      72745F72 
 2696      65636569 
 2697              	.LASF22:
 2698 038d 434D4152 		.ascii	"CMAR\000"
 2698      00
 2699              	.LASF40:
 2700 0392 55415254 		.ascii	"UART_READY\000"
 2700      5F524541 
 2700      445900
 2701              	.LASF46:
 2702 039d 55415254 		.ascii	"UART_RX_IDLE\000"
 2702      5F52585F 
 2702      49444C45 
 2702      00
 2703              	.LASF67:
 2704 03aa 72786368 		.ascii	"rxchar_cb\000"
 2704      61725F63 
 2704      6200
 2705              	.LASF70:
 2706 03b4 55415254 		.ascii	"UARTConfig\000"
 2706      436F6E66 
 2706      696700
 2707              	.LASF94:
 2708 03bf 2F686F6D 		.ascii	"/home/lithium/Documentos/ChibiOS_2.6.8/demos/BikeTr"
 2708      652F6C69 
 2708      74686975 
 2708      6D2F446F 
 2708      63756D65 
 2709 03f2 61636B65 		.ascii	"acker\000"
 2709      7200
 2710              	.LASF38:
ARM GAS  /tmp/ccCURI9o.s 			page 52


 2711 03f8 55415254 		.ascii	"UART_UNINIT\000"
 2711      5F554E49 
 2711      4E495400 
 2712              	.LASF75:
 2713 0404 75617274 		.ascii	"uartStop\000"
 2713      53746F70 
 2713      00
 2714              	.LASF60:
 2715 040d 72786275 		.ascii	"rxbuf\000"
 2715      6600
 2716              	.LASF82:
 2717 0413 75617274 		.ascii	"uartStartReceiveI\000"
 2717      53746172 
 2717      74526563 
 2717      65697665 
 2717      4900
 2718              	.LASF42:
 2719 0425 55415254 		.ascii	"UART_TX_IDLE\000"
 2719      5F54585F 
 2719      49444C45 
 2719      00
 2720              	.LASF79:
 2721 0432 75617274 		.ascii	"uartStopSend\000"
 2721      53746F70 
 2721      53656E64 
 2721      00
 2722              	.LASF74:
 2723 043f 75617274 		.ascii	"uartp\000"
 2723      7000
 2724              	.LASF92:
 2725 0445 474E5520 		.ascii	"GNU C11 5.3.1 20160307 (release) [ARM/embedded-5-br"
 2725      43313120 
 2725      352E332E 
 2725      31203230 
 2725      31363033 
 2726 0478 616E6368 		.ascii	"anch revision 234589] -mcpu=cortex-m0 -mno-thumb-in"
 2726      20726576 
 2726      6973696F 
 2726      6E203233 
 2726      34353839 
 2727 04ab 74657277 		.ascii	"terwork -mthumb -ggdb -O2 -fomit-frame-pointer -fal"
 2727      6F726B20 
 2727      2D6D7468 
 2727      756D6220 
 2727      2D676764 
 2728 04de 69676E2D 		.ascii	"ign-functions=16 -ffunction-sections -fdata-section"
 2728      66756E63 
 2728      74696F6E 
 2728      733D3136 
 2728      202D6666 
 2729 0511 73202D66 		.ascii	"s -fno-common\000"
 2729      6E6F2D63 
 2729      6F6D6D6F 
 2729      6E00
 2730              	.LASF51:
 2731 051f 55415254 		.ascii	"UARTDriver\000"
 2731      44726976 
ARM GAS  /tmp/ccCURI9o.s 			page 53


 2731      657200
 2732              	.LASF33:
 2733 052a 69666372 		.ascii	"ifcr\000"
 2733      00
 2734              	.LASF87:
 2735 052f 75617274 		.ascii	"uart_lld_stop\000"
 2735      5F6C6C64 
 2735      5F73746F 
 2735      7000
 2736              		.ident	"GCC: (GNU Tools for ARM Embedded Processors) 5.3.1 20160307 (release) [ARM/embedded-5-bran
ARM GAS  /tmp/ccCURI9o.s 			page 54


DEFINED SYMBOLS
                            *ABS*:00000000 uart.c
     /tmp/ccCURI9o.s:20     .text.uartInit:00000000 $t
     /tmp/ccCURI9o.s:26     .text.uartInit:00000000 uartInit
     /tmp/ccCURI9o.s:47     .text.uartObjectInit:00000000 $t
     /tmp/ccCURI9o.s:53     .text.uartObjectInit:00000000 uartObjectInit
     /tmp/ccCURI9o.s:80     .text.uartStart:00000000 $t
     /tmp/ccCURI9o.s:86     .text.uartStart:00000000 uartStart
     /tmp/ccCURI9o.s:129    .text.uartStop:00000000 $t
     /tmp/ccCURI9o.s:135    .text.uartStop:00000000 uartStop
     /tmp/ccCURI9o.s:181    .text.uartStartSend:00000000 $t
     /tmp/ccCURI9o.s:187    .text.uartStartSend:00000000 uartStartSend
     /tmp/ccCURI9o.s:228    .text.uartStartSendI:00000000 $t
     /tmp/ccCURI9o.s:234    .text.uartStartSendI:00000000 uartStartSendI
     /tmp/ccCURI9o.s:263    .text.uartStopSend:00000000 $t
     /tmp/ccCURI9o.s:269    .text.uartStopSend:00000000 uartStopSend
     /tmp/ccCURI9o.s:324    .text.uartStopSendI:00000000 $t
     /tmp/ccCURI9o.s:330    .text.uartStopSendI:00000000 uartStopSendI
     /tmp/ccCURI9o.s:375    .text.uartStartReceive:00000000 $t
     /tmp/ccCURI9o.s:381    .text.uartStartReceive:00000000 uartStartReceive
     /tmp/ccCURI9o.s:422    .text.uartStartReceiveI:00000000 $t
     /tmp/ccCURI9o.s:428    .text.uartStartReceiveI:00000000 uartStartReceiveI
     /tmp/ccCURI9o.s:457    .text.uartStopReceive:00000000 $t
     /tmp/ccCURI9o.s:463    .text.uartStopReceive:00000000 uartStopReceive
     /tmp/ccCURI9o.s:518    .text.uartStopReceiveI:00000000 $t
     /tmp/ccCURI9o.s:524    .text.uartStopReceiveI:00000000 uartStopReceiveI
                     .debug_frame:00000010 $d

UNDEFINED SYMBOLS
uart_lld_init
uart_lld_start
uart_lld_stop
uart_lld_start_send
uart_lld_stop_send
uart_lld_start_receive
uart_lld_stop_receive
