ARM GAS  /tmp/ccZaEln7.s 			page 1


   1              		.syntax unified
   2              		.cpu cortex-m0
   3              		.fpu softvfp
   4              		.eabi_attribute 20, 1
   5              		.eabi_attribute 21, 1
   6              		.eabi_attribute 23, 3
   7              		.eabi_attribute 24, 1
   8              		.eabi_attribute 25, 1
   9              		.eabi_attribute 26, 1
  10              		.eabi_attribute 30, 2
  11              		.eabi_attribute 34, 0
  12              		.eabi_attribute 18, 4
  13              		.thumb
  14              		.syntax unified
  15              		.file	"uart_lld.c"
  16              		.text
  17              	.Ltext0:
  18              		.cfi_sections	.debug_frame
  19              		.section	.text.usart_stop,"ax",%progbits
  20              		.align	2
  21              		.p2align 4,,15
  22              		.code	16
  23              		.thumb_func
  24              		.type	usart_stop, %function
  25              	usart_stop:
  26              	.LFB42:
  27              		.file 1 "../../os/hal/platforms/STM32/USARTv2/uart_lld.c"
  28              		.loc 1 134 0
  29              		.cfi_startproc
  30              		@ args = 0, pretend = 0, frame = 0
  31              		@ frame_needed = 0, uses_anonymous_args = 0
  32              	.LVL0:
  33              		.loc 1 137 0
  34 0000 0F23     		movs	r3, #15
  35 0002 0269     		ldr	r2, [r0, #16]
  36              		.loc 1 134 0
  37 0004 10B5     		push	{r4, lr}
  38              		.cfi_def_cfa_offset 8
  39              		.cfi_offset 4, -8
  40              		.cfi_offset 14, -4
  41              		.loc 1 137 0
  42 0006 1468     		ldr	r4, [r2]
  43              		.loc 1 144 0
  44              		@ sp needed
  45              		.loc 1 137 0
  46 0008 2168     		ldr	r1, [r4]
  47 000a 9943     		bics	r1, r3
  48 000c 2160     		str	r1, [r4]
  49 000e 1C00     		movs	r4, r3
  50 0010 5168     		ldr	r1, [r2, #4]
  51 0012 127A     		ldrb	r2, [r2, #8]
  52 0014 9440     		lsls	r4, r4, r2
  53              		.loc 1 138 0
  54 0016 4269     		ldr	r2, [r0, #20]
  55              		.loc 1 137 0
  56 0018 0C60     		str	r4, [r1]
  57              		.loc 1 138 0
ARM GAS  /tmp/ccZaEln7.s 			page 2


  58 001a 1468     		ldr	r4, [r2]
  59 001c 2168     		ldr	r1, [r4]
  60 001e 9943     		bics	r1, r3
  61 0020 2160     		str	r1, [r4]
  62 0022 5168     		ldr	r1, [r2, #4]
  63 0024 127A     		ldrb	r2, [r2, #8]
  64 0026 9340     		lsls	r3, r3, r2
  65              		.loc 1 141 0
  66 0028 0022     		movs	r2, #0
  67              		.loc 1 138 0
  68 002a 0B60     		str	r3, [r1]
  69              		.loc 1 141 0
  70 002c 8368     		ldr	r3, [r0, #8]
  71 002e 1A60     		str	r2, [r3]
  72              		.loc 1 142 0
  73 0030 5A60     		str	r2, [r3, #4]
  74              		.loc 1 143 0
  75 0032 9A60     		str	r2, [r3, #8]
  76              		.loc 1 144 0
  77 0034 10BD     		pop	{r4, pc}
  78              		.cfi_endproc
  79              	.LFE42:
  80              		.size	usart_stop, .-usart_stop
  81 0036 C046     		.section	.text.uart_lld_serve_tx_end_irq,"ax",%progbits
  82              		.align	2
  83              		.p2align 4,,15
  84              		.code	16
  85              		.thumb_func
  86              		.type	uart_lld_serve_tx_end_irq, %function
  87              	uart_lld_serve_tx_end_irq:
  88              	.LFB45:
  89              		.loc 1 236 0
  90              		.cfi_startproc
  91              		@ args = 0, pretend = 0, frame = 0
  92              		@ frame_needed = 0, uses_anonymous_args = 0
  93              	.LVL1:
  94 0000 10B5     		push	{r4, lr}
  95              		.cfi_def_cfa_offset 8
  96              		.cfi_offset 4, -8
  97              		.cfi_offset 14, -4
  98              		.loc 1 236 0
  99 0002 0400     		movs	r4, r0
 100              		.loc 1 240 0
 101 0004 0B07     		lsls	r3, r1, #28
 102 0006 20D4     		bmi	.L18
 103              	.LVL2:
 104              	.L3:
 105              		.loc 1 247 0
 106 0008 0F23     		movs	r3, #15
 107 000a 6269     		ldr	r2, [r4, #20]
 108 000c 1068     		ldr	r0, [r2]
 109 000e 0168     		ldr	r1, [r0]
 110 0010 9943     		bics	r1, r3
 111 0012 0160     		str	r1, [r0]
 112 0014 5168     		ldr	r1, [r2, #4]
 113 0016 127A     		ldrb	r2, [r2, #8]
 114 0018 9340     		lsls	r3, r3, r2
ARM GAS  /tmp/ccZaEln7.s 			page 3


 115              		.loc 1 252 0
 116 001a 6268     		ldr	r2, [r4, #4]
 117              		.loc 1 247 0
 118 001c 0B60     		str	r3, [r1]
 119              		.loc 1 252 0
 120 001e 5368     		ldr	r3, [r2, #4]
 121 0020 002B     		cmp	r3, #0
 122 0022 04D0     		beq	.L4
 123              		.loc 1 253 0
 124 0024 4023     		movs	r3, #64
 125 0026 A168     		ldr	r1, [r4, #8]
 126 0028 0868     		ldr	r0, [r1]
 127 002a 0343     		orrs	r3, r0
 128 002c 0B60     		str	r3, [r1]
 129              	.L4:
 130              		.loc 1 256 0
 131 002e 0223     		movs	r3, #2
 132 0030 6370     		strb	r3, [r4, #1]
 133              		.loc 1 257 0
 134 0032 1368     		ldr	r3, [r2]
 135 0034 002B     		cmp	r3, #0
 136 0036 05D0     		beq	.L7
 137              		.loc 1 258 0
 138 0038 2000     		movs	r0, r4
 139 003a 9847     		blx	r3
 140              	.LVL3:
 141              		.loc 1 262 0
 142 003c 6378     		ldrb	r3, [r4, #1]
 143 003e 022B     		cmp	r3, #2
 144 0040 00D0     		beq	.L7
 145              	.L2:
 146              		.loc 1 264 0
 147              		@ sp needed
 148              	.LVL4:
 149 0042 10BD     		pop	{r4, pc}
 150              	.LVL5:
 151              	.L7:
 152              		.loc 1 263 0
 153 0044 0023     		movs	r3, #0
 154 0046 6370     		strb	r3, [r4, #1]
 155 0048 FBE7     		b	.L2
 156              	.LVL6:
 157              	.L18:
 158              		.loc 1 241 0
 159 004a FFF7FEFF 		bl	port_halt
 160              	.LVL7:
 161 004e DBE7     		b	.L3
 162              		.cfi_endproc
 163              	.LFE45:
 164              		.size	uart_lld_serve_tx_end_irq, .-uart_lld_serve_tx_end_irq
 165              		.section	.text.uart_lld_serve_rx_end_irq,"ax",%progbits
 166              		.align	2
 167              		.p2align 4,,15
 168              		.code	16
 169              		.thumb_func
 170              		.type	uart_lld_serve_rx_end_irq, %function
 171              	uart_lld_serve_rx_end_irq:
ARM GAS  /tmp/ccZaEln7.s 			page 4


 172              	.LFB44:
 173              		.loc 1 196 0
 174              		.cfi_startproc
 175              		@ args = 0, pretend = 0, frame = 0
 176              		@ frame_needed = 0, uses_anonymous_args = 0
 177              	.LVL8:
 178 0000 10B5     		push	{r4, lr}
 179              		.cfi_def_cfa_offset 8
 180              		.cfi_offset 4, -8
 181              		.cfi_offset 14, -4
 182              		.loc 1 196 0
 183 0002 0400     		movs	r4, r0
 184              		.loc 1 200 0
 185 0004 0B07     		lsls	r3, r1, #28
 186 0006 35D4     		bmi	.L32
 187              	.LVL9:
 188              	.L20:
 189              		.loc 1 207 0
 190 0008 A378     		ldrb	r3, [r4, #2]
 191 000a 002B     		cmp	r3, #0
 192 000c 08D1     		bne	.L21
 193              		.loc 1 210 0
 194 000e 6368     		ldr	r3, [r4, #4]
 195 0010 DB68     		ldr	r3, [r3, #12]
 196 0012 002B     		cmp	r3, #0
 197 0014 03D0     		beq	.L19
 198              		.loc 1 211 0
 199 0016 218B     		ldrh	r1, [r4, #24]
 200 0018 2000     		movs	r0, r4
 201 001a 89B2     		uxth	r1, r1
 202 001c 9847     		blx	r3
 203              	.LVL10:
 204              	.L19:
 205              		.loc 1 228 0
 206              		@ sp needed
 207              	.LVL11:
 208 001e 10BD     		pop	{r4, pc}
 209              	.LVL12:
 210              	.L21:
 211              	.LBB14:
 212              	.LBB15:
 213              		.loc 1 216 0
 214 0020 0F22     		movs	r2, #15
 215 0022 2169     		ldr	r1, [r4, #16]
 216 0024 0B68     		ldr	r3, [r1]
 217 0026 1868     		ldr	r0, [r3]
 218 0028 9043     		bics	r0, r2
 219 002a 1860     		str	r0, [r3]
 220 002c 4868     		ldr	r0, [r1, #4]
 221 002e 097A     		ldrb	r1, [r1, #8]
 222 0030 8A40     		lsls	r2, r2, r1
 223 0032 0260     		str	r2, [r0]
 224              		.loc 1 217 0
 225 0034 0222     		movs	r2, #2
 226              		.loc 1 218 0
 227 0036 6168     		ldr	r1, [r4, #4]
 228              		.loc 1 217 0
ARM GAS  /tmp/ccZaEln7.s 			page 5


 229 0038 A270     		strb	r2, [r4, #2]
 230              		.loc 1 218 0
 231 003a 8A68     		ldr	r2, [r1, #8]
 232 003c 002A     		cmp	r2, #0
 233 003e 07D0     		beq	.L24
 234              		.loc 1 219 0
 235 0040 2000     		movs	r0, r4
 236 0042 9047     		blx	r2
 237              	.LVL13:
 238              		.loc 1 223 0
 239 0044 A378     		ldrb	r3, [r4, #2]
 240 0046 022B     		cmp	r3, #2
 241 0048 E9D1     		bne	.L19
 242 004a 2369     		ldr	r3, [r4, #16]
 243 004c 6168     		ldr	r1, [r4, #4]
 244 004e 1B68     		ldr	r3, [r3]
 245              	.L24:
 246              		.loc 1 224 0
 247 0050 0022     		movs	r2, #0
 248 0052 A270     		strb	r2, [r4, #2]
 249              	.LVL14:
 250              	.LBB16:
 251              	.LBB17:
 252              		.loc 1 118 0
 253 0054 CA68     		ldr	r2, [r1, #12]
 254              		.loc 1 121 0
 255 0056 2220     		movs	r0, #34
 256              		.loc 1 118 0
 257 0058 002A     		cmp	r2, #0
 258 005a 0ED0     		beq	.L33
 259              	.L26:
 260              	.LVL15:
 261              		.loc 1 122 0
 262 005c 2200     		movs	r2, r4
 263 005e 1832     		adds	r2, r2, #24
 264 0060 DA60     		str	r2, [r3, #12]
 265              		.loc 1 123 0
 266 0062 0122     		movs	r2, #1
 267              		.loc 1 124 0
 268 0064 E168     		ldr	r1, [r4, #12]
 269              		.loc 1 123 0
 270 0066 5A60     		str	r2, [r3, #4]
 271              		.loc 1 124 0
 272 0068 0143     		orrs	r1, r0
 273 006a 1960     		str	r1, [r3]
 274              		.loc 1 125 0
 275 006c 1968     		ldr	r1, [r3]
 276 006e 0A43     		orrs	r2, r1
 277 0070 1A60     		str	r2, [r3]
 278              	.LBE17:
 279              	.LBE16:
 280              	.LBE15:
 281              	.LBE14:
 282              		.loc 1 228 0
 283 0072 D4E7     		b	.L19
 284              	.LVL16:
 285              	.L32:
ARM GAS  /tmp/ccZaEln7.s 			page 6


 286              		.loc 1 201 0
 287 0074 FFF7FEFF 		bl	port_halt
 288              	.LVL17:
 289 0078 C6E7     		b	.L20
 290              	.LVL18:
 291              	.L33:
 292              	.LBB21:
 293              	.LBB20:
 294              	.LBB19:
 295              	.LBB18:
 296              		.loc 1 119 0
 297 007a 0238     		subs	r0, r0, #2
 298 007c EEE7     		b	.L26
 299              	.LBE18:
 300              	.LBE19:
 301              	.LBE20:
 302              	.LBE21:
 303              		.cfi_endproc
 304              	.LFE44:
 305              		.size	uart_lld_serve_rx_end_irq, .-uart_lld_serve_rx_end_irq
 306 007e C046     		.section	.text.VectorAC,"ax",%progbits
 307              		.align	2
 308              		.p2align 4,,15
 309              		.global	VectorAC
 310              		.code	16
 311              		.thumb_func
 312              		.type	VectorAC, %function
 313              	VectorAC:
 314              	.LFB47:
 315              		.loc 1 309 0
 316              		.cfi_startproc
 317              		@ args = 0, pretend = 0, frame = 0
 318              		@ frame_needed = 0, uses_anonymous_args = 0
 319 0000 F0B5     		push	{r4, r5, r6, r7, lr}
 320              		.cfi_def_cfa_offset 20
 321              		.cfi_offset 4, -20
 322              		.cfi_offset 5, -16
 323              		.cfi_offset 6, -12
 324              		.cfi_offset 7, -8
 325              		.cfi_offset 14, -4
 326 0002 4746     		mov	r7, r8
 327 0004 80B4     		push	{r7}
 328              		.cfi_def_cfa_offset 24
 329              		.cfi_offset 8, -24
 330              		.loc 1 311 0
 331              		.syntax divided
 332              	@ 311 "../../os/hal/platforms/STM32/USARTv2/uart_lld.c" 1
 333 0006 F046     		mov     r8, lr
 334              	@ 0 "" 2
 335              	.LVL19:
 336              		.thumb
 337              		.syntax unified
 338              	.LBB26:
 339              	.LBB27:
 340              		.loc 1 280 0
 341 0008 1023     		movs	r3, #16
 342              		.loc 1 273 0
ARM GAS  /tmp/ccZaEln7.s 			page 7


 343 000a 1A4E     		ldr	r6, .L70
 344              		.loc 1 280 0
 345 000c FF33     		adds	r3, r3, #255
 346              		.loc 1 273 0
 347 000e B568     		ldr	r5, [r6, #8]
 348              	.LVL20:
 349              		.loc 1 274 0
 350 0010 2F68     		ldr	r7, [r5]
 351              	.LVL21:
 352              		.loc 1 277 0
 353 0012 EC69     		ldr	r4, [r5, #28]
 354              	.LVL22:
 355              		.loc 1 278 0
 356 0014 2C62     		str	r4, [r5, #32]
 357              		.loc 1 280 0
 358 0016 1C42     		tst	r4, r3
 359 0018 16D0     		beq	.L35
 360              		.loc 1 282 0
 361 001a 7368     		ldr	r3, [r6, #4]
 362 001c 1B69     		ldr	r3, [r3, #16]
 363 001e 002B     		cmp	r3, #0
 364 0020 12D0     		beq	.L35
 365              	.LVL23:
 366              	.LBB28:
 367              	.LBB29:
 368              		.loc 1 95 0
 369 0022 2107     		lsls	r1, r4, #28
 370              		.loc 1 96 0
 371 0024 C90F     		lsrs	r1, r1, #31
 372 0026 0901     		lsls	r1, r1, #4
 373              	.LVL24:
 374              		.loc 1 97 0
 375 0028 E207     		lsls	r2, r4, #31
 376 002a 01D5     		bpl	.L37
 377              		.loc 1 98 0
 378 002c 0422     		movs	r2, #4
 379 002e 1143     		orrs	r1, r2
 380              	.LVL25:
 381              	.L37:
 382              		.loc 1 99 0
 383 0030 A207     		lsls	r2, r4, #30
 384 0032 01D5     		bpl	.L38
 385              		.loc 1 100 0
 386 0034 0822     		movs	r2, #8
 387 0036 1143     		orrs	r1, r2
 388              	.LVL26:
 389              	.L38:
 390              		.loc 1 101 0
 391 0038 6207     		lsls	r2, r4, #29
 392 003a 18D4     		bmi	.L69
 393              	.L39:
 394              		.loc 1 103 0
 395 003c E205     		lsls	r2, r4, #23
 396 003e 01D5     		bpl	.L40
 397              		.loc 1 104 0
 398 0040 4022     		movs	r2, #64
 399 0042 1143     		orrs	r1, r2
ARM GAS  /tmp/ccZaEln7.s 			page 8


 400              	.LVL27:
 401              	.L40:
 402              	.LBE29:
 403              	.LBE28:
 404              		.loc 1 283 0
 405 0044 3000     		movs	r0, r6
 406 0046 9847     		blx	r3
 407              	.LVL28:
 408              	.L35:
 409              		.loc 1 286 0
 410 0048 4023     		movs	r3, #64
 411 004a 2342     		tst	r3, r4
 412 004c 09D0     		beq	.L42
 413 004e 3B42     		tst	r3, r7
 414 0050 07D0     		beq	.L42
 415              		.loc 1 288 0
 416 0052 9F43     		bics	r7, r3
 417              	.LVL29:
 418              		.loc 1 291 0
 419 0054 7368     		ldr	r3, [r6, #4]
 420              		.loc 1 288 0
 421 0056 2F60     		str	r7, [r5]
 422              		.loc 1 291 0
 423 0058 5B68     		ldr	r3, [r3, #4]
 424 005a 002B     		cmp	r3, #0
 425 005c 01D0     		beq	.L42
 426              		.loc 1 292 0
 427 005e 3000     		movs	r0, r6
 428 0060 9847     		blx	r3
 429              	.LVL30:
 430              	.L42:
 431              	.LBE27:
 432              	.LBE26:
 433              		.loc 1 315 0
 434 0062 4046     		mov	r0, r8
 435 0064 FFF7FEFF 		bl	_port_irq_epilogue
 436              	.LVL31:
 437              		.loc 1 316 0
 438              		@ sp needed
 439              	.LVL32:
 440 0068 04BC     		pop	{r2}
 441 006a 9046     		mov	r8, r2
 442 006c F0BD     		pop	{r4, r5, r6, r7, pc}
 443              	.LVL33:
 444              	.L69:
 445              	.LBB33:
 446              	.LBB32:
 447              	.LBB31:
 448              	.LBB30:
 449              		.loc 1 102 0
 450 006e 2022     		movs	r2, #32
 451 0070 1143     		orrs	r1, r2
 452              	.LVL34:
 453 0072 E3E7     		b	.L39
 454              	.L71:
 455              		.align	2
 456              	.L70:
ARM GAS  /tmp/ccZaEln7.s 			page 9


 457 0074 00000000 		.word	.LANCHOR0
 458              	.LBE30:
 459              	.LBE31:
 460              	.LBE32:
 461              	.LBE33:
 462              		.cfi_endproc
 463              	.LFE47:
 464              		.size	VectorAC, .-VectorAC
 465              		.section	.text.uart_lld_init,"ax",%progbits
 466              		.align	2
 467              		.p2align 4,,15
 468              		.global	uart_lld_init
 469              		.code	16
 470              		.thumb_func
 471              		.type	uart_lld_init, %function
 472              	uart_lld_init:
 473              	.LFB48:
 474              		.loc 1 366 0
 475              		.cfi_startproc
 476              		@ args = 0, pretend = 0, frame = 0
 477              		@ frame_needed = 0, uses_anonymous_args = 0
 478 0000 10B5     		push	{r4, lr}
 479              		.cfi_def_cfa_offset 8
 480              		.cfi_offset 4, -8
 481              		.cfi_offset 14, -4
 482              		.loc 1 369 0
 483 0002 064C     		ldr	r4, .L73
 484              		.loc 1 391 0
 485              		@ sp needed
 486              		.loc 1 369 0
 487 0004 2000     		movs	r0, r4
 488 0006 FFF7FEFF 		bl	uartObjectInit
 489              	.LVL35:
 490              		.loc 1 370 0
 491 000a 054B     		ldr	r3, .L73+4
 492 000c A360     		str	r3, [r4, #8]
 493              		.loc 1 371 0
 494 000e 0823     		movs	r3, #8
 495 0010 E360     		str	r3, [r4, #12]
 496              		.loc 1 372 0
 497 0012 044B     		ldr	r3, .L73+8
 498 0014 2361     		str	r3, [r4, #16]
 499              		.loc 1 373 0
 500 0016 0C3B     		subs	r3, r3, #12
 501 0018 6361     		str	r3, [r4, #20]
 502              		.loc 1 391 0
 503 001a 10BD     		pop	{r4, pc}
 504              	.L74:
 505              		.align	2
 506              	.L73:
 507 001c 00000000 		.word	.LANCHOR0
 508 0020 00380140 		.word	1073821696
 509 0024 18000000 		.word	_stm32_dma_streams+24
 510              		.cfi_endproc
 511              	.LFE48:
 512              		.size	uart_lld_init, .-uart_lld_init
 513              		.global	__aeabi_uidiv
ARM GAS  /tmp/ccZaEln7.s 			page 10


 514              		.section	.text.uart_lld_start,"ax",%progbits
 515              		.align	2
 516              		.p2align 4,,15
 517              		.global	uart_lld_start
 518              		.code	16
 519              		.thumb_func
 520              		.type	uart_lld_start, %function
 521              	uart_lld_start:
 522              	.LFB49:
 523              		.loc 1 400 0
 524              		.cfi_startproc
 525              		@ args = 0, pretend = 0, frame = 0
 526              		@ frame_needed = 0, uses_anonymous_args = 0
 527              	.LVL36:
 528              		.loc 1 402 0
 529 0000 0378     		ldrb	r3, [r0]
 530              		.loc 1 400 0
 531 0002 70B5     		push	{r4, r5, r6, lr}
 532              		.cfi_def_cfa_offset 16
 533              		.cfi_offset 4, -16
 534              		.cfi_offset 5, -12
 535              		.cfi_offset 6, -8
 536              		.cfi_offset 14, -4
 537              		.loc 1 400 0
 538 0004 0400     		movs	r4, r0
 539              		.loc 1 402 0
 540 0006 012B     		cmp	r3, #1
 541 0008 2FD0     		beq	.L76
 542 000a 8568     		ldr	r5, [r0, #8]
 543              	.LVL37:
 544              	.L77:
 545              		.loc 1 475 0
 546 000c 0023     		movs	r3, #0
 547              	.LBB39:
 548              	.LBB40:
 549              		.loc 1 157 0
 550 000e 2000     		movs	r0, r4
 551              	.LBE40:
 552              	.LBE39:
 553              		.loc 1 475 0
 554 0010 A370     		strb	r3, [r4, #2]
 555              		.loc 1 476 0
 556 0012 6370     		strb	r3, [r4, #1]
 557              	.LVL38:
 558              	.LBB52:
 559              	.LBB49:
 560              		.loc 1 157 0
 561 0014 FFF7FEFF 		bl	usart_stop
 562              	.LVL39:
 563              		.loc 1 162 0
 564 0018 6668     		ldr	r6, [r4, #4]
 565 001a 3048     		ldr	r0, .L87
 566 001c 7169     		ldr	r1, [r6, #20]
 567              		.loc 1 164 0
 568 001e FFF7FEFF 		bl	__aeabi_uidiv
 569              	.LVL40:
 570              		.loc 1 173 0
ARM GAS  /tmp/ccZaEln7.s 			page 11


 571 0022 0123     		movs	r3, #1
 572              		.loc 1 177 0
 573 0024 F269     		ldr	r2, [r6, #28]
 574              		.loc 1 164 0
 575 0026 80B2     		uxth	r0, r0
 576              		.loc 1 173 0
 577 0028 5B42     		rsbs	r3, r3, #0
 578              		.loc 1 164 0
 579 002a A881     		strh	r0, [r5, #12]
 580              		.loc 1 173 0
 581 002c 2B62     		str	r3, [r5, #32]
 582              		.loc 1 177 0
 583 002e 4133     		adds	r3, r3, #65
 584 0030 1343     		orrs	r3, r2
 585 0032 6B60     		str	r3, [r5, #4]
 586              		.loc 1 178 0
 587 0034 C123     		movs	r3, #193
 588 0036 326A     		ldr	r2, [r6, #32]
 589              	.LBB41:
 590              	.LBB42:
 591              		.loc 1 121 0
 592 0038 2220     		movs	r0, #34
 593              	.LBE42:
 594              	.LBE41:
 595              		.loc 1 178 0
 596 003a 1343     		orrs	r3, r2
 597 003c AB60     		str	r3, [r5, #8]
 598              	.LVL41:
 599              		.loc 1 184 0
 600 003e 0E23     		movs	r3, #14
 601 0040 B269     		ldr	r2, [r6, #24]
 602 0042 FF33     		adds	r3, r3, #255
 603 0044 1343     		orrs	r3, r2
 604 0046 2B60     		str	r3, [r5]
 605              	.LVL42:
 606              	.LBB46:
 607              	.LBB43:
 608              		.loc 1 118 0
 609 0048 F368     		ldr	r3, [r6, #12]
 610 004a 002B     		cmp	r3, #0
 611 004c 2CD0     		beq	.L84
 612              	.L82:
 613              	.LVL43:
 614              		.loc 1 122 0
 615 004e 2200     		movs	r2, r4
 616 0050 2369     		ldr	r3, [r4, #16]
 617 0052 1832     		adds	r2, r2, #24
 618 0054 1B68     		ldr	r3, [r3]
 619              		.loc 1 124 0
 620 0056 E168     		ldr	r1, [r4, #12]
 621              		.loc 1 122 0
 622 0058 DA60     		str	r2, [r3, #12]
 623              		.loc 1 123 0
 624 005a 0122     		movs	r2, #1
 625              		.loc 1 124 0
 626 005c 0143     		orrs	r1, r0
 627              		.loc 1 123 0
ARM GAS  /tmp/ccZaEln7.s 			page 12


 628 005e 5A60     		str	r2, [r3, #4]
 629              		.loc 1 124 0
 630 0060 1960     		str	r1, [r3]
 631              		.loc 1 125 0
 632 0062 1968     		ldr	r1, [r3]
 633              	.LBE43:
 634              	.LBE46:
 635              	.LBE49:
 636              	.LBE52:
 637              		.loc 1 478 0
 638              		@ sp needed
 639              	.LBB53:
 640              	.LBB50:
 641              	.LBB47:
 642              	.LBB44:
 643              		.loc 1 125 0
 644 0064 0A43     		orrs	r2, r1
 645 0066 1A60     		str	r2, [r3]
 646              	.LVL44:
 647              	.LVL45:
 648              	.LBE44:
 649              	.LBE47:
 650              	.LBE50:
 651              	.LBE53:
 652              		.loc 1 478 0
 653 0068 70BD     		pop	{r4, r5, r6, pc}
 654              	.LVL46:
 655              	.L76:
 656              		.loc 1 404 0
 657 006a 1D4B     		ldr	r3, .L87+4
 658 006c 9842     		cmp	r0, r3
 659 006e 1DD0     		beq	.L85
 660              	.LVL47:
 661              	.L78:
 662              		.loc 1 468 0
 663 0070 6368     		ldr	r3, [r4, #4]
 664 0072 9A69     		ldr	r2, [r3, #24]
 665 0074 A023     		movs	r3, #160
 666 0076 5B01     		lsls	r3, r3, #5
 667 0078 1340     		ands	r3, r2
 668 007a 8022     		movs	r2, #128
 669 007c 5201     		lsls	r2, r2, #5
 670 007e 9342     		cmp	r3, r2
 671 0080 0CD0     		beq	.L86
 672              	.L79:
 673              		.loc 1 470 0
 674 0082 A568     		ldr	r5, [r4, #8]
 675 0084 2369     		ldr	r3, [r4, #16]
 676 0086 2A00     		movs	r2, r5
 677 0088 1B68     		ldr	r3, [r3]
 678 008a 2432     		adds	r2, r2, #36
 679 008c 9A60     		str	r2, [r3, #8]
 680              		.loc 1 471 0
 681 008e 6369     		ldr	r3, [r4, #20]
 682 0090 0432     		adds	r2, r2, #4
 683 0092 1B68     		ldr	r3, [r3]
 684 0094 9A60     		str	r2, [r3, #8]
ARM GAS  /tmp/ccZaEln7.s 			page 13


 685              		.loc 1 472 0
 686 0096 0023     		movs	r3, #0
 687 0098 2383     		strh	r3, [r4, #24]
 688 009a B7E7     		b	.L77
 689              	.L86:
 690              		.loc 1 469 0
 691 009c A023     		movs	r3, #160
 692 009e E268     		ldr	r2, [r4, #12]
 693 00a0 DB00     		lsls	r3, r3, #3
 694 00a2 1343     		orrs	r3, r2
 695 00a4 E360     		str	r3, [r4, #12]
 696 00a6 ECE7     		b	.L79
 697              	.LVL48:
 698              	.L84:
 699              	.LBB54:
 700              	.LBB51:
 701              	.LBB48:
 702              	.LBB45:
 703              		.loc 1 119 0
 704 00a8 0238     		subs	r0, r0, #2
 705 00aa D0E7     		b	.L82
 706              	.LVL49:
 707              	.L85:
 708              	.LBE45:
 709              	.LBE48:
 710              	.LBE51:
 711              	.LBE54:
 712              	.LBB55:
 713              		.loc 1 406 0
 714 00ac 0300     		movs	r3, r0
 715 00ae 0D4A     		ldr	r2, .L87+8
 716 00b0 0321     		movs	r1, #3
 717 00b2 0069     		ldr	r0, [r0, #16]
 718              	.LVL50:
 719 00b4 FFF7FEFF 		bl	dmaStreamAllocate
 720              	.LVL51:
 721              		.loc 1 411 0
 722 00b8 2300     		movs	r3, r4
 723 00ba 0B4A     		ldr	r2, .L87+12
 724 00bc 0321     		movs	r1, #3
 725 00be 6069     		ldr	r0, [r4, #20]
 726 00c0 FFF7FEFF 		bl	dmaStreamAllocate
 727              	.LVL52:
 728              		.loc 1 416 0
 729 00c4 8021     		movs	r1, #128
 730 00c6 094A     		ldr	r2, .L87+16
 731 00c8 C901     		lsls	r1, r1, #7
 732 00ca 9369     		ldr	r3, [r2, #24]
 733              		.loc 1 417 0
 734 00cc 1B20     		movs	r0, #27
 735              		.loc 1 416 0
 736 00ce 0B43     		orrs	r3, r1
 737 00d0 9361     		str	r3, [r2, #24]
 738              		.loc 1 417 0
 739 00d2 C021     		movs	r1, #192
 740 00d4 FFF7FEFF 		bl	nvicEnableVector
 741              	.LVL53:
ARM GAS  /tmp/ccZaEln7.s 			page 14


 742 00d8 CAE7     		b	.L78
 743              	.L88:
 744 00da C046     		.align	2
 745              	.L87:
 746 00dc 006CDC02 		.word	48000000
 747 00e0 00000000 		.word	.LANCHOR0
 748 00e4 00000000 		.word	uart_lld_serve_rx_end_irq
 749 00e8 00000000 		.word	uart_lld_serve_tx_end_irq
 750 00ec 00100240 		.word	1073876992
 751              	.LBE55:
 752              		.cfi_endproc
 753              	.LFE49:
 754              		.size	uart_lld_start, .-uart_lld_start
 755              		.section	.text.uart_lld_stop,"ax",%progbits
 756              		.align	2
 757              		.p2align 4,,15
 758              		.global	uart_lld_stop
 759              		.code	16
 760              		.thumb_func
 761              		.type	uart_lld_stop, %function
 762              	uart_lld_stop:
 763              	.LFB50:
 764              		.loc 1 487 0
 765              		.cfi_startproc
 766              		@ args = 0, pretend = 0, frame = 0
 767              		@ frame_needed = 0, uses_anonymous_args = 0
 768              	.LVL54:
 769              		.loc 1 489 0
 770 0000 0378     		ldrb	r3, [r0]
 771              		.loc 1 487 0
 772 0002 10B5     		push	{r4, lr}
 773              		.cfi_def_cfa_offset 8
 774              		.cfi_offset 4, -8
 775              		.cfi_offset 14, -4
 776              		.loc 1 487 0
 777 0004 0400     		movs	r4, r0
 778              		.loc 1 489 0
 779 0006 022B     		cmp	r3, #2
 780 0008 00D0     		beq	.L93
 781              	.LVL55:
 782              	.L89:
 783              		.loc 1 518 0
 784              		@ sp needed
 785              	.LVL56:
 786 000a 10BD     		pop	{r4, pc}
 787              	.LVL57:
 788              	.L93:
 789              		.loc 1 490 0
 790 000c FFF7FEFF 		bl	usart_stop
 791              	.LVL58:
 792              		.loc 1 491 0
 793 0010 2069     		ldr	r0, [r4, #16]
 794 0012 FFF7FEFF 		bl	dmaStreamRelease
 795              	.LVL59:
 796              		.loc 1 492 0
 797 0016 6069     		ldr	r0, [r4, #20]
 798 0018 FFF7FEFF 		bl	dmaStreamRelease
ARM GAS  /tmp/ccZaEln7.s 			page 15


 799              	.LVL60:
 800              		.loc 1 495 0
 801 001c 054B     		ldr	r3, .L94
 802 001e 9C42     		cmp	r4, r3
 803 0020 F3D1     		bne	.L89
 804              		.loc 1 496 0
 805 0022 1B20     		movs	r0, #27
 806 0024 FFF7FEFF 		bl	nvicDisableVector
 807              	.LVL61:
 808              		.loc 1 497 0
 809 0028 034A     		ldr	r2, .L94+4
 810 002a 044B     		ldr	r3, .L94+8
 811 002c 9169     		ldr	r1, [r2, #24]
 812 002e 0B40     		ands	r3, r1
 813 0030 9361     		str	r3, [r2, #24]
 814              		.loc 1 498 0
 815 0032 EAE7     		b	.L89
 816              	.L95:
 817              		.align	2
 818              	.L94:
 819 0034 00000000 		.word	.LANCHOR0
 820 0038 00100240 		.word	1073876992
 821 003c FFBFFFFF 		.word	-16385
 822              		.cfi_endproc
 823              	.LFE50:
 824              		.size	uart_lld_stop, .-uart_lld_stop
 825              		.section	.text.uart_lld_start_send,"ax",%progbits
 826              		.align	2
 827              		.p2align 4,,15
 828              		.global	uart_lld_start_send
 829              		.code	16
 830              		.thumb_func
 831              		.type	uart_lld_start_send, %function
 832              	uart_lld_start_send:
 833              	.LFB51:
 834              		.loc 1 531 0
 835              		.cfi_startproc
 836              		@ args = 0, pretend = 0, frame = 0
 837              		@ frame_needed = 0, uses_anonymous_args = 0
 838              		@ link register save eliminated.
 839              	.LVL62:
 840              		.loc 1 534 0
 841 0000 4369     		ldr	r3, [r0, #20]
 842              		.loc 1 539 0
 843              		@ sp needed
 844              		.loc 1 534 0
 845 0002 1B68     		ldr	r3, [r3]
 846 0004 DA60     		str	r2, [r3, #12]
 847              		.loc 1 535 0
 848 0006 5960     		str	r1, [r3, #4]
 849              		.loc 1 536 0
 850 0008 9221     		movs	r1, #146
 851              	.LVL63:
 852 000a C268     		ldr	r2, [r0, #12]
 853              	.LVL64:
 854 000c 0A43     		orrs	r2, r1
 855 000e 1A60     		str	r2, [r3]
ARM GAS  /tmp/ccZaEln7.s 			page 16


 856              	.LVL65:
 857              		.loc 1 538 0
 858 0010 0122     		movs	r2, #1
 859 0012 1968     		ldr	r1, [r3]
 860 0014 0A43     		orrs	r2, r1
 861 0016 1A60     		str	r2, [r3]
 862              		.loc 1 539 0
 863 0018 7047     		bx	lr
 864              		.cfi_endproc
 865              	.LFE51:
 866              		.size	uart_lld_start_send, .-uart_lld_start_send
 867 001a C046     		.section	.text.uart_lld_stop_send,"ax",%progbits
 868              		.align	2
 869              		.p2align 4,,15
 870              		.global	uart_lld_stop_send
 871              		.code	16
 872              		.thumb_func
 873              		.type	uart_lld_stop_send, %function
 874              	uart_lld_stop_send:
 875              	.LFB52:
 876              		.loc 1 552 0
 877              		.cfi_startproc
 878              		@ args = 0, pretend = 0, frame = 0
 879              		@ frame_needed = 0, uses_anonymous_args = 0
 880              		@ link register save eliminated.
 881              	.LVL66:
 882              		.loc 1 554 0
 883 0000 0F23     		movs	r3, #15
 884 0002 4169     		ldr	r1, [r0, #20]
 885              		.loc 1 556 0
 886              		@ sp needed
 887              		.loc 1 554 0
 888 0004 0A68     		ldr	r2, [r1]
 889 0006 1068     		ldr	r0, [r2]
 890              	.LVL67:
 891 0008 9843     		bics	r0, r3
 892 000a 1060     		str	r0, [r2]
 893 000c 4868     		ldr	r0, [r1, #4]
 894 000e 097A     		ldrb	r1, [r1, #8]
 895 0010 8B40     		lsls	r3, r3, r1
 896 0012 0360     		str	r3, [r0]
 897              		.loc 1 555 0
 898 0014 5068     		ldr	r0, [r2, #4]
 899              		.loc 1 556 0
 900 0016 7047     		bx	lr
 901              		.cfi_endproc
 902              	.LFE52:
 903              		.size	uart_lld_stop_send, .-uart_lld_stop_send
 904              		.section	.text.uart_lld_start_receive,"ax",%progbits
 905              		.align	2
 906              		.p2align 4,,15
 907              		.global	uart_lld_start_receive
 908              		.code	16
 909              		.thumb_func
 910              		.type	uart_lld_start_receive, %function
 911              	uart_lld_start_receive:
 912              	.LFB53:
ARM GAS  /tmp/ccZaEln7.s 			page 17


 913              		.loc 1 569 0
 914              		.cfi_startproc
 915              		@ args = 0, pretend = 0, frame = 0
 916              		@ frame_needed = 0, uses_anonymous_args = 0
 917              	.LVL68:
 918 0000 70B5     		push	{r4, r5, r6, lr}
 919              		.cfi_def_cfa_offset 16
 920              		.cfi_offset 4, -16
 921              		.cfi_offset 5, -12
 922              		.cfi_offset 6, -8
 923              		.cfi_offset 14, -4
 924              		.loc 1 572 0
 925 0002 0F24     		movs	r4, #15
 926 0004 0569     		ldr	r5, [r0, #16]
 927              		.loc 1 580 0
 928              		@ sp needed
 929              		.loc 1 572 0
 930 0006 2B68     		ldr	r3, [r5]
 931 0008 1E68     		ldr	r6, [r3]
 932 000a A643     		bics	r6, r4
 933 000c 1E60     		str	r6, [r3]
 934 000e 6E68     		ldr	r6, [r5, #4]
 935 0010 2D7A     		ldrb	r5, [r5, #8]
 936 0012 AC40     		lsls	r4, r4, r5
 937 0014 3460     		str	r4, [r6]
 938              		.loc 1 575 0
 939 0016 DA60     		str	r2, [r3, #12]
 940              		.loc 1 576 0
 941 0018 5960     		str	r1, [r3, #4]
 942              		.loc 1 577 0
 943 001a 8221     		movs	r1, #130
 944              	.LVL69:
 945 001c C268     		ldr	r2, [r0, #12]
 946              	.LVL70:
 947 001e 0A43     		orrs	r2, r1
 948 0020 1A60     		str	r2, [r3]
 949              	.LVL71:
 950              		.loc 1 579 0
 951 0022 0122     		movs	r2, #1
 952 0024 1968     		ldr	r1, [r3]
 953 0026 0A43     		orrs	r2, r1
 954 0028 1A60     		str	r2, [r3]
 955              		.loc 1 580 0
 956 002a 70BD     		pop	{r4, r5, r6, pc}
 957              		.cfi_endproc
 958              	.LFE53:
 959              		.size	uart_lld_start_receive, .-uart_lld_start_receive
 960              		.section	.text.uart_lld_stop_receive,"ax",%progbits
 961              		.align	2
 962              		.p2align 4,,15
 963              		.global	uart_lld_stop_receive
 964              		.code	16
 965              		.thumb_func
 966              		.type	uart_lld_stop_receive, %function
 967              	uart_lld_stop_receive:
 968              	.LFB54:
 969              		.loc 1 593 0
ARM GAS  /tmp/ccZaEln7.s 			page 18


 970              		.cfi_startproc
 971              		@ args = 0, pretend = 0, frame = 0
 972              		@ frame_needed = 0, uses_anonymous_args = 0
 973              	.LVL72:
 974              		.loc 1 596 0
 975 0000 0F22     		movs	r2, #15
 976              		.loc 1 593 0
 977 0002 0100     		movs	r1, r0
 978              		.loc 1 596 0
 979 0004 0069     		ldr	r0, [r0, #16]
 980              	.LVL73:
 981              		.loc 1 593 0
 982 0006 10B5     		push	{r4, lr}
 983              		.cfi_def_cfa_offset 8
 984              		.cfi_offset 4, -8
 985              		.cfi_offset 14, -4
 986              		.loc 1 596 0
 987 0008 0368     		ldr	r3, [r0]
 988 000a 1C68     		ldr	r4, [r3]
 989 000c 9443     		bics	r4, r2
 990 000e 1C60     		str	r4, [r3]
 991 0010 4468     		ldr	r4, [r0, #4]
 992 0012 007A     		ldrb	r0, [r0, #8]
 993 0014 8240     		lsls	r2, r2, r0
 994 0016 2260     		str	r2, [r4]
 995              	.LBB56:
 996              	.LBB57:
 997              		.loc 1 118 0
 998 0018 4A68     		ldr	r2, [r1, #4]
 999              	.LBE57:
 1000              	.LBE56:
 1001              		.loc 1 597 0
 1002 001a 5868     		ldr	r0, [r3, #4]
 1003              	.LVL74:
 1004              	.LBB61:
 1005              	.LBB58:
 1006              		.loc 1 118 0
 1007 001c D268     		ldr	r2, [r2, #12]
 1008 001e 002A     		cmp	r2, #0
 1009 0020 0CD0     		beq	.L101
 1010              		.loc 1 121 0
 1011 0022 2224     		movs	r4, #34
 1012              	.L100:
 1013              	.LVL75:
 1014              		.loc 1 122 0
 1015 0024 0A00     		movs	r2, r1
 1016 0026 1832     		adds	r2, r2, #24
 1017 0028 DA60     		str	r2, [r3, #12]
 1018              		.loc 1 123 0
 1019 002a 0122     		movs	r2, #1
 1020              		.loc 1 124 0
 1021 002c C968     		ldr	r1, [r1, #12]
 1022              	.LVL76:
 1023              		.loc 1 123 0
 1024 002e 5A60     		str	r2, [r3, #4]
 1025              	.LVL77:
 1026              		.loc 1 124 0
ARM GAS  /tmp/ccZaEln7.s 			page 19


 1027 0030 2143     		orrs	r1, r4
 1028 0032 1960     		str	r1, [r3]
 1029              		.loc 1 125 0
 1030 0034 1968     		ldr	r1, [r3]
 1031              	.LBE58:
 1032              	.LBE61:
 1033              		.loc 1 600 0
 1034              		@ sp needed
 1035              	.LBB62:
 1036              	.LBB59:
 1037              		.loc 1 125 0
 1038 0036 0A43     		orrs	r2, r1
 1039 0038 1A60     		str	r2, [r3]
 1040              	.LVL78:
 1041              	.LBE59:
 1042              	.LBE62:
 1043              		.loc 1 600 0
 1044 003a 10BD     		pop	{r4, pc}
 1045              	.LVL79:
 1046              	.L101:
 1047              	.LBB63:
 1048              	.LBB60:
 1049              		.loc 1 119 0
 1050 003c 2024     		movs	r4, #32
 1051 003e F1E7     		b	.L100
 1052              	.LBE60:
 1053              	.LBE63:
 1054              		.cfi_endproc
 1055              	.LFE54:
 1056              		.size	uart_lld_stop_receive, .-uart_lld_stop_receive
 1057              		.global	UARTD1
 1058              		.section	.bss.UARTD1,"aw",%nobits
 1059              		.align	2
 1060              		.set	.LANCHOR0,. + 0
 1061              		.type	UARTD1, %object
 1062              		.size	UARTD1, 28
 1063              	UARTD1:
 1064 0000 00000000 		.space	28
 1064      00000000 
 1064      00000000 
 1064      00000000 
 1064      00000000 
 1065              		.text
 1066              	.Letext0:
 1067              		.file 2 "/home/lithium/Descargas/gcc-arm-none-eabi-5_3-2016q1/lib/gcc/arm-none-eabi/5.3.1/include/
 1068              		.file 3 "/home/lithium/Descargas/gcc-arm-none-eabi-5_3-2016q1/arm-none-eabi/include/machine/_defau
 1069              		.file 4 "/home/lithium/Descargas/gcc-arm-none-eabi-5_3-2016q1/arm-none-eabi/include/sys/_stdint.h"
 1070              		.file 5 "../../os/ports/GCC/ARMCMx/chtypes.h"
 1071              		.file 6 "../../os/ports/GCC/ARMCMx/chcore_v6m.h"
 1072              		.file 7 "../../os/hal/platforms/STM32F0xx/stm32f0xx.h"
 1073              		.file 8 "../../os/hal/platforms/STM32F0xx/stm32_dma.h"
 1074              		.file 9 "../../os/hal/include/uart.h"
 1075              		.file 10 "../../os/hal/platforms/STM32/USARTv2/uart_lld.h"
 1076              		.file 11 "../../os/ports/common/ARMCMx/nvic.h"
 1077              		.section	.debug_info,"",%progbits
 1078              	.Ldebug_info0:
 1079 0000 440B0000 		.4byte	0xb44
ARM GAS  /tmp/ccZaEln7.s 			page 20


 1080 0004 0400     		.2byte	0x4
 1081 0006 00000000 		.4byte	.Ldebug_abbrev0
 1082 000a 04       		.byte	0x4
 1083 000b 01       		.uleb128 0x1
 1084 000c 1D010000 		.4byte	.LASF113
 1085 0010 0C       		.byte	0xc
 1086 0011 C0030000 		.4byte	.LASF114
 1087 0015 4C030000 		.4byte	.LASF115
 1088 0019 D8000000 		.4byte	.Ldebug_ranges0+0xd8
 1089 001d 00000000 		.4byte	0
 1090 0021 00000000 		.4byte	.Ldebug_line0
 1091 0025 02       		.uleb128 0x2
 1092 0026 04       		.byte	0x4
 1093 0027 05       		.byte	0x5
 1094 0028 696E7400 		.ascii	"int\000"
 1095 002c 03       		.uleb128 0x3
 1096 002d 93020000 		.4byte	.LASF4
 1097 0031 02       		.byte	0x2
 1098 0032 D8       		.byte	0xd8
 1099 0033 37000000 		.4byte	0x37
 1100 0037 04       		.uleb128 0x4
 1101 0038 04       		.byte	0x4
 1102 0039 07       		.byte	0x7
 1103 003a 67000000 		.4byte	.LASF0
 1104 003e 04       		.uleb128 0x4
 1105 003f 08       		.byte	0x8
 1106 0040 05       		.byte	0x5
 1107 0041 91030000 		.4byte	.LASF1
 1108 0045 04       		.uleb128 0x4
 1109 0046 08       		.byte	0x8
 1110 0047 04       		.byte	0x4
 1111 0048 18040000 		.4byte	.LASF2
 1112 004c 04       		.uleb128 0x4
 1113 004d 01       		.byte	0x1
 1114 004e 06       		.byte	0x6
 1115 004f 98050000 		.4byte	.LASF3
 1116 0053 03       		.uleb128 0x3
 1117 0054 F5040000 		.4byte	.LASF5
 1118 0058 03       		.byte	0x3
 1119 0059 1D       		.byte	0x1d
 1120 005a 5E000000 		.4byte	0x5e
 1121 005e 04       		.uleb128 0x4
 1122 005f 01       		.byte	0x1
 1123 0060 08       		.byte	0x8
 1124 0061 43050000 		.4byte	.LASF6
 1125 0065 04       		.uleb128 0x4
 1126 0066 02       		.byte	0x2
 1127 0067 05       		.byte	0x5
 1128 0068 C0040000 		.4byte	.LASF7
 1129 006c 03       		.uleb128 0x3
 1130 006d 48020000 		.4byte	.LASF8
 1131 0071 03       		.byte	0x3
 1132 0072 2B       		.byte	0x2b
 1133 0073 77000000 		.4byte	0x77
 1134 0077 04       		.uleb128 0x4
 1135 0078 02       		.byte	0x2
 1136 0079 07       		.byte	0x7
ARM GAS  /tmp/ccZaEln7.s 			page 21


 1137 007a B3050000 		.4byte	.LASF9
 1138 007e 04       		.uleb128 0x4
 1139 007f 04       		.byte	0x4
 1140 0080 05       		.byte	0x5
 1141 0081 CA040000 		.4byte	.LASF10
 1142 0085 03       		.uleb128 0x3
 1143 0086 5D050000 		.4byte	.LASF11
 1144 008a 03       		.byte	0x3
 1145 008b 41       		.byte	0x41
 1146 008c 90000000 		.4byte	0x90
 1147 0090 04       		.uleb128 0x4
 1148 0091 04       		.byte	0x4
 1149 0092 07       		.byte	0x7
 1150 0093 1B050000 		.4byte	.LASF12
 1151 0097 04       		.uleb128 0x4
 1152 0098 08       		.byte	0x8
 1153 0099 07       		.byte	0x7
 1154 009a 2A020000 		.4byte	.LASF13
 1155 009e 03       		.uleb128 0x3
 1156 009f 1F030000 		.4byte	.LASF14
 1157 00a3 04       		.byte	0x4
 1158 00a4 14       		.byte	0x14
 1159 00a5 53000000 		.4byte	0x53
 1160 00a9 03       		.uleb128 0x3
 1161 00aa 35040000 		.4byte	.LASF15
 1162 00ae 04       		.byte	0x4
 1163 00af 1A       		.byte	0x1a
 1164 00b0 6C000000 		.4byte	0x6c
 1165 00b4 03       		.uleb128 0x3
 1166 00b5 08020000 		.4byte	.LASF16
 1167 00b9 04       		.byte	0x4
 1168 00ba 20       		.byte	0x20
 1169 00bb 85000000 		.4byte	0x85
 1170 00bf 03       		.uleb128 0x3
 1171 00c0 9A020000 		.4byte	.LASF17
 1172 00c4 05       		.byte	0x5
 1173 00c5 2B       		.byte	0x2b
 1174 00c6 CA000000 		.4byte	0xca
 1175 00ca 04       		.uleb128 0x4
 1176 00cb 01       		.byte	0x1
 1177 00cc 02       		.byte	0x2
 1178 00cd B0020000 		.4byte	.LASF18
 1179 00d1 03       		.uleb128 0x3
 1180 00d2 38000000 		.4byte	.LASF19
 1181 00d6 06       		.byte	0x6
 1182 00d7 A7       		.byte	0xa7
 1183 00d8 DC000000 		.4byte	0xdc
 1184 00dc 05       		.uleb128 0x5
 1185 00dd 04       		.byte	0x4
 1186 00de 06       		.uleb128 0x6
 1187 00df B4000000 		.4byte	0xb4
 1188 00e3 04       		.uleb128 0x4
 1189 00e4 04       		.byte	0x4
 1190 00e5 07       		.byte	0x7
 1191 00e6 12050000 		.4byte	.LASF20
 1192 00ea 04       		.uleb128 0x4
 1193 00eb 01       		.byte	0x1
ARM GAS  /tmp/ccZaEln7.s 			page 22


 1194 00ec 08       		.byte	0x8
 1195 00ed 02030000 		.4byte	.LASF21
 1196 00f1 07       		.uleb128 0x7
 1197 00f2 10       		.byte	0x10
 1198 00f3 07       		.byte	0x7
 1199 00f4 8A01     		.2byte	0x18a
 1200 00f6 2F010000 		.4byte	0x12f
 1201 00fa 08       		.uleb128 0x8
 1202 00fb 43435200 		.ascii	"CCR\000"
 1203 00ff 07       		.byte	0x7
 1204 0100 8C01     		.2byte	0x18c
 1205 0102 DE000000 		.4byte	0xde
 1206 0106 00       		.byte	0
 1207 0107 09       		.uleb128 0x9
 1208 0108 F7010000 		.4byte	.LASF22
 1209 010c 07       		.byte	0x7
 1210 010d 8D01     		.2byte	0x18d
 1211 010f DE000000 		.4byte	0xde
 1212 0113 04       		.byte	0x4
 1213 0114 09       		.uleb128 0x9
 1214 0115 82020000 		.4byte	.LASF23
 1215 0119 07       		.byte	0x7
 1216 011a 8E01     		.2byte	0x18e
 1217 011c DE000000 		.4byte	0xde
 1218 0120 08       		.byte	0x8
 1219 0121 09       		.uleb128 0x9
 1220 0122 87000000 		.4byte	.LASF24
 1221 0126 07       		.byte	0x7
 1222 0127 8F01     		.2byte	0x18f
 1223 0129 DE000000 		.4byte	0xde
 1224 012d 0C       		.byte	0xc
 1225 012e 00       		.byte	0
 1226 012f 0A       		.uleb128 0xa
 1227 0130 A1000000 		.4byte	.LASF25
 1228 0134 07       		.byte	0x7
 1229 0135 9001     		.2byte	0x190
 1230 0137 F1000000 		.4byte	0xf1
 1231 013b 06       		.uleb128 0x6
 1232 013c A9000000 		.4byte	0xa9
 1233 0140 07       		.uleb128 0x7
 1234 0141 38       		.byte	0x38
 1235 0142 07       		.byte	0x7
 1236 0143 1702     		.2byte	0x217
 1237 0145 FF010000 		.4byte	0x1ff
 1238 0149 08       		.uleb128 0x8
 1239 014a 435200   		.ascii	"CR\000"
 1240 014d 07       		.byte	0x7
 1241 014e 1902     		.2byte	0x219
 1242 0150 DE000000 		.4byte	0xde
 1243 0154 00       		.byte	0
 1244 0155 09       		.uleb128 0x9
 1245 0156 E5040000 		.4byte	.LASF26
 1246 015a 07       		.byte	0x7
 1247 015b 1A02     		.2byte	0x21a
 1248 015d DE000000 		.4byte	0xde
 1249 0161 04       		.byte	0x4
 1250 0162 08       		.uleb128 0x8
ARM GAS  /tmp/ccZaEln7.s 			page 23


 1251 0163 43495200 		.ascii	"CIR\000"
 1252 0167 07       		.byte	0x7
 1253 0168 1B02     		.2byte	0x21b
 1254 016a DE000000 		.4byte	0xde
 1255 016e 08       		.byte	0x8
 1256 016f 09       		.uleb128 0x9
 1257 0170 49000000 		.4byte	.LASF27
 1258 0174 07       		.byte	0x7
 1259 0175 1C02     		.2byte	0x21c
 1260 0177 DE000000 		.4byte	0xde
 1261 017b 0C       		.byte	0xc
 1262 017c 09       		.uleb128 0x9
 1263 017d E9020000 		.4byte	.LASF28
 1264 0181 07       		.byte	0x7
 1265 0182 1D02     		.2byte	0x21d
 1266 0184 DE000000 		.4byte	0xde
 1267 0188 10       		.byte	0x10
 1268 0189 09       		.uleb128 0x9
 1269 018a 0E030000 		.4byte	.LASF29
 1270 018e 07       		.byte	0x7
 1271 018f 1E02     		.2byte	0x21e
 1272 0191 DE000000 		.4byte	0xde
 1273 0195 14       		.byte	0x14
 1274 0196 09       		.uleb128 0x9
 1275 0197 10040000 		.4byte	.LASF30
 1276 019b 07       		.byte	0x7
 1277 019c 1F02     		.2byte	0x21f
 1278 019e DE000000 		.4byte	0xde
 1279 01a2 18       		.byte	0x18
 1280 01a3 09       		.uleb128 0x9
 1281 01a4 17000000 		.4byte	.LASF31
 1282 01a8 07       		.byte	0x7
 1283 01a9 2002     		.2byte	0x220
 1284 01ab DE000000 		.4byte	0xde
 1285 01af 1C       		.byte	0x1c
 1286 01b0 09       		.uleb128 0x9
 1287 01b1 82000000 		.4byte	.LASF32
 1288 01b5 07       		.byte	0x7
 1289 01b6 2102     		.2byte	0x221
 1290 01b8 DE000000 		.4byte	0xde
 1291 01bc 20       		.byte	0x20
 1292 01bd 08       		.uleb128 0x8
 1293 01be 43535200 		.ascii	"CSR\000"
 1294 01c2 07       		.byte	0x7
 1295 01c3 2202     		.2byte	0x222
 1296 01c5 DE000000 		.4byte	0xde
 1297 01c9 24       		.byte	0x24
 1298 01ca 09       		.uleb128 0x9
 1299 01cb 11020000 		.4byte	.LASF33
 1300 01cf 07       		.byte	0x7
 1301 01d0 2302     		.2byte	0x223
 1302 01d2 DE000000 		.4byte	0xde
 1303 01d6 28       		.byte	0x28
 1304 01d7 09       		.uleb128 0x9
 1305 01d8 F2020000 		.4byte	.LASF34
 1306 01dc 07       		.byte	0x7
 1307 01dd 2402     		.2byte	0x224
ARM GAS  /tmp/ccZaEln7.s 			page 24


 1308 01df DE000000 		.4byte	0xde
 1309 01e3 2C       		.byte	0x2c
 1310 01e4 09       		.uleb128 0x9
 1311 01e5 F0030000 		.4byte	.LASF35
 1312 01e9 07       		.byte	0x7
 1313 01ea 2502     		.2byte	0x225
 1314 01ec DE000000 		.4byte	0xde
 1315 01f0 30       		.byte	0x30
 1316 01f1 08       		.uleb128 0x8
 1317 01f2 43523200 		.ascii	"CR2\000"
 1318 01f6 07       		.byte	0x7
 1319 01f7 2602     		.2byte	0x226
 1320 01f9 DE000000 		.4byte	0xde
 1321 01fd 34       		.byte	0x34
 1322 01fe 00       		.byte	0
 1323 01ff 0A       		.uleb128 0xa
 1324 0200 8C000000 		.4byte	.LASF36
 1325 0204 07       		.byte	0x7
 1326 0205 2702     		.2byte	0x227
 1327 0207 40010000 		.4byte	0x140
 1328 020b 07       		.uleb128 0x7
 1329 020c 2C       		.byte	0x2c
 1330 020d 07       		.byte	0x7
 1331 020e AA02     		.2byte	0x2aa
 1332 0210 E5020000 		.4byte	0x2e5
 1333 0214 08       		.uleb128 0x8
 1334 0215 43523100 		.ascii	"CR1\000"
 1335 0219 07       		.byte	0x7
 1336 021a AC02     		.2byte	0x2ac
 1337 021c DE000000 		.4byte	0xde
 1338 0220 00       		.byte	0
 1339 0221 08       		.uleb128 0x8
 1340 0222 43523200 		.ascii	"CR2\000"
 1341 0226 07       		.byte	0x7
 1342 0227 AD02     		.2byte	0x2ad
 1343 0229 DE000000 		.4byte	0xde
 1344 022d 04       		.byte	0x4
 1345 022e 08       		.uleb128 0x8
 1346 022f 43523300 		.ascii	"CR3\000"
 1347 0233 07       		.byte	0x7
 1348 0234 AE02     		.2byte	0x2ae
 1349 0236 DE000000 		.4byte	0xde
 1350 023a 08       		.byte	0x8
 1351 023b 08       		.uleb128 0x8
 1352 023c 42525200 		.ascii	"BRR\000"
 1353 0240 07       		.byte	0x7
 1354 0241 AF02     		.2byte	0x2af
 1355 0243 3B010000 		.4byte	0x13b
 1356 0247 0C       		.byte	0xc
 1357 0248 09       		.uleb128 0x9
 1358 0249 8E040000 		.4byte	.LASF37
 1359 024d 07       		.byte	0x7
 1360 024e B002     		.2byte	0x2b0
 1361 0250 A9000000 		.4byte	0xa9
 1362 0254 0E       		.byte	0xe
 1363 0255 09       		.uleb128 0x9
 1364 0256 FD010000 		.4byte	.LASF38
ARM GAS  /tmp/ccZaEln7.s 			page 25


 1365 025a 07       		.byte	0x7
 1366 025b B102     		.2byte	0x2b1
 1367 025d 3B010000 		.4byte	0x13b
 1368 0261 10       		.byte	0x10
 1369 0262 09       		.uleb128 0x9
 1370 0263 98040000 		.4byte	.LASF39
 1371 0267 07       		.byte	0x7
 1372 0268 B202     		.2byte	0x2b2
 1373 026a A9000000 		.4byte	0xa9
 1374 026e 12       		.byte	0x12
 1375 026f 09       		.uleb128 0x9
 1376 0270 27030000 		.4byte	.LASF40
 1377 0274 07       		.byte	0x7
 1378 0275 B302     		.2byte	0x2b3
 1379 0277 DE000000 		.4byte	0xde
 1380 027b 14       		.byte	0x14
 1381 027c 08       		.uleb128 0x8
 1382 027d 52515200 		.ascii	"RQR\000"
 1383 0281 07       		.byte	0x7
 1384 0282 B402     		.2byte	0x2b4
 1385 0284 3B010000 		.4byte	0x13b
 1386 0288 18       		.byte	0x18
 1387 0289 09       		.uleb128 0x9
 1388 028a A2040000 		.4byte	.LASF41
 1389 028e 07       		.byte	0x7
 1390 028f B502     		.2byte	0x2b5
 1391 0291 A9000000 		.4byte	0xa9
 1392 0295 1A       		.byte	0x1a
 1393 0296 08       		.uleb128 0x8
 1394 0297 49535200 		.ascii	"ISR\000"
 1395 029b 07       		.byte	0x7
 1396 029c B602     		.2byte	0x2b6
 1397 029e DE000000 		.4byte	0xde
 1398 02a2 1C       		.byte	0x1c
 1399 02a3 08       		.uleb128 0x8
 1400 02a4 49435200 		.ascii	"ICR\000"
 1401 02a8 07       		.byte	0x7
 1402 02a9 B702     		.2byte	0x2b7
 1403 02ab DE000000 		.4byte	0xde
 1404 02af 20       		.byte	0x20
 1405 02b0 08       		.uleb128 0x8
 1406 02b1 52445200 		.ascii	"RDR\000"
 1407 02b5 07       		.byte	0x7
 1408 02b6 B802     		.2byte	0x2b8
 1409 02b8 3B010000 		.4byte	0x13b
 1410 02bc 24       		.byte	0x24
 1411 02bd 09       		.uleb128 0x9
 1412 02be AC040000 		.4byte	.LASF42
 1413 02c2 07       		.byte	0x7
 1414 02c3 B902     		.2byte	0x2b9
 1415 02c5 A9000000 		.4byte	0xa9
 1416 02c9 26       		.byte	0x26
 1417 02ca 08       		.uleb128 0x8
 1418 02cb 54445200 		.ascii	"TDR\000"
 1419 02cf 07       		.byte	0x7
 1420 02d0 BA02     		.2byte	0x2ba
 1421 02d2 3B010000 		.4byte	0x13b
ARM GAS  /tmp/ccZaEln7.s 			page 26


 1422 02d6 28       		.byte	0x28
 1423 02d7 09       		.uleb128 0x9
 1424 02d8 B6040000 		.4byte	.LASF43
 1425 02dc 07       		.byte	0x7
 1426 02dd BB02     		.2byte	0x2bb
 1427 02df A9000000 		.4byte	0xa9
 1428 02e3 2A       		.byte	0x2a
 1429 02e4 00       		.byte	0
 1430 02e5 0A       		.uleb128 0xa
 1431 02e6 CC020000 		.4byte	.LASF44
 1432 02ea 07       		.byte	0x7
 1433 02eb BC02     		.2byte	0x2bc
 1434 02ed 0B020000 		.4byte	0x20b
 1435 02f1 0B       		.uleb128 0xb
 1436 02f2 0C       		.byte	0xc
 1437 02f3 08       		.byte	0x8
 1438 02f4 B6       		.byte	0xb6
 1439 02f5 36030000 		.4byte	0x336
 1440 02f9 0C       		.uleb128 0xc
 1441 02fa 44040000 		.4byte	.LASF45
 1442 02fe 08       		.byte	0x8
 1443 02ff B7       		.byte	0xb7
 1444 0300 36030000 		.4byte	0x336
 1445 0304 00       		.byte	0
 1446 0305 0C       		.uleb128 0xc
 1447 0306 19020000 		.4byte	.LASF46
 1448 030a 08       		.byte	0x8
 1449 030b B8       		.byte	0xb8
 1450 030c 3C030000 		.4byte	0x33c
 1451 0310 04       		.byte	0x4
 1452 0311 0C       		.uleb128 0xc
 1453 0312 07030000 		.4byte	.LASF47
 1454 0316 08       		.byte	0x8
 1455 0317 B9       		.byte	0xb9
 1456 0318 9E000000 		.4byte	0x9e
 1457 031c 08       		.byte	0x8
 1458 031d 0C       		.uleb128 0xc
 1459 031e 43060000 		.4byte	.LASF48
 1460 0322 08       		.byte	0x8
 1461 0323 BB       		.byte	0xbb
 1462 0324 9E000000 		.4byte	0x9e
 1463 0328 09       		.byte	0x9
 1464 0329 0C       		.uleb128 0xc
 1465 032a 41020000 		.4byte	.LASF49
 1466 032e 08       		.byte	0x8
 1467 032f BC       		.byte	0xbc
 1468 0330 9E000000 		.4byte	0x9e
 1469 0334 0A       		.byte	0xa
 1470 0335 00       		.byte	0
 1471 0336 0D       		.uleb128 0xd
 1472 0337 04       		.byte	0x4
 1473 0338 2F010000 		.4byte	0x12f
 1474 033c 0D       		.uleb128 0xd
 1475 033d 04       		.byte	0x4
 1476 033e DE000000 		.4byte	0xde
 1477 0342 03       		.uleb128 0x3
 1478 0343 C6050000 		.4byte	.LASF50
ARM GAS  /tmp/ccZaEln7.s 			page 27


 1479 0347 08       		.byte	0x8
 1480 0348 BD       		.byte	0xbd
 1481 0349 F1020000 		.4byte	0x2f1
 1482 034d 03       		.uleb128 0x3
 1483 034e DA020000 		.4byte	.LASF51
 1484 0352 08       		.byte	0x8
 1485 0353 C6       		.byte	0xc6
 1486 0354 58030000 		.4byte	0x358
 1487 0358 0D       		.uleb128 0xd
 1488 0359 04       		.byte	0x4
 1489 035a 5E030000 		.4byte	0x35e
 1490 035e 0E       		.uleb128 0xe
 1491 035f 6E030000 		.4byte	0x36e
 1492 0363 0F       		.uleb128 0xf
 1493 0364 DC000000 		.4byte	0xdc
 1494 0368 0F       		.uleb128 0xf
 1495 0369 B4000000 		.4byte	0xb4
 1496 036d 00       		.byte	0
 1497 036e 0D       		.uleb128 0xd
 1498 036f 04       		.byte	0x4
 1499 0370 74030000 		.4byte	0x374
 1500 0374 10       		.uleb128 0x10
 1501 0375 42030000 		.4byte	0x342
 1502 0379 11       		.uleb128 0x11
 1503 037a 01       		.byte	0x1
 1504 037b 5E000000 		.4byte	0x5e
 1505 037f 09       		.byte	0x9
 1506 0380 48       		.byte	0x48
 1507 0381 98030000 		.4byte	0x398
 1508 0385 12       		.uleb128 0x12
 1509 0386 51050000 		.4byte	.LASF52
 1510 038a 00       		.byte	0
 1511 038b 12       		.uleb128 0x12
 1512 038c D9050000 		.4byte	.LASF53
 1513 0390 01       		.byte	0x1
 1514 0391 12       		.uleb128 0x12
 1515 0392 EA040000 		.4byte	.LASF54
 1516 0396 02       		.byte	0x2
 1517 0397 00       		.byte	0
 1518 0398 03       		.uleb128 0x3
 1519 0399 87020000 		.4byte	.LASF55
 1520 039d 09       		.byte	0x9
 1521 039e 4C       		.byte	0x4c
 1522 039f 79030000 		.4byte	0x379
 1523 03a3 11       		.uleb128 0x11
 1524 03a4 01       		.byte	0x1
 1525 03a5 5E000000 		.4byte	0x5e
 1526 03a9 09       		.byte	0x9
 1527 03aa 51       		.byte	0x51
 1528 03ab C2030000 		.4byte	0x3c2
 1529 03af 12       		.uleb128 0x12
 1530 03b0 00000000 		.4byte	.LASF56
 1531 03b4 00       		.byte	0
 1532 03b5 12       		.uleb128 0x12
 1533 03b6 A4050000 		.4byte	.LASF57
 1534 03ba 01       		.byte	0x1
 1535 03bb 12       		.uleb128 0x12
ARM GAS  /tmp/ccZaEln7.s 			page 28


 1536 03bc FA000000 		.4byte	.LASF58
 1537 03c0 02       		.byte	0x2
 1538 03c1 00       		.byte	0
 1539 03c2 03       		.uleb128 0x3
 1540 03c3 80040000 		.4byte	.LASF59
 1541 03c7 09       		.byte	0x9
 1542 03c8 55       		.byte	0x55
 1543 03c9 A3030000 		.4byte	0x3a3
 1544 03cd 11       		.uleb128 0x11
 1545 03ce 01       		.byte	0x1
 1546 03cf 5E000000 		.4byte	0x5e
 1547 03d3 09       		.byte	0x9
 1548 03d4 5A       		.byte	0x5a
 1549 03d5 EC030000 		.4byte	0x3ec
 1550 03d9 12       		.uleb128 0x12
 1551 03da 8B050000 		.4byte	.LASF60
 1552 03de 00       		.byte	0
 1553 03df 12       		.uleb128 0x12
 1554 03e0 A1020000 		.4byte	.LASF61
 1555 03e4 01       		.byte	0x1
 1556 03e5 12       		.uleb128 0x12
 1557 03e6 A6030000 		.4byte	.LASF62
 1558 03ea 02       		.byte	0x2
 1559 03eb 00       		.byte	0
 1560 03ec 03       		.uleb128 0x3
 1561 03ed 74000000 		.4byte	.LASF63
 1562 03f1 09       		.byte	0x9
 1563 03f2 5E       		.byte	0x5e
 1564 03f3 CD030000 		.4byte	0x3cd
 1565 03f7 0A       		.uleb128 0xa
 1566 03f8 1E020000 		.4byte	.LASF64
 1567 03fc 0A       		.byte	0xa
 1568 03fd 2C01     		.2byte	0x12c
 1569 03ff B4000000 		.4byte	0xb4
 1570 0403 0A       		.uleb128 0xa
 1571 0404 53020000 		.4byte	.LASF65
 1572 0408 0A       		.byte	0xa
 1573 0409 3101     		.2byte	0x131
 1574 040b 0F040000 		.4byte	0x40f
 1575 040f 13       		.uleb128 0x13
 1576 0410 53020000 		.4byte	.LASF65
 1577 0414 1C       		.byte	0x1c
 1578 0415 0A       		.byte	0xa
 1579 0416 7901     		.2byte	0x179
 1580 0418 92040000 		.4byte	0x492
 1581 041c 09       		.uleb128 0x9
 1582 041d 85050000 		.4byte	.LASF66
 1583 0421 0A       		.byte	0xa
 1584 0422 7D01     		.2byte	0x17d
 1585 0424 98030000 		.4byte	0x398
 1586 0428 00       		.byte	0
 1587 0429 09       		.uleb128 0x9
 1588 042a 2D050000 		.4byte	.LASF67
 1589 042e 0A       		.byte	0xa
 1590 042f 8101     		.2byte	0x181
 1591 0431 C2030000 		.4byte	0x3c2
 1592 0435 01       		.byte	0x1
ARM GAS  /tmp/ccZaEln7.s 			page 29


 1593 0436 09       		.uleb128 0x9
 1594 0437 D3040000 		.4byte	.LASF68
 1595 043b 0A       		.byte	0xa
 1596 043c 8501     		.2byte	0x185
 1597 043e EC030000 		.4byte	0x3ec
 1598 0442 02       		.byte	0x2
 1599 0443 09       		.uleb128 0x9
 1600 0444 5D040000 		.4byte	.LASF69
 1601 0448 0A       		.byte	0xa
 1602 0449 8901     		.2byte	0x189
 1603 044b 84050000 		.4byte	0x584
 1604 044f 04       		.byte	0x4
 1605 0450 09       		.uleb128 0x9
 1606 0451 3D030000 		.4byte	.LASF70
 1607 0455 0A       		.byte	0xa
 1608 0456 9101     		.2byte	0x191
 1609 0458 8F050000 		.4byte	0x58f
 1610 045c 08       		.byte	0x8
 1611 045d 09       		.uleb128 0x9
 1612 045e 41000000 		.4byte	.LASF71
 1613 0462 0A       		.byte	0xa
 1614 0463 9501     		.2byte	0x195
 1615 0465 B4000000 		.4byte	0xb4
 1616 0469 0C       		.byte	0xc
 1617 046a 09       		.uleb128 0x9
 1618 046b 2C030000 		.4byte	.LASF72
 1619 046f 0A       		.byte	0xa
 1620 0470 9901     		.2byte	0x199
 1621 0472 6E030000 		.4byte	0x36e
 1622 0476 10       		.byte	0x10
 1623 0477 09       		.uleb128 0x9
 1624 0478 02020000 		.4byte	.LASF73
 1625 047c 0A       		.byte	0xa
 1626 047d 9D01     		.2byte	0x19d
 1627 047f 6E030000 		.4byte	0x36e
 1628 0483 14       		.byte	0x14
 1629 0484 09       		.uleb128 0x9
 1630 0485 4D060000 		.4byte	.LASF74
 1631 0489 0A       		.byte	0xa
 1632 048a A101     		.2byte	0x1a1
 1633 048c 3B010000 		.4byte	0x13b
 1634 0490 18       		.byte	0x18
 1635 0491 00       		.byte	0
 1636 0492 0A       		.uleb128 0xa
 1637 0493 1E060000 		.4byte	.LASF75
 1638 0497 0A       		.byte	0xa
 1639 0498 3801     		.2byte	0x138
 1640 049a 9E040000 		.4byte	0x49e
 1641 049e 0D       		.uleb128 0xd
 1642 049f 04       		.byte	0x4
 1643 04a0 A4040000 		.4byte	0x4a4
 1644 04a4 0E       		.uleb128 0xe
 1645 04a5 AF040000 		.4byte	0x4af
 1646 04a9 0F       		.uleb128 0xf
 1647 04aa AF040000 		.4byte	0x4af
 1648 04ae 00       		.byte	0
 1649 04af 0D       		.uleb128 0xd
ARM GAS  /tmp/ccZaEln7.s 			page 30


 1650 04b0 04       		.byte	0x4
 1651 04b1 03040000 		.4byte	0x403
 1652 04b5 0A       		.uleb128 0xa
 1653 04b6 F8020000 		.4byte	.LASF76
 1654 04ba 0A       		.byte	0xa
 1655 04bb 4001     		.2byte	0x140
 1656 04bd C1040000 		.4byte	0x4c1
 1657 04c1 0D       		.uleb128 0xd
 1658 04c2 04       		.byte	0x4
 1659 04c3 C7040000 		.4byte	0x4c7
 1660 04c7 0E       		.uleb128 0xe
 1661 04c8 D7040000 		.4byte	0x4d7
 1662 04cc 0F       		.uleb128 0xf
 1663 04cd AF040000 		.4byte	0x4af
 1664 04d1 0F       		.uleb128 0xf
 1665 04d2 A9000000 		.4byte	0xa9
 1666 04d6 00       		.byte	0
 1667 04d7 0A       		.uleb128 0xa
 1668 04d8 DB040000 		.4byte	.LASF77
 1669 04dc 0A       		.byte	0xa
 1670 04dd 4801     		.2byte	0x148
 1671 04df E3040000 		.4byte	0x4e3
 1672 04e3 0D       		.uleb128 0xd
 1673 04e4 04       		.byte	0x4
 1674 04e5 E9040000 		.4byte	0x4e9
 1675 04e9 0E       		.uleb128 0xe
 1676 04ea F9040000 		.4byte	0x4f9
 1677 04ee 0F       		.uleb128 0xf
 1678 04ef AF040000 		.4byte	0x4af
 1679 04f3 0F       		.uleb128 0xf
 1680 04f4 F7030000 		.4byte	0x3f7
 1681 04f8 00       		.byte	0
 1682 04f9 07       		.uleb128 0x7
 1683 04fa 24       		.byte	0x24
 1684 04fb 0A       		.byte	0xa
 1685 04fc 4E01     		.2byte	0x14e
 1686 04fe 78050000 		.4byte	0x578
 1687 0502 09       		.uleb128 0x9
 1688 0503 15030000 		.4byte	.LASF78
 1689 0507 0A       		.byte	0xa
 1690 0508 5201     		.2byte	0x152
 1691 050a 92040000 		.4byte	0x492
 1692 050e 00       		.byte	0
 1693 050f 09       		.uleb128 0x9
 1694 0510 1F000000 		.4byte	.LASF79
 1695 0514 0A       		.byte	0xa
 1696 0515 5601     		.2byte	0x156
 1697 0517 92040000 		.4byte	0x492
 1698 051b 04       		.byte	0x4
 1699 051c 09       		.uleb128 0x9
 1700 051d B7030000 		.4byte	.LASF80
 1701 0521 0A       		.byte	0xa
 1702 0522 5A01     		.2byte	0x15a
 1703 0524 92040000 		.4byte	0x492
 1704 0528 08       		.byte	0x8
 1705 0529 09       		.uleb128 0x9
 1706 052a 0D000000 		.4byte	.LASF81
ARM GAS  /tmp/ccZaEln7.s 			page 31


 1707 052e 0A       		.byte	0xa
 1708 052f 5E01     		.2byte	0x15e
 1709 0531 B5040000 		.4byte	0x4b5
 1710 0535 0C       		.byte	0xc
 1711 0536 09       		.uleb128 0x9
 1712 0537 43030000 		.4byte	.LASF82
 1713 053b 0A       		.byte	0xa
 1714 053c 6201     		.2byte	0x162
 1715 053e D7040000 		.4byte	0x4d7
 1716 0542 10       		.byte	0x10
 1717 0543 09       		.uleb128 0x9
 1718 0544 17010000 		.4byte	.LASF83
 1719 0548 0A       		.byte	0xa
 1720 0549 6701     		.2byte	0x167
 1721 054b B4000000 		.4byte	0xb4
 1722 054f 14       		.byte	0x14
 1723 0550 08       		.uleb128 0x8
 1724 0551 63723100 		.ascii	"cr1\000"
 1725 0555 0A       		.byte	0xa
 1726 0556 6B01     		.2byte	0x16b
 1727 0558 B4000000 		.4byte	0xb4
 1728 055c 18       		.byte	0x18
 1729 055d 08       		.uleb128 0x8
 1730 055e 63723200 		.ascii	"cr2\000"
 1731 0562 0A       		.byte	0xa
 1732 0563 6F01     		.2byte	0x16f
 1733 0565 B4000000 		.4byte	0xb4
 1734 0569 1C       		.byte	0x1c
 1735 056a 08       		.uleb128 0x8
 1736 056b 63723300 		.ascii	"cr3\000"
 1737 056f 0A       		.byte	0xa
 1738 0570 7301     		.2byte	0x173
 1739 0572 B4000000 		.4byte	0xb4
 1740 0576 20       		.byte	0x20
 1741 0577 00       		.byte	0
 1742 0578 0A       		.uleb128 0xa
 1743 0579 32030000 		.4byte	.LASF84
 1744 057d 0A       		.byte	0xa
 1745 057e 7401     		.2byte	0x174
 1746 0580 F9040000 		.4byte	0x4f9
 1747 0584 0D       		.uleb128 0xd
 1748 0585 04       		.byte	0x4
 1749 0586 8A050000 		.4byte	0x58a
 1750 058a 10       		.uleb128 0x10
 1751 058b 78050000 		.4byte	0x578
 1752 058f 0D       		.uleb128 0xd
 1753 0590 04       		.byte	0x4
 1754 0591 E5020000 		.4byte	0x2e5
 1755 0595 14       		.uleb128 0x14
 1756 0596 24040000 		.4byte	.LASF85
 1757 059a 01       		.byte	0x1
 1758 059b 71       		.byte	0x71
 1759 059c 01       		.byte	0x1
 1760 059d B8050000 		.4byte	0x5b8
 1761 05a1 15       		.uleb128 0x15
 1762 05a2 3E040000 		.4byte	.LASF87
 1763 05a6 01       		.byte	0x1
ARM GAS  /tmp/ccZaEln7.s 			page 32


 1764 05a7 71       		.byte	0x71
 1765 05a8 AF040000 		.4byte	0x4af
 1766 05ac 16       		.uleb128 0x16
 1767 05ad C9000000 		.4byte	.LASF90
 1768 05b1 01       		.byte	0x1
 1769 05b2 72       		.byte	0x72
 1770 05b3 B4000000 		.4byte	0xb4
 1771 05b7 00       		.byte	0
 1772 05b8 14       		.uleb128 0x14
 1773 05b9 F6030000 		.4byte	.LASF86
 1774 05bd 01       		.byte	0x1
 1775 05be C4       		.byte	0xc4
 1776 05bf 01       		.byte	0x1
 1777 05c0 DB050000 		.4byte	0x5db
 1778 05c4 15       		.uleb128 0x15
 1779 05c5 3E040000 		.4byte	.LASF87
 1780 05c9 01       		.byte	0x1
 1781 05ca C4       		.byte	0xc4
 1782 05cb AF040000 		.4byte	0x4af
 1783 05cf 15       		.uleb128 0x15
 1784 05d0 52000000 		.4byte	.LASF88
 1785 05d4 01       		.byte	0x1
 1786 05d5 C4       		.byte	0xc4
 1787 05d6 B4000000 		.4byte	0xb4
 1788 05da 00       		.byte	0
 1789 05db 17       		.uleb128 0x17
 1790 05dc 5E020000 		.4byte	.LASF89
 1791 05e0 01       		.byte	0x1
 1792 05e1 0F01     		.2byte	0x10f
 1793 05e3 01       		.byte	0x1
 1794 05e4 17060000 		.4byte	0x617
 1795 05e8 18       		.uleb128 0x18
 1796 05e9 3E040000 		.4byte	.LASF87
 1797 05ed 01       		.byte	0x1
 1798 05ee 0F01     		.2byte	0x10f
 1799 05f0 AF040000 		.4byte	0x4af
 1800 05f4 19       		.uleb128 0x19
 1801 05f5 69737200 		.ascii	"isr\000"
 1802 05f9 01       		.byte	0x1
 1803 05fa 1001     		.2byte	0x110
 1804 05fc B4000000 		.4byte	0xb4
 1805 0600 19       		.uleb128 0x19
 1806 0601 7500     		.ascii	"u\000"
 1807 0603 01       		.byte	0x1
 1808 0604 1101     		.2byte	0x111
 1809 0606 8F050000 		.4byte	0x58f
 1810 060a 19       		.uleb128 0x19
 1811 060b 63723100 		.ascii	"cr1\000"
 1812 060f 01       		.byte	0x1
 1813 0610 1201     		.2byte	0x112
 1814 0612 B4000000 		.4byte	0xb4
 1815 0616 00       		.byte	0
 1816 0617 1A       		.uleb128 0x1a
 1817 0618 75040000 		.4byte	.LASF91
 1818 061c 01       		.byte	0x1
 1819 061d 86       		.byte	0x86
 1820 061e 00000000 		.4byte	.LFB42
ARM GAS  /tmp/ccZaEln7.s 			page 33


 1821 0622 36000000 		.4byte	.LFE42-.LFB42
 1822 0626 01       		.uleb128 0x1
 1823 0627 9C       		.byte	0x9c
 1824 0628 3A060000 		.4byte	0x63a
 1825 062c 1B       		.uleb128 0x1b
 1826 062d 3E040000 		.4byte	.LASF87
 1827 0631 01       		.byte	0x1
 1828 0632 86       		.byte	0x86
 1829 0633 AF040000 		.4byte	0x4af
 1830 0637 01       		.uleb128 0x1
 1831 0638 50       		.byte	0x50
 1832 0639 00       		.byte	0
 1833 063a 1A       		.uleb128 0x1a
 1834 063b E0000000 		.4byte	.LASF92
 1835 063f 01       		.byte	0x1
 1836 0640 EC       		.byte	0xec
 1837 0641 00000000 		.4byte	.LFB45
 1838 0645 50000000 		.4byte	.LFE45-.LFB45
 1839 0649 01       		.uleb128 0x1
 1840 064a 9C       		.byte	0x9c
 1841 064b 87060000 		.4byte	0x687
 1842 064f 1C       		.uleb128 0x1c
 1843 0650 3E040000 		.4byte	.LASF87
 1844 0654 01       		.byte	0x1
 1845 0655 EC       		.byte	0xec
 1846 0656 AF040000 		.4byte	0x4af
 1847 065a 00000000 		.4byte	.LLST0
 1848 065e 1C       		.uleb128 0x1c
 1849 065f 52000000 		.4byte	.LASF88
 1850 0663 01       		.byte	0x1
 1851 0664 EC       		.byte	0xec
 1852 0665 B4000000 		.4byte	0xb4
 1853 0669 4D000000 		.4byte	.LLST1
 1854 066d 1D       		.uleb128 0x1d
 1855 066e 3C000000 		.4byte	.LVL3
 1856 0672 7D060000 		.4byte	0x67d
 1857 0676 1E       		.uleb128 0x1e
 1858 0677 01       		.uleb128 0x1
 1859 0678 50       		.byte	0x50
 1860 0679 02       		.uleb128 0x2
 1861 067a 74       		.byte	0x74
 1862 067b 00       		.sleb128 0
 1863 067c 00       		.byte	0
 1864 067d 1F       		.uleb128 0x1f
 1865 067e 4E000000 		.4byte	.LVL7
 1866 0682 F40A0000 		.4byte	0xaf4
 1867 0686 00       		.byte	0
 1868 0687 20       		.uleb128 0x20
 1869 0688 B8050000 		.4byte	0x5b8
 1870 068c 00000000 		.4byte	.LFB44
 1871 0690 7E000000 		.4byte	.LFE44-.LFB44
 1872 0694 01       		.uleb128 0x1
 1873 0695 9C       		.byte	0x9c
 1874 0696 1A070000 		.4byte	0x71a
 1875 069a 21       		.uleb128 0x21
 1876 069b C4050000 		.4byte	0x5c4
 1877 069f 87000000 		.4byte	.LLST2
ARM GAS  /tmp/ccZaEln7.s 			page 34


 1878 06a3 21       		.uleb128 0x21
 1879 06a4 CF050000 		.4byte	0x5cf
 1880 06a8 D4000000 		.4byte	.LLST3
 1881 06ac 22       		.uleb128 0x22
 1882 06ad 00000000 		.4byte	.Ldebug_ranges0+0
 1883 06b1 00070000 		.4byte	0x700
 1884 06b5 21       		.uleb128 0x21
 1885 06b6 CF050000 		.4byte	0x5cf
 1886 06ba 0E010000 		.4byte	.LLST4
 1887 06be 21       		.uleb128 0x21
 1888 06bf C4050000 		.4byte	0x5c4
 1889 06c3 32010000 		.4byte	.LLST5
 1890 06c7 23       		.uleb128 0x23
 1891 06c8 95050000 		.4byte	0x595
 1892 06cc 54000000 		.4byte	.LBB16
 1893 06d0 18000000 		.4byte	.Ldebug_ranges0+0x18
 1894 06d4 01       		.byte	0x1
 1895 06d5 E1       		.byte	0xe1
 1896 06d6 F3060000 		.4byte	0x6f3
 1897 06da 21       		.uleb128 0x21
 1898 06db A1050000 		.4byte	0x5a1
 1899 06df 50010000 		.4byte	.LLST6
 1900 06e3 24       		.uleb128 0x24
 1901 06e4 18000000 		.4byte	.Ldebug_ranges0+0x18
 1902 06e8 25       		.uleb128 0x25
 1903 06e9 AC050000 		.4byte	0x5ac
 1904 06ed 6E010000 		.4byte	.LLST7
 1905 06f1 00       		.byte	0
 1906 06f2 00       		.byte	0
 1907 06f3 26       		.uleb128 0x26
 1908 06f4 44000000 		.4byte	.LVL13
 1909 06f8 1E       		.uleb128 0x1e
 1910 06f9 01       		.uleb128 0x1
 1911 06fa 50       		.byte	0x50
 1912 06fb 02       		.uleb128 0x2
 1913 06fc 74       		.byte	0x74
 1914 06fd 00       		.sleb128 0
 1915 06fe 00       		.byte	0
 1916 06ff 00       		.byte	0
 1917 0700 1D       		.uleb128 0x1d
 1918 0701 1E000000 		.4byte	.LVL10
 1919 0705 10070000 		.4byte	0x710
 1920 0709 1E       		.uleb128 0x1e
 1921 070a 01       		.uleb128 0x1
 1922 070b 50       		.byte	0x50
 1923 070c 02       		.uleb128 0x2
 1924 070d 74       		.byte	0x74
 1925 070e 00       		.sleb128 0
 1926 070f 00       		.byte	0
 1927 0710 1F       		.uleb128 0x1f
 1928 0711 78000000 		.4byte	.LVL17
 1929 0715 F40A0000 		.4byte	0xaf4
 1930 0719 00       		.byte	0
 1931 071a 27       		.uleb128 0x27
 1932 071b E3050000 		.4byte	.LASF116
 1933 071f 01       		.byte	0x1
 1934 0720 5C       		.byte	0x5c
ARM GAS  /tmp/ccZaEln7.s 			page 35


 1935 0721 F7030000 		.4byte	0x3f7
 1936 0725 01       		.byte	0x1
 1937 0726 41070000 		.4byte	0x741
 1938 072a 28       		.uleb128 0x28
 1939 072b 69737200 		.ascii	"isr\000"
 1940 072f 01       		.byte	0x1
 1941 0730 5C       		.byte	0x5c
 1942 0731 B4000000 		.4byte	0xb4
 1943 0735 29       		.uleb128 0x29
 1944 0736 73747300 		.ascii	"sts\000"
 1945 073a 01       		.byte	0x1
 1946 073b 5D       		.byte	0x5d
 1947 073c F7030000 		.4byte	0x3f7
 1948 0740 00       		.byte	0
 1949 0741 2A       		.uleb128 0x2a
 1950 0742 98000000 		.4byte	.LASF93
 1951 0746 01       		.byte	0x1
 1952 0747 3501     		.2byte	0x135
 1953 0749 00000000 		.4byte	.LFB47
 1954 074d 78000000 		.4byte	.LFE47-.LFB47
 1955 0751 01       		.uleb128 0x1
 1956 0752 9C       		.byte	0x9c
 1957 0753 00080000 		.4byte	0x800
 1958 0757 2B       		.uleb128 0x2b
 1959 0758 27060000 		.4byte	.LASF103
 1960 075c 01       		.byte	0x1
 1961 075d 3701     		.2byte	0x137
 1962 075f D1000000 		.4byte	0xd1
 1963 0763 81010000 		.4byte	.LLST8
 1964 0767 2C       		.uleb128 0x2c
 1965 0768 DB050000 		.4byte	0x5db
 1966 076c 08000000 		.4byte	.LBB26
 1967 0770 30000000 		.4byte	.Ldebug_ranges0+0x30
 1968 0774 01       		.byte	0x1
 1969 0775 3901     		.2byte	0x139
 1970 0777 EF070000 		.4byte	0x7ef
 1971 077b 21       		.uleb128 0x21
 1972 077c E8050000 		.4byte	0x5e8
 1973 0780 9F010000 		.4byte	.LLST9
 1974 0784 24       		.uleb128 0x24
 1975 0785 30000000 		.4byte	.Ldebug_ranges0+0x30
 1976 0789 25       		.uleb128 0x25
 1977 078a F4050000 		.4byte	0x5f4
 1978 078e C7010000 		.4byte	.LLST10
 1979 0792 25       		.uleb128 0x25
 1980 0793 00060000 		.4byte	0x600
 1981 0797 E5010000 		.4byte	.LLST11
 1982 079b 25       		.uleb128 0x25
 1983 079c 0A060000 		.4byte	0x60a
 1984 07a0 03020000 		.4byte	.LLST12
 1985 07a4 2C       		.uleb128 0x2c
 1986 07a5 1A070000 		.4byte	0x71a
 1987 07a9 22000000 		.4byte	.LBB28
 1988 07ad 48000000 		.4byte	.Ldebug_ranges0+0x48
 1989 07b1 01       		.byte	0x1
 1990 07b2 1B01     		.2byte	0x11b
 1991 07b4 D1070000 		.4byte	0x7d1
ARM GAS  /tmp/ccZaEln7.s 			page 36


 1992 07b8 21       		.uleb128 0x21
 1993 07b9 2A070000 		.4byte	0x72a
 1994 07bd 21020000 		.4byte	.LLST13
 1995 07c1 24       		.uleb128 0x24
 1996 07c2 48000000 		.4byte	.Ldebug_ranges0+0x48
 1997 07c6 25       		.uleb128 0x25
 1998 07c7 35070000 		.4byte	0x735
 1999 07cb 3F020000 		.4byte	.LLST14
 2000 07cf 00       		.byte	0
 2001 07d0 00       		.byte	0
 2002 07d1 1D       		.uleb128 0x1d
 2003 07d2 48000000 		.4byte	.LVL28
 2004 07d6 E1070000 		.4byte	0x7e1
 2005 07da 1E       		.uleb128 0x1e
 2006 07db 01       		.uleb128 0x1
 2007 07dc 50       		.byte	0x50
 2008 07dd 02       		.uleb128 0x2
 2009 07de 76       		.byte	0x76
 2010 07df 00       		.sleb128 0
 2011 07e0 00       		.byte	0
 2012 07e1 26       		.uleb128 0x26
 2013 07e2 62000000 		.4byte	.LVL30
 2014 07e6 1E       		.uleb128 0x1e
 2015 07e7 01       		.uleb128 0x1
 2016 07e8 50       		.byte	0x50
 2017 07e9 02       		.uleb128 0x2
 2018 07ea 76       		.byte	0x76
 2019 07eb 00       		.sleb128 0
 2020 07ec 00       		.byte	0
 2021 07ed 00       		.byte	0
 2022 07ee 00       		.byte	0
 2023 07ef 2D       		.uleb128 0x2d
 2024 07f0 68000000 		.4byte	.LVL31
 2025 07f4 000B0000 		.4byte	0xb00
 2026 07f8 1E       		.uleb128 0x1e
 2027 07f9 01       		.uleb128 0x1
 2028 07fa 50       		.byte	0x50
 2029 07fb 02       		.uleb128 0x2
 2030 07fc 78       		.byte	0x78
 2031 07fd 00       		.sleb128 0
 2032 07fe 00       		.byte	0
 2033 07ff 00       		.byte	0
 2034 0800 2A       		.uleb128 0x2a
 2035 0801 6E020000 		.4byte	.LASF94
 2036 0805 01       		.byte	0x1
 2037 0806 6E01     		.2byte	0x16e
 2038 0808 00000000 		.4byte	.LFB48
 2039 080c 28000000 		.4byte	.LFE48-.LFB48
 2040 0810 01       		.uleb128 0x1
 2041 0811 9C       		.byte	0x9c
 2042 0812 27080000 		.4byte	0x827
 2043 0816 2D       		.uleb128 0x2d
 2044 0817 0A000000 		.4byte	.LVL35
 2045 081b 0C0B0000 		.4byte	0xb0c
 2046 081f 1E       		.uleb128 0x1e
 2047 0820 01       		.uleb128 0x1
 2048 0821 50       		.byte	0x50
ARM GAS  /tmp/ccZaEln7.s 			page 37


 2049 0822 02       		.uleb128 0x2
 2050 0823 74       		.byte	0x74
 2051 0824 00       		.sleb128 0
 2052 0825 00       		.byte	0
 2053 0826 00       		.byte	0
 2054 0827 14       		.uleb128 0x14
 2055 0828 0B010000 		.4byte	.LASF95
 2056 082c 01       		.byte	0x1
 2057 082d 98       		.byte	0x98
 2058 082e 01       		.byte	0x1
 2059 082f 53080000 		.4byte	0x853
 2060 0833 15       		.uleb128 0x15
 2061 0834 3E040000 		.4byte	.LASF87
 2062 0838 01       		.byte	0x1
 2063 0839 98       		.byte	0x98
 2064 083a AF040000 		.4byte	0x4af
 2065 083e 29       		.uleb128 0x29
 2066 083f 63723100 		.ascii	"cr1\000"
 2067 0843 01       		.byte	0x1
 2068 0844 99       		.byte	0x99
 2069 0845 B4000000 		.4byte	0xb4
 2070 0849 29       		.uleb128 0x29
 2071 084a 7500     		.ascii	"u\000"
 2072 084c 01       		.byte	0x1
 2073 084d 9A       		.byte	0x9a
 2074 084e 8F050000 		.4byte	0x58f
 2075 0852 00       		.byte	0
 2076 0853 2E       		.uleb128 0x2e
 2077 0854 58000000 		.4byte	.LASF96
 2078 0858 01       		.byte	0x1
 2079 0859 9001     		.2byte	0x190
 2080 085b 00000000 		.4byte	.LFB49
 2081 085f F0000000 		.4byte	.LFE49-.LFB49
 2082 0863 01       		.uleb128 0x1
 2083 0864 9C       		.byte	0x9c
 2084 0865 59090000 		.4byte	0x959
 2085 0869 2F       		.uleb128 0x2f
 2086 086a 3E040000 		.4byte	.LASF87
 2087 086e 01       		.byte	0x1
 2088 086f 9001     		.2byte	0x190
 2089 0871 AF040000 		.4byte	0x4af
 2090 0875 69020000 		.4byte	.LLST15
 2091 0879 2C       		.uleb128 0x2c
 2092 087a 27080000 		.4byte	0x827
 2093 087e 0E000000 		.4byte	.LBB39
 2094 0882 60000000 		.4byte	.Ldebug_ranges0+0x60
 2095 0886 01       		.byte	0x1
 2096 0887 DD01     		.2byte	0x1dd
 2097 0889 EB080000 		.4byte	0x8eb
 2098 088d 21       		.uleb128 0x21
 2099 088e 33080000 		.4byte	0x833
 2100 0892 C1020000 		.4byte	.LLST16
 2101 0896 24       		.uleb128 0x24
 2102 0897 60000000 		.4byte	.Ldebug_ranges0+0x60
 2103 089b 25       		.uleb128 0x25
 2104 089c 3E080000 		.4byte	0x83e
 2105 08a0 EA020000 		.4byte	.LLST17
ARM GAS  /tmp/ccZaEln7.s 			page 38


 2106 08a4 25       		.uleb128 0x25
 2107 08a5 49080000 		.4byte	0x849
 2108 08a9 0E030000 		.4byte	.LLST18
 2109 08ad 23       		.uleb128 0x23
 2110 08ae 95050000 		.4byte	0x595
 2111 08b2 38000000 		.4byte	.LBB41
 2112 08b6 88000000 		.4byte	.Ldebug_ranges0+0x88
 2113 08ba 01       		.byte	0x1
 2114 08bb BB       		.byte	0xbb
 2115 08bc D9080000 		.4byte	0x8d9
 2116 08c0 21       		.uleb128 0x21
 2117 08c1 A1050000 		.4byte	0x5a1
 2118 08c5 22030000 		.4byte	.LLST19
 2119 08c9 24       		.uleb128 0x24
 2120 08ca 88000000 		.4byte	.Ldebug_ranges0+0x88
 2121 08ce 25       		.uleb128 0x25
 2122 08cf AC050000 		.4byte	0x5ac
 2123 08d3 40030000 		.4byte	.LLST20
 2124 08d7 00       		.byte	0
 2125 08d8 00       		.byte	0
 2126 08d9 2D       		.uleb128 0x2d
 2127 08da 18000000 		.4byte	.LVL39
 2128 08de 17060000 		.4byte	0x617
 2129 08e2 1E       		.uleb128 0x1e
 2130 08e3 01       		.uleb128 0x1
 2131 08e4 50       		.byte	0x50
 2132 08e5 02       		.uleb128 0x2
 2133 08e6 74       		.byte	0x74
 2134 08e7 00       		.sleb128 0
 2135 08e8 00       		.byte	0
 2136 08e9 00       		.byte	0
 2137 08ea 00       		.byte	0
 2138 08eb 30       		.uleb128 0x30
 2139 08ec AC000000 		.4byte	.LBB55
 2140 08f0 44000000 		.4byte	.LBE55-.LBB55
 2141 08f4 19       		.uleb128 0x19
 2142 08f5 6200     		.ascii	"b\000"
 2143 08f7 01       		.byte	0x1
 2144 08f8 9501     		.2byte	0x195
 2145 08fa BF000000 		.4byte	0xbf
 2146 08fe 31       		.uleb128 0x31
 2147 08ff B8000000 		.4byte	.LVL51
 2148 0903 170B0000 		.4byte	0xb17
 2149 0907 20090000 		.4byte	0x920
 2150 090b 1E       		.uleb128 0x1e
 2151 090c 01       		.uleb128 0x1
 2152 090d 51       		.byte	0x51
 2153 090e 01       		.uleb128 0x1
 2154 090f 33       		.byte	0x33
 2155 0910 1E       		.uleb128 0x1e
 2156 0911 01       		.uleb128 0x1
 2157 0912 52       		.byte	0x52
 2158 0913 05       		.uleb128 0x5
 2159 0914 03       		.byte	0x3
 2160 0915 00000000 		.4byte	uart_lld_serve_rx_end_irq
 2161 0919 1E       		.uleb128 0x1e
 2162 091a 01       		.uleb128 0x1
ARM GAS  /tmp/ccZaEln7.s 			page 39


 2163 091b 53       		.byte	0x53
 2164 091c 02       		.uleb128 0x2
 2165 091d 74       		.byte	0x74
 2166 091e 00       		.sleb128 0
 2167 091f 00       		.byte	0
 2168 0920 31       		.uleb128 0x31
 2169 0921 C4000000 		.4byte	.LVL52
 2170 0925 170B0000 		.4byte	0xb17
 2171 0929 42090000 		.4byte	0x942
 2172 092d 1E       		.uleb128 0x1e
 2173 092e 01       		.uleb128 0x1
 2174 092f 51       		.byte	0x51
 2175 0930 01       		.uleb128 0x1
 2176 0931 33       		.byte	0x33
 2177 0932 1E       		.uleb128 0x1e
 2178 0933 01       		.uleb128 0x1
 2179 0934 52       		.byte	0x52
 2180 0935 05       		.uleb128 0x5
 2181 0936 03       		.byte	0x3
 2182 0937 00000000 		.4byte	uart_lld_serve_tx_end_irq
 2183 093b 1E       		.uleb128 0x1e
 2184 093c 01       		.uleb128 0x1
 2185 093d 53       		.byte	0x53
 2186 093e 02       		.uleb128 0x2
 2187 093f 74       		.byte	0x74
 2188 0940 00       		.sleb128 0
 2189 0941 00       		.byte	0
 2190 0942 2D       		.uleb128 0x2d
 2191 0943 D8000000 		.4byte	.LVL53
 2192 0947 230B0000 		.4byte	0xb23
 2193 094b 1E       		.uleb128 0x1e
 2194 094c 01       		.uleb128 0x1
 2195 094d 50       		.byte	0x50
 2196 094e 01       		.uleb128 0x1
 2197 094f 4B       		.byte	0x4b
 2198 0950 1E       		.uleb128 0x1e
 2199 0951 01       		.uleb128 0x1
 2200 0952 51       		.byte	0x51
 2201 0953 02       		.uleb128 0x2
 2202 0954 08       		.byte	0x8
 2203 0955 C0       		.byte	0xc0
 2204 0956 00       		.byte	0
 2205 0957 00       		.byte	0
 2206 0958 00       		.byte	0
 2207 0959 2A       		.uleb128 0x2a
 2208 095a 35050000 		.4byte	.LASF97
 2209 095e 01       		.byte	0x1
 2210 095f E701     		.2byte	0x1e7
 2211 0961 00000000 		.4byte	.LFB50
 2212 0965 40000000 		.4byte	.LFE50-.LFB50
 2213 0969 01       		.uleb128 0x1
 2214 096a 9C       		.byte	0x9c
 2215 096b AA090000 		.4byte	0x9aa
 2216 096f 2F       		.uleb128 0x2f
 2217 0970 3E040000 		.4byte	.LASF87
 2218 0974 01       		.byte	0x1
 2219 0975 E701     		.2byte	0x1e7
ARM GAS  /tmp/ccZaEln7.s 			page 40


 2220 0977 AF040000 		.4byte	0x4af
 2221 097b 53030000 		.4byte	.LLST21
 2222 097f 1F       		.uleb128 0x1f
 2223 0980 10000000 		.4byte	.LVL58
 2224 0984 17060000 		.4byte	0x617
 2225 0988 1F       		.uleb128 0x1f
 2226 0989 16000000 		.4byte	.LVL59
 2227 098d 2F0B0000 		.4byte	0xb2f
 2228 0991 1F       		.uleb128 0x1f
 2229 0992 1C000000 		.4byte	.LVL60
 2230 0996 2F0B0000 		.4byte	0xb2f
 2231 099a 2D       		.uleb128 0x2d
 2232 099b 28000000 		.4byte	.LVL61
 2233 099f 3B0B0000 		.4byte	0xb3b
 2234 09a3 1E       		.uleb128 0x1e
 2235 09a4 01       		.uleb128 0x1
 2236 09a5 50       		.byte	0x50
 2237 09a6 01       		.uleb128 0x1
 2238 09a7 4B       		.byte	0x4b
 2239 09a8 00       		.byte	0
 2240 09a9 00       		.byte	0
 2241 09aa 2A       		.uleb128 0x2a
 2242 09ab B5000000 		.4byte	.LASF98
 2243 09af 01       		.byte	0x1
 2244 09b0 1302     		.2byte	0x213
 2245 09b2 00000000 		.4byte	.LFB51
 2246 09b6 1A000000 		.4byte	.LFE51-.LFB51
 2247 09ba 01       		.uleb128 0x1
 2248 09bb 9C       		.byte	0x9c
 2249 09bc ED090000 		.4byte	0x9ed
 2250 09c0 32       		.uleb128 0x32
 2251 09c1 3E040000 		.4byte	.LASF87
 2252 09c5 01       		.byte	0x1
 2253 09c6 1302     		.2byte	0x213
 2254 09c8 AF040000 		.4byte	0x4af
 2255 09cc 01       		.uleb128 0x1
 2256 09cd 50       		.byte	0x50
 2257 09ce 33       		.uleb128 0x33
 2258 09cf 6E00     		.ascii	"n\000"
 2259 09d1 01       		.byte	0x1
 2260 09d2 1302     		.2byte	0x213
 2261 09d4 2C000000 		.4byte	0x2c
 2262 09d8 95030000 		.4byte	.LLST22
 2263 09dc 2F       		.uleb128 0x2f
 2264 09dd 7C020000 		.4byte	.LASF99
 2265 09e1 01       		.byte	0x1
 2266 09e2 1302     		.2byte	0x213
 2267 09e4 ED090000 		.4byte	0x9ed
 2268 09e8 C2030000 		.4byte	.LLST23
 2269 09ec 00       		.byte	0
 2270 09ed 0D       		.uleb128 0xd
 2271 09ee 04       		.byte	0x4
 2272 09ef F3090000 		.4byte	0x9f3
 2273 09f3 34       		.uleb128 0x34
 2274 09f4 35       		.uleb128 0x35
 2275 09f5 FF040000 		.4byte	.LASF101
 2276 09f9 01       		.byte	0x1
ARM GAS  /tmp/ccZaEln7.s 			page 41


 2277 09fa 2802     		.2byte	0x228
 2278 09fc 2C000000 		.4byte	0x2c
 2279 0a00 00000000 		.4byte	.LFB52
 2280 0a04 18000000 		.4byte	.LFE52-.LFB52
 2281 0a08 01       		.uleb128 0x1
 2282 0a09 9C       		.byte	0x9c
 2283 0a0a 1F0A0000 		.4byte	0xa1f
 2284 0a0e 2F       		.uleb128 0x2f
 2285 0a0f 3E040000 		.4byte	.LASF87
 2286 0a13 01       		.byte	0x1
 2287 0a14 2802     		.2byte	0x228
 2288 0a16 AF040000 		.4byte	0x4af
 2289 0a1a E3030000 		.4byte	.LLST24
 2290 0a1e 00       		.byte	0
 2291 0a1f 2A       		.uleb128 0x2a
 2292 0a20 07060000 		.4byte	.LASF100
 2293 0a24 01       		.byte	0x1
 2294 0a25 3902     		.2byte	0x239
 2295 0a27 00000000 		.4byte	.LFB53
 2296 0a2b 2C000000 		.4byte	.LFE53-.LFB53
 2297 0a2f 01       		.uleb128 0x1
 2298 0a30 9C       		.byte	0x9c
 2299 0a31 620A0000 		.4byte	0xa62
 2300 0a35 32       		.uleb128 0x32
 2301 0a36 3E040000 		.4byte	.LASF87
 2302 0a3a 01       		.byte	0x1
 2303 0a3b 3902     		.2byte	0x239
 2304 0a3d AF040000 		.4byte	0x4af
 2305 0a41 01       		.uleb128 0x1
 2306 0a42 50       		.byte	0x50
 2307 0a43 33       		.uleb128 0x33
 2308 0a44 6E00     		.ascii	"n\000"
 2309 0a46 01       		.byte	0x1
 2310 0a47 3902     		.2byte	0x239
 2311 0a49 2C000000 		.4byte	0x2c
 2312 0a4d 04040000 		.4byte	.LLST25
 2313 0a51 2F       		.uleb128 0x2f
 2314 0a52 4D060000 		.4byte	.LASF74
 2315 0a56 01       		.byte	0x1
 2316 0a57 3902     		.2byte	0x239
 2317 0a59 DC000000 		.4byte	0xdc
 2318 0a5d 31040000 		.4byte	.LLST26
 2319 0a61 00       		.byte	0
 2320 0a62 35       		.uleb128 0x35
 2321 0a63 B6020000 		.4byte	.LASF102
 2322 0a67 01       		.byte	0x1
 2323 0a68 5102     		.2byte	0x251
 2324 0a6a 2C000000 		.4byte	0x2c
 2325 0a6e 00000000 		.4byte	.LFB54
 2326 0a72 40000000 		.4byte	.LFE54-.LFB54
 2327 0a76 01       		.uleb128 0x1
 2328 0a77 9C       		.byte	0x9c
 2329 0a78 C20A0000 		.4byte	0xac2
 2330 0a7c 2F       		.uleb128 0x2f
 2331 0a7d 3E040000 		.4byte	.LASF87
 2332 0a81 01       		.byte	0x1
 2333 0a82 5102     		.2byte	0x251
ARM GAS  /tmp/ccZaEln7.s 			page 42


 2334 0a84 AF040000 		.4byte	0x4af
 2335 0a88 52040000 		.4byte	.LLST27
 2336 0a8c 36       		.uleb128 0x36
 2337 0a8d 6E00     		.ascii	"n\000"
 2338 0a8f 01       		.byte	0x1
 2339 0a90 5202     		.2byte	0x252
 2340 0a92 2C000000 		.4byte	0x2c
 2341 0a96 01       		.uleb128 0x1
 2342 0a97 50       		.byte	0x50
 2343 0a98 37       		.uleb128 0x37
 2344 0a99 95050000 		.4byte	0x595
 2345 0a9d 18000000 		.4byte	.LBB56
 2346 0aa1 B0000000 		.4byte	.Ldebug_ranges0+0xb0
 2347 0aa5 01       		.byte	0x1
 2348 0aa6 5602     		.2byte	0x256
 2349 0aa8 21       		.uleb128 0x21
 2350 0aa9 A1050000 		.4byte	0x5a1
 2351 0aad 99040000 		.4byte	.LLST28
 2352 0ab1 24       		.uleb128 0x24
 2353 0ab2 B0000000 		.4byte	.Ldebug_ranges0+0xb0
 2354 0ab6 25       		.uleb128 0x25
 2355 0ab7 AC050000 		.4byte	0x5ac
 2356 0abb D5040000 		.4byte	.LLST29
 2357 0abf 00       		.byte	0
 2358 0ac0 00       		.byte	0
 2359 0ac1 00       		.byte	0
 2360 0ac2 38       		.uleb128 0x38
 2361 0ac3 74030000 		.4byte	0x374
 2362 0ac7 D20A0000 		.4byte	0xad2
 2363 0acb 39       		.uleb128 0x39
 2364 0acc E3000000 		.4byte	0xe3
 2365 0ad0 04       		.byte	0x4
 2366 0ad1 00       		.byte	0
 2367 0ad2 3A       		.uleb128 0x3a
 2368 0ad3 F4050000 		.4byte	.LASF104
 2369 0ad7 08       		.byte	0x8
 2370 0ad8 7801     		.2byte	0x178
 2371 0ada DE0A0000 		.4byte	0xade
 2372 0ade 10       		.uleb128 0x10
 2373 0adf C20A0000 		.4byte	0xac2
 2374 0ae3 3B       		.uleb128 0x3b
 2375 0ae4 9F030000 		.4byte	.LASF105
 2376 0ae8 01       		.byte	0x1
 2377 0ae9 40       		.byte	0x40
 2378 0aea 03040000 		.4byte	0x403
 2379 0aee 05       		.uleb128 0x5
 2380 0aef 03       		.byte	0x3
 2381 0af0 00000000 		.4byte	UARTD1
 2382 0af4 3C       		.uleb128 0x3c
 2383 0af5 7B050000 		.4byte	.LASF106
 2384 0af9 7B050000 		.4byte	.LASF106
 2385 0afd 06       		.byte	0x6
 2386 0afe 7101     		.2byte	0x171
 2387 0b00 3C       		.uleb128 0x3c
 2388 0b01 68050000 		.4byte	.LASF107
 2389 0b05 68050000 		.4byte	.LASF107
 2390 0b09 06       		.byte	0x6
ARM GAS  /tmp/ccZaEln7.s 			page 43


 2391 0b0a 7201     		.2byte	0x172
 2392 0b0c 3D       		.uleb128 0x3d
 2393 0b0d 29000000 		.4byte	.LASF108
 2394 0b11 29000000 		.4byte	.LASF108
 2395 0b15 09       		.byte	0x9
 2396 0b16 6E       		.byte	0x6e
 2397 0b17 3C       		.uleb128 0x3c
 2398 0b18 31060000 		.4byte	.LASF109
 2399 0b1c 31060000 		.4byte	.LASF109
 2400 0b20 08       		.byte	0x8
 2401 0b21 7F01     		.2byte	0x17f
 2402 0b23 3C       		.uleb128 0x3c
 2403 0b24 4C040000 		.4byte	.LASF110
 2404 0b28 4C040000 		.4byte	.LASF110
 2405 0b2c 0B       		.byte	0xb
 2406 0b2d 2301     		.2byte	0x123
 2407 0b2f 3C       		.uleb128 0x3c
 2408 0b30 64040000 		.4byte	.LASF111
 2409 0b34 64040000 		.4byte	.LASF111
 2410 0b38 08       		.byte	0x8
 2411 0b39 8301     		.2byte	0x183
 2412 0b3b 3C       		.uleb128 0x3c
 2413 0b3c CE000000 		.4byte	.LASF112
 2414 0b40 CE000000 		.4byte	.LASF112
 2415 0b44 0B       		.byte	0xb
 2416 0b45 2401     		.2byte	0x124
 2417 0b47 00       		.byte	0
 2418              		.section	.debug_abbrev,"",%progbits
 2419              	.Ldebug_abbrev0:
 2420 0000 01       		.uleb128 0x1
 2421 0001 11       		.uleb128 0x11
 2422 0002 01       		.byte	0x1
 2423 0003 25       		.uleb128 0x25
 2424 0004 0E       		.uleb128 0xe
 2425 0005 13       		.uleb128 0x13
 2426 0006 0B       		.uleb128 0xb
 2427 0007 03       		.uleb128 0x3
 2428 0008 0E       		.uleb128 0xe
 2429 0009 1B       		.uleb128 0x1b
 2430 000a 0E       		.uleb128 0xe
 2431 000b 55       		.uleb128 0x55
 2432 000c 17       		.uleb128 0x17
 2433 000d 11       		.uleb128 0x11
 2434 000e 01       		.uleb128 0x1
 2435 000f 10       		.uleb128 0x10
 2436 0010 17       		.uleb128 0x17
 2437 0011 00       		.byte	0
 2438 0012 00       		.byte	0
 2439 0013 02       		.uleb128 0x2
 2440 0014 24       		.uleb128 0x24
 2441 0015 00       		.byte	0
 2442 0016 0B       		.uleb128 0xb
 2443 0017 0B       		.uleb128 0xb
 2444 0018 3E       		.uleb128 0x3e
 2445 0019 0B       		.uleb128 0xb
 2446 001a 03       		.uleb128 0x3
 2447 001b 08       		.uleb128 0x8
ARM GAS  /tmp/ccZaEln7.s 			page 44


 2448 001c 00       		.byte	0
 2449 001d 00       		.byte	0
 2450 001e 03       		.uleb128 0x3
 2451 001f 16       		.uleb128 0x16
 2452 0020 00       		.byte	0
 2453 0021 03       		.uleb128 0x3
 2454 0022 0E       		.uleb128 0xe
 2455 0023 3A       		.uleb128 0x3a
 2456 0024 0B       		.uleb128 0xb
 2457 0025 3B       		.uleb128 0x3b
 2458 0026 0B       		.uleb128 0xb
 2459 0027 49       		.uleb128 0x49
 2460 0028 13       		.uleb128 0x13
 2461 0029 00       		.byte	0
 2462 002a 00       		.byte	0
 2463 002b 04       		.uleb128 0x4
 2464 002c 24       		.uleb128 0x24
 2465 002d 00       		.byte	0
 2466 002e 0B       		.uleb128 0xb
 2467 002f 0B       		.uleb128 0xb
 2468 0030 3E       		.uleb128 0x3e
 2469 0031 0B       		.uleb128 0xb
 2470 0032 03       		.uleb128 0x3
 2471 0033 0E       		.uleb128 0xe
 2472 0034 00       		.byte	0
 2473 0035 00       		.byte	0
 2474 0036 05       		.uleb128 0x5
 2475 0037 0F       		.uleb128 0xf
 2476 0038 00       		.byte	0
 2477 0039 0B       		.uleb128 0xb
 2478 003a 0B       		.uleb128 0xb
 2479 003b 00       		.byte	0
 2480 003c 00       		.byte	0
 2481 003d 06       		.uleb128 0x6
 2482 003e 35       		.uleb128 0x35
 2483 003f 00       		.byte	0
 2484 0040 49       		.uleb128 0x49
 2485 0041 13       		.uleb128 0x13
 2486 0042 00       		.byte	0
 2487 0043 00       		.byte	0
 2488 0044 07       		.uleb128 0x7
 2489 0045 13       		.uleb128 0x13
 2490 0046 01       		.byte	0x1
 2491 0047 0B       		.uleb128 0xb
 2492 0048 0B       		.uleb128 0xb
 2493 0049 3A       		.uleb128 0x3a
 2494 004a 0B       		.uleb128 0xb
 2495 004b 3B       		.uleb128 0x3b
 2496 004c 05       		.uleb128 0x5
 2497 004d 01       		.uleb128 0x1
 2498 004e 13       		.uleb128 0x13
 2499 004f 00       		.byte	0
 2500 0050 00       		.byte	0
 2501 0051 08       		.uleb128 0x8
 2502 0052 0D       		.uleb128 0xd
 2503 0053 00       		.byte	0
 2504 0054 03       		.uleb128 0x3
ARM GAS  /tmp/ccZaEln7.s 			page 45


 2505 0055 08       		.uleb128 0x8
 2506 0056 3A       		.uleb128 0x3a
 2507 0057 0B       		.uleb128 0xb
 2508 0058 3B       		.uleb128 0x3b
 2509 0059 05       		.uleb128 0x5
 2510 005a 49       		.uleb128 0x49
 2511 005b 13       		.uleb128 0x13
 2512 005c 38       		.uleb128 0x38
 2513 005d 0B       		.uleb128 0xb
 2514 005e 00       		.byte	0
 2515 005f 00       		.byte	0
 2516 0060 09       		.uleb128 0x9
 2517 0061 0D       		.uleb128 0xd
 2518 0062 00       		.byte	0
 2519 0063 03       		.uleb128 0x3
 2520 0064 0E       		.uleb128 0xe
 2521 0065 3A       		.uleb128 0x3a
 2522 0066 0B       		.uleb128 0xb
 2523 0067 3B       		.uleb128 0x3b
 2524 0068 05       		.uleb128 0x5
 2525 0069 49       		.uleb128 0x49
 2526 006a 13       		.uleb128 0x13
 2527 006b 38       		.uleb128 0x38
 2528 006c 0B       		.uleb128 0xb
 2529 006d 00       		.byte	0
 2530 006e 00       		.byte	0
 2531 006f 0A       		.uleb128 0xa
 2532 0070 16       		.uleb128 0x16
 2533 0071 00       		.byte	0
 2534 0072 03       		.uleb128 0x3
 2535 0073 0E       		.uleb128 0xe
 2536 0074 3A       		.uleb128 0x3a
 2537 0075 0B       		.uleb128 0xb
 2538 0076 3B       		.uleb128 0x3b
 2539 0077 05       		.uleb128 0x5
 2540 0078 49       		.uleb128 0x49
 2541 0079 13       		.uleb128 0x13
 2542 007a 00       		.byte	0
 2543 007b 00       		.byte	0
 2544 007c 0B       		.uleb128 0xb
 2545 007d 13       		.uleb128 0x13
 2546 007e 01       		.byte	0x1
 2547 007f 0B       		.uleb128 0xb
 2548 0080 0B       		.uleb128 0xb
 2549 0081 3A       		.uleb128 0x3a
 2550 0082 0B       		.uleb128 0xb
 2551 0083 3B       		.uleb128 0x3b
 2552 0084 0B       		.uleb128 0xb
 2553 0085 01       		.uleb128 0x1
 2554 0086 13       		.uleb128 0x13
 2555 0087 00       		.byte	0
 2556 0088 00       		.byte	0
 2557 0089 0C       		.uleb128 0xc
 2558 008a 0D       		.uleb128 0xd
 2559 008b 00       		.byte	0
 2560 008c 03       		.uleb128 0x3
 2561 008d 0E       		.uleb128 0xe
ARM GAS  /tmp/ccZaEln7.s 			page 46


 2562 008e 3A       		.uleb128 0x3a
 2563 008f 0B       		.uleb128 0xb
 2564 0090 3B       		.uleb128 0x3b
 2565 0091 0B       		.uleb128 0xb
 2566 0092 49       		.uleb128 0x49
 2567 0093 13       		.uleb128 0x13
 2568 0094 38       		.uleb128 0x38
 2569 0095 0B       		.uleb128 0xb
 2570 0096 00       		.byte	0
 2571 0097 00       		.byte	0
 2572 0098 0D       		.uleb128 0xd
 2573 0099 0F       		.uleb128 0xf
 2574 009a 00       		.byte	0
 2575 009b 0B       		.uleb128 0xb
 2576 009c 0B       		.uleb128 0xb
 2577 009d 49       		.uleb128 0x49
 2578 009e 13       		.uleb128 0x13
 2579 009f 00       		.byte	0
 2580 00a0 00       		.byte	0
 2581 00a1 0E       		.uleb128 0xe
 2582 00a2 15       		.uleb128 0x15
 2583 00a3 01       		.byte	0x1
 2584 00a4 27       		.uleb128 0x27
 2585 00a5 19       		.uleb128 0x19
 2586 00a6 01       		.uleb128 0x1
 2587 00a7 13       		.uleb128 0x13
 2588 00a8 00       		.byte	0
 2589 00a9 00       		.byte	0
 2590 00aa 0F       		.uleb128 0xf
 2591 00ab 05       		.uleb128 0x5
 2592 00ac 00       		.byte	0
 2593 00ad 49       		.uleb128 0x49
 2594 00ae 13       		.uleb128 0x13
 2595 00af 00       		.byte	0
 2596 00b0 00       		.byte	0
 2597 00b1 10       		.uleb128 0x10
 2598 00b2 26       		.uleb128 0x26
 2599 00b3 00       		.byte	0
 2600 00b4 49       		.uleb128 0x49
 2601 00b5 13       		.uleb128 0x13
 2602 00b6 00       		.byte	0
 2603 00b7 00       		.byte	0
 2604 00b8 11       		.uleb128 0x11
 2605 00b9 04       		.uleb128 0x4
 2606 00ba 01       		.byte	0x1
 2607 00bb 0B       		.uleb128 0xb
 2608 00bc 0B       		.uleb128 0xb
 2609 00bd 49       		.uleb128 0x49
 2610 00be 13       		.uleb128 0x13
 2611 00bf 3A       		.uleb128 0x3a
 2612 00c0 0B       		.uleb128 0xb
 2613 00c1 3B       		.uleb128 0x3b
 2614 00c2 0B       		.uleb128 0xb
 2615 00c3 01       		.uleb128 0x1
 2616 00c4 13       		.uleb128 0x13
 2617 00c5 00       		.byte	0
 2618 00c6 00       		.byte	0
ARM GAS  /tmp/ccZaEln7.s 			page 47


 2619 00c7 12       		.uleb128 0x12
 2620 00c8 28       		.uleb128 0x28
 2621 00c9 00       		.byte	0
 2622 00ca 03       		.uleb128 0x3
 2623 00cb 0E       		.uleb128 0xe
 2624 00cc 1C       		.uleb128 0x1c
 2625 00cd 0B       		.uleb128 0xb
 2626 00ce 00       		.byte	0
 2627 00cf 00       		.byte	0
 2628 00d0 13       		.uleb128 0x13
 2629 00d1 13       		.uleb128 0x13
 2630 00d2 01       		.byte	0x1
 2631 00d3 03       		.uleb128 0x3
 2632 00d4 0E       		.uleb128 0xe
 2633 00d5 0B       		.uleb128 0xb
 2634 00d6 0B       		.uleb128 0xb
 2635 00d7 3A       		.uleb128 0x3a
 2636 00d8 0B       		.uleb128 0xb
 2637 00d9 3B       		.uleb128 0x3b
 2638 00da 05       		.uleb128 0x5
 2639 00db 01       		.uleb128 0x1
 2640 00dc 13       		.uleb128 0x13
 2641 00dd 00       		.byte	0
 2642 00de 00       		.byte	0
 2643 00df 14       		.uleb128 0x14
 2644 00e0 2E       		.uleb128 0x2e
 2645 00e1 01       		.byte	0x1
 2646 00e2 03       		.uleb128 0x3
 2647 00e3 0E       		.uleb128 0xe
 2648 00e4 3A       		.uleb128 0x3a
 2649 00e5 0B       		.uleb128 0xb
 2650 00e6 3B       		.uleb128 0x3b
 2651 00e7 0B       		.uleb128 0xb
 2652 00e8 27       		.uleb128 0x27
 2653 00e9 19       		.uleb128 0x19
 2654 00ea 20       		.uleb128 0x20
 2655 00eb 0B       		.uleb128 0xb
 2656 00ec 01       		.uleb128 0x1
 2657 00ed 13       		.uleb128 0x13
 2658 00ee 00       		.byte	0
 2659 00ef 00       		.byte	0
 2660 00f0 15       		.uleb128 0x15
 2661 00f1 05       		.uleb128 0x5
 2662 00f2 00       		.byte	0
 2663 00f3 03       		.uleb128 0x3
 2664 00f4 0E       		.uleb128 0xe
 2665 00f5 3A       		.uleb128 0x3a
 2666 00f6 0B       		.uleb128 0xb
 2667 00f7 3B       		.uleb128 0x3b
 2668 00f8 0B       		.uleb128 0xb
 2669 00f9 49       		.uleb128 0x49
 2670 00fa 13       		.uleb128 0x13
 2671 00fb 00       		.byte	0
 2672 00fc 00       		.byte	0
 2673 00fd 16       		.uleb128 0x16
 2674 00fe 34       		.uleb128 0x34
 2675 00ff 00       		.byte	0
ARM GAS  /tmp/ccZaEln7.s 			page 48


 2676 0100 03       		.uleb128 0x3
 2677 0101 0E       		.uleb128 0xe
 2678 0102 3A       		.uleb128 0x3a
 2679 0103 0B       		.uleb128 0xb
 2680 0104 3B       		.uleb128 0x3b
 2681 0105 0B       		.uleb128 0xb
 2682 0106 49       		.uleb128 0x49
 2683 0107 13       		.uleb128 0x13
 2684 0108 00       		.byte	0
 2685 0109 00       		.byte	0
 2686 010a 17       		.uleb128 0x17
 2687 010b 2E       		.uleb128 0x2e
 2688 010c 01       		.byte	0x1
 2689 010d 03       		.uleb128 0x3
 2690 010e 0E       		.uleb128 0xe
 2691 010f 3A       		.uleb128 0x3a
 2692 0110 0B       		.uleb128 0xb
 2693 0111 3B       		.uleb128 0x3b
 2694 0112 05       		.uleb128 0x5
 2695 0113 27       		.uleb128 0x27
 2696 0114 19       		.uleb128 0x19
 2697 0115 20       		.uleb128 0x20
 2698 0116 0B       		.uleb128 0xb
 2699 0117 01       		.uleb128 0x1
 2700 0118 13       		.uleb128 0x13
 2701 0119 00       		.byte	0
 2702 011a 00       		.byte	0
 2703 011b 18       		.uleb128 0x18
 2704 011c 05       		.uleb128 0x5
 2705 011d 00       		.byte	0
 2706 011e 03       		.uleb128 0x3
 2707 011f 0E       		.uleb128 0xe
 2708 0120 3A       		.uleb128 0x3a
 2709 0121 0B       		.uleb128 0xb
 2710 0122 3B       		.uleb128 0x3b
 2711 0123 05       		.uleb128 0x5
 2712 0124 49       		.uleb128 0x49
 2713 0125 13       		.uleb128 0x13
 2714 0126 00       		.byte	0
 2715 0127 00       		.byte	0
 2716 0128 19       		.uleb128 0x19
 2717 0129 34       		.uleb128 0x34
 2718 012a 00       		.byte	0
 2719 012b 03       		.uleb128 0x3
 2720 012c 08       		.uleb128 0x8
 2721 012d 3A       		.uleb128 0x3a
 2722 012e 0B       		.uleb128 0xb
 2723 012f 3B       		.uleb128 0x3b
 2724 0130 05       		.uleb128 0x5
 2725 0131 49       		.uleb128 0x49
 2726 0132 13       		.uleb128 0x13
 2727 0133 00       		.byte	0
 2728 0134 00       		.byte	0
 2729 0135 1A       		.uleb128 0x1a
 2730 0136 2E       		.uleb128 0x2e
 2731 0137 01       		.byte	0x1
 2732 0138 03       		.uleb128 0x3
ARM GAS  /tmp/ccZaEln7.s 			page 49


 2733 0139 0E       		.uleb128 0xe
 2734 013a 3A       		.uleb128 0x3a
 2735 013b 0B       		.uleb128 0xb
 2736 013c 3B       		.uleb128 0x3b
 2737 013d 0B       		.uleb128 0xb
 2738 013e 27       		.uleb128 0x27
 2739 013f 19       		.uleb128 0x19
 2740 0140 11       		.uleb128 0x11
 2741 0141 01       		.uleb128 0x1
 2742 0142 12       		.uleb128 0x12
 2743 0143 06       		.uleb128 0x6
 2744 0144 40       		.uleb128 0x40
 2745 0145 18       		.uleb128 0x18
 2746 0146 9742     		.uleb128 0x2117
 2747 0148 19       		.uleb128 0x19
 2748 0149 01       		.uleb128 0x1
 2749 014a 13       		.uleb128 0x13
 2750 014b 00       		.byte	0
 2751 014c 00       		.byte	0
 2752 014d 1B       		.uleb128 0x1b
 2753 014e 05       		.uleb128 0x5
 2754 014f 00       		.byte	0
 2755 0150 03       		.uleb128 0x3
 2756 0151 0E       		.uleb128 0xe
 2757 0152 3A       		.uleb128 0x3a
 2758 0153 0B       		.uleb128 0xb
 2759 0154 3B       		.uleb128 0x3b
 2760 0155 0B       		.uleb128 0xb
 2761 0156 49       		.uleb128 0x49
 2762 0157 13       		.uleb128 0x13
 2763 0158 02       		.uleb128 0x2
 2764 0159 18       		.uleb128 0x18
 2765 015a 00       		.byte	0
 2766 015b 00       		.byte	0
 2767 015c 1C       		.uleb128 0x1c
 2768 015d 05       		.uleb128 0x5
 2769 015e 00       		.byte	0
 2770 015f 03       		.uleb128 0x3
 2771 0160 0E       		.uleb128 0xe
 2772 0161 3A       		.uleb128 0x3a
 2773 0162 0B       		.uleb128 0xb
 2774 0163 3B       		.uleb128 0x3b
 2775 0164 0B       		.uleb128 0xb
 2776 0165 49       		.uleb128 0x49
 2777 0166 13       		.uleb128 0x13
 2778 0167 02       		.uleb128 0x2
 2779 0168 17       		.uleb128 0x17
 2780 0169 00       		.byte	0
 2781 016a 00       		.byte	0
 2782 016b 1D       		.uleb128 0x1d
 2783 016c 898201   		.uleb128 0x4109
 2784 016f 01       		.byte	0x1
 2785 0170 11       		.uleb128 0x11
 2786 0171 01       		.uleb128 0x1
 2787 0172 01       		.uleb128 0x1
 2788 0173 13       		.uleb128 0x13
 2789 0174 00       		.byte	0
ARM GAS  /tmp/ccZaEln7.s 			page 50


 2790 0175 00       		.byte	0
 2791 0176 1E       		.uleb128 0x1e
 2792 0177 8A8201   		.uleb128 0x410a
 2793 017a 00       		.byte	0
 2794 017b 02       		.uleb128 0x2
 2795 017c 18       		.uleb128 0x18
 2796 017d 9142     		.uleb128 0x2111
 2797 017f 18       		.uleb128 0x18
 2798 0180 00       		.byte	0
 2799 0181 00       		.byte	0
 2800 0182 1F       		.uleb128 0x1f
 2801 0183 898201   		.uleb128 0x4109
 2802 0186 00       		.byte	0
 2803 0187 11       		.uleb128 0x11
 2804 0188 01       		.uleb128 0x1
 2805 0189 31       		.uleb128 0x31
 2806 018a 13       		.uleb128 0x13
 2807 018b 00       		.byte	0
 2808 018c 00       		.byte	0
 2809 018d 20       		.uleb128 0x20
 2810 018e 2E       		.uleb128 0x2e
 2811 018f 01       		.byte	0x1
 2812 0190 31       		.uleb128 0x31
 2813 0191 13       		.uleb128 0x13
 2814 0192 11       		.uleb128 0x11
 2815 0193 01       		.uleb128 0x1
 2816 0194 12       		.uleb128 0x12
 2817 0195 06       		.uleb128 0x6
 2818 0196 40       		.uleb128 0x40
 2819 0197 18       		.uleb128 0x18
 2820 0198 9742     		.uleb128 0x2117
 2821 019a 19       		.uleb128 0x19
 2822 019b 01       		.uleb128 0x1
 2823 019c 13       		.uleb128 0x13
 2824 019d 00       		.byte	0
 2825 019e 00       		.byte	0
 2826 019f 21       		.uleb128 0x21
 2827 01a0 05       		.uleb128 0x5
 2828 01a1 00       		.byte	0
 2829 01a2 31       		.uleb128 0x31
 2830 01a3 13       		.uleb128 0x13
 2831 01a4 02       		.uleb128 0x2
 2832 01a5 17       		.uleb128 0x17
 2833 01a6 00       		.byte	0
 2834 01a7 00       		.byte	0
 2835 01a8 22       		.uleb128 0x22
 2836 01a9 0B       		.uleb128 0xb
 2837 01aa 01       		.byte	0x1
 2838 01ab 55       		.uleb128 0x55
 2839 01ac 17       		.uleb128 0x17
 2840 01ad 01       		.uleb128 0x1
 2841 01ae 13       		.uleb128 0x13
 2842 01af 00       		.byte	0
 2843 01b0 00       		.byte	0
 2844 01b1 23       		.uleb128 0x23
 2845 01b2 1D       		.uleb128 0x1d
 2846 01b3 01       		.byte	0x1
ARM GAS  /tmp/ccZaEln7.s 			page 51


 2847 01b4 31       		.uleb128 0x31
 2848 01b5 13       		.uleb128 0x13
 2849 01b6 52       		.uleb128 0x52
 2850 01b7 01       		.uleb128 0x1
 2851 01b8 55       		.uleb128 0x55
 2852 01b9 17       		.uleb128 0x17
 2853 01ba 58       		.uleb128 0x58
 2854 01bb 0B       		.uleb128 0xb
 2855 01bc 59       		.uleb128 0x59
 2856 01bd 0B       		.uleb128 0xb
 2857 01be 01       		.uleb128 0x1
 2858 01bf 13       		.uleb128 0x13
 2859 01c0 00       		.byte	0
 2860 01c1 00       		.byte	0
 2861 01c2 24       		.uleb128 0x24
 2862 01c3 0B       		.uleb128 0xb
 2863 01c4 01       		.byte	0x1
 2864 01c5 55       		.uleb128 0x55
 2865 01c6 17       		.uleb128 0x17
 2866 01c7 00       		.byte	0
 2867 01c8 00       		.byte	0
 2868 01c9 25       		.uleb128 0x25
 2869 01ca 34       		.uleb128 0x34
 2870 01cb 00       		.byte	0
 2871 01cc 31       		.uleb128 0x31
 2872 01cd 13       		.uleb128 0x13
 2873 01ce 02       		.uleb128 0x2
 2874 01cf 17       		.uleb128 0x17
 2875 01d0 00       		.byte	0
 2876 01d1 00       		.byte	0
 2877 01d2 26       		.uleb128 0x26
 2878 01d3 898201   		.uleb128 0x4109
 2879 01d6 01       		.byte	0x1
 2880 01d7 11       		.uleb128 0x11
 2881 01d8 01       		.uleb128 0x1
 2882 01d9 00       		.byte	0
 2883 01da 00       		.byte	0
 2884 01db 27       		.uleb128 0x27
 2885 01dc 2E       		.uleb128 0x2e
 2886 01dd 01       		.byte	0x1
 2887 01de 03       		.uleb128 0x3
 2888 01df 0E       		.uleb128 0xe
 2889 01e0 3A       		.uleb128 0x3a
 2890 01e1 0B       		.uleb128 0xb
 2891 01e2 3B       		.uleb128 0x3b
 2892 01e3 0B       		.uleb128 0xb
 2893 01e4 27       		.uleb128 0x27
 2894 01e5 19       		.uleb128 0x19
 2895 01e6 49       		.uleb128 0x49
 2896 01e7 13       		.uleb128 0x13
 2897 01e8 20       		.uleb128 0x20
 2898 01e9 0B       		.uleb128 0xb
 2899 01ea 01       		.uleb128 0x1
 2900 01eb 13       		.uleb128 0x13
 2901 01ec 00       		.byte	0
 2902 01ed 00       		.byte	0
 2903 01ee 28       		.uleb128 0x28
ARM GAS  /tmp/ccZaEln7.s 			page 52


 2904 01ef 05       		.uleb128 0x5
 2905 01f0 00       		.byte	0
 2906 01f1 03       		.uleb128 0x3
 2907 01f2 08       		.uleb128 0x8
 2908 01f3 3A       		.uleb128 0x3a
 2909 01f4 0B       		.uleb128 0xb
 2910 01f5 3B       		.uleb128 0x3b
 2911 01f6 0B       		.uleb128 0xb
 2912 01f7 49       		.uleb128 0x49
 2913 01f8 13       		.uleb128 0x13
 2914 01f9 00       		.byte	0
 2915 01fa 00       		.byte	0
 2916 01fb 29       		.uleb128 0x29
 2917 01fc 34       		.uleb128 0x34
 2918 01fd 00       		.byte	0
 2919 01fe 03       		.uleb128 0x3
 2920 01ff 08       		.uleb128 0x8
 2921 0200 3A       		.uleb128 0x3a
 2922 0201 0B       		.uleb128 0xb
 2923 0202 3B       		.uleb128 0x3b
 2924 0203 0B       		.uleb128 0xb
 2925 0204 49       		.uleb128 0x49
 2926 0205 13       		.uleb128 0x13
 2927 0206 00       		.byte	0
 2928 0207 00       		.byte	0
 2929 0208 2A       		.uleb128 0x2a
 2930 0209 2E       		.uleb128 0x2e
 2931 020a 01       		.byte	0x1
 2932 020b 3F       		.uleb128 0x3f
 2933 020c 19       		.uleb128 0x19
 2934 020d 03       		.uleb128 0x3
 2935 020e 0E       		.uleb128 0xe
 2936 020f 3A       		.uleb128 0x3a
 2937 0210 0B       		.uleb128 0xb
 2938 0211 3B       		.uleb128 0x3b
 2939 0212 05       		.uleb128 0x5
 2940 0213 27       		.uleb128 0x27
 2941 0214 19       		.uleb128 0x19
 2942 0215 11       		.uleb128 0x11
 2943 0216 01       		.uleb128 0x1
 2944 0217 12       		.uleb128 0x12
 2945 0218 06       		.uleb128 0x6
 2946 0219 40       		.uleb128 0x40
 2947 021a 18       		.uleb128 0x18
 2948 021b 9742     		.uleb128 0x2117
 2949 021d 19       		.uleb128 0x19
 2950 021e 01       		.uleb128 0x1
 2951 021f 13       		.uleb128 0x13
 2952 0220 00       		.byte	0
 2953 0221 00       		.byte	0
 2954 0222 2B       		.uleb128 0x2b
 2955 0223 34       		.uleb128 0x34
 2956 0224 00       		.byte	0
 2957 0225 03       		.uleb128 0x3
 2958 0226 0E       		.uleb128 0xe
 2959 0227 3A       		.uleb128 0x3a
 2960 0228 0B       		.uleb128 0xb
ARM GAS  /tmp/ccZaEln7.s 			page 53


 2961 0229 3B       		.uleb128 0x3b
 2962 022a 05       		.uleb128 0x5
 2963 022b 49       		.uleb128 0x49
 2964 022c 13       		.uleb128 0x13
 2965 022d 02       		.uleb128 0x2
 2966 022e 17       		.uleb128 0x17
 2967 022f 00       		.byte	0
 2968 0230 00       		.byte	0
 2969 0231 2C       		.uleb128 0x2c
 2970 0232 1D       		.uleb128 0x1d
 2971 0233 01       		.byte	0x1
 2972 0234 31       		.uleb128 0x31
 2973 0235 13       		.uleb128 0x13
 2974 0236 52       		.uleb128 0x52
 2975 0237 01       		.uleb128 0x1
 2976 0238 55       		.uleb128 0x55
 2977 0239 17       		.uleb128 0x17
 2978 023a 58       		.uleb128 0x58
 2979 023b 0B       		.uleb128 0xb
 2980 023c 59       		.uleb128 0x59
 2981 023d 05       		.uleb128 0x5
 2982 023e 01       		.uleb128 0x1
 2983 023f 13       		.uleb128 0x13
 2984 0240 00       		.byte	0
 2985 0241 00       		.byte	0
 2986 0242 2D       		.uleb128 0x2d
 2987 0243 898201   		.uleb128 0x4109
 2988 0246 01       		.byte	0x1
 2989 0247 11       		.uleb128 0x11
 2990 0248 01       		.uleb128 0x1
 2991 0249 31       		.uleb128 0x31
 2992 024a 13       		.uleb128 0x13
 2993 024b 00       		.byte	0
 2994 024c 00       		.byte	0
 2995 024d 2E       		.uleb128 0x2e
 2996 024e 2E       		.uleb128 0x2e
 2997 024f 01       		.byte	0x1
 2998 0250 3F       		.uleb128 0x3f
 2999 0251 19       		.uleb128 0x19
 3000 0252 03       		.uleb128 0x3
 3001 0253 0E       		.uleb128 0xe
 3002 0254 3A       		.uleb128 0x3a
 3003 0255 0B       		.uleb128 0xb
 3004 0256 3B       		.uleb128 0x3b
 3005 0257 05       		.uleb128 0x5
 3006 0258 27       		.uleb128 0x27
 3007 0259 19       		.uleb128 0x19
 3008 025a 11       		.uleb128 0x11
 3009 025b 01       		.uleb128 0x1
 3010 025c 12       		.uleb128 0x12
 3011 025d 06       		.uleb128 0x6
 3012 025e 40       		.uleb128 0x40
 3013 025f 18       		.uleb128 0x18
 3014 0260 9642     		.uleb128 0x2116
 3015 0262 19       		.uleb128 0x19
 3016 0263 01       		.uleb128 0x1
 3017 0264 13       		.uleb128 0x13
ARM GAS  /tmp/ccZaEln7.s 			page 54


 3018 0265 00       		.byte	0
 3019 0266 00       		.byte	0
 3020 0267 2F       		.uleb128 0x2f
 3021 0268 05       		.uleb128 0x5
 3022 0269 00       		.byte	0
 3023 026a 03       		.uleb128 0x3
 3024 026b 0E       		.uleb128 0xe
 3025 026c 3A       		.uleb128 0x3a
 3026 026d 0B       		.uleb128 0xb
 3027 026e 3B       		.uleb128 0x3b
 3028 026f 05       		.uleb128 0x5
 3029 0270 49       		.uleb128 0x49
 3030 0271 13       		.uleb128 0x13
 3031 0272 02       		.uleb128 0x2
 3032 0273 17       		.uleb128 0x17
 3033 0274 00       		.byte	0
 3034 0275 00       		.byte	0
 3035 0276 30       		.uleb128 0x30
 3036 0277 0B       		.uleb128 0xb
 3037 0278 01       		.byte	0x1
 3038 0279 11       		.uleb128 0x11
 3039 027a 01       		.uleb128 0x1
 3040 027b 12       		.uleb128 0x12
 3041 027c 06       		.uleb128 0x6
 3042 027d 00       		.byte	0
 3043 027e 00       		.byte	0
 3044 027f 31       		.uleb128 0x31
 3045 0280 898201   		.uleb128 0x4109
 3046 0283 01       		.byte	0x1
 3047 0284 11       		.uleb128 0x11
 3048 0285 01       		.uleb128 0x1
 3049 0286 31       		.uleb128 0x31
 3050 0287 13       		.uleb128 0x13
 3051 0288 01       		.uleb128 0x1
 3052 0289 13       		.uleb128 0x13
 3053 028a 00       		.byte	0
 3054 028b 00       		.byte	0
 3055 028c 32       		.uleb128 0x32
 3056 028d 05       		.uleb128 0x5
 3057 028e 00       		.byte	0
 3058 028f 03       		.uleb128 0x3
 3059 0290 0E       		.uleb128 0xe
 3060 0291 3A       		.uleb128 0x3a
 3061 0292 0B       		.uleb128 0xb
 3062 0293 3B       		.uleb128 0x3b
 3063 0294 05       		.uleb128 0x5
 3064 0295 49       		.uleb128 0x49
 3065 0296 13       		.uleb128 0x13
 3066 0297 02       		.uleb128 0x2
 3067 0298 18       		.uleb128 0x18
 3068 0299 00       		.byte	0
 3069 029a 00       		.byte	0
 3070 029b 33       		.uleb128 0x33
 3071 029c 05       		.uleb128 0x5
 3072 029d 00       		.byte	0
 3073 029e 03       		.uleb128 0x3
 3074 029f 08       		.uleb128 0x8
ARM GAS  /tmp/ccZaEln7.s 			page 55


 3075 02a0 3A       		.uleb128 0x3a
 3076 02a1 0B       		.uleb128 0xb
 3077 02a2 3B       		.uleb128 0x3b
 3078 02a3 05       		.uleb128 0x5
 3079 02a4 49       		.uleb128 0x49
 3080 02a5 13       		.uleb128 0x13
 3081 02a6 02       		.uleb128 0x2
 3082 02a7 17       		.uleb128 0x17
 3083 02a8 00       		.byte	0
 3084 02a9 00       		.byte	0
 3085 02aa 34       		.uleb128 0x34
 3086 02ab 26       		.uleb128 0x26
 3087 02ac 00       		.byte	0
 3088 02ad 00       		.byte	0
 3089 02ae 00       		.byte	0
 3090 02af 35       		.uleb128 0x35
 3091 02b0 2E       		.uleb128 0x2e
 3092 02b1 01       		.byte	0x1
 3093 02b2 3F       		.uleb128 0x3f
 3094 02b3 19       		.uleb128 0x19
 3095 02b4 03       		.uleb128 0x3
 3096 02b5 0E       		.uleb128 0xe
 3097 02b6 3A       		.uleb128 0x3a
 3098 02b7 0B       		.uleb128 0xb
 3099 02b8 3B       		.uleb128 0x3b
 3100 02b9 05       		.uleb128 0x5
 3101 02ba 27       		.uleb128 0x27
 3102 02bb 19       		.uleb128 0x19
 3103 02bc 49       		.uleb128 0x49
 3104 02bd 13       		.uleb128 0x13
 3105 02be 11       		.uleb128 0x11
 3106 02bf 01       		.uleb128 0x1
 3107 02c0 12       		.uleb128 0x12
 3108 02c1 06       		.uleb128 0x6
 3109 02c2 40       		.uleb128 0x40
 3110 02c3 18       		.uleb128 0x18
 3111 02c4 9742     		.uleb128 0x2117
 3112 02c6 19       		.uleb128 0x19
 3113 02c7 01       		.uleb128 0x1
 3114 02c8 13       		.uleb128 0x13
 3115 02c9 00       		.byte	0
 3116 02ca 00       		.byte	0
 3117 02cb 36       		.uleb128 0x36
 3118 02cc 34       		.uleb128 0x34
 3119 02cd 00       		.byte	0
 3120 02ce 03       		.uleb128 0x3
 3121 02cf 08       		.uleb128 0x8
 3122 02d0 3A       		.uleb128 0x3a
 3123 02d1 0B       		.uleb128 0xb
 3124 02d2 3B       		.uleb128 0x3b
 3125 02d3 05       		.uleb128 0x5
 3126 02d4 49       		.uleb128 0x49
 3127 02d5 13       		.uleb128 0x13
 3128 02d6 02       		.uleb128 0x2
 3129 02d7 18       		.uleb128 0x18
 3130 02d8 00       		.byte	0
 3131 02d9 00       		.byte	0
ARM GAS  /tmp/ccZaEln7.s 			page 56


 3132 02da 37       		.uleb128 0x37
 3133 02db 1D       		.uleb128 0x1d
 3134 02dc 01       		.byte	0x1
 3135 02dd 31       		.uleb128 0x31
 3136 02de 13       		.uleb128 0x13
 3137 02df 52       		.uleb128 0x52
 3138 02e0 01       		.uleb128 0x1
 3139 02e1 55       		.uleb128 0x55
 3140 02e2 17       		.uleb128 0x17
 3141 02e3 58       		.uleb128 0x58
 3142 02e4 0B       		.uleb128 0xb
 3143 02e5 59       		.uleb128 0x59
 3144 02e6 05       		.uleb128 0x5
 3145 02e7 00       		.byte	0
 3146 02e8 00       		.byte	0
 3147 02e9 38       		.uleb128 0x38
 3148 02ea 01       		.uleb128 0x1
 3149 02eb 01       		.byte	0x1
 3150 02ec 49       		.uleb128 0x49
 3151 02ed 13       		.uleb128 0x13
 3152 02ee 01       		.uleb128 0x1
 3153 02ef 13       		.uleb128 0x13
 3154 02f0 00       		.byte	0
 3155 02f1 00       		.byte	0
 3156 02f2 39       		.uleb128 0x39
 3157 02f3 21       		.uleb128 0x21
 3158 02f4 00       		.byte	0
 3159 02f5 49       		.uleb128 0x49
 3160 02f6 13       		.uleb128 0x13
 3161 02f7 2F       		.uleb128 0x2f
 3162 02f8 0B       		.uleb128 0xb
 3163 02f9 00       		.byte	0
 3164 02fa 00       		.byte	0
 3165 02fb 3A       		.uleb128 0x3a
 3166 02fc 34       		.uleb128 0x34
 3167 02fd 00       		.byte	0
 3168 02fe 03       		.uleb128 0x3
 3169 02ff 0E       		.uleb128 0xe
 3170 0300 3A       		.uleb128 0x3a
 3171 0301 0B       		.uleb128 0xb
 3172 0302 3B       		.uleb128 0x3b
 3173 0303 05       		.uleb128 0x5
 3174 0304 49       		.uleb128 0x49
 3175 0305 13       		.uleb128 0x13
 3176 0306 3F       		.uleb128 0x3f
 3177 0307 19       		.uleb128 0x19
 3178 0308 3C       		.uleb128 0x3c
 3179 0309 19       		.uleb128 0x19
 3180 030a 00       		.byte	0
 3181 030b 00       		.byte	0
 3182 030c 3B       		.uleb128 0x3b
 3183 030d 34       		.uleb128 0x34
 3184 030e 00       		.byte	0
 3185 030f 03       		.uleb128 0x3
 3186 0310 0E       		.uleb128 0xe
 3187 0311 3A       		.uleb128 0x3a
 3188 0312 0B       		.uleb128 0xb
ARM GAS  /tmp/ccZaEln7.s 			page 57


 3189 0313 3B       		.uleb128 0x3b
 3190 0314 0B       		.uleb128 0xb
 3191 0315 49       		.uleb128 0x49
 3192 0316 13       		.uleb128 0x13
 3193 0317 3F       		.uleb128 0x3f
 3194 0318 19       		.uleb128 0x19
 3195 0319 02       		.uleb128 0x2
 3196 031a 18       		.uleb128 0x18
 3197 031b 00       		.byte	0
 3198 031c 00       		.byte	0
 3199 031d 3C       		.uleb128 0x3c
 3200 031e 2E       		.uleb128 0x2e
 3201 031f 00       		.byte	0
 3202 0320 3F       		.uleb128 0x3f
 3203 0321 19       		.uleb128 0x19
 3204 0322 3C       		.uleb128 0x3c
 3205 0323 19       		.uleb128 0x19
 3206 0324 6E       		.uleb128 0x6e
 3207 0325 0E       		.uleb128 0xe
 3208 0326 03       		.uleb128 0x3
 3209 0327 0E       		.uleb128 0xe
 3210 0328 3A       		.uleb128 0x3a
 3211 0329 0B       		.uleb128 0xb
 3212 032a 3B       		.uleb128 0x3b
 3213 032b 05       		.uleb128 0x5
 3214 032c 00       		.byte	0
 3215 032d 00       		.byte	0
 3216 032e 3D       		.uleb128 0x3d
 3217 032f 2E       		.uleb128 0x2e
 3218 0330 00       		.byte	0
 3219 0331 3F       		.uleb128 0x3f
 3220 0332 19       		.uleb128 0x19
 3221 0333 3C       		.uleb128 0x3c
 3222 0334 19       		.uleb128 0x19
 3223 0335 6E       		.uleb128 0x6e
 3224 0336 0E       		.uleb128 0xe
 3225 0337 03       		.uleb128 0x3
 3226 0338 0E       		.uleb128 0xe
 3227 0339 3A       		.uleb128 0x3a
 3228 033a 0B       		.uleb128 0xb
 3229 033b 3B       		.uleb128 0x3b
 3230 033c 0B       		.uleb128 0xb
 3231 033d 00       		.byte	0
 3232 033e 00       		.byte	0
 3233 033f 00       		.byte	0
 3234              		.section	.debug_loc,"",%progbits
 3235              	.Ldebug_loc0:
 3236              	.LLST0:
 3237 0000 00000000 		.4byte	.LVL1
 3238 0004 08000000 		.4byte	.LVL2
 3239 0008 0100     		.2byte	0x1
 3240 000a 50       		.byte	0x50
 3241 000b 08000000 		.4byte	.LVL2
 3242 000f 42000000 		.4byte	.LVL4
 3243 0013 0100     		.2byte	0x1
 3244 0015 54       		.byte	0x54
 3245 0016 42000000 		.4byte	.LVL4
ARM GAS  /tmp/ccZaEln7.s 			page 58


 3246 001a 44000000 		.4byte	.LVL5
 3247 001e 0400     		.2byte	0x4
 3248 0020 F3       		.byte	0xf3
 3249 0021 01       		.uleb128 0x1
 3250 0022 50       		.byte	0x50
 3251 0023 9F       		.byte	0x9f
 3252 0024 44000000 		.4byte	.LVL5
 3253 0028 4A000000 		.4byte	.LVL6
 3254 002c 0100     		.2byte	0x1
 3255 002e 54       		.byte	0x54
 3256 002f 4A000000 		.4byte	.LVL6
 3257 0033 4D000000 		.4byte	.LVL7-1
 3258 0037 0100     		.2byte	0x1
 3259 0039 50       		.byte	0x50
 3260 003a 4D000000 		.4byte	.LVL7-1
 3261 003e 50000000 		.4byte	.LFE45
 3262 0042 0100     		.2byte	0x1
 3263 0044 54       		.byte	0x54
 3264 0045 00000000 		.4byte	0
 3265 0049 00000000 		.4byte	0
 3266              	.LLST1:
 3267 004d 00000000 		.4byte	.LVL1
 3268 0051 08000000 		.4byte	.LVL2
 3269 0055 0100     		.2byte	0x1
 3270 0057 51       		.byte	0x51
 3271 0058 08000000 		.4byte	.LVL2
 3272 005c 4A000000 		.4byte	.LVL6
 3273 0060 0400     		.2byte	0x4
 3274 0062 F3       		.byte	0xf3
 3275 0063 01       		.uleb128 0x1
 3276 0064 51       		.byte	0x51
 3277 0065 9F       		.byte	0x9f
 3278 0066 4A000000 		.4byte	.LVL6
 3279 006a 4D000000 		.4byte	.LVL7-1
 3280 006e 0100     		.2byte	0x1
 3281 0070 51       		.byte	0x51
 3282 0071 4D000000 		.4byte	.LVL7-1
 3283 0075 50000000 		.4byte	.LFE45
 3284 0079 0400     		.2byte	0x4
 3285 007b F3       		.byte	0xf3
 3286 007c 01       		.uleb128 0x1
 3287 007d 51       		.byte	0x51
 3288 007e 9F       		.byte	0x9f
 3289 007f 00000000 		.4byte	0
 3290 0083 00000000 		.4byte	0
 3291              	.LLST2:
 3292 0087 00000000 		.4byte	.LVL8
 3293 008b 08000000 		.4byte	.LVL9
 3294 008f 0100     		.2byte	0x1
 3295 0091 50       		.byte	0x50
 3296 0092 08000000 		.4byte	.LVL9
 3297 0096 1E000000 		.4byte	.LVL11
 3298 009a 0100     		.2byte	0x1
 3299 009c 54       		.byte	0x54
 3300 009d 1E000000 		.4byte	.LVL11
 3301 00a1 20000000 		.4byte	.LVL12
 3302 00a5 0400     		.2byte	0x4
ARM GAS  /tmp/ccZaEln7.s 			page 59


 3303 00a7 F3       		.byte	0xf3
 3304 00a8 01       		.uleb128 0x1
 3305 00a9 50       		.byte	0x50
 3306 00aa 9F       		.byte	0x9f
 3307 00ab 20000000 		.4byte	.LVL12
 3308 00af 74000000 		.4byte	.LVL16
 3309 00b3 0100     		.2byte	0x1
 3310 00b5 54       		.byte	0x54
 3311 00b6 74000000 		.4byte	.LVL16
 3312 00ba 77000000 		.4byte	.LVL17-1
 3313 00be 0100     		.2byte	0x1
 3314 00c0 50       		.byte	0x50
 3315 00c1 77000000 		.4byte	.LVL17-1
 3316 00c5 7E000000 		.4byte	.LFE44
 3317 00c9 0100     		.2byte	0x1
 3318 00cb 54       		.byte	0x54
 3319 00cc 00000000 		.4byte	0
 3320 00d0 00000000 		.4byte	0
 3321              	.LLST3:
 3322 00d4 00000000 		.4byte	.LVL8
 3323 00d8 08000000 		.4byte	.LVL9
 3324 00dc 0100     		.2byte	0x1
 3325 00de 51       		.byte	0x51
 3326 00df 08000000 		.4byte	.LVL9
 3327 00e3 74000000 		.4byte	.LVL16
 3328 00e7 0400     		.2byte	0x4
 3329 00e9 F3       		.byte	0xf3
 3330 00ea 01       		.uleb128 0x1
 3331 00eb 51       		.byte	0x51
 3332 00ec 9F       		.byte	0x9f
 3333 00ed 74000000 		.4byte	.LVL16
 3334 00f1 77000000 		.4byte	.LVL17-1
 3335 00f5 0100     		.2byte	0x1
 3336 00f7 51       		.byte	0x51
 3337 00f8 77000000 		.4byte	.LVL17-1
 3338 00fc 7E000000 		.4byte	.LFE44
 3339 0100 0400     		.2byte	0x4
 3340 0102 F3       		.byte	0xf3
 3341 0103 01       		.uleb128 0x1
 3342 0104 51       		.byte	0x51
 3343 0105 9F       		.byte	0x9f
 3344 0106 00000000 		.4byte	0
 3345 010a 00000000 		.4byte	0
 3346              	.LLST4:
 3347 010e 20000000 		.4byte	.LVL12
 3348 0112 74000000 		.4byte	.LVL16
 3349 0116 0400     		.2byte	0x4
 3350 0118 F3       		.byte	0xf3
 3351 0119 01       		.uleb128 0x1
 3352 011a 51       		.byte	0x51
 3353 011b 9F       		.byte	0x9f
 3354 011c 7A000000 		.4byte	.LVL18
 3355 0120 7E000000 		.4byte	.LFE44
 3356 0124 0400     		.2byte	0x4
 3357 0126 F3       		.byte	0xf3
 3358 0127 01       		.uleb128 0x1
 3359 0128 51       		.byte	0x51
ARM GAS  /tmp/ccZaEln7.s 			page 60


 3360 0129 9F       		.byte	0x9f
 3361 012a 00000000 		.4byte	0
 3362 012e 00000000 		.4byte	0
 3363              	.LLST5:
 3364 0132 20000000 		.4byte	.LVL12
 3365 0136 74000000 		.4byte	.LVL16
 3366 013a 0100     		.2byte	0x1
 3367 013c 54       		.byte	0x54
 3368 013d 7A000000 		.4byte	.LVL18
 3369 0141 7E000000 		.4byte	.LFE44
 3370 0145 0100     		.2byte	0x1
 3371 0147 54       		.byte	0x54
 3372 0148 00000000 		.4byte	0
 3373 014c 00000000 		.4byte	0
 3374              	.LLST6:
 3375 0150 54000000 		.4byte	.LVL14
 3376 0154 74000000 		.4byte	.LVL16
 3377 0158 0100     		.2byte	0x1
 3378 015a 54       		.byte	0x54
 3379 015b 7A000000 		.4byte	.LVL18
 3380 015f 7E000000 		.4byte	.LFE44
 3381 0163 0100     		.2byte	0x1
 3382 0165 54       		.byte	0x54
 3383 0166 00000000 		.4byte	0
 3384 016a 00000000 		.4byte	0
 3385              	.LLST7:
 3386 016e 5C000000 		.4byte	.LVL15
 3387 0172 74000000 		.4byte	.LVL16
 3388 0176 0100     		.2byte	0x1
 3389 0178 50       		.byte	0x50
 3390 0179 00000000 		.4byte	0
 3391 017d 00000000 		.4byte	0
 3392              	.LLST8:
 3393 0181 08000000 		.4byte	.LVL19
 3394 0185 68000000 		.4byte	.LVL32
 3395 0189 0100     		.2byte	0x1
 3396 018b 58       		.byte	0x58
 3397 018c 6E000000 		.4byte	.LVL33
 3398 0190 78000000 		.4byte	.LFE47
 3399 0194 0100     		.2byte	0x1
 3400 0196 58       		.byte	0x58
 3401 0197 00000000 		.4byte	0
 3402 019b 00000000 		.4byte	0
 3403              	.LLST9:
 3404 019f 08000000 		.4byte	.LVL19
 3405 01a3 62000000 		.4byte	.LVL30
 3406 01a7 0600     		.2byte	0x6
 3407 01a9 03       		.byte	0x3
 3408 01aa 00000000 		.4byte	UARTD1
 3409 01ae 9F       		.byte	0x9f
 3410 01af 6E000000 		.4byte	.LVL33
 3411 01b3 78000000 		.4byte	.LFE47
 3412 01b7 0600     		.2byte	0x6
 3413 01b9 03       		.byte	0x3
 3414 01ba 00000000 		.4byte	UARTD1
 3415 01be 9F       		.byte	0x9f
 3416 01bf 00000000 		.4byte	0
ARM GAS  /tmp/ccZaEln7.s 			page 61


 3417 01c3 00000000 		.4byte	0
 3418              	.LLST10:
 3419 01c7 14000000 		.4byte	.LVL22
 3420 01cb 62000000 		.4byte	.LVL30
 3421 01cf 0100     		.2byte	0x1
 3422 01d1 54       		.byte	0x54
 3423 01d2 6E000000 		.4byte	.LVL33
 3424 01d6 78000000 		.4byte	.LFE47
 3425 01da 0100     		.2byte	0x1
 3426 01dc 54       		.byte	0x54
 3427 01dd 00000000 		.4byte	0
 3428 01e1 00000000 		.4byte	0
 3429              	.LLST11:
 3430 01e5 10000000 		.4byte	.LVL20
 3431 01e9 62000000 		.4byte	.LVL30
 3432 01ed 0100     		.2byte	0x1
 3433 01ef 55       		.byte	0x55
 3434 01f0 6E000000 		.4byte	.LVL33
 3435 01f4 78000000 		.4byte	.LFE47
 3436 01f8 0100     		.2byte	0x1
 3437 01fa 55       		.byte	0x55
 3438 01fb 00000000 		.4byte	0
 3439 01ff 00000000 		.4byte	0
 3440              	.LLST12:
 3441 0203 12000000 		.4byte	.LVL21
 3442 0207 54000000 		.4byte	.LVL29
 3443 020b 0100     		.2byte	0x1
 3444 020d 57       		.byte	0x57
 3445 020e 6E000000 		.4byte	.LVL33
 3446 0212 78000000 		.4byte	.LFE47
 3447 0216 0100     		.2byte	0x1
 3448 0218 57       		.byte	0x57
 3449 0219 00000000 		.4byte	0
 3450 021d 00000000 		.4byte	0
 3451              	.LLST13:
 3452 0221 22000000 		.4byte	.LVL23
 3453 0225 44000000 		.4byte	.LVL27
 3454 0229 0100     		.2byte	0x1
 3455 022b 54       		.byte	0x54
 3456 022c 6E000000 		.4byte	.LVL33
 3457 0230 78000000 		.4byte	.LFE47
 3458 0234 0100     		.2byte	0x1
 3459 0236 54       		.byte	0x54
 3460 0237 00000000 		.4byte	0
 3461 023b 00000000 		.4byte	0
 3462              	.LLST14:
 3463 023f 22000000 		.4byte	.LVL23
 3464 0243 28000000 		.4byte	.LVL24
 3465 0247 0200     		.2byte	0x2
 3466 0249 30       		.byte	0x30
 3467 024a 9F       		.byte	0x9f
 3468 024b 28000000 		.4byte	.LVL24
 3469 024f 44000000 		.4byte	.LVL27
 3470 0253 0100     		.2byte	0x1
 3471 0255 51       		.byte	0x51
 3472 0256 6E000000 		.4byte	.LVL33
 3473 025a 78000000 		.4byte	.LFE47
ARM GAS  /tmp/ccZaEln7.s 			page 62


 3474 025e 0100     		.2byte	0x1
 3475 0260 51       		.byte	0x51
 3476 0261 00000000 		.4byte	0
 3477 0265 00000000 		.4byte	0
 3478              	.LLST15:
 3479 0269 00000000 		.4byte	.LVL36
 3480 026d 0C000000 		.4byte	.LVL37
 3481 0271 0100     		.2byte	0x1
 3482 0273 50       		.byte	0x50
 3483 0274 0C000000 		.4byte	.LVL37
 3484 0278 68000000 		.4byte	.LVL45
 3485 027c 0100     		.2byte	0x1
 3486 027e 54       		.byte	0x54
 3487 027f 68000000 		.4byte	.LVL45
 3488 0283 6A000000 		.4byte	.LVL46
 3489 0287 0400     		.2byte	0x4
 3490 0289 F3       		.byte	0xf3
 3491 028a 01       		.uleb128 0x1
 3492 028b 50       		.byte	0x50
 3493 028c 9F       		.byte	0x9f
 3494 028d 6A000000 		.4byte	.LVL46
 3495 0291 70000000 		.4byte	.LVL47
 3496 0295 0100     		.2byte	0x1
 3497 0297 50       		.byte	0x50
 3498 0298 70000000 		.4byte	.LVL47
 3499 029c AC000000 		.4byte	.LVL49
 3500 02a0 0100     		.2byte	0x1
 3501 02a2 54       		.byte	0x54
 3502 02a3 AC000000 		.4byte	.LVL49
 3503 02a7 B4000000 		.4byte	.LVL50
 3504 02ab 0100     		.2byte	0x1
 3505 02ad 50       		.byte	0x50
 3506 02ae B4000000 		.4byte	.LVL50
 3507 02b2 F0000000 		.4byte	.LFE49
 3508 02b6 0100     		.2byte	0x1
 3509 02b8 54       		.byte	0x54
 3510 02b9 00000000 		.4byte	0
 3511 02bd 00000000 		.4byte	0
 3512              	.LLST16:
 3513 02c1 14000000 		.4byte	.LVL38
 3514 02c5 17000000 		.4byte	.LVL39-1
 3515 02c9 0100     		.2byte	0x1
 3516 02cb 50       		.byte	0x50
 3517 02cc 17000000 		.4byte	.LVL39-1
 3518 02d0 68000000 		.4byte	.LVL44
 3519 02d4 0100     		.2byte	0x1
 3520 02d6 54       		.byte	0x54
 3521 02d7 A8000000 		.4byte	.LVL48
 3522 02db AC000000 		.4byte	.LVL49
 3523 02df 0100     		.2byte	0x1
 3524 02e1 54       		.byte	0x54
 3525 02e2 00000000 		.4byte	0
 3526 02e6 00000000 		.4byte	0
 3527              	.LLST17:
 3528 02ea 3E000000 		.4byte	.LVL41
 3529 02ee 6A000000 		.4byte	.LVL46
 3530 02f2 0400     		.2byte	0x4
ARM GAS  /tmp/ccZaEln7.s 			page 63


 3531 02f4 0A       		.byte	0xa
 3532 02f5 0D01     		.2byte	0x10d
 3533 02f7 9F       		.byte	0x9f
 3534 02f8 A8000000 		.4byte	.LVL48
 3535 02fc AC000000 		.4byte	.LVL49
 3536 0300 0400     		.2byte	0x4
 3537 0302 0A       		.byte	0xa
 3538 0303 0D01     		.2byte	0x10d
 3539 0305 9F       		.byte	0x9f
 3540 0306 00000000 		.4byte	0
 3541 030a 00000000 		.4byte	0
 3542              	.LLST18:
 3543 030e 14000000 		.4byte	.LVL38
 3544 0312 17000000 		.4byte	.LVL39-1
 3545 0316 0200     		.2byte	0x2
 3546 0318 70       		.byte	0x70
 3547 0319 08       		.sleb128 8
 3548 031a 00000000 		.4byte	0
 3549 031e 00000000 		.4byte	0
 3550              	.LLST19:
 3551 0322 48000000 		.4byte	.LVL42
 3552 0326 68000000 		.4byte	.LVL44
 3553 032a 0100     		.2byte	0x1
 3554 032c 54       		.byte	0x54
 3555 032d A8000000 		.4byte	.LVL48
 3556 0331 AC000000 		.4byte	.LVL49
 3557 0335 0100     		.2byte	0x1
 3558 0337 54       		.byte	0x54
 3559 0338 00000000 		.4byte	0
 3560 033c 00000000 		.4byte	0
 3561              	.LLST20:
 3562 0340 4E000000 		.4byte	.LVL43
 3563 0344 68000000 		.4byte	.LVL44
 3564 0348 0100     		.2byte	0x1
 3565 034a 50       		.byte	0x50
 3566 034b 00000000 		.4byte	0
 3567 034f 00000000 		.4byte	0
 3568              	.LLST21:
 3569 0353 00000000 		.4byte	.LVL54
 3570 0357 0A000000 		.4byte	.LVL55
 3571 035b 0100     		.2byte	0x1
 3572 035d 50       		.byte	0x50
 3573 035e 0A000000 		.4byte	.LVL55
 3574 0362 0A000000 		.4byte	.LVL56
 3575 0366 0100     		.2byte	0x1
 3576 0368 54       		.byte	0x54
 3577 0369 0A000000 		.4byte	.LVL56
 3578 036d 0C000000 		.4byte	.LVL57
 3579 0371 0400     		.2byte	0x4
 3580 0373 F3       		.byte	0xf3
 3581 0374 01       		.uleb128 0x1
 3582 0375 50       		.byte	0x50
 3583 0376 9F       		.byte	0x9f
 3584 0377 0C000000 		.4byte	.LVL57
 3585 037b 0F000000 		.4byte	.LVL58-1
 3586 037f 0100     		.2byte	0x1
 3587 0381 50       		.byte	0x50
ARM GAS  /tmp/ccZaEln7.s 			page 64


 3588 0382 0F000000 		.4byte	.LVL58-1
 3589 0386 40000000 		.4byte	.LFE50
 3590 038a 0100     		.2byte	0x1
 3591 038c 54       		.byte	0x54
 3592 038d 00000000 		.4byte	0
 3593 0391 00000000 		.4byte	0
 3594              	.LLST22:
 3595 0395 00000000 		.4byte	.LVL62
 3596 0399 0A000000 		.4byte	.LVL63
 3597 039d 0100     		.2byte	0x1
 3598 039f 51       		.byte	0x51
 3599 03a0 0A000000 		.4byte	.LVL63
 3600 03a4 10000000 		.4byte	.LVL65
 3601 03a8 0200     		.2byte	0x2
 3602 03aa 73       		.byte	0x73
 3603 03ab 04       		.sleb128 4
 3604 03ac 10000000 		.4byte	.LVL65
 3605 03b0 1A000000 		.4byte	.LFE51
 3606 03b4 0400     		.2byte	0x4
 3607 03b6 F3       		.byte	0xf3
 3608 03b7 01       		.uleb128 0x1
 3609 03b8 51       		.byte	0x51
 3610 03b9 9F       		.byte	0x9f
 3611 03ba 00000000 		.4byte	0
 3612 03be 00000000 		.4byte	0
 3613              	.LLST23:
 3614 03c2 00000000 		.4byte	.LVL62
 3615 03c6 0C000000 		.4byte	.LVL64
 3616 03ca 0100     		.2byte	0x1
 3617 03cc 52       		.byte	0x52
 3618 03cd 0C000000 		.4byte	.LVL64
 3619 03d1 1A000000 		.4byte	.LFE51
 3620 03d5 0400     		.2byte	0x4
 3621 03d7 F3       		.byte	0xf3
 3622 03d8 01       		.uleb128 0x1
 3623 03d9 52       		.byte	0x52
 3624 03da 9F       		.byte	0x9f
 3625 03db 00000000 		.4byte	0
 3626 03df 00000000 		.4byte	0
 3627              	.LLST24:
 3628 03e3 00000000 		.4byte	.LVL66
 3629 03e7 08000000 		.4byte	.LVL67
 3630 03eb 0100     		.2byte	0x1
 3631 03ed 50       		.byte	0x50
 3632 03ee 08000000 		.4byte	.LVL67
 3633 03f2 18000000 		.4byte	.LFE52
 3634 03f6 0400     		.2byte	0x4
 3635 03f8 F3       		.byte	0xf3
 3636 03f9 01       		.uleb128 0x1
 3637 03fa 50       		.byte	0x50
 3638 03fb 9F       		.byte	0x9f
 3639 03fc 00000000 		.4byte	0
 3640 0400 00000000 		.4byte	0
 3641              	.LLST25:
 3642 0404 00000000 		.4byte	.LVL68
 3643 0408 1C000000 		.4byte	.LVL69
 3644 040c 0100     		.2byte	0x1
ARM GAS  /tmp/ccZaEln7.s 			page 65


 3645 040e 51       		.byte	0x51
 3646 040f 1C000000 		.4byte	.LVL69
 3647 0413 22000000 		.4byte	.LVL71
 3648 0417 0200     		.2byte	0x2
 3649 0419 73       		.byte	0x73
 3650 041a 04       		.sleb128 4
 3651 041b 22000000 		.4byte	.LVL71
 3652 041f 2C000000 		.4byte	.LFE53
 3653 0423 0400     		.2byte	0x4
 3654 0425 F3       		.byte	0xf3
 3655 0426 01       		.uleb128 0x1
 3656 0427 51       		.byte	0x51
 3657 0428 9F       		.byte	0x9f
 3658 0429 00000000 		.4byte	0
 3659 042d 00000000 		.4byte	0
 3660              	.LLST26:
 3661 0431 00000000 		.4byte	.LVL68
 3662 0435 1E000000 		.4byte	.LVL70
 3663 0439 0100     		.2byte	0x1
 3664 043b 52       		.byte	0x52
 3665 043c 1E000000 		.4byte	.LVL70
 3666 0440 2C000000 		.4byte	.LFE53
 3667 0444 0400     		.2byte	0x4
 3668 0446 F3       		.byte	0xf3
 3669 0447 01       		.uleb128 0x1
 3670 0448 52       		.byte	0x52
 3671 0449 9F       		.byte	0x9f
 3672 044a 00000000 		.4byte	0
 3673 044e 00000000 		.4byte	0
 3674              	.LLST27:
 3675 0452 00000000 		.4byte	.LVL72
 3676 0456 06000000 		.4byte	.LVL73
 3677 045a 0100     		.2byte	0x1
 3678 045c 50       		.byte	0x50
 3679 045d 06000000 		.4byte	.LVL73
 3680 0461 2E000000 		.4byte	.LVL76
 3681 0465 0100     		.2byte	0x1
 3682 0467 51       		.byte	0x51
 3683 0468 2E000000 		.4byte	.LVL76
 3684 046c 30000000 		.4byte	.LVL77
 3685 0470 0600     		.2byte	0x6
 3686 0472 73       		.byte	0x73
 3687 0473 0C       		.sleb128 12
 3688 0474 06       		.byte	0x6
 3689 0475 48       		.byte	0x48
 3690 0476 1C       		.byte	0x1c
 3691 0477 9F       		.byte	0x9f
 3692 0478 30000000 		.4byte	.LVL77
 3693 047c 3C000000 		.4byte	.LVL79
 3694 0480 0400     		.2byte	0x4
 3695 0482 F3       		.byte	0xf3
 3696 0483 01       		.uleb128 0x1
 3697 0484 50       		.byte	0x50
 3698 0485 9F       		.byte	0x9f
 3699 0486 3C000000 		.4byte	.LVL79
 3700 048a 40000000 		.4byte	.LFE54
 3701 048e 0100     		.2byte	0x1
ARM GAS  /tmp/ccZaEln7.s 			page 66


 3702 0490 51       		.byte	0x51
 3703 0491 00000000 		.4byte	0
 3704 0495 00000000 		.4byte	0
 3705              	.LLST28:
 3706 0499 1C000000 		.4byte	.LVL74
 3707 049d 2E000000 		.4byte	.LVL76
 3708 04a1 0100     		.2byte	0x1
 3709 04a3 51       		.byte	0x51
 3710 04a4 2E000000 		.4byte	.LVL76
 3711 04a8 30000000 		.4byte	.LVL77
 3712 04ac 0600     		.2byte	0x6
 3713 04ae 73       		.byte	0x73
 3714 04af 0C       		.sleb128 12
 3715 04b0 06       		.byte	0x6
 3716 04b1 48       		.byte	0x48
 3717 04b2 1C       		.byte	0x1c
 3718 04b3 9F       		.byte	0x9f
 3719 04b4 30000000 		.4byte	.LVL77
 3720 04b8 3A000000 		.4byte	.LVL78
 3721 04bc 0400     		.2byte	0x4
 3722 04be F3       		.byte	0xf3
 3723 04bf 01       		.uleb128 0x1
 3724 04c0 50       		.byte	0x50
 3725 04c1 9F       		.byte	0x9f
 3726 04c2 3C000000 		.4byte	.LVL79
 3727 04c6 40000000 		.4byte	.LFE54
 3728 04ca 0100     		.2byte	0x1
 3729 04cc 51       		.byte	0x51
 3730 04cd 00000000 		.4byte	0
 3731 04d1 00000000 		.4byte	0
 3732              	.LLST29:
 3733 04d5 24000000 		.4byte	.LVL75
 3734 04d9 3A000000 		.4byte	.LVL78
 3735 04dd 0100     		.2byte	0x1
 3736 04df 54       		.byte	0x54
 3737 04e0 00000000 		.4byte	0
 3738 04e4 00000000 		.4byte	0
 3739              		.section	.debug_aranges,"",%progbits
 3740 0000 6C000000 		.4byte	0x6c
 3741 0004 0200     		.2byte	0x2
 3742 0006 00000000 		.4byte	.Ldebug_info0
 3743 000a 04       		.byte	0x4
 3744 000b 00       		.byte	0
 3745 000c 0000     		.2byte	0
 3746 000e 0000     		.2byte	0
 3747 0010 00000000 		.4byte	.LFB42
 3748 0014 36000000 		.4byte	.LFE42-.LFB42
 3749 0018 00000000 		.4byte	.LFB45
 3750 001c 50000000 		.4byte	.LFE45-.LFB45
 3751 0020 00000000 		.4byte	.LFB44
 3752 0024 7E000000 		.4byte	.LFE44-.LFB44
 3753 0028 00000000 		.4byte	.LFB47
 3754 002c 78000000 		.4byte	.LFE47-.LFB47
 3755 0030 00000000 		.4byte	.LFB48
 3756 0034 28000000 		.4byte	.LFE48-.LFB48
 3757 0038 00000000 		.4byte	.LFB49
 3758 003c F0000000 		.4byte	.LFE49-.LFB49
ARM GAS  /tmp/ccZaEln7.s 			page 67


 3759 0040 00000000 		.4byte	.LFB50
 3760 0044 40000000 		.4byte	.LFE50-.LFB50
 3761 0048 00000000 		.4byte	.LFB51
 3762 004c 1A000000 		.4byte	.LFE51-.LFB51
 3763 0050 00000000 		.4byte	.LFB52
 3764 0054 18000000 		.4byte	.LFE52-.LFB52
 3765 0058 00000000 		.4byte	.LFB53
 3766 005c 2C000000 		.4byte	.LFE53-.LFB53
 3767 0060 00000000 		.4byte	.LFB54
 3768 0064 40000000 		.4byte	.LFE54-.LFB54
 3769 0068 00000000 		.4byte	0
 3770 006c 00000000 		.4byte	0
 3771              		.section	.debug_ranges,"",%progbits
 3772              	.Ldebug_ranges0:
 3773 0000 20000000 		.4byte	.LBB14
 3774 0004 72000000 		.4byte	.LBE14
 3775 0008 7A000000 		.4byte	.LBB21
 3776 000c 7E000000 		.4byte	.LBE21
 3777 0010 00000000 		.4byte	0
 3778 0014 00000000 		.4byte	0
 3779 0018 54000000 		.4byte	.LBB16
 3780 001c 72000000 		.4byte	.LBE16
 3781 0020 7A000000 		.4byte	.LBB19
 3782 0024 7E000000 		.4byte	.LBE19
 3783 0028 00000000 		.4byte	0
 3784 002c 00000000 		.4byte	0
 3785 0030 08000000 		.4byte	.LBB26
 3786 0034 62000000 		.4byte	.LBE26
 3787 0038 6E000000 		.4byte	.LBB33
 3788 003c 78000000 		.4byte	.LBE33
 3789 0040 00000000 		.4byte	0
 3790 0044 00000000 		.4byte	0
 3791 0048 22000000 		.4byte	.LBB28
 3792 004c 44000000 		.4byte	.LBE28
 3793 0050 6E000000 		.4byte	.LBB31
 3794 0054 78000000 		.4byte	.LBE31
 3795 0058 00000000 		.4byte	0
 3796 005c 00000000 		.4byte	0
 3797 0060 0E000000 		.4byte	.LBB39
 3798 0064 10000000 		.4byte	.LBE39
 3799 0068 14000000 		.4byte	.LBB52
 3800 006c 64000000 		.4byte	.LBE52
 3801 0070 64000000 		.4byte	.LBB53
 3802 0074 68000000 		.4byte	.LBE53
 3803 0078 A8000000 		.4byte	.LBB54
 3804 007c AC000000 		.4byte	.LBE54
 3805 0080 00000000 		.4byte	0
 3806 0084 00000000 		.4byte	0
 3807 0088 38000000 		.4byte	.LBB41
 3808 008c 3A000000 		.4byte	.LBE41
 3809 0090 48000000 		.4byte	.LBB46
 3810 0094 64000000 		.4byte	.LBE46
 3811 0098 64000000 		.4byte	.LBB47
 3812 009c 68000000 		.4byte	.LBE47
 3813 00a0 A8000000 		.4byte	.LBB48
 3814 00a4 AC000000 		.4byte	.LBE48
 3815 00a8 00000000 		.4byte	0
ARM GAS  /tmp/ccZaEln7.s 			page 68


 3816 00ac 00000000 		.4byte	0
 3817 00b0 18000000 		.4byte	.LBB56
 3818 00b4 1A000000 		.4byte	.LBE56
 3819 00b8 1C000000 		.4byte	.LBB61
 3820 00bc 36000000 		.4byte	.LBE61
 3821 00c0 36000000 		.4byte	.LBB62
 3822 00c4 3A000000 		.4byte	.LBE62
 3823 00c8 3C000000 		.4byte	.LBB63
 3824 00cc 40000000 		.4byte	.LBE63
 3825 00d0 00000000 		.4byte	0
 3826 00d4 00000000 		.4byte	0
 3827 00d8 00000000 		.4byte	.LFB42
 3828 00dc 36000000 		.4byte	.LFE42
 3829 00e0 00000000 		.4byte	.LFB45
 3830 00e4 50000000 		.4byte	.LFE45
 3831 00e8 00000000 		.4byte	.LFB44
 3832 00ec 7E000000 		.4byte	.LFE44
 3833 00f0 00000000 		.4byte	.LFB47
 3834 00f4 78000000 		.4byte	.LFE47
 3835 00f8 00000000 		.4byte	.LFB48
 3836 00fc 28000000 		.4byte	.LFE48
 3837 0100 00000000 		.4byte	.LFB49
 3838 0104 F0000000 		.4byte	.LFE49
 3839 0108 00000000 		.4byte	.LFB50
 3840 010c 40000000 		.4byte	.LFE50
 3841 0110 00000000 		.4byte	.LFB51
 3842 0114 1A000000 		.4byte	.LFE51
 3843 0118 00000000 		.4byte	.LFB52
 3844 011c 18000000 		.4byte	.LFE52
 3845 0120 00000000 		.4byte	.LFB53
 3846 0124 2C000000 		.4byte	.LFE53
 3847 0128 00000000 		.4byte	.LFB54
 3848 012c 40000000 		.4byte	.LFE54
 3849 0130 00000000 		.4byte	0
 3850 0134 00000000 		.4byte	0
 3851              		.section	.debug_line,"",%progbits
 3852              	.Ldebug_line0:
 3853 0000 22040000 		.section	.debug_str,"MS",%progbits,1
 3853      02003802 
 3853      00000201 
 3853      FB0E0D00 
 3853      01010101 
 3854              	.LASF56:
 3855 0000 55415254 		.ascii	"UART_TX_IDLE\000"
 3855      5F54585F 
 3855      49444C45 
 3855      00
 3856              	.LASF81:
 3857 000d 72786368 		.ascii	"rxchar_cb\000"
 3857      61725F63 
 3857      6200
 3858              	.LASF31:
 3859 0017 41504231 		.ascii	"APB1ENR\000"
 3859      454E5200 
 3860              	.LASF79:
 3861 001f 7478656E 		.ascii	"txend2_cb\000"
 3861      64325F63 
ARM GAS  /tmp/ccZaEln7.s 			page 69


 3861      6200
 3862              	.LASF108:
 3863 0029 75617274 		.ascii	"uartObjectInit\000"
 3863      4F626A65 
 3863      6374496E 
 3863      697400
 3864              	.LASF19:
 3865 0038 72656761 		.ascii	"regarm_t\000"
 3865      726D5F74 
 3865      00
 3866              	.LASF71:
 3867 0041 646D616D 		.ascii	"dmamode\000"
 3867      6F646500 
 3868              	.LASF27:
 3869 0049 41504232 		.ascii	"APB2RSTR\000"
 3869      52535452 
 3869      00
 3870              	.LASF88:
 3871 0052 666C6167 		.ascii	"flags\000"
 3871      7300
 3872              	.LASF96:
 3873 0058 75617274 		.ascii	"uart_lld_start\000"
 3873      5F6C6C64 
 3873      5F737461 
 3873      727400
 3874              	.LASF0:
 3875 0067 756E7369 		.ascii	"unsigned int\000"
 3875      676E6564 
 3875      20696E74 
 3875      00
 3876              	.LASF63:
 3877 0074 75617274 		.ascii	"uartrxstate_t\000"
 3877      72787374 
 3877      6174655F 
 3877      7400
 3878              	.LASF32:
 3879 0082 42444352 		.ascii	"BDCR\000"
 3879      00
 3880              	.LASF24:
 3881 0087 434D4152 		.ascii	"CMAR\000"
 3881      00
 3882              	.LASF36:
 3883 008c 5243435F 		.ascii	"RCC_TypeDef\000"
 3883      54797065 
 3883      44656600 
 3884              	.LASF93:
 3885 0098 56656374 		.ascii	"VectorAC\000"
 3885      6F724143 
 3885      00
 3886              	.LASF25:
 3887 00a1 444D415F 		.ascii	"DMA_Channel_TypeDef\000"
 3887      4368616E 
 3887      6E656C5F 
 3887      54797065 
 3887      44656600 
 3888              	.LASF98:
 3889 00b5 75617274 		.ascii	"uart_lld_start_send\000"
ARM GAS  /tmp/ccZaEln7.s 			page 70


 3889      5F6C6C64 
 3889      5F737461 
 3889      72745F73 
 3889      656E6400 
 3890              	.LASF90:
 3891 00c9 6D6F6465 		.ascii	"mode\000"
 3891      00
 3892              	.LASF112:
 3893 00ce 6E766963 		.ascii	"nvicDisableVector\000"
 3893      44697361 
 3893      626C6556 
 3893      6563746F 
 3893      7200
 3894              	.LASF92:
 3895 00e0 75617274 		.ascii	"uart_lld_serve_tx_end_irq\000"
 3895      5F6C6C64 
 3895      5F736572 
 3895      76655F74 
 3895      785F656E 
 3896              	.LASF58:
 3897 00fa 55415254 		.ascii	"UART_TX_COMPLETE\000"
 3897      5F54585F 
 3897      434F4D50 
 3897      4C455445 
 3897      00
 3898              	.LASF95:
 3899 010b 75736172 		.ascii	"usart_start\000"
 3899      745F7374 
 3899      61727400 
 3900              	.LASF83:
 3901 0117 73706565 		.ascii	"speed\000"
 3901      6400
 3902              	.LASF113:
 3903 011d 474E5520 		.ascii	"GNU C11 5.3.1 20160307 (release) [ARM/embedded-5-br"
 3903      43313120 
 3903      352E332E 
 3903      31203230 
 3903      31363033 
 3904 0150 616E6368 		.ascii	"anch revision 234589] -mcpu=cortex-m0 -mno-thumb-in"
 3904      20726576 
 3904      6973696F 
 3904      6E203233 
 3904      34353839 
 3905 0183 74657277 		.ascii	"terwork -mthumb -ggdb -O2 -fomit-frame-pointer -fal"
 3905      6F726B20 
 3905      2D6D7468 
 3905      756D6220 
 3905      2D676764 
 3906 01b6 69676E2D 		.ascii	"ign-functions=16 -ffunction-sections -fdata-section"
 3906      66756E63 
 3906      74696F6E 
 3906      733D3136 
 3906      202D6666 
 3907 01e9 73202D66 		.ascii	"s -fno-common\000"
 3907      6E6F2D63 
 3907      6F6D6D6F 
 3907      6E00
ARM GAS  /tmp/ccZaEln7.s 			page 71


 3908              	.LASF22:
 3909 01f7 434E4454 		.ascii	"CNDTR\000"
 3909      5200
 3910              	.LASF38:
 3911 01fd 47545052 		.ascii	"GTPR\000"
 3911      00
 3912              	.LASF73:
 3913 0202 646D6174 		.ascii	"dmatx\000"
 3913      7800
 3914              	.LASF16:
 3915 0208 75696E74 		.ascii	"uint32_t\000"
 3915      33325F74 
 3915      00
 3916              	.LASF33:
 3917 0211 41484252 		.ascii	"AHBRSTR\000"
 3917      53545200 
 3918              	.LASF46:
 3919 0219 69666372 		.ascii	"ifcr\000"
 3919      00
 3920              	.LASF64:
 3921 021e 75617274 		.ascii	"uartflags_t\000"
 3921      666C6167 
 3921      735F7400 
 3922              	.LASF13:
 3923 022a 6C6F6E67 		.ascii	"long long unsigned int\000"
 3923      206C6F6E 
 3923      6720756E 
 3923      7369676E 
 3923      65642069 
 3924              	.LASF49:
 3925 0241 76656374 		.ascii	"vector\000"
 3925      6F7200
 3926              	.LASF8:
 3927 0248 5F5F7569 		.ascii	"__uint16_t\000"
 3927      6E743136 
 3927      5F7400
 3928              	.LASF65:
 3929 0253 55415254 		.ascii	"UARTDriver\000"
 3929      44726976 
 3929      657200
 3930              	.LASF89:
 3931 025e 73657276 		.ascii	"serve_usart_irq\000"
 3931      655F7573 
 3931      6172745F 
 3931      69727100 
 3932              	.LASF94:
 3933 026e 75617274 		.ascii	"uart_lld_init\000"
 3933      5F6C6C64 
 3933      5F696E69 
 3933      7400
 3934              	.LASF99:
 3935 027c 74786275 		.ascii	"txbuf\000"
 3935      6600
 3936              	.LASF23:
 3937 0282 43504152 		.ascii	"CPAR\000"
 3937      00
 3938              	.LASF55:
ARM GAS  /tmp/ccZaEln7.s 			page 72


 3939 0287 75617274 		.ascii	"uartstate_t\000"
 3939      73746174 
 3939      655F7400 
 3940              	.LASF4:
 3941 0293 73697A65 		.ascii	"size_t\000"
 3941      5F7400
 3942              	.LASF17:
 3943 029a 626F6F6C 		.ascii	"bool_t\000"
 3943      5F7400
 3944              	.LASF61:
 3945 02a1 55415254 		.ascii	"UART_RX_ACTIVE\000"
 3945      5F52585F 
 3945      41435449 
 3945      564500
 3946              	.LASF18:
 3947 02b0 5F426F6F 		.ascii	"_Bool\000"
 3947      6C00
 3948              	.LASF102:
 3949 02b6 75617274 		.ascii	"uart_lld_stop_receive\000"
 3949      5F6C6C64 
 3949      5F73746F 
 3949      705F7265 
 3949      63656976 
 3950              	.LASF44:
 3951 02cc 55534152 		.ascii	"USART_TypeDef\000"
 3951      545F5479 
 3951      70654465 
 3951      6600
 3952              	.LASF51:
 3953 02da 73746D33 		.ascii	"stm32_dmaisr_t\000"
 3953      325F646D 
 3953      61697372 
 3953      5F7400
 3954              	.LASF28:
 3955 02e9 41504231 		.ascii	"APB1RSTR\000"
 3955      52535452 
 3955      00
 3956              	.LASF34:
 3957 02f2 43464752 		.ascii	"CFGR2\000"
 3957      3200
 3958              	.LASF76:
 3959 02f8 75617274 		.ascii	"uartccb_t\000"
 3959      6363625F 
 3959      7400
 3960              	.LASF21:
 3961 0302 63686172 		.ascii	"char\000"
 3961      00
 3962              	.LASF47:
 3963 0307 69736869 		.ascii	"ishift\000"
 3963      667400
 3964              	.LASF29:
 3965 030e 41484245 		.ascii	"AHBENR\000"
 3965      4E5200
 3966              	.LASF78:
 3967 0315 7478656E 		.ascii	"txend1_cb\000"
 3967      64315F63 
 3967      6200
ARM GAS  /tmp/ccZaEln7.s 			page 73


 3968              	.LASF14:
 3969 031f 75696E74 		.ascii	"uint8_t\000"
 3969      385F7400 
 3970              	.LASF40:
 3971 0327 52544F52 		.ascii	"RTOR\000"
 3971      00
 3972              	.LASF72:
 3973 032c 646D6172 		.ascii	"dmarx\000"
 3973      7800
 3974              	.LASF84:
 3975 0332 55415254 		.ascii	"UARTConfig\000"
 3975      436F6E66 
 3975      696700
 3976              	.LASF70:
 3977 033d 75736172 		.ascii	"usart\000"
 3977      7400
 3978              	.LASF82:
 3979 0343 72786572 		.ascii	"rxerr_cb\000"
 3979      725F6362 
 3979      00
 3980              	.LASF115:
 3981 034c 2F686F6D 		.ascii	"/home/lithium/Documentos/BikeTracker/ChibiOS_2.6.8/"
 3981      652F6C69 
 3981      74686975 
 3981      6D2F446F 
 3981      63756D65 
 3982 037f 64656D6F 		.ascii	"demos/BikeTracker\000"
 3982      732F4269 
 3982      6B655472 
 3982      61636B65 
 3982      7200
 3983              	.LASF1:
 3984 0391 6C6F6E67 		.ascii	"long long int\000"
 3984      206C6F6E 
 3984      6720696E 
 3984      7400
 3985              	.LASF105:
 3986 039f 55415254 		.ascii	"UARTD1\000"
 3986      443100
 3987              	.LASF62:
 3988 03a6 55415254 		.ascii	"UART_RX_COMPLETE\000"
 3988      5F52585F 
 3988      434F4D50 
 3988      4C455445 
 3988      00
 3989              	.LASF80:
 3990 03b7 7278656E 		.ascii	"rxend_cb\000"
 3990      645F6362 
 3990      00
 3991              	.LASF114:
 3992 03c0 2E2E2F2E 		.ascii	"../../os/hal/platforms/STM32/USARTv2/uart_lld.c\000"
 3992      2E2F6F73 
 3992      2F68616C 
 3992      2F706C61 
 3992      74666F72 
 3993              	.LASF35:
 3994 03f0 43464752 		.ascii	"CFGR3\000"
ARM GAS  /tmp/ccZaEln7.s 			page 74


 3994      3300
 3995              	.LASF86:
 3996 03f6 75617274 		.ascii	"uart_lld_serve_rx_end_irq\000"
 3996      5F6C6C64 
 3996      5F736572 
 3996      76655F72 
 3996      785F656E 
 3997              	.LASF30:
 3998 0410 41504232 		.ascii	"APB2ENR\000"
 3998      454E5200 
 3999              	.LASF2:
 4000 0418 6C6F6E67 		.ascii	"long double\000"
 4000      20646F75 
 4000      626C6500 
 4001              	.LASF85:
 4002 0424 7365745F 		.ascii	"set_rx_idle_loop\000"
 4002      72785F69 
 4002      646C655F 
 4002      6C6F6F70 
 4002      00
 4003              	.LASF15:
 4004 0435 75696E74 		.ascii	"uint16_t\000"
 4004      31365F74 
 4004      00
 4005              	.LASF87:
 4006 043e 75617274 		.ascii	"uartp\000"
 4006      7000
 4007              	.LASF45:
 4008 0444 6368616E 		.ascii	"channel\000"
 4008      6E656C00 
 4009              	.LASF110:
 4010 044c 6E766963 		.ascii	"nvicEnableVector\000"
 4010      456E6162 
 4010      6C655665 
 4010      63746F72 
 4010      00
 4011              	.LASF69:
 4012 045d 636F6E66 		.ascii	"config\000"
 4012      696700
 4013              	.LASF111:
 4014 0464 646D6153 		.ascii	"dmaStreamRelease\000"
 4014      74726561 
 4014      6D52656C 
 4014      65617365 
 4014      00
 4015              	.LASF91:
 4016 0475 75736172 		.ascii	"usart_stop\000"
 4016      745F7374 
 4016      6F7000
 4017              	.LASF59:
 4018 0480 75617274 		.ascii	"uarttxstate_t\000"
 4018      74787374 
 4018      6174655F 
 4018      7400
 4019              	.LASF37:
 4020 048e 52455345 		.ascii	"RESERVED1\000"
 4020      52564544 
ARM GAS  /tmp/ccZaEln7.s 			page 75


 4020      3100
 4021              	.LASF39:
 4022 0498 52455345 		.ascii	"RESERVED2\000"
 4022      52564544 
 4022      3200
 4023              	.LASF41:
 4024 04a2 52455345 		.ascii	"RESERVED3\000"
 4024      52564544 
 4024      3300
 4025              	.LASF42:
 4026 04ac 52455345 		.ascii	"RESERVED4\000"
 4026      52564544 
 4026      3400
 4027              	.LASF43:
 4028 04b6 52455345 		.ascii	"RESERVED5\000"
 4028      52564544 
 4028      3500
 4029              	.LASF7:
 4030 04c0 73686F72 		.ascii	"short int\000"
 4030      7420696E 
 4030      7400
 4031              	.LASF10:
 4032 04ca 6C6F6E67 		.ascii	"long int\000"
 4032      20696E74 
 4032      00
 4033              	.LASF68:
 4034 04d3 72787374 		.ascii	"rxstate\000"
 4034      61746500 
 4035              	.LASF77:
 4036 04db 75617274 		.ascii	"uartecb_t\000"
 4036      6563625F 
 4036      7400
 4037              	.LASF26:
 4038 04e5 43464752 		.ascii	"CFGR\000"
 4038      00
 4039              	.LASF54:
 4040 04ea 55415254 		.ascii	"UART_READY\000"
 4040      5F524541 
 4040      445900
 4041              	.LASF5:
 4042 04f5 5F5F7569 		.ascii	"__uint8_t\000"
 4042      6E74385F 
 4042      7400
 4043              	.LASF101:
 4044 04ff 75617274 		.ascii	"uart_lld_stop_send\000"
 4044      5F6C6C64 
 4044      5F73746F 
 4044      705F7365 
 4044      6E6400
 4045              	.LASF20:
 4046 0512 73697A65 		.ascii	"sizetype\000"
 4046      74797065 
 4046      00
 4047              	.LASF12:
 4048 051b 6C6F6E67 		.ascii	"long unsigned int\000"
 4048      20756E73 
 4048      69676E65 
ARM GAS  /tmp/ccZaEln7.s 			page 76


 4048      6420696E 
 4048      7400
 4049              	.LASF67:
 4050 052d 74787374 		.ascii	"txstate\000"
 4050      61746500 
 4051              	.LASF97:
 4052 0535 75617274 		.ascii	"uart_lld_stop\000"
 4052      5F6C6C64 
 4052      5F73746F 
 4052      7000
 4053              	.LASF6:
 4054 0543 756E7369 		.ascii	"unsigned char\000"
 4054      676E6564 
 4054      20636861 
 4054      7200
 4055              	.LASF52:
 4056 0551 55415254 		.ascii	"UART_UNINIT\000"
 4056      5F554E49 
 4056      4E495400 
 4057              	.LASF11:
 4058 055d 5F5F7569 		.ascii	"__uint32_t\000"
 4058      6E743332 
 4058      5F7400
 4059              	.LASF107:
 4060 0568 5F706F72 		.ascii	"_port_irq_epilogue\000"
 4060      745F6972 
 4060      715F6570 
 4060      696C6F67 
 4060      756500
 4061              	.LASF106:
 4062 057b 706F7274 		.ascii	"port_halt\000"
 4062      5F68616C 
 4062      7400
 4063              	.LASF66:
 4064 0585 73746174 		.ascii	"state\000"
 4064      6500
 4065              	.LASF60:
 4066 058b 55415254 		.ascii	"UART_RX_IDLE\000"
 4066      5F52585F 
 4066      49444C45 
 4066      00
 4067              	.LASF3:
 4068 0598 7369676E 		.ascii	"signed char\000"
 4068      65642063 
 4068      68617200 
 4069              	.LASF57:
 4070 05a4 55415254 		.ascii	"UART_TX_ACTIVE\000"
 4070      5F54585F 
 4070      41435449 
 4070      564500
 4071              	.LASF9:
 4072 05b3 73686F72 		.ascii	"short unsigned int\000"
 4072      7420756E 
 4072      7369676E 
 4072      65642069 
 4072      6E7400
 4073              	.LASF50:
ARM GAS  /tmp/ccZaEln7.s 			page 77


 4074 05c6 73746D33 		.ascii	"stm32_dma_stream_t\000"
 4074      325F646D 
 4074      615F7374 
 4074      7265616D 
 4074      5F7400
 4075              	.LASF53:
 4076 05d9 55415254 		.ascii	"UART_STOP\000"
 4076      5F53544F 
 4076      5000
 4077              	.LASF116:
 4078 05e3 7472616E 		.ascii	"translate_errors\000"
 4078      736C6174 
 4078      655F6572 
 4078      726F7273 
 4078      00
 4079              	.LASF104:
 4080 05f4 5F73746D 		.ascii	"_stm32_dma_streams\000"
 4080      33325F64 
 4080      6D615F73 
 4080      74726561 
 4080      6D7300
 4081              	.LASF100:
 4082 0607 75617274 		.ascii	"uart_lld_start_receive\000"
 4082      5F6C6C64 
 4082      5F737461 
 4082      72745F72 
 4082      65636569 
 4083              	.LASF75:
 4084 061e 75617274 		.ascii	"uartcb_t\000"
 4084      63625F74 
 4084      00
 4085              	.LASF103:
 4086 0627 5F736176 		.ascii	"_saved_lr\000"
 4086      65645F6C 
 4086      7200
 4087              	.LASF109:
 4088 0631 646D6153 		.ascii	"dmaStreamAllocate\000"
 4088      74726561 
 4088      6D416C6C 
 4088      6F636174 
 4088      6500
 4089              	.LASF48:
 4090 0643 73656C66 		.ascii	"selfindex\000"
 4090      696E6465 
 4090      7800
 4091              	.LASF74:
 4092 064d 72786275 		.ascii	"rxbuf\000"
 4092      6600
 4093              		.ident	"GCC: (GNU Tools for ARM Embedded Processors) 5.3.1 20160307 (release) [ARM/embedded-5-bran
ARM GAS  /tmp/ccZaEln7.s 			page 78


DEFINED SYMBOLS
                            *ABS*:00000000 uart_lld.c
     /tmp/ccZaEln7.s:20     .text.usart_stop:00000000 $t
     /tmp/ccZaEln7.s:25     .text.usart_stop:00000000 usart_stop
     /tmp/ccZaEln7.s:82     .text.uart_lld_serve_tx_end_irq:00000000 $t
     /tmp/ccZaEln7.s:87     .text.uart_lld_serve_tx_end_irq:00000000 uart_lld_serve_tx_end_irq
     /tmp/ccZaEln7.s:166    .text.uart_lld_serve_rx_end_irq:00000000 $t
     /tmp/ccZaEln7.s:171    .text.uart_lld_serve_rx_end_irq:00000000 uart_lld_serve_rx_end_irq
     /tmp/ccZaEln7.s:307    .text.VectorAC:00000000 $t
     /tmp/ccZaEln7.s:313    .text.VectorAC:00000000 VectorAC
     /tmp/ccZaEln7.s:457    .text.VectorAC:00000074 $d
     /tmp/ccZaEln7.s:466    .text.uart_lld_init:00000000 $t
     /tmp/ccZaEln7.s:472    .text.uart_lld_init:00000000 uart_lld_init
     /tmp/ccZaEln7.s:507    .text.uart_lld_init:0000001c $d
     /tmp/ccZaEln7.s:515    .text.uart_lld_start:00000000 $t
     /tmp/ccZaEln7.s:521    .text.uart_lld_start:00000000 uart_lld_start
     /tmp/ccZaEln7.s:746    .text.uart_lld_start:000000dc $d
     /tmp/ccZaEln7.s:756    .text.uart_lld_stop:00000000 $t
     /tmp/ccZaEln7.s:762    .text.uart_lld_stop:00000000 uart_lld_stop
     /tmp/ccZaEln7.s:819    .text.uart_lld_stop:00000034 $d
     /tmp/ccZaEln7.s:826    .text.uart_lld_start_send:00000000 $t
     /tmp/ccZaEln7.s:832    .text.uart_lld_start_send:00000000 uart_lld_start_send
     /tmp/ccZaEln7.s:868    .text.uart_lld_stop_send:00000000 $t
     /tmp/ccZaEln7.s:874    .text.uart_lld_stop_send:00000000 uart_lld_stop_send
     /tmp/ccZaEln7.s:905    .text.uart_lld_start_receive:00000000 $t
     /tmp/ccZaEln7.s:911    .text.uart_lld_start_receive:00000000 uart_lld_start_receive
     /tmp/ccZaEln7.s:961    .text.uart_lld_stop_receive:00000000 $t
     /tmp/ccZaEln7.s:967    .text.uart_lld_stop_receive:00000000 uart_lld_stop_receive
     /tmp/ccZaEln7.s:1063   .bss.UARTD1:00000000 UARTD1
     /tmp/ccZaEln7.s:1059   .bss.UARTD1:00000000 $d
                     .debug_frame:00000010 $d

UNDEFINED SYMBOLS
port_halt
_port_irq_epilogue
uartObjectInit
_stm32_dma_streams
__aeabi_uidiv
dmaStreamAllocate
nvicEnableVector
dmaStreamRelease
nvicDisableVector
