ARM GAS  /tmp/ccZaEln7.s 			page 1


   1              		.syntax unified
   2              		.cpu cortex-m0
   3              		.fpu softvfp
   4              		.eabi_attribute 20, 1
   5              		.eabi_attribute 21, 1
   6              		.eabi_attribute 23, 3
   7              		.eabi_attribute 24, 1
   8              		.eabi_attribute 25, 1
   9              		.eabi_attribute 26, 1
  10              		.eabi_attribute 30, 2
  11              		.eabi_attribute 34, 0
  12              		.eabi_attribute 18, 4
  13              		.thumb
  14              		.syntax unified
  15              		.file	"uart_lld.c"
  16              		.text
  17              	.Ltext0:
  18              		.cfi_sections	.debug_frame
  19              		.section	.text.usart_stop,"ax",%progbits
  20              		.align	2
  21              		.p2align 4,,15
  22              		.code	16
  23              		.thumb_func
  24              		.type	usart_stop, %function
  25              	usart_stop:
  26              	.LFB42:
  27              		.file 1 "../../os/hal/platforms/STM32/USARTv2/uart_lld.c"
  28              		.loc 1 134 0
  29              		.cfi_startproc
  30              		@ args = 0, pretend = 0, frame = 0
  31              		@ frame_needed = 0, uses_anonymous_args = 0
  32              	.LVL0:
  33              		.loc 1 137 0
  34 0000 0F23     		movs	r3, #15
  35 0002 0269     		ldr	r2, [r0, #16]
  36              		.loc 1 134 0
  37 0004 10B5     		push	{r4, lr}
  38              		.cfi_def_cfa_offset 8
  39              		.cfi_offset 4, -8
  40              		.cfi_offset 14, -4
  41              		.loc 1 137 0
  42 0006 1468     		ldr	r4, [r2]
  43              		.loc 1 144 0
  44              		@ sp needed
  45              		.loc 1 137 0
  46 0008 2168     		ldr	r1, [r4]
  47 000a 9943     		bics	r1, r3
  48 000c 2160     		str	r1, [r4]
  49 000e 1C00     		movs	r4, r3
  50 0010 5168     		ldr	r1, [r2, #4]
  51 0012 127A     		ldrb	r2, [r2, #8]
  52 0014 9440     		lsls	r4, r4, r2
  53              		.loc 1 138 0
  54 0016 4269     		ldr	r2, [r0, #20]
  55              		.loc 1 137 0
  56 0018 0C60     		str	r4, [r1]
  57              		.loc 1 138 0
ARM GAS  /tmp/ccZaEln7.s 			page 2


  58 001a 1468     		ldr	r4, [r2]
  59 001c 2168     		ldr	r1, [r4]
  60 001e 9943     		bics	r1, r3
  61 0020 2160     		str	r1, [r4]
  62 0022 5168     		ldr	r1, [r2, #4]
  63 0024 127A     		ldrb	r2, [r2, #8]
  64 0026 9340     		lsls	r3, r3, r2
  65              		.loc 1 141 0
  66 0028 0022     		movs	r2, #0
  67              		.loc 1 138 0
  68 002a 0B60     		str	r3, [r1]
  69              		.loc 1 141 0
  70 002c 8368     		ldr	r3, [r0, #8]
  71 002e 1A60     		str	r2, [r3]
  72              		.loc 1 142 0
  73 0030 5A60     		str	r2, [r3, #4]
  74              		.loc 1 143 0
  75 0032 9A60     		str	r2, [r3, #8]
  76              		.loc 1 144 0
  77 0034 10BD     		pop	{r4, pc}
  78              		.cfi_endproc
  79              	.LFE42:
  80              		.size	usart_stop, .-usart_stop
  81 0036 C046     		.section	.text.uart_lld_serve_tx_end_irq,"ax",%progbits
  82              		.align	2
  83              		.p2align 4,,15
  84              		.code	16
  85              		.thumb_func
  86              		.type	uart_lld_serve_tx_end_irq, %function
  87              	uart_lld_serve_tx_end_irq:
  88              	.LFB45:
  89              		.loc 1 236 0
  90              		.cfi_startproc
  91              		@ args = 0, pretend = 0, frame = 0
  92              		@ frame_needed = 0, uses_anonymous_args = 0
  93              	.LVL1:
  94 0000 10B5     		push	{r4, lr}
  95              		.cfi_def_cfa_offset 8
  96              		.cfi_offset 4, -8
  97              		.cfi_offset 14, -4
  98              		.loc 1 236 0
  99 0002 0400     		movs	r4, r0
 100              		.loc 1 240 0
 101 0004 0B07     		lsls	r3, r1, #28
 102 0006 20D4     		bmi	.L18
 103              	.LVL2:
 104              	.L3:
 105              		.loc 1 247 0
 106 0008 0F23     		movs	r3, #15
 107 000a 6269     		ldr	r2, [r4, #20]
 108 000c 1068     		ldr	r0, [r2]
 109 000e 0168     		ldr	r1, [r0]
 110 0010 9943     		bics	r1, r3
 111 0012 0160     		str	r1, [r0]
 112 0014 5168     		ldr	r1, [r2, #4]
 113 0016 127A     		ldrb	r2, [r2, #8]
 114 0018 9340     		lsls	r3, r3, r2
ARM GAS  /tmp/ccZaEln7.s 			page 3


 115              		.loc 1 252 0
 116 001a 6268     		ldr	r2, [r4, #4]
 117              		.loc 1 247 0
 118 001c 0B60     		str	r3, [r1]
 119              		.loc 1 252 0
 120 001e 5368     		ldr	r3, [r2, #4]
 121 0020 002B     		cmp	r3, #0
 122 0022 04D0     		beq	.L4
 123              		.loc 1 253 0
 124 0024 4023     		movs	r3, #64
 125 0026 A168     		ldr	r1, [r4, #8]
 126 0028 0868     		ldr	r0, [r1]
 127 002a 0343     		orrs	r3, r0
 128 002c 0B60     		str	r3, [r1]
 129              	.L4:
 130              		.loc 1 256 0
 131 002e 0223     		movs	r3, #2
 132 0030 6370     		strb	r3, [r4, #1]
 133              		.loc 1 257 0
 134 0032 1368     		ldr	r3, [r2]
 135 0034 002B     		cmp	r3, #0
 136 0036 05D0     		beq	.L7
 137              		.loc 1 258 0
 138 0038 2000     		movs	r0, r4
 139 003a 9847     		blx	r3
 140              	.LVL3:
 141              		.loc 1 262 0
 142 003c 6378     		ldrb	r3, [r4, #1]
 143 003e 022B     		cmp	r3, #2
 144 0040 00D0     		beq	.L7
 145              	.L2:
 146              		.loc 1 264 0
 147              		@ sp needed
 148              	.LVL4:
 149 0042 10BD     		pop	{r4, pc}
 150              	.LVL5:
 151              	.L7:
 152              		.loc 1 263 0
 153 0044 0023     		movs	r3, #0
 154 0046 6370     		strb	r3, [r4, #1]
 155 0048 FBE7     		b	.L2
 156              	.LVL6:
 157              	.L18:
 158              		.loc 1 241 0
 159 004a FFF7FEFF 		bl	port_halt
 160              	.LVL7:
 161 004e DBE7     		b	.L3
 162              		.cfi_endproc
 163              	.LFE45:
 164              		.size	uart_lld_serve_tx_end_irq, .-uart_lld_serve_tx_end_irq
 165              		.section	.text.uart_lld_serve_rx_end_irq,"ax",%progbits
 166              		.align	2
 167              		.p2align 4,,15
 168              		.code	16
 169              		.thumb_func
 170              		.type	uart_lld_serve_rx_end_irq, %function
 171              	uart_lld_serve_rx_end_irq:
ARM GAS  /tmp/ccZaEln7.s 			page 4


 172              	.LFB44:
 173              		.loc 1 196 0
 174              		.cfi_startproc
 175              		@ args = 0, pretend = 0, frame = 0
 176              		@ frame_needed = 0, uses_anonymous_args = 0
 177              	.LVL8:
 178 0000 10B5     		push	{r4, lr}
 179              		.cfi_def_cfa_offset 8
 180              		.cfi_offset 4, -8
 181              		.cfi_offset 14, -4
 182              		.loc 1 196 0
 183 0002 0400     		movs	r4, r0
 184              		.loc 1 200 0
 185 0004 0B07     		lsls	r3, r1, #28
 186 0006 35D4     		bmi	.L32
 187              	.LVL9:
 188              	.L20:
 189              		.loc 1 207 0
 190 0008 A378     		ldrb	r3, [r4, #2]
 191 000a 002B     		cmp	r3, #0
 192 000c 08D1     		bne	.L21
 193              		.loc 1 210 0
 194 000e 6368     		ldr	r3, [r4, #4]
 195 0010 DB68     		ldr	r3, [r3, #12]
 196 0012 002B     		cmp	r3, #0
 197 0014 03D0     		beq	.L19
 198              		.loc 1 211 0
 199 0016 218B     		ldrh	r1, [r4, #24]
 200 0018 2000     		movs	r0, r4
 201 001a 89B2     		uxth	r1, r1
 202 001c 9847     		blx	r3
 203              	.LVL10:
 204              	.L19:
 205              		.loc 1 228 0
 206              		@ sp needed
 207              	.LVL11:
 208 001e 10BD     		pop	{r4, pc}
 209              	.LVL12:
 210              	.L21:
 211              	.LBB14:
 212              	.LBB15:
 213              		.loc 1 216 0
 214 0020 0F22     		movs	r2, #15
 215 0022 2169     		ldr	r1, [r4, #16]
 216 0024 0B68     		ldr	r3, [r1]
 217 0026 1868     		ldr	r0, [r3]
 218 0028 9043     		bics	r0, r2
 219 002a 1860     		str	r0, [r3]
 220 002c 4868     		ldr	r0, [r1, #4]
 221 002e 097A     		ldrb	r1, [r1, #8]
 222 0030 8A40     		lsls	r2, r2, r1
 223 0032 0260     		str	r2, [r0]
 224              		.loc 1 217 0
 225 0034 0222     		movs	r2, #2
 226              		.loc 1 218 0
 227 0036 6168     		ldr	r1, [r4, #4]
 228              		.loc 1 217 0
ARM GAS  /tmp/ccZaEln7.s 			page 5


 229 0038 A270     		strb	r2, [r4, #2]
 230              		.loc 1 218 0
 231 003a 8A68     		ldr	r2, [r1, #8]
 232 003c 002A     		cmp	r2, #0
 233 003e 07D0     		beq	.L24
 234              		.loc 1 219 0
 235 0040 2000     		movs	r0, r4
 236 0042 9047     		blx	r2
 237              	.LVL13:
 238              		.loc 1 223 0
 239 0044 A378     		ldrb	r3, [r4, #2]
 240 0046 022B     		cmp	r3, #2
 241 0048 E9D1     		bne	.L19
 242 004a 2369     		ldr	r3, [r4, #16]
 243 004c 6168     		ldr	r1, [r4, #4]
 244 004e 1B68     		ldr	r3, [r3]
 245              	.L24:
 246              		.loc 1 224 0
 247 0050 0022     		movs	r2, #0
 248 0052 A270     		strb	r2, [r4, #2]
 249              	.LVL14:
 250              	.LBB16:
 251              	.LBB17:
 252              		.loc 1 118 0
 253 0054 CA68     		ldr	r2, [r1, #12]
 254              		.loc 1 121 0
 255 0056 2220     		movs	r0, #34
 256              		.loc 1 118 0
 257 0058 002A     		cmp	r2, #0
 258 005a 0ED0     		beq	.L33
 259              	.L26:
 260              	.LVL15:
 261              		.loc 1 122 0
 262 005c 2200     		movs	r2, r4
 263 005e 1832     		adds	r2, r2, #24
 264 0060 DA60     		str	r2, [r3, #12]
 265              		.loc 1 123 0
 266 0062 0122     		movs	r2, #1
 267              		.loc 1 124 0
 268 0064 E168     		ldr	r1, [r4, #12]
 269              		.loc 1 123 0
 270 0066 5A60     		str	r2, [r3, #4]
 271              		.loc 1 124 0
 272 0068 0143     		orrs	r1, r0
 273 006a 1960     		str	r1, [r3]
 274              		.loc 1 125 0
 275 006c 1968     		ldr	r1, [r3]
 276 006e 0A43     		orrs	r2, r1
 277 0070 1A60     		str	r2, [r3]
 278              	.LBE17:
 279              	.LBE16:
 280              	.LBE15:
 281              	.LBE14:
 282              		.loc 1 228 0
 283 0072 D4E7     		b	.L19
 284              	.LVL16:
 285              	.L32:
ARM GAS  /tmp/ccZaEln7.s 			page 6


 286              		.loc 1 201 0
 287 0074 FFF7FEFF 		bl	port_halt
 288              	.LVL17:
 289 0078 C6E7     		b	.L20
 290              	.LVL18:
 291              	.L33:
 292              	.LBB21:
 293              	.LBB20:
 294              	.LBB19:
 295              	.LBB18:
 296              		.loc 1 119 0
 297 007a 0238     		subs	r0, r0, #2
 298 007c EEE7     		b	.L26
 299              	.LBE18:
 300              	.LBE19:
 301              	.LBE20:
 302              	.LBE21:
 303              		.cfi_endproc
 304              	.LFE44:
 305              		.size	uart_lld_serve_rx_end_irq, .-uart_lld_serve_rx_end_irq
 306 007e C046     		.section	.text.VectorAC,"ax",%progbits
 307              		.align	2
 308              		.p2align 4,,15
 309              		.global	VectorAC
 310              		.code	16
 311              		.thumb_func
 312              		.type	VectorAC, %function
 313              	VectorAC:
 314              	.LFB47:
 315              		.loc 1 309 0
 316              		.cfi_startproc
 317              		@ args = 0, pretend = 0, frame = 0
 318              		@ frame_needed = 0, uses_anonymous_args = 0
 319 0000 F0B5     		push	{r4, r5, r6, r7, lr}
 320              		.cfi_def_cfa_offset 20
 321              		.cfi_offset 4, -20
 322              		.cfi_offset 5, -16
 323              		.cfi_offset 6, -12
 324              		.cfi_offset 7, -8
 325              		.cfi_offset 14, -4
 326 0002 4746     		mov	r7, r8
 327 0004 80B4     		push	{r7}
 328              		.cfi_def_cfa_offset 24
 329              		.cfi_offset 8, -24
 330              		.loc 1 311 0
 331              		.syntax divided
 332              	@ 311 "../../os/hal/platforms/STM32/USARTv2/uart_lld.c" 1
 333 0006 F046     		mov     r8, lr
 334              	@ 0 "" 2
 335              	.LVL19:
 336              		.thumb
 337              		.syntax unified
 338              	.LBB26:
 339              	.LBB27:
 340              		.loc 1 280 0
 341 0008 1023     		movs	r3, #16
 342              		.loc 1 273 0
ARM GAS  /tmp/ccZaEln7.s 			page 7


 343 000a 1A4E     		ldr	r6, .L70
 344              		.loc 1 280 0
 345 000c FF33     		adds	r3, r3, #255
 346              		.loc 1 273 0
 347 000e B568     		ldr	r5, [r6, #8]
 348              	.LVL20:
 349              		.loc 1 274 0
 350 0010 2F68     		ldr	r7, [r5]
 351              	.LVL21:
 352              		.loc 1 277 0
 353 0012 EC69     		ldr	r4, [r5, #28]
 354              	.LVL22:
 355              		.loc 1 278 0
 356 0014 2C62     		str	r4, [r5, #32]
 357              		.loc 1 280 0
 358 0016 1C42     		tst	r4, r3
 359 0018 16D0     		beq	.L35
 360              		.loc 1 282 0
 361 001a 7368     		ldr	r3, [r6, #4]
 362 001c 1B69     		ldr	r3, [r3, #16]
 363 001e 002B     		cmp	r3, #0
 364 0020 12D0     		beq	.L35
 365              	.LVL23:
 366              	.LBB28:
 367              	.LBB29:
 368              		.loc 1 95 0
 369 0022 2107     		lsls	r1, r4, #28
 370              		.loc 1 96 0
 371 0024 C90F     		lsrs	r1, r1, #31
 372 0026 0901     		lsls	r1, r1, #4
 373              	.LVL24:
 374              		.loc 1 97 0
 375 0028 E207     		lsls	r2, r4, #31
 376 002a 01D5     		bpl	.L37
 377              		.loc 1 98 0
 378 002c 0422     		movs	r2, #4
 379 002e 1143     		orrs	r1, r2
 380              	.LVL25:
 381              	.L37:
 382              		.loc 1 99 0
 383 0030 A207     		lsls	r2, r4, #30
 384 0032 01D5     		bpl	.L38
 385              		.loc 1 100 0
 386 0034 0822     		movs	r2, #8
 387 0036 1143     		orrs	r1, r2
 388              	.LVL26:
 389              	.L38:
 390              		.loc 1 101 0
 391 0038 6207     		lsls	r2, r4, #29
 392 003a 18D4     		bmi	.L69
 393              	.L39:
 394              		.loc 1 103 0
 395 003c E205     		lsls	r2, r4, #23
 396 003e 01D5     		bpl	.L40
 397              		.loc 1 104 0
 398 0040 4022     		movs	r2, #64
 399 0042 1143     		orrs	r1, r2
ARM GAS  /tmp/ccZaEln7.s 			page 8


 400              	.LVL27:
 401              	.L40:
 402              	.LBE29:
 403              	.LBE28:
 404              		.loc 1 283 0
 405 0044 3000     		movs	r0, r6
 406 0046 9847     		blx	r3
 407              	.LVL28:
 408              	.L35:
 409              		.loc 1 286 0
 410 0048 4023     		movs	r3, #64
 411 004a 2342     		tst	r3, r4
 412 004c 09D0     		beq	.L42
 413 004e 3B42     		tst	r3, r7
 414 0050 07D0     		beq	.L42
 415              		.loc 1 288 0
 416 0052 9F43     		bics	r7, r3
 417              	.LVL29:
 418              		.loc 1 291 0
 419 0054 7368     		ldr	r3, [r6, #4]
 420              		.loc 1 288 0
 421 0056 2F60     		str	r7, [r5]
 422              		.loc 1 291 0
 423 0058 5B68     		ldr	r3, [r3, #4]
 424 005a 002B     		cmp	r3, #0
 425 005c 01D0     		beq	.L42
 426              		.loc 1 292 0
 427 005e 3000     		movs	r0, r6
 428 0060 9847     		blx	r3
 429              	.LVL30:
 430              	.L42:
 431              	.LBE27:
 432              	.LBE26:
 433              		.loc 1 315 0
 434 0062 4046     		mov	r0, r8
 435 0064 FFF7FEFF 		bl	_port_irq_epilogue
 436              	.LVL31:
 437              		.loc 1 316 0
 438              		@ sp needed
 439              	.LVL32:
 440 0068 04BC     		pop	{r2}
 441 006a 9046     		mov	r8, r2
 442 006c F0BD     		pop	{r4, r5, r6, r7, pc}
 443              	.LVL33:
 444              	.L69:
 445              	.LBB33:
 446              	.LBB32:
 447              	.LBB31:
 448              	.LBB30:
 449              		.loc 1 102 0
 450 006e 2022     		movs	r2, #32
 451 0070 1143     		orrs	r1, r2
 452              	.LVL34:
 453 0072 E3E7     		b	.L39
 454              	.L71:
 455              		.align	2
 456              	.L70:
ARM GAS  /tmp/ccZaEln7.s 			page 9


 457 0074 00000000 		.word	.LANCHOR0
 458              	.LBE30:
 459              	.LBE31:
 460              	.LBE32:
 461              	.LBE33:
 462              		.cfi_endproc
 463              	.LFE47:
 464              		.size	VectorAC, .-VectorAC
 465              		.section	.text.uart_lld_init,"ax",%progbits
 466              		.align	2
 467              		.p2align 4,,15
 468              		.global	uart_lld_init
 469              		.code	16
 470              		.thumb_func
 471              		.type	uart_lld_init, %function
 472              	uart_lld_init:
 473              	.LFB48:
 474              		.loc 1 366 0
 475              		.cfi_startproc
 476              		@ args = 0, pretend = 0, frame = 0
 477              		@ frame_needed = 0, uses_anonymous_args = 0
 478 0000 10B5     		push	{r4, lr}
 479              		.cfi_def_cfa_offset 8
 480              		.cfi_offset 4, -8
 481              		.cfi_offset 14, -4
 482              		.loc 1 369 0
 483 0002 064C     		ldr	r4, .L73
 484              		.loc 1 391 0
 485              		@ sp needed
 486              		.loc 1 369 0
 487 0004 2000     		movs	r0, r4
 488 0006 FFF7FEFF 		bl	uartObjectInit
 489              	.LVL35:
 490              		.loc 1 370 0
 491 000a 054B     		ldr	r3, .L73+4
 492 000c A360     		str	r3, [r4, #8]
 493              		.loc 1 371 0
 494 000e 0823     		movs	r3, #8
 495 0010 E360     		str	r3, [r4, #12]
 496              		.loc 1 372 0
 497 0012 044B     		ldr	r3, .L73+8
 498 0014 2361     		str	r3, [r4, #16]
 499              		.loc 1 373 0
 500 0016 0C3B     		subs	r3, r3, #12
 501 0018 6361     		str	r3, [r4, #20]
 502              		.loc 1 391 0
 503 001a 10BD     		pop	{r4, pc}
 504              	.L74:
 505              		.align	2
 506              	.L73:
 507 001c 00000000 		.word	.LANCHOR0
 508 0020 00380140 		.word	1073821696
 509 0024 18000000 		.word	_stm32_dma_streams+24
 510              		.cfi_endproc
 511              	.LFE48:
 512              		.size	uart_lld_init, .-uart_lld_init
 513              		.global	__aeabi_uidiv
ARM GAS  /tmp/ccZaEln7.s 			page 10


 514              		.section	.text.uart_lld_start,"ax",%progbits
 515              		.align	2
 516              		.p2align 4,,15
 517              		.global	uart_lld_start
 518              		.code	16
 519              		.thumb_func
 520              		.type	uart_lld_start, %function
 521              	uart_lld_start:
 522              	.LFB49:
 523              		.loc 1 400 0
 524              		.cfi_startproc
 525              		@ args = 0, pretend = 0, frame = 0
 526              		@ frame_needed = 0, uses_anonymous_args = 0
 527              	.LVL36:
 528              		.loc 1 402 0
 529 0000 0378     		ldrb	r3, [r0]
 530              		.loc 1 400 0
 531 0002 70B5     		push	{r4, r5, r6, lr}
 532              		.cfi_def_cfa_offset 16
 533              		.cfi_offset 4, -16
 534              		.cfi_offset 5, -12
 535              		.cfi_offset 6, -8
 536              		.cfi_offset 14, -4
 537              		.loc 1 400 0
 538 0004 0400     		movs	r4, r0
 539              		.loc 1 402 0
 540 0006 012B     		cmp	r3, #1
 541 0008 2FD0     		beq	.L76
 542 000a 8568     		ldr	r5, [r0, #8]
 543              	.LVL37:
 544              	.L77:
 545              		.loc 1 475 0
 546 000c 0023     		movs	r3, #0
 547              	.LBB39:
 548              	.LBB40:
 549              		.loc 1 157 0
 550 000e 2000     		movs	r0, r4
 551              	.LBE40:
 552              	.LBE39:
 553              		.loc 1 475 0
 554 0010 A370     		strb	r3, [r4, #2]
 555              		.loc 1 476 0
 556 0012 6370     		strb	r3, [r4, #1]
 557              	.LVL38:
 558              	.LBB52:
 559              	.LBB49:
 560              		.loc 1 157 0
 561 0014 FFF7FEFF 		bl	usart_stop
 562              	.LVL39:
 563              		.loc 1 162 0
 564 0018 6668     		ldr	r6, [r4, #4]
 565 001a 3048     		ldr	r0, .L87
 566 001c 7169     		ldr	r1, [r6, #20]
 567              		.loc 1 164 0
 568 001e FFF7FEFF 		bl	__aeabi_uidiv
 569              	.LVL40:
 570              		.loc 1 173 0
ARM GAS  /tmp/ccZaEln7.s 			page 11


 571 0022 0123     		movs	r3, #1
 572              		.loc 1 177 0
 573 0024 F269     		ldr	r2, [r6, #28]
 574              		.loc 1 164 0
 575 0026 80B2     		uxth	r0, r0
 576              		.loc 1 173 0
 577 0028 5B42     		rsbs	r3, r3, #0
 578              		.loc 1 164 0
 579 002a A881     		strh	r0, [r5, #12]
 580              		.loc 1 173 0
 581 002c 2B62     		str	r3, [r5, #32]
 582              		.loc 1 177 0
 583 002e 4133     		adds	r3, r3, #65
 584 0030 1343     		orrs	r3, r2
 585 0032 6B60     		str	r3, [r5, #4]
 586              		.loc 1 178 0
 587 0034 C123     		movs	r3, #193
 588 0036 326A     		ldr	r2, [r6, #32]
 589              	.LBB41:
 590              	.LBB42:
 591              		.loc 1 121 0
 592 0038 2220     		movs	r0, #34
 593              	.LBE42:
 594              	.LBE41:
 595              		.loc 1 178 0
 596 003a 1343     		orrs	r3, r2
 597 003c AB60     		str	r3, [r5, #8]
 598              	.LVL41:
 599              		.loc 1 184 0
 600 003e 0E23     		movs	r3, #14
 601 0040 B269     		ldr	r2, [r6, #24]
 602 0042 FF33     		adds	r3, r3, #255
 603 0044 1343     		orrs	r3, r2
 604 0046 2B60     		str	r3, [r5]
 605              	.LVL42:
 606              	.LBB46:
 607              	.LBB43:
 608              		.loc 1 118 0
 609 0048 F368     		ldr	r3, [r6, #12]
 610 004a 002B     		cmp	r3, #0
 611 004c 2CD0     		beq	.L84
 612              	.L82:
 613              	.LVL43:
 614              		.loc 1 122 0
 615 004e 2200     		movs	r2, r4
 616 0050 2369     		ldr	r3, [r4, #16]
 617 0052 1832     		adds	r2, r2, #24
 618 0054 1B68     		ldr	r3, [r3]
 619              		.loc 1 124 0
 620 0056 E168     		ldr	r1, [r4, #12]
 621              		.loc 1 122 0
 622 0058 DA60     		str	r2, [r3, #12]
 623              		.loc 1 123 0
 624 005a 0122     		movs	r2, #1
 625              		.loc 1 124 0
 626 005c 0143     		orrs	r1, r0
 627              		.loc 1 123 0
ARM GAS  /tmp/ccZaEln7.s 			page 12


 628 005e 5A60     		str	r2, [r3, #4]
 629              		.loc 1 124 0
 630 0060 1960     		str	r1, [r3]
 631              		.loc 1 125 0
 632 0062 1968     		ldr	r1, [r3]
 633              	.LBE43:
 634              	.LBE46:
 635              	.LBE49:
 636              	.LBE52:
 637              		.loc 1 478 0
 638              		@ sp needed
 639              	.LBB53:
 640              	.LBB50:
 641              	.LBB47:
 642              	.LBB44:
 643              		.loc 1 125 0
 644 0064 0A43     		orrs	r2, r1
 645 0066 1A60     		str	r2, [r3]
 646              	.LVL44:
 647              	.LVL45:
 648              	.LBE44:
 649              	.LBE47:
 650              	.LBE50:
 651              	.LBE53:
 652              		.loc 1 478 0
 653 0068 70BD     		pop	{r4, r5, r6, pc}
 654              	.LVL46:
 655              	.L76:
 656              		.loc 1 404 0
 657 006a 1D4B     		ldr	r3, .L87+4
 658 006c 9842     		cmp	r0, r3
 659 006e 1DD0     		beq	.L85
 660              	.LVL47:
 661              	.L78:
 662              		.loc 1 468 0
 663 0070 6368     		ldr	r3, [r4, #4]
 664 0072 9A69     		ldr	r2, [r3, #24]
 665 0074 A023     		movs	r3, #160
 666 0076 5B01     		lsls	r3, r3, #5
 667 0078 1340     		ands	r3, r2
 668 007a 8022     		movs	r2, #128
 669 007c 5201     		lsls	r2, r2, #5
 670 007e 9342     		cmp	r3, r2
 671 0080 0CD0     		beq	.L86
 672              	.L79:
 673              		.loc 1 470 0
 674 0082 A568     		ldr	r5, [r4, #8]
 675 0084 2369     		ldr	r3, [r4, #16]
 676 0086 2A00     		movs	r2, r5
 677 0088 1B68     		ldr	r3, [r3]
 678 008a 2432     		adds	r2, r2, #36
 679 008c 9A60     		str	r2, [r3, #8]
 680              		.loc 1 471 0
 681 008e 6369     		ldr	r3, [r4, #20]
 682 0090 0432     		adds	r2, r2, #4
 683 0092 1B68     		ldr	r3, [r3]
 684 0094 9A60     		str	r2, [r3, #8]
ARM GAS  /tmp/ccZaEln7.s 			page 13


 685              		.loc 1 472 0
 686 0096 0023     		movs	r3, #0
 687 0098 2383     		strh	r3, [r4, #24]
 688 009a B7E7     		b	.L77
 689              	.L86:
 690              		.loc 1 469 0
 691 009c A023     		movs	r3, #160
 692 009e E268     		ldr	r2, [r4, #12]
 693 00a0 DB00     		lsls	r3, r3, #3
 694 00a2 1343     		orrs	r3, r2
 695 00a4 E360     		str	r3, [r4, #12]
 696 00a6 ECE7     		b	.L79
 697              	.LVL48:
 698              	.L84:
 699              	.LBB54:
 700              	.LBB51:
 701              	.LBB48:
 702              	.LBB45:
 703              		.loc 1 119 0
 704 00a8 0238     		subs	r0, r0, #2
 705 00aa D0E7     		b	.L82
 706              	.LVL49:
 707              	.L85:
 708              	.LBE45:
 709              	.LBE48:
 710              	.LBE51:
 711              	.LBE54:
 712              	.LBB55:
 713              		.loc 1 406 0
 714 00ac 0300     		movs	r3, r0
 715 00ae 0D4A     		ldr	r2, .L87+8
 716 00b0 0321     		movs	r1, #3
 717 00b2 0069     		ldr	r0, [r0, #16]
 718              	.LVL50:
 719 00b4 FFF7FEFF 		bl	dmaStreamAllocate
 720              	.LVL51:
 721              		.loc 1 411 0
 722 00b8 2300     		movs	r3, r4
 723 00ba 0B4A     		ldr	r2, .L87+12
 724 00bc 0321     		movs	r1, #3
 725 00be 6069     		ldr	r0, [r4, #20]
 726 00c0 FFF7FEFF 		bl	dmaStreamAllocate
 727              	.LVL52:
 728              		.loc 1 416 0
 729 00c4 8021     		movs	r1, #128
 730 00c6 094A     		ldr	r2, .L87+16
 731 00c8 C901     		lsls	r1, r1, #7
 732 00ca 9369     		ldr	r3, [r2, #24]
 733              		.loc 1 417 0
 734 00cc 1B20     		movs	r0, #27
 735              		.loc 1 416 0
 736 00ce 0B43     		orrs	r3, r1
 737 00d0 9361     		str	r3, [r2, #24]
 738              		.loc 1 417 0
 739 00d2 C021     		movs	r1, #192
 740 00d4 FFF7FEFF 		bl	nvicEnableVector
 741              	.LVL53:
ARM GAS  /tmp/ccZaEln7.s 			page 14


 742 00d8 CAE7     		b	.L78
 743              	.L88:
 744 00da C046     		.align	2
 745              	.L87:
 746 00dc 006CDC02 		.word	48000000
 747 00e0 00000000 		.word	.LANCHOR0
 748 00e4 00000000 		.word	uart_lld_serve_rx_end_irq
 749 00e8 00000000 		.word	uart_lld_serve_tx_end_irq
 750 00ec 00100240 		.word	1073876992
 751              	.LBE55:
 752              		.cfi_endproc
 753              	.LFE49:
 754              		.size	uart_lld_start, .-uart_lld_start
 755              		.section	.text.uart_lld_stop,"ax",%progbits
 756              		.align	2
 757              		.p2align 4,,15
 758              		.global	uart_lld_stop
 759              		.code	16
 760              		.thumb_func
 761              		.type	uart_lld_stop, %function
 762              	uart_lld_stop:
 763              	.LFB50:
 764              		.loc 1 487 0
 765              		.cfi_startproc
 766              		@ args = 0, pretend = 0, frame = 0
 767              		@ frame_needed = 0, uses_anonymous_args = 0
 768              	.LVL54:
 769              		.loc 1 489 0
 770 0000 0378     		ldrb	r3, [r0]
 771              		.loc 1 487 0
 772 0002 10B5     		push	{r4, lr}
 773              		.cfi_def_cfa_offset 8
 774              		.cfi_offset 4, -8
 775              		.cfi_offset 14, -4
 776              		.loc 1 487 0
 777 0004 0400     		movs	r4, r0
 778              		.loc 1 489 0
 779 0006 022B     		cmp	r3, #2
 780 0008 00D0     		beq	.L93
 781              	.LVL55:
 782              	.L89:
 783              		.loc 1 518 0
 784              		@ sp needed
 785              	.LVL56:
 786 000a 10BD     		pop	{r4, pc}
 787              	.LVL57:
 788              	.L93:
 789              		.loc 1 490 0
 790 000c FFF7FEFF 		bl	usart_stop
 791              	.LVL58:
 792              		.loc 1 491 0
 793 0010 2069     		ldr	r0, [r4, #16]
 794 0012 FFF7FEFF 		bl	dmaStreamRelease
 795              	.LVL59:
 796              		.loc 1 492 0
 797 0016 6069     		ldr	r0, [r4, #20]
 798 0018 FFF7FEFF 		bl	dmaStreamRelease
ARM GAS  /tmp/ccZaEln7.s 			page 15


 799              	.LVL60:
 800              		.loc 1 495 0
 801 001c 054B     		ldr	r3, .L94
 802 001e 9C42     		cmp	r4, r3
 803 0020 F3D1     		bne	.L89
 804              		.loc 1 496 0
 805 0022 1B20     		movs	r0, #27
 806 0024 FFF7FEFF 		bl	nvicDisableVector
 807              	.LVL61:
 808              		.loc 1 497 0
 809 0028 034A     		ldr	r2, .L94+4
 810 002a 044B     		ldr	r3, .L94+8
 811 002c 9169     		ldr	r1, [r2, #24]
 812 002e 0B40     		ands	r3, r1
 813 0030 9361     		str	r3, [r2, #24]
 814              		.loc 1 498 0
 815 0032 EAE7     		b	.L89
 816              	.L95:
 817              		.align	2
 818              	.L94:
 819 0034 00000000 		.word	.LANCHOR0
 820 0038 00100240 		.word	1073876992
 821 003c FFBFFFFF 		.word	-16385
 822              		.cfi_endproc
 823              	.LFE50:
 824              		.size	uart_lld_stop, .-uart_lld_stop
 825              		.section	.text.uart_lld_start_send,"ax",%progbits
 826              		.align	2
 827              		.p2align 4,,15
 828              		.global	uart_lld_start_send
 829              		.code	16
 830              		.thumb_func
 831              		.type	uart_lld_start_send, %function
 832              	uart_lld_start_send:
 833              	.LFB51:
 834              		.loc 1 531 0
 835              		.cfi_startproc
 836              		@ args = 0, pretend = 0, frame = 0
 837              		@ frame_needed = 0, uses_anonymous_args = 0
 838              		@ link register save eliminated.
 839              	.LVL62:
 840              		.loc 1 534 0
 841 0000 4369     		ldr	r3, [r0, #20]
 842              		.loc 1 539 0
 843              		@ sp needed
 844              		.loc 1 534 0
 845 0002 1B68     		ldr	r3, [r3]
 846 0004 DA60     		str	r2, [r3, #12]
 847              		.loc 1 535 0
 848 0006 5960     		str	r1, [r3, #4]
 849              		.loc 1 536 0
 850 0008 9221     		movs	r1, #146
 851              	.LVL63:
 852 000a C268     		ldr	r2, [r0, #12]
 853              	.LVL64:
 854 000c 0A43     		orrs	r2, r1
 855 000e 1A60     		str	r2, [r3]
ARM GAS  /tmp/ccZaEln7.s 			page 16


 856              	.LVL65:
 857              		.loc 1 538 0
 858 0010 0122     		movs	r2, #1
 859 0012 1968     		ldr	r1, [r3]
 860 0014 0A43     		orrs	r2, r1
 861 0016 1A60     		str	r2, [r3]
 862              		.loc 1 539 0
 863 0018 7047     		bx	lr
 864              		.cfi_endproc
 865              	.LFE51:
 866              		.size	uart_lld_start_send, .-uart_lld_start_send
 867 001a C046     		.section	.text.uart_lld_stop_send,"ax",%progbits
 868              		.align	2
 869              		.p2align 4,,15
 870              		.global	uart_lld_stop_send
 871              		.code	16
 872              		.thumb_func
 873              		.type	uart_lld_stop_send, %function
 874              	uart_lld_stop_send:
 875              	.LFB52:
 876              		.loc 1 552 0
 877              		.cfi_startproc
 878              		@ args = 0, pretend = 0, frame = 0
 879              		@ frame_needed = 0, uses_anonymous_args = 0
 880              		@ link register save eliminated.
 881              	.LVL66:
 882              		.loc 1 554 0
 883 0000 0F23     		movs	r3, #15
 884 0002 4169     		ldr	r1, [r0, #20]
 885              		.loc 1 556 0
 886              		@ sp needed
 887              		.loc 1 554 0
 888 0004 0A68     		ldr	r2, [r1]
 889 0006 1068     		ldr	r0, [r2]
 890              	.LVL67:
 891 0008 9843     		bics	r0, r3
 892 000a 1060     		str	r0, [r2]
 893 000c 4868     		ldr	r0, [r1, #4]
 894 000e 097A     		ldrb	r1, [r1, #8]
 895 0010 8B40     		lsls	r3, r3, r1
 896 0012 0360     		str	r3, [r0]
 897              		.loc 1 555 0
 898 0014 5068     		ldr	r0, [r2, #4]
 899              		.loc 1 556 0
 900 0016 7047     		bx	lr
 901              		.cfi_endproc
 902              	.LFE52:
 903              		.size	uart_lld_stop_send, .-uart_lld_stop_send
 904              		.section	.text.uart_lld_start_receive,"ax",%progbits
 905              		.align	2
 906              		.p2align 4,,15
 907              		.global	uart_lld_start_receive
 908              		.code	16
 909              		.thumb_func
 910              		.type	uart_lld_start_receive, %function
 911              	uart_lld_start_receive:
 912              	.LFB53:
ARM GAS  /tmp/ccZaEln7.s 			page 17


 913              		.loc 1 569 0
 914              		.cfi_startproc
 915              		@ args = 0, pretend = 0, frame = 0
 916              		@ frame_needed = 0, uses_anonymous_args = 0
 917              	.LVL68:
 918 0000 70B5     		push	{r4, r5, r6, lr}
 919              		.cfi_def_cfa_offset 16
 920              		.cfi_offset 4, -16
 921              		.cfi_offset 5, -12
 922              		.cfi_offset 6, -8
 923              		.cfi_offset 14, -4
 924              		.loc 1 572 0
 925 0002 0F24     		movs	r4, #15
 926 0004 0569     		ldr	r5, [r0, #16]
 927              		.loc 1 580 0
 928              		@ sp needed
 929              		.loc 1 572 0
 930 0006 2B68     		ldr	r3, [r5]
 931 0008 1E68     		ldr	r6, [r3]
 932 000a A643     		bics	r6, r4
 933 000c 1E60     		str	r6, [r3]
 934 000e 6E68     		ldr	r6, [r5, #4]
 935 0010 2D7A     		ldrb	r5, [r5, #8]
 936 0012 AC40     		lsls	r4, r4, r5
 937 0014 3460     		str	r4, [r6]
 938              		.loc 1 575 0
 939 0016 DA60     		str	r2, [r3, #12]
 940              		.loc 1 576 0
 941 0018 5960     		str	r1, [r3, #4]
 942              		.loc 1 577 0
 943 001a 8221     		movs	r1, #130
 944              	.LVL69:
 945 001c C268     		ldr	r2, [r0, #12]
 946              	.LVL70:
 947 001e 0A43     		orrs	r2, r1
 948 0020 1A60     		str	r2, [r3]
 949              	.LVL71:
 950              		.loc 1 579 0
 951 0022 0122     		movs	r2, #1
 952 0024 1968     		ldr	r1, [r3]
 953 0026 0A43     		orrs	r2, r1
 954 0028 1A60     		str	r2, [r3]
 955              		.loc 1 580 0
 956 002a 70BD     		pop	{r4, r5, r6, pc}
 957              		.cfi_endproc
 958              	.LFE53:
 959              		.size	uart_lld_start_receive, .-uart_lld_start_receive
 960              		.section	.text.uart_lld_stop_receive,"ax",%progbits
 961              		.align	2
 962              		.p2align 4,,15
 963              		.global	uart_lld_stop_receive
 964              		.code	16
 965              		.thumb_func
 966              		.type	uart_lld_stop_receive, %function
 967              	uart_lld_stop_receive:
 968              	.LFB54:
 969              		.loc 1 593 0
ARM GAS  /tmp/ccZaEln7.s 			page 18


 970              		.cfi_startproc
 971              		@ args = 0, pretend = 0, frame = 0
 972              		@ frame_needed = 0, uses_anonymous_args = 0
 973              	.LVL72:
 974              		.loc 1 596 0
 975 0000 0F22     		movs	r2, #15
 976              		.loc 1 593 0
 977 0002 0100     		movs	r1, r0
 978              		.loc 1 596 0
 979 0004 0069     		ldr	r0, [r0, #16]
 980              	.LVL73:
 981              		.loc 1 593 0
 982 0006 10B5     		push	{r4, lr}
 983              		.cfi_def_cfa_offset 8
 984              		.cfi_offset 4, -8
 985              		.cfi_offset 14, -4
 986              		.loc 1 596 0
 987 0008 0368     		ldr	r3, [r0]
 988 000a 1C68     		ldr	r4, [r3]
 989 000c 9443     		bics	r4, r2
 990 000e 1C60     		str	r4, [r3]
 991 0010 4468     		ldr	r4, [r0, #4]
 992 0012 007A     		ldrb	r0, [r0, #8]
 993 0014 8240     		lsls	r2, r2, r0
 994 0016 2260     		str	r2, [r4]
 995              	.LBB56:
 996              	.LBB57:
 997              		.loc 1 118 0
 998 0018 4A68     		ldr	r2, [r1, #4]
 999              	.LBE57:
 1000              	.LBE56:
 1001              		.loc 1 597 0
 1002 001a 5868     		ldr	r0, [r3, #4]
 1003              	.LVL74:
 1004              	.LBB61:
 1005              	.LBB58:
 1006              		.loc 1 118 0
 1007 001c D268     		ldr	r2, [r2, #12]
 1008 001e 002A     		cmp	r2, #0
 1009 0020 0CD0     		beq	.L101
 1010              		.loc 1 121 0
 1011 0022 2224     		movs	r4, #34
 1012              	.L100:
 1013              	.LVL75:
 1014              		.loc 1 122 0
 1015 0024 0A00     		movs	r2, r1
 1016 0026 1832     		adds	r2, r2, #24
 1017 0028 DA60     		str	r2, [r3, #12]
 1018              		.loc 1 123 0
 1019 002a 0122     		movs	r2, #1
 1020              		.loc 1 124 0
 1021 002c C968     		ldr	r1, [r1, #12]
 1022              	.LVL76:
 1023              		.loc 1 123 0
 1024 002e 5A60     		str	r2, [r3, #4]
 1025              	.LVL77:
 1026              		.loc 1 124 0
ARM GAS  /tmp/ccZaEln7.s 			page 19


 1027 0030 2143     		orrs	r1, r4
 1028 0032 1960     		str	r1, [r3]
 1029              		.loc 1 125 0
 1030 0034 1968     		ldr	r1, [r3]
 1031              	.LBE58:
 1032              	.LBE61:
 1033              		.loc 1 600 0
 1034              		@ sp needed
 1035              	.LBB62:
 1036              	.LBB59:
 1037              		.loc 1 125 0
 1038 0036 0A43     		orrs	r2, r1
 1039 0038 1A60     		str	r2, [r3]
 1040              	.LVL78:
 1041              	.LBE59:
 1042              	.LBE62:
 1043              		.loc 1 600 0
 1044 003a 10BD     		pop	{r4, pc}
 1045              	.LVL79:
 1046              	.L101:
 1047              	.LBB63:
 1048              	.LBB60:
 1049              		.loc 1 119 0
 1050 003c 2024     		movs	r4, #32
 1051 003e F1E7     		b	.L100
 1052              	.LBE60:
 1053              	.LBE63:
 1054              		.cfi_endproc
 1055              	.LFE54:
 1056              		.size	uart_lld_stop_receive, .-uart_lld_stop_receive
 1057              		.global	UARTD1
 1058              		.section	.bss.UARTD1,"aw",%nobits
 1059              		.align	2
 1060              		.set	.LANCHOR0,. + 0
 1061              		.type	UARTD1, %object
 1062              		.size	UARTD1, 28
 1063              	UARTD1:
 1064 0000 00000000 		.space	28
 1064      00000000 
 1064      00000000 
 1064      00000000 
 1064      00000000 
 1065              		.text
 1066              	.Letext0:
 1067              		.file 2 "/home/lithium/Descargas/gcc-arm-none-eabi-5_3-2016q1/lib/gcc/arm-none-eabi/5.3.1/include/
 1068              		.file 3 "/home/lithium/Descargas/gcc-arm-none-eabi-5_3-2016q1/arm-none-eabi/include/machine/_defau
 1069              		.file 4 "/home/lithium/Descargas/gcc-arm-none-eabi-5_3-2016q1/arm-none-eabi/include/sys/_stdint.h"
 1070              		.file 5 "../../os/ports/GCC/ARMCMx/chtypes.h"
 1071              		.file 6 "../../os/ports/GCC/ARMCMx/chcore_v6m.h"
 1072              		.file 7 "../../os/hal/platforms/STM32F0xx/stm32f0xx.h"
 1073              		.file 8 "../../os/hal/platforms/STM32F0xx/stm32_dma.h"
 1074              		.file 9 "../../os/hal/include/uart.h"
 1075              		.file 10 "../../os/hal/platforms/STM32/USARTv2/uart_lld.h"
 1076              		.file 11 "../../os/ports/common/ARMCMx/nvic.h"