ARM GAS  /tmp/cc3S08QZ.s 			page 1


   1              		.syntax unified
   2              		.cpu cortex-m4
   3              		.fpu softvfp
   4              		.eabi_attribute 20, 1
   5              		.eabi_attribute 21, 1
   6              		.eabi_attribute 23, 3
   7              		.eabi_attribute 24, 1
   8              		.eabi_attribute 25, 1
   9              		.eabi_attribute 26, 1
  10              		.eabi_attribute 30, 2
  11              		.eabi_attribute 34, 1
  12              		.eabi_attribute 18, 4
  13              		.thumb
  14              		.file	"adc.c"
  15              		.text
  16              	.Ltext0:
  17              		.cfi_sections	.debug_frame
  18              		.section	.text.adcInit,"ax",%progbits
  19              		.align	2
  20              		.p2align 4,,15
  21              		.global	adcInit
  22              		.thumb
  23              		.thumb_func
  24              		.type	adcInit, %function
  25              	adcInit:
  26              	.LFB118:
  27              		.file 1 "../../os/hal/src/adc.c"
  28              		.loc 1 68 0
  29              		.cfi_startproc
  30              		@ args = 0, pretend = 0, frame = 0
  31              		@ frame_needed = 0, uses_anonymous_args = 0
  32              		@ link register save eliminated.
  33              		.loc 1 71 0
  34              		.loc 1 70 0
  35 0000 FFF7FEBF 		b	adc_lld_init
  36              		.cfi_endproc
  37              	.LFE118:
  38              		.size	adcInit, .-adcInit
  39 0004 AFF30080 		.section	.text.adcObjectInit,"ax",%progbits
  39      AFF30080 
  39      AFF30080 
  40              		.align	2
  41              		.p2align 4,,15
  42              		.global	adcObjectInit
  43              		.thumb
  44              		.thumb_func
  45              		.type	adcObjectInit, %function
  46              	adcObjectInit:
  47              	.LFB119:
  48              		.loc 1 80 0
  49              		.cfi_startproc
  50              		@ args = 0, pretend = 0, frame = 0
  51              		@ frame_needed = 0, uses_anonymous_args = 0
  52              		@ link register save eliminated.
  53              	.LVL0:
  54              		.loc 1 83 0
  55 0000 0023     		movs	r3, #0
ARM GAS  /tmp/cc3S08QZ.s 			page 2


  56              		.loc 1 82 0
  57 0002 0122     		movs	r2, #1
  58 0004 0270     		strb	r2, [r0, #0]
  59              		.loc 1 83 0
  60 0006 4360     		str	r3, [r0, #4]
  61              		.loc 1 84 0
  62 0008 8360     		str	r3, [r0, #8]
  63              		.loc 1 85 0
  64 000a C360     		str	r3, [r0, #12]
  65              		.loc 1 86 0
  66 000c 0361     		str	r3, [r0, #16]
  67              		.loc 1 88 0
  68 000e 4361     		str	r3, [r0, #20]
  69              		.loc 1 92 0
  70 0010 1830     		adds	r0, r0, #24
  71              	.LVL1:
  72              		.loc 1 100 0
  73              		.loc 1 92 0
  74 0012 FFF7FEBF 		b	chMtxInit
  75              	.LVL2:
  76              		.cfi_endproc
  77              	.LFE119:
  78              		.size	adcObjectInit, .-adcObjectInit
  79 0016 00BFAFF3 		.section	.text.adcStart,"ax",%progbits
  79      0080AFF3 
  79      0080
  80              		.align	2
  81              		.p2align 4,,15
  82              		.global	adcStart
  83              		.thumb
  84              		.thumb_func
  85              		.type	adcStart, %function
  86              	adcStart:
  87              	.LFB120:
  88              		.loc 1 111 0
  89              		.cfi_startproc
  90              		@ args = 0, pretend = 0, frame = 0
  91              		@ frame_needed = 0, uses_anonymous_args = 0
  92              	.LVL3:
  93 0000 10B5     		push	{r4, lr}
  94              	.LCFI0:
  95              		.cfi_def_cfa_offset 8
  96              		.cfi_offset 14, -4
  97              		.cfi_offset 4, -8
  98              	.LBB10:
  99              		.loc 1 115 0
 100 0002 2023     		movs	r3, #32
 101              	.LVL4:
 102              	.LBE10:
 103              		.loc 1 111 0
 104 0004 0446     		mov	r4, r0
 105              	.LBB11:
 106              		.loc 1 115 0
 107              	@ 115 "../../os/hal/src/adc.c" 1
 108 0006 83F31188 		msr     BASEPRI, r3
 109              	@ 0 "" 2
 110              	.LVL5:
ARM GAS  /tmp/cc3S08QZ.s 			page 3


 111              		.thumb
 112              	.LBE11:
 113              		.loc 1 118 0
 114 000a 4160     		str	r1, [r0, #4]
 115              		.loc 1 119 0
 116 000c FFF7FEFF 		bl	adc_lld_start
 117              	.LVL6:
 118              		.loc 1 120 0
 119 0010 0223     		movs	r3, #2
 120 0012 2370     		strb	r3, [r4, #0]
 121              	.LBB12:
 122              		.loc 1 121 0
 123 0014 0023     		movs	r3, #0
 124              	.LVL7:
 125              	@ 121 "../../os/hal/src/adc.c" 1
 126 0016 83F31188 		msr     BASEPRI, r3
 127              	@ 0 "" 2
 128              	.LVL8:
 129              		.thumb
 130              	.LBE12:
 131              		.loc 1 122 0
 132 001a 10BD     		pop	{r4, pc}
 133              		.cfi_endproc
 134              	.LFE120:
 135              		.size	adcStart, .-adcStart
 136 001c AFF30080 		.section	.text.adcStop,"ax",%progbits
 137              		.align	2
 138              		.p2align 4,,15
 139              		.global	adcStop
 140              		.thumb
 141              		.thumb_func
 142              		.type	adcStop, %function
 143              	adcStop:
 144              	.LFB121:
 145              		.loc 1 131 0
 146              		.cfi_startproc
 147              		@ args = 0, pretend = 0, frame = 0
 148              		@ frame_needed = 0, uses_anonymous_args = 0
 149              	.LVL9:
 150 0000 10B5     		push	{r4, lr}
 151              	.LCFI1:
 152              		.cfi_def_cfa_offset 8
 153              		.cfi_offset 14, -4
 154              		.cfi_offset 4, -8
 155              	.LBB13:
 156              		.loc 1 135 0
 157 0002 2023     		movs	r3, #32
 158              	.LVL10:
 159              	.LBE13:
 160              		.loc 1 131 0
 161 0004 0446     		mov	r4, r0
 162              	.LBB14:
 163              		.loc 1 135 0
 164              	@ 135 "../../os/hal/src/adc.c" 1
 165 0006 83F31188 		msr     BASEPRI, r3
 166              	@ 0 "" 2
 167              	.LVL11:
ARM GAS  /tmp/cc3S08QZ.s 			page 4


 168              		.thumb
 169              	.LBE14:
 170              		.loc 1 138 0
 171 000a FFF7FEFF 		bl	adc_lld_stop
 172              	.LVL12:
 173              		.loc 1 139 0
 174 000e 0123     		movs	r3, #1
 175 0010 2370     		strb	r3, [r4, #0]
 176              	.LBB15:
 177              		.loc 1 140 0
 178 0012 0023     		movs	r3, #0
 179              	.LVL13:
 180              	@ 140 "../../os/hal/src/adc.c" 1
 181 0014 83F31188 		msr     BASEPRI, r3
 182              	@ 0 "" 2
 183              	.LVL14:
 184              		.thumb
 185              	.LBE15:
 186              		.loc 1 141 0
 187 0018 10BD     		pop	{r4, pc}
 188              		.cfi_endproc
 189              	.LFE121:
 190              		.size	adcStop, .-adcStop
 191 001a 00BFAFF3 		.section	.text.adcStartConversion,"ax",%progbits
 191      0080
 192              		.align	2
 193              		.p2align 4,,15
 194              		.global	adcStartConversion
 195              		.thumb
 196              		.thumb_func
 197              		.type	adcStartConversion, %function
 198              	adcStartConversion:
 199              	.LFB122:
 200              		.loc 1 162 0
 201              		.cfi_startproc
 202              		@ args = 0, pretend = 0, frame = 0
 203              		@ frame_needed = 0, uses_anonymous_args = 0
 204              	.LVL15:
 205 0000 38B5     		push	{r3, r4, r5, lr}
 206              	.LCFI2:
 207              		.cfi_def_cfa_offset 16
 208              		.cfi_offset 14, -4
 209              		.cfi_offset 5, -8
 210              		.cfi_offset 4, -12
 211              		.cfi_offset 3, -16
 212              		.loc 1 162 0
 213 0002 1D46     		mov	r5, r3
 214              	.LBB16:
 215              		.loc 1 164 0
 216 0004 2023     		movs	r3, #32
 217              	.LVL16:
 218              	@ 164 "../../os/hal/src/adc.c" 1
 219 0006 83F31188 		msr     BASEPRI, r3
 220              	@ 0 "" 2
 221              	.LVL17:
 222              		.thumb
 223              	.LBE16:
ARM GAS  /tmp/cc3S08QZ.s 			page 5


 224              	.LBB17:
 225              	.LBB18:
 226              		.loc 1 204 0
 227 000a 0323     		movs	r3, #3
 228              	.LVL18:
 229 000c 0370     		strb	r3, [r0, #0]
 230              		.loc 1 201 0
 231 000e 8260     		str	r2, [r0, #8]
 232              		.loc 1 202 0
 233 0010 C560     		str	r5, [r0, #12]
 234              		.loc 1 203 0
 235 0012 0161     		str	r1, [r0, #16]
 236              		.loc 1 205 0
 237 0014 FFF7FEFF 		bl	adc_lld_start_conversion
 238              	.LVL19:
 239              	.LBE18:
 240              	.LBE17:
 241              	.LBB19:
 242              		.loc 1 166 0
 243 0018 0023     		movs	r3, #0
 244              	.LVL20:
 245              	@ 166 "../../os/hal/src/adc.c" 1
 246 001a 83F31188 		msr     BASEPRI, r3
 247              	@ 0 "" 2
 248              	.LVL21:
 249              		.thumb
 250              	.LBE19:
 251              		.loc 1 167 0
 252 001e 38BD     		pop	{r3, r4, r5, pc}
 253              		.cfi_endproc
 254              	.LFE122:
 255              		.size	adcStartConversion, .-adcStartConversion
 256              		.section	.text.adcStartConversionI,"ax",%progbits
 257              		.align	2
 258              		.p2align 4,,15
 259              		.global	adcStartConversionI
 260              		.thumb
 261              		.thumb_func
 262              		.type	adcStartConversionI, %function
 263              	adcStartConversionI:
 264              	.LFB123:
 265              		.loc 1 190 0
 266              		.cfi_startproc
 267              		@ args = 0, pretend = 0, frame = 0
 268              		@ frame_needed = 0, uses_anonymous_args = 0
 269              		@ link register save eliminated.
 270              	.LVL22:
 271 0000 10B4     		push	{r4}
 272              	.LCFI3:
 273              		.cfi_def_cfa_offset 4
 274              		.cfi_offset 4, -4
 275              		.loc 1 202 0
 276 0002 C360     		str	r3, [r0, #12]
 277              		.loc 1 204 0
 278 0004 0323     		movs	r3, #3
 279              	.LVL23:
 280              		.loc 1 201 0
ARM GAS  /tmp/cc3S08QZ.s 			page 6


 281 0006 8260     		str	r2, [r0, #8]
 282              		.loc 1 203 0
 283 0008 0161     		str	r1, [r0, #16]
 284              		.loc 1 204 0
 285 000a 0370     		strb	r3, [r0, #0]
 286              		.loc 1 206 0
 287 000c 10BC     		pop	{r4}
 288              		.loc 1 205 0
 289 000e FFF7FEBF 		b	adc_lld_start_conversion
 290              	.LVL24:
 291              	.LVL25:
 292              	.LVL26:
 293              	.LVL27:
 294              		.cfi_endproc
 295              	.LFE123:
 296              		.size	adcStartConversionI, .-adcStartConversionI
 297 0012 00BFAFF3 		.section	.text.adcStopConversion,"ax",%progbits
 297      0080AFF3 
 297      0080AFF3 
 297      0080
 298              		.align	2
 299              		.p2align 4,,15
 300              		.global	adcStopConversion
 301              		.thumb
 302              		.thumb_func
 303              		.type	adcStopConversion, %function
 304              	adcStopConversion:
 305              	.LFB124:
 306              		.loc 1 218 0
 307              		.cfi_startproc
 308              		@ args = 0, pretend = 0, frame = 0
 309              		@ frame_needed = 0, uses_anonymous_args = 0
 310              	.LVL28:
 311 0000 10B5     		push	{r4, lr}
 312              	.LCFI4:
 313              		.cfi_def_cfa_offset 8
 314              		.cfi_offset 14, -4
 315              		.cfi_offset 4, -8
 316              	.LBB20:
 317              		.loc 1 222 0
 318 0002 2023     		movs	r3, #32
 319              	.LVL29:
 320              	.LBE20:
 321              		.loc 1 218 0
 322 0004 0446     		mov	r4, r0
 323              	.LBB21:
 324              		.loc 1 222 0
 325              	@ 222 "../../os/hal/src/adc.c" 1
 326 0006 83F31188 		msr     BASEPRI, r3
 327              	@ 0 "" 2
 328              	.LVL30:
 329              		.thumb
 330              	.LBE21:
 331              		.loc 1 226 0
 332 000a 0378     		ldrb	r3, [r0, #0]	@ zero_extendqisi2
 333              	.LVL31:
 334 000c 022B     		cmp	r3, #2
ARM GAS  /tmp/cc3S08QZ.s 			page 7


 335 000e 0CD0     		beq	.L8
 336              		.loc 1 227 0
 337 0010 FFF7FEFF 		bl	adc_lld_stop_conversion
 338              	.LVL32:
 339              		.loc 1 230 0
 340 0014 6069     		ldr	r0, [r4, #20]
 341              		.loc 1 228 0
 342 0016 0023     		movs	r3, #0
 343              		.loc 1 229 0
 344 0018 0222     		movs	r2, #2
 345              		.loc 1 228 0
 346 001a 2361     		str	r3, [r4, #16]
 347              		.loc 1 229 0
 348 001c 2270     		strb	r2, [r4, #0]
 349              		.loc 1 230 0
 350 001e 20B1     		cbz	r0, .L8
 351              	.LVL33:
 352              	.LBB22:
 353              		.loc 1 230 0 is_stmt 0 discriminator 1
 354 0020 6361     		str	r3, [r4, #20]
 355 0022 6FF00101 		mvn	r1, #1
 356 0026 FFF7FEFF 		bl	chSchWakeupS
 357              	.LVL34:
 358              	.L8:
 359              	.LBE22:
 360              	.LBB23:
 361              		.loc 1 232 0 is_stmt 1
 362 002a 0023     		movs	r3, #0
 363              	.LVL35:
 364              	@ 232 "../../os/hal/src/adc.c" 1
 365 002c 83F31188 		msr     BASEPRI, r3
 366              	@ 0 "" 2
 367              	.LVL36:
 368              		.thumb
 369              	.LBE23:
 370              		.loc 1 233 0
 371 0030 10BD     		pop	{r4, pc}
 372              		.cfi_endproc
 373              	.LFE124:
 374              		.size	adcStopConversion, .-adcStopConversion
 375 0032 00BFAFF3 		.section	.text.adcStopConversionI,"ax",%progbits
 375      0080AFF3 
 375      0080AFF3 
 375      0080
 376              		.align	2
 377              		.p2align 4,,15
 378              		.global	adcStopConversionI
 379              		.thumb
 380              		.thumb_func
 381              		.type	adcStopConversionI, %function
 382              	adcStopConversionI:
 383              	.LFB125:
 384              		.loc 1 245 0
 385              		.cfi_startproc
 386              		@ args = 0, pretend = 0, frame = 0
 387              		@ frame_needed = 0, uses_anonymous_args = 0
 388              	.LVL37:
ARM GAS  /tmp/cc3S08QZ.s 			page 8


 389              		.loc 1 254 0
 390 0000 0378     		ldrb	r3, [r0, #0]	@ zero_extendqisi2
 391 0002 022B     		cmp	r3, #2
 392              		.loc 1 245 0
 393 0004 10B5     		push	{r4, lr}
 394              	.LCFI5:
 395              		.cfi_def_cfa_offset 8
 396              		.cfi_offset 14, -4
 397              		.cfi_offset 4, -8
 398              		.loc 1 245 0
 399 0006 0446     		mov	r4, r0
 400              		.loc 1 254 0
 401 0008 10D0     		beq	.L10
 402              		.loc 1 255 0
 403 000a FFF7FEFF 		bl	adc_lld_stop_conversion
 404              	.LVL38:
 405              		.loc 1 258 0
 406 000e 6369     		ldr	r3, [r4, #20]
 407              		.loc 1 256 0
 408 0010 0022     		movs	r2, #0
 409              		.loc 1 257 0
 410 0012 0221     		movs	r1, #2
 411              		.loc 1 256 0
 412 0014 2261     		str	r2, [r4, #16]
 413              		.loc 1 257 0
 414 0016 2170     		strb	r1, [r4, #0]
 415              		.loc 1 258 0
 416 0018 43B1     		cbz	r3, .L10
 417              	.LVL39:
 418              	.LBB24:
 419              		.loc 1 258 0 is_stmt 0 discriminator 1
 420 001a 6261     		str	r2, [r4, #20]
 421 001c 1846     		mov	r0, r3
 422 001e 6FF00102 		mvn	r2, #1
 423 0022 5A62     		str	r2, [r3, #36]
 424              	.LBE24:
 425              		.loc 1 260 0 is_stmt 1 discriminator 1
 426 0024 BDE81040 		pop	{r4, lr}
 427              	.LBB25:
 428              		.loc 1 258 0 discriminator 1
 429 0028 FFF7FEBF 		b	chSchReadyI
 430              	.LVL40:
 431              	.L10:
 432 002c 10BD     		pop	{r4, pc}
 433              	.LBE25:
 434              		.cfi_endproc
 435              	.LFE125:
 436              		.size	adcStopConversionI, .-adcStopConversionI
 437 002e 00BF     		.section	.text.adcConvert,"ax",%progbits
 438              		.align	2
 439              		.p2align 4,,15
 440              		.global	adcConvert
 441              		.thumb
 442              		.thumb_func
 443              		.type	adcConvert, %function
 444              	adcConvert:
 445              	.LFB126:
ARM GAS  /tmp/cc3S08QZ.s 			page 9


 446              		.loc 1 289 0
 447              		.cfi_startproc
 448              		@ args = 0, pretend = 0, frame = 0
 449              		@ frame_needed = 0, uses_anonymous_args = 0
 450              	.LVL41:
 451 0000 70B5     		push	{r4, r5, r6, lr}
 452              	.LCFI6:
 453              		.cfi_def_cfa_offset 16
 454              		.cfi_offset 14, -4
 455              		.cfi_offset 6, -8
 456              		.cfi_offset 5, -12
 457              		.cfi_offset 4, -16
 458              		.loc 1 289 0
 459 0002 1D46     		mov	r5, r3
 460 0004 0446     		mov	r4, r0
 461              	.LBB26:
 462              		.loc 1 292 0
 463 0006 2023     		movs	r3, #32
 464              	.LVL42:
 465              	@ 292 "../../os/hal/src/adc.c" 1
 466 0008 83F31188 		msr     BASEPRI, r3
 467              	@ 0 "" 2
 468              	.LVL43:
 469              		.thumb
 470              	.LBE26:
 471              		.loc 1 295 0
 472 000c 40F20006 		movw	r6, #:lower16:rlist
 473 0010 C0F20006 		movt	r6, #:upper16:rlist
 474              	.LBB27:
 475              	.LBB28:
 476              		.loc 1 203 0
 477 0014 0161     		str	r1, [r0, #16]
 478              		.loc 1 204 0
 479 0016 0321     		movs	r1, #3
 480              	.LVL44:
 481              		.loc 1 201 0
 482 0018 8260     		str	r2, [r0, #8]
 483              		.loc 1 204 0
 484 001a 0170     		strb	r1, [r0, #0]
 485              		.loc 1 202 0
 486 001c C560     		str	r5, [r0, #12]
 487              		.loc 1 205 0
 488 001e FFF7FEFF 		bl	adc_lld_start_conversion
 489              	.LVL45:
 490              	.LBE28:
 491              	.LBE27:
 492              		.loc 1 295 0
 493 0022 B369     		ldr	r3, [r6, #24]
 494              		.loc 1 296 0
 495 0024 0220     		movs	r0, #2
 496              		.loc 1 295 0
 497 0026 6361     		str	r3, [r4, #20]
 498              		.loc 1 296 0
 499 0028 FFF7FEFF 		bl	chSchGoSleepS
 500              		.loc 1 297 0
 501 002c B269     		ldr	r2, [r6, #24]
 502              	.LBB29:
ARM GAS  /tmp/cc3S08QZ.s 			page 10


 503              		.loc 1 298 0
 504 002e 0023     		movs	r3, #0
 505              	.LVL46:
 506              	.LBE29:
 507              		.loc 1 297 0
 508 0030 506A     		ldr	r0, [r2, #36]
 509              	.LVL47:
 510              	.LBB30:
 511              		.loc 1 298 0
 512              	@ 298 "../../os/hal/src/adc.c" 1
 513 0032 83F31188 		msr     BASEPRI, r3
 514              	@ 0 "" 2
 515              	.LVL48:
 516              		.thumb
 517              	.LBE30:
 518              		.loc 1 300 0
 519 0036 70BD     		pop	{r4, r5, r6, pc}
 520              		.cfi_endproc
 521              	.LFE126:
 522              		.size	adcConvert, .-adcConvert
 523 0038 AFF30080 		.section	.text.adcAcquireBus,"ax",%progbits
 523      AFF30080 
 524              		.align	2
 525              		.p2align 4,,15
 526              		.global	adcAcquireBus
 527              		.thumb
 528              		.thumb_func
 529              		.type	adcAcquireBus, %function
 530              	adcAcquireBus:
 531              	.LFB127:
 532              		.loc 1 315 0
 533              		.cfi_startproc
 534              		@ args = 0, pretend = 0, frame = 0
 535              		@ frame_needed = 0, uses_anonymous_args = 0
 536              		@ link register save eliminated.
 537              	.LVL49:
 538              		.loc 1 320 0
 539 0000 1830     		adds	r0, r0, #24
 540              	.LVL50:
 541              		.loc 1 324 0
 542              		.loc 1 320 0
 543 0002 FFF7FEBF 		b	chMtxLock
 544              	.LVL51:
 545              		.cfi_endproc
 546              	.LFE127:
 547              		.size	adcAcquireBus, .-adcAcquireBus
 548 0006 00BFAFF3 		.section	.text.adcReleaseBus,"ax",%progbits
 548      0080AFF3 
 548      0080
 549              		.align	2
 550              		.p2align 4,,15
 551              		.global	adcReleaseBus
 552              		.thumb
 553              		.thumb_func
 554              		.type	adcReleaseBus, %function
 555              	adcReleaseBus:
 556              	.LFB128:
ARM GAS  /tmp/cc3S08QZ.s 			page 11


 557              		.loc 1 335 0
 558              		.cfi_startproc
 559              		@ args = 0, pretend = 0, frame = 0
 560              		@ frame_needed = 0, uses_anonymous_args = 0
 561              		@ link register save eliminated.
 562              	.LVL52:
 563              		.loc 1 345 0
 564              		.loc 1 341 0
 565 0000 FFF7FEBF 		b	chMtxUnlock
 566              	.LVL53:
 567              		.cfi_endproc
 568              	.LFE128:
 569              		.size	adcReleaseBus, .-adcReleaseBus
 570 0004 AFF30080 		.text
 570      AFF30080 
 570      AFF30080 
 571              	.Letext0:
 572              		.file 2 "/home/lithium/Documents/arm-2011q3/bin/../lib/gcc/arm-none-eabi/4.6.1/include/stddef.h"
 573              		.file 3 "/home/lithium/Documents/arm-2011q3/bin/../lib/gcc/arm-none-eabi/4.6.1/../../../../arm-non
 574              		.file 4 "../../os/ports/GCC/ARMCMx/chtypes.h"
 575              		.file 5 "../../os/kernel/include/chlists.h"
 576              		.file 6 "../../os/kernel/include/chthreads.h"
 577              		.file 7 "../../os/ports/GCC/ARMCMx/chcore_v7m.h"
 578              		.file 8 "../../os/kernel/include/chschd.h"
 579              		.file 9 "../../os/kernel/include/chmtx.h"
 580              		.file 10 "../../os/hal/platforms/STM32F4xx/stm32f4xx.h"
 581              		.file 11 "../../os/hal/platforms/STM32F4xx/stm32_dma.h"
 582              		.file 12 "../../os/hal/include/adc.h"
 583              		.file 13 "../../os/hal/platforms/STM32F4xx/adc_lld.h"
 584              		.file 14 "../../os/ports/common/ARMCMx/CMSIS/include/core_cm4.h"