ARM GAS  /tmp/ccBdmuRR.s 			page 1


   1              		.syntax unified
   2              		.cpu cortex-m4
   3              		.fpu softvfp
   4              		.eabi_attribute 20, 1
   5              		.eabi_attribute 21, 1
   6              		.eabi_attribute 23, 3
   7              		.eabi_attribute 24, 1
   8              		.eabi_attribute 25, 1
   9              		.eabi_attribute 26, 1
  10              		.eabi_attribute 30, 2
  11              		.eabi_attribute 34, 1
  12              		.eabi_attribute 18, 4
  13              		.thumb
  14              		.file	"adc_lld.c"
  15              		.text
  16              	.Ltext0:
  17              		.cfi_sections	.debug_frame
  18              		.section	.text.adc_lld_init,"ax",%progbits
  19              		.align	2
  20              		.p2align 4,,15
  21              		.global	adc_lld_init
  22              		.thumb
  23              		.thumb_func
  24              		.type	adc_lld_init, %function
  25              	adc_lld_init:
  26              	.LFB120:
  27              		.file 1 "../../os/hal/platforms/STM32F4xx/adc_lld.c"
  28              		.loc 1 171 0
  29              		.cfi_startproc
  30              		@ args = 0, pretend = 0, frame = 0
  31              		@ frame_needed = 0, uses_anonymous_args = 0
  32 0000 10B5     		push	{r4, lr}
  33              	.LCFI0:
  34              		.cfi_def_cfa_offset 8
  35              		.cfi_offset 14, -4
  36              		.cfi_offset 4, -8
  37              		.loc 1 175 0
  38 0002 40F20004 		movw	r4, #:lower16:.LANCHOR0
  39 0006 C0F20004 		movt	r4, #:upper16:.LANCHOR0
  40 000a 2046     		mov	r0, r4
  41 000c FFF7FEFF 		bl	adcObjectInit
  42              		.loc 1 176 0
  43 0010 4FF40052 		mov	r2, #8192
  44 0014 C4F20102 		movt	r2, 16385
  45 0018 A262     		str	r2, [r4, #40]
  46              		.loc 1 178 0
  47 001a 42F61643 		movw	r3, #11286
  48              		.loc 1 177 0
  49 001e 054A     		ldr	r2, .L2
  50              		.loc 1 178 0
  51 0020 C0F20203 		movt	r3, 2
  52              		.loc 1 214 0
  53 0024 1220     		movs	r0, #18
  54 0026 6021     		movs	r1, #96
  55              		.loc 1 177 0
  56 0028 E262     		str	r2, [r4, #44]
  57              		.loc 1 178 0
ARM GAS  /tmp/ccBdmuRR.s 			page 2


  58 002a 2363     		str	r3, [r4, #48]
  59              		.loc 1 215 0
  60 002c BDE81040 		pop	{r4, lr}
  61              		.loc 1 214 0
  62 0030 FFF7FEBF 		b	nvicEnableVector
  63              	.L3:
  64              		.align	2
  65              	.L2:
  66 0034 90000000 		.word	_stm32_dma_streams+144
  67              		.cfi_endproc
  68              	.LFE120:
  69              		.size	adc_lld_init, .-adc_lld_init
  70 0038 AFF30080 		.section	.text.adc_lld_start,"ax",%progbits
  70      AFF30080 
  71              		.align	2
  72              		.p2align 4,,15
  73              		.global	adc_lld_start
  74              		.thumb
  75              		.thumb_func
  76              		.type	adc_lld_start, %function
  77              	adc_lld_start:
  78              	.LFB121:
  79              		.loc 1 224 0
  80              		.cfi_startproc
  81              		@ args = 0, pretend = 0, frame = 0
  82              		@ frame_needed = 0, uses_anonymous_args = 0
  83              	.LVL0:
  84              		.loc 1 227 0
  85 0000 0378     		ldrb	r3, [r0, #0]	@ zero_extendqisi2
  86 0002 012B     		cmp	r3, #1
  87              		.loc 1 224 0
  88 0004 10B5     		push	{r4, lr}
  89              	.LCFI1:
  90              		.cfi_def_cfa_offset 8
  91              		.cfi_offset 14, -4
  92              		.cfi_offset 4, -8
  93              		.loc 1 224 0
  94 0006 0446     		mov	r4, r0
  95              		.loc 1 227 0
  96 0008 00D0     		beq	.L8
  97 000a 10BD     		pop	{r4, pc}
  98              	.L8:
  99              		.loc 1 229 0
 100 000c 40F20001 		movw	r1, #:lower16:.LANCHOR0
 101 0010 C0F20001 		movt	r1, #:upper16:.LANCHOR0
 102 0014 8842     		cmp	r0, r1
 103 0016 12D0     		beq	.L9
 104              	.LVL1:
 105              	.L6:
 106              		.loc 1 269 0
 107 0018 4FF40C5C 		mov	ip, #8960
 108 001c C4F2010C 		movt	ip, 16385
 109              		.loc 1 274 0
 110 0020 A36A     		ldr	r3, [r4, #40]
 111              		.loc 1 269 0
 112 0022 DCF80410 		ldr	r1, [ip, #4]
 113 0026 01F44002 		and	r2, r1, #12582912
ARM GAS  /tmp/ccBdmuRR.s 			page 3


 114 002a 42F48030 		orr	r0, r2, #65536
 115              		.loc 1 274 0
 116 002e 0021     		movs	r1, #0
 117              		.loc 1 269 0
 118 0030 CCF80400 		str	r0, [ip, #4]
 119              		.loc 1 274 0
 120 0034 5960     		str	r1, [r3, #4]
 121              		.loc 1 275 0
 122 0036 9960     		str	r1, [r3, #8]
 123              		.loc 1 276 0
 124 0038 0121     		movs	r1, #1
 125 003a 9960     		str	r1, [r3, #8]
 126 003c 10BD     		pop	{r4, pc}
 127              	.L9:
 128              	.LBB2:
 129              		.loc 1 231 0
 130 003e 40F20002 		movw	r2, #:lower16:adc_lld_serve_rx_interrupt
 131 0042 0621     		movs	r1, #6
 132 0044 C0F20002 		movt	r2, #:upper16:adc_lld_serve_rx_interrupt
 133 0048 2346     		mov	r3, r4
 134 004a C06A     		ldr	r0, [r0, #44]
 135 004c FFF7FEFF 		bl	dmaStreamAllocate
 136              		.loc 1 236 0
 137 0050 E06A     		ldr	r0, [r4, #44]
 138 0052 42F24C02 		movw	r2, #8268
 139 0056 0168     		ldr	r1, [r0, #0]
 140              		.loc 1 237 0
 141 0058 4FF46050 		mov	r0, #14336
 142 005c C4F20200 		movt	r0, 16386
 143              		.loc 1 236 0
 144 0060 C4F20102 		movt	r2, 16385
 145 0064 8A60     		str	r2, [r1, #8]
 146              		.loc 1 237 0
 147 0066 436C     		ldr	r3, [r0, #68]
 148 0068 43F48072 		orr	r2, r3, #256
 149 006c 4264     		str	r2, [r0, #68]
 150 006e D3E7     		b	.L6
 151              	.LBE2:
 152              		.cfi_endproc
 153              	.LFE121:
 154              		.size	adc_lld_start, .-adc_lld_start
 155              		.section	.text.adc_lld_stop,"ax",%progbits
 156              		.align	2
 157              		.p2align 4,,15
 158              		.global	adc_lld_stop
 159              		.thumb
 160              		.thumb_func
 161              		.type	adc_lld_stop, %function
 162              	adc_lld_stop:
 163              	.LFB122:
 164              		.loc 1 287 0
 165              		.cfi_startproc
 166              		@ args = 0, pretend = 0, frame = 0
 167              		@ frame_needed = 0, uses_anonymous_args = 0
 168              	.LVL2:
 169              		.loc 1 290 0
 170 0000 0378     		ldrb	r3, [r0, #0]	@ zero_extendqisi2
ARM GAS  /tmp/ccBdmuRR.s 			page 4


 171 0002 022B     		cmp	r3, #2
 172              		.loc 1 287 0
 173 0004 10B5     		push	{r4, lr}
 174              	.LCFI2:
 175              		.cfi_def_cfa_offset 8
 176              		.cfi_offset 14, -4
 177              		.cfi_offset 4, -8
 178              		.loc 1 287 0
 179 0006 0446     		mov	r4, r0
 180              		.loc 1 290 0
 181 0008 00D0     		beq	.L12
 182 000a 10BD     		pop	{r4, pc}
 183              	.L12:
 184              		.loc 1 291 0
 185 000c C06A     		ldr	r0, [r0, #44]
 186              	.LVL3:
 187 000e FFF7FEFF 		bl	dmaStreamRelease
 188              		.loc 1 296 0
 189 0012 40F20000 		movw	r0, #:lower16:.LANCHOR0
 190 0016 C0F20000 		movt	r0, #:upper16:.LANCHOR0
 191              		.loc 1 292 0
 192 001a 0021     		movs	r1, #0
 193              		.loc 1 296 0
 194 001c 8442     		cmp	r4, r0
 195              		.loc 1 292 0
 196 001e A26A     		ldr	r2, [r4, #40]
 197              		.loc 1 297 0
 198 0020 04BF     		itt	eq
 199 0022 4FF46050 		moveq	r0, #14336
 200 0026 C4F20200 		movteq	r0, 16386
 201              		.loc 1 292 0
 202 002a 5160     		str	r1, [r2, #4]
 203              		.loc 1 293 0
 204 002c 9160     		str	r1, [r2, #8]
 205              		.loc 1 297 0
 206 002e 02BF     		ittt	eq
 207 0030 426C     		ldreq	r2, [r0, #68]
 208 0032 22F48072 		biceq	r2, r2, #256
 209 0036 4264     		streq	r2, [r0, #68]
 210 0038 10BD     		pop	{r4, pc}
 211              		.cfi_endproc
 212              	.LFE122:
 213              		.size	adc_lld_stop, .-adc_lld_stop
 214 003a 00BFAFF3 		.section	.text.adc_lld_start_conversion,"ax",%progbits
 214      0080
 215              		.align	2
 216              		.p2align 4,,15
 217              		.global	adc_lld_start_conversion
 218              		.thumb
 219              		.thumb_func
 220              		.type	adc_lld_start_conversion, %function
 221              	adc_lld_start_conversion:
 222              	.LFB123:
 223              		.loc 1 319 0
 224              		.cfi_startproc
 225              		@ args = 0, pretend = 0, frame = 0
 226              		@ frame_needed = 0, uses_anonymous_args = 0
ARM GAS  /tmp/ccBdmuRR.s 			page 5


 227              		@ link register save eliminated.
 228              	.LVL4:
 229              		.loc 1 322 0
 230 0000 0369     		ldr	r3, [r0, #16]
 231              	.LVL5:
 232              		.loc 1 325 0
 233 0002 026B     		ldr	r2, [r0, #48]
 234              	.LVL6:
 235              		.loc 1 326 0
 236 0004 1978     		ldrb	r1, [r3, #0]	@ zero_extendqisi2
 237              		.loc 1 319 0
 238 0006 2DE9F007 		push	{r4, r5, r6, r7, r8, r9, sl}
 239              	.LCFI3:
 240              		.cfi_def_cfa_offset 28
 241              		.cfi_offset 10, -4
 242              		.cfi_offset 9, -8
 243              		.cfi_offset 8, -12
 244              		.cfi_offset 7, -16
 245              		.cfi_offset 6, -20
 246              		.cfi_offset 5, -24
 247              		.cfi_offset 4, -28
 248              		.loc 1 328 0
 249 000a C468     		ldr	r4, [r0, #12]
 250              		.loc 1 326 0
 251 000c 29B1     		cbz	r1, .L15
 252              		.loc 1 327 0
 253 000e 42F48072 		orr	r2, r2, #256
 254              	.LVL7:
 255              		.loc 1 328 0
 256 0012 012C     		cmp	r4, #1
 257              		.loc 1 331 0
 258 0014 88BF     		it	hi
 259 0016 42F00802 		orrhi	r2, r2, #8
 260              	.LVL8:
 261              	.L15:
 262              		.loc 1 334 0
 263 001a C76A     		ldr	r7, [r0, #44]
 264              		.loc 1 335 0
 265 001c 5D88     		ldrh	r5, [r3, #2]
 266              		.loc 1 334 0
 267 001e 3968     		ldr	r1, [r7, #0]
 268 0020 8668     		ldr	r6, [r0, #8]
 269              		.loc 1 349 0
 270 0022 D3F80C80 		ldr	r8, [r3, #12]
 271              		.loc 1 352 0
 272 0026 D3F81090 		ldr	r9, [r3, #16]
 273              		.loc 1 334 0
 274 002a CE60     		str	r6, [r1, #12]
 275              		.loc 1 335 0
 276 002c 05FB04F4 		mul	r4, r5, r4
 277 0030 4C60     		str	r4, [r1, #4]
 278              		.loc 1 337 0
 279 0032 0A60     		str	r2, [r1, #0]
 280              		.loc 1 338 0
 281 0034 D1F800C0 		ldr	ip, [r1, #0]
 282              		.loc 1 341 0
 283 0038 826A     		ldr	r2, [r0, #40]
ARM GAS  /tmp/ccBdmuRR.s 			page 6


 284              	.LVL9:
 285              		.loc 1 342 0
 286 003a 5F69     		ldr	r7, [r3, #20]
 287              		.loc 1 343 0
 288 003c 9E69     		ldr	r6, [r3, #24]
 289              		.loc 1 344 0
 290 003e DD69     		ldr	r5, [r3, #28]
 291              		.loc 1 345 0
 292 0040 1C6A     		ldr	r4, [r3, #32]
 293              		.loc 1 346 0
 294 0042 D3F824A0 		ldr	sl, [r3, #36]
 295              		.loc 1 352 0
 296 0046 49F44070 		orr	r0, r9, #768
 297              	.LVL10:
 298              		.loc 1 349 0
 299 004a 48F08063 		orr	r3, r8, #67108864
 300              	.LVL11:
 301              		.loc 1 338 0
 302 004e 4CF0010C 		orr	ip, ip, #1
 303 0052 C1F800C0 		str	ip, [r1, #0]
 304              		.loc 1 349 0
 305 0056 43F48078 		orr	r8, r3, #256
 306              		.loc 1 341 0
 307 005a 0021     		movs	r1, #0
 308              	.LVL12:
 309              		.loc 1 352 0
 310 005c 40F00103 		orr	r3, r0, #1
 311              	.LVL13:
 312              		.loc 1 341 0
 313 0060 1160     		str	r1, [r2, #0]
 314              		.loc 1 356 0
 315 0062 5900     		lsls	r1, r3, #1
 316              		.loc 1 358 0
 317 0064 41BF     		itttt	mi
 318 0066 23F08043 		bicmi	r3, r3, #1073741824
 319              	.LVL14:
 320 006a 23F00203 		bicmi	r3, r3, #2
 321 006e 43F00203 		orrmi	r3, r3, #2
 322              		.loc 1 361 0
 323 0072 40F00300 		orrmi	r0, r0, #3
 324              		.loc 1 342 0
 325 0076 D760     		str	r7, [r2, #12]
 326              		.loc 1 343 0
 327 0078 1661     		str	r6, [r2, #16]
 328              		.loc 1 344 0
 329 007a D562     		str	r5, [r2, #44]
 330              		.loc 1 345 0
 331 007c 1463     		str	r4, [r2, #48]
 332              		.loc 1 346 0
 333 007e C2F834A0 		str	sl, [r2, #52]
 334              		.loc 1 349 0
 335 0082 C2F80480 		str	r8, [r2, #4]
 336              		.loc 1 358 0
 337 0086 4ABF     		itet	mi
 338 0088 9360     		strmi	r3, [r2, #8]
 339              		.loc 1 364 0
 340 008a 9360     		strpl	r3, [r2, #8]
ARM GAS  /tmp/ccBdmuRR.s 			page 7


 341              		.loc 1 361 0
 342 008c 9060     		strmi	r0, [r2, #8]
 343              		.loc 1 365 0
 344 008e BDE8F007 		pop	{r4, r5, r6, r7, r8, r9, sl}
 345 0092 7047     		bx	lr
 346              		.cfi_endproc
 347              	.LFE123:
 348              		.size	adc_lld_start_conversion, .-adc_lld_start_conversion
 349 0094 AFF30080 		.section	.text.adc_lld_stop_conversion,"ax",%progbits
 349      AFF30080 
 349      AFF30080 
 350              		.align	2
 351              		.p2align 4,,15
 352              		.global	adc_lld_stop_conversion
 353              		.thumb
 354              		.thumb_func
 355              		.type	adc_lld_stop_conversion, %function
 356              	adc_lld_stop_conversion:
 357              	.LFB124:
 358              		.loc 1 374 0
 359              		.cfi_startproc
 360              		@ args = 0, pretend = 0, frame = 0
 361              		@ frame_needed = 0, uses_anonymous_args = 0
 362              		@ link register save eliminated.
 363              	.LVL15:
 364              		.loc 1 376 0
 365 0000 C16A     		ldr	r1, [r0, #44]
 366 0002 0A68     		ldr	r2, [r1, #0]
 367              		.loc 1 374 0
 368 0004 10B4     		push	{r4}
 369              	.LCFI4:
 370              		.cfi_def_cfa_offset 4
 371              		.cfi_offset 4, -4
 372              		.loc 1 376 0
 373 0006 1468     		ldr	r4, [r2, #0]
 374 0008 24F01F03 		bic	r3, r4, #31
 375 000c 1360     		str	r3, [r2, #0]
 376              	.L19:
 377              		.loc 1 376 0 is_stmt 0 discriminator 1
 378 000e 1368     		ldr	r3, [r2, #0]
 379 0010 13F00103 		ands	r3, r3, #1
 380 0014 FBD1     		bne	.L19
 381              		.loc 1 376 0 discriminator 2
 382 0016 0C7A     		ldrb	r4, [r1, #8]	@ zero_extendqisi2
 383              		.loc 1 377 0 is_stmt 1 discriminator 2
 384 0018 826A     		ldr	r2, [r0, #40]
 385              		.loc 1 376 0 discriminator 2
 386 001a 4968     		ldr	r1, [r1, #4]
 387 001c 3D20     		movs	r0, #61
 388              	.LVL16:
 389 001e A040     		lsls	r0, r0, r4
 390 0020 0860     		str	r0, [r1, #0]
 391              		.loc 1 379 0 discriminator 2
 392 0022 0120     		movs	r0, #1
 393              		.loc 1 377 0 discriminator 2
 394 0024 5360     		str	r3, [r2, #4]
 395              		.loc 1 378 0 discriminator 2
ARM GAS  /tmp/ccBdmuRR.s 			page 8


 396 0026 9360     		str	r3, [r2, #8]
 397              		.loc 1 379 0 discriminator 2
 398 0028 9060     		str	r0, [r2, #8]
 399              		.loc 1 380 0 discriminator 2
 400 002a 10BC     		pop	{r4}
 401 002c 7047     		bx	lr
 402              		.cfi_endproc
 403              	.LFE124:
 404              		.size	adc_lld_stop_conversion, .-adc_lld_stop_conversion
 405 002e 00BF     		.section	.text.adc_lld_serve_rx_interrupt,"ax",%progbits
 406              		.align	2
 407              		.p2align 4,,15
 408              		.thumb
 409              		.thumb_func
 410              		.type	adc_lld_serve_rx_interrupt, %function
 411              	adc_lld_serve_rx_interrupt:
 412              	.LFB118:
 413              		.loc 1 76 0
 414              		.cfi_startproc
 415              		@ args = 0, pretend = 0, frame = 0
 416              		@ frame_needed = 0, uses_anonymous_args = 0
 417              	.LVL17:
 418              		.loc 1 79 0
 419 0000 11F00C0F 		tst	r1, #12
 420              		.loc 1 76 0
 421 0004 70B5     		push	{r4, r5, r6, lr}
 422              	.LCFI5:
 423              		.cfi_def_cfa_offset 16
 424              		.cfi_offset 14, -4
 425              		.cfi_offset 6, -8
 426              		.cfi_offset 5, -12
 427              		.cfi_offset 4, -16
 428              		.loc 1 76 0
 429 0006 0446     		mov	r4, r0
 430              		.loc 1 79 0
 431 0008 1DD1     		bne	.L32
 432              		.loc 1 87 0
 433 000a 0669     		ldr	r6, [r0, #16]
 434 000c D6B1     		cbz	r6, .L21
 435              		.loc 1 88 0
 436 000e 8A06     		lsls	r2, r1, #26
 437 0010 10D5     		bpl	.L26
 438              		.loc 1 90 0
 439 0012 3578     		ldrb	r5, [r6, #0]	@ zero_extendqisi2
 440 0014 002D     		cmp	r5, #0
 441 0016 3BD0     		beq	.L27
 442              		.loc 1 90 0 is_stmt 0 discriminator 1
 443 0018 7368     		ldr	r3, [r6, #4]
 444 001a 9BB1     		cbz	r3, .L21
 445              		.loc 1 90 0 discriminator 3
 446 001c C268     		ldr	r2, [r0, #12]
 447 001e 012A     		cmp	r2, #1
 448 0020 33D9     		bls	.L28
 449              	.LBB3:
 450              		.loc 1 90 0 discriminator 4
 451 0022 7588     		ldrh	r5, [r6, #2]
 452 0024 8168     		ldr	r1, [r0, #8]
ARM GAS  /tmp/ccBdmuRR.s 			page 9


 453              	.LVL18:
 454 0026 5208     		lsrs	r2, r2, #1
 455              	.LVL19:
 456 0028 05FB02F4 		mul	r4, r5, r2
 457 002c 01EB4401 		add	r1, r1, r4, lsl #1
 458 0030 9847     		blx	r3
 459              	.LVL20:
 460 0032 70BD     		pop	{r4, r5, r6, pc}
 461              	.LVL21:
 462              	.L26:
 463              	.LBE3:
 464              		.loc 1 92 0 is_stmt 1
 465 0034 CB06     		lsls	r3, r1, #27
 466 0036 05D5     		bpl	.L21
 467              		.loc 1 94 0
 468 0038 7368     		ldr	r3, [r6, #4]
 469 003a 1BB1     		cbz	r3, .L21
 470              		.loc 1 94 0 is_stmt 0 discriminator 1
 471 003c C268     		ldr	r2, [r0, #12]
 472 003e 8168     		ldr	r1, [r0, #8]
 473              	.LVL22:
 474 0040 5208     		lsrs	r2, r2, #1
 475 0042 9847     		blx	r3
 476              	.LVL23:
 477              	.L21:
 478 0044 70BD     		pop	{r4, r5, r6, pc}
 479              	.LVL24:
 480              	.L32:
 481              		.loc 1 82 0 is_stmt 1
 482 0046 FFF7FEFF 		bl	adc_lld_stop_conversion
 483              	.LVL25:
 484 004a 2369     		ldr	r3, [r4, #16]
 485 004c 9B68     		ldr	r3, [r3, #8]
 486 004e 3BB1     		cbz	r3, .L23
 487              		.loc 1 82 0 is_stmt 0 discriminator 1
 488 0050 0522     		movs	r2, #5
 489 0052 2046     		mov	r0, r4
 490 0054 0021     		movs	r1, #0
 491 0056 2270     		strb	r2, [r4, #0]
 492 0058 9847     		blx	r3
 493 005a 2078     		ldrb	r0, [r4, #0]	@ zero_extendqisi2
 494 005c 0528     		cmp	r0, #5
 495 005e 11D0     		beq	.L33
 496              	.L23:
 497              		.loc 1 82 0 discriminator 2
 498 0060 0022     		movs	r2, #0
 499 0062 2261     		str	r2, [r4, #16]
 500              	.LBB4:
 501 0064 2023     		movs	r3, #32
 502              	.LVL26:
 503              	@ 82 "../../os/hal/platforms/STM32F4xx/adc_lld.c" 1
 504 0066 83F31188 		msr     BASEPRI, r3
 505              	@ 0 "" 2
 506              	.LVL27:
 507              		.thumb
 508              	.LBE4:
 509 006a 6369     		ldr	r3, [r4, #20]
ARM GAS  /tmp/ccBdmuRR.s 			page 10


 510              	.LVL28:
 511 006c 33B1     		cbz	r3, .L31
 512              	.LVL29:
 513              	.LBB5:
 514              		.loc 1 82 0 discriminator 4
 515 006e 6261     		str	r2, [r4, #20]
 516 0070 4FF0FF32 		mov	r2, #-1
 517 0074 1846     		mov	r0, r3
 518 0076 5A62     		str	r2, [r3, #36]
 519 0078 FFF7FEFF 		bl	chSchReadyI
 520              	.LVL30:
 521              	.L31:
 522              	.LBE5:
 523              	.LBB6:
 524              		.loc 1 90 0 is_stmt 1 discriminator 11
 525 007c 0023     		movs	r3, #0
 526              	.LVL31:
 527              	@ 90 "../../os/hal/platforms/STM32F4xx/adc_lld.c" 1
 528 007e 83F31188 		msr     BASEPRI, r3
 529              	@ 0 "" 2
 530              	.LVL32:
 531              		.thumb
 532 0082 70BD     		pop	{r4, r5, r6, pc}
 533              	.LVL33:
 534              	.L33:
 535              	.LBE6:
 536              		.loc 1 82 0 discriminator 3
 537 0084 0221     		movs	r1, #2
 538 0086 2170     		strb	r1, [r4, #0]
 539 0088 EAE7     		b	.L23
 540              	.LVL34:
 541              	.L28:
 542              		.loc 1 90 0 discriminator 5
 543 008a 8168     		ldr	r1, [r0, #8]
 544              	.LVL35:
 545 008c 9847     		blx	r3
 546 008e 70BD     		pop	{r4, r5, r6, pc}
 547              	.LVL36:
 548              	.L27:
 549              		.loc 1 90 0 is_stmt 0 discriminator 2
 550 0090 FFF7FEFF 		bl	adc_lld_stop_conversion
 551              	.LVL37:
 552 0094 2369     		ldr	r3, [r4, #16]
 553 0096 5B68     		ldr	r3, [r3, #4]
 554 0098 CBB1     		cbz	r3, .L29
 555              		.loc 1 90 0 discriminator 6
 556 009a 0422     		movs	r2, #4
 557 009c 2270     		strb	r2, [r4, #0]
 558 009e 2046     		mov	r0, r4
 559 00a0 A168     		ldr	r1, [r4, #8]
 560 00a2 E268     		ldr	r2, [r4, #12]
 561 00a4 9847     		blx	r3
 562 00a6 2078     		ldrb	r0, [r4, #0]	@ zero_extendqisi2
 563 00a8 0428     		cmp	r0, #4
 564 00aa 0CD0     		beq	.L34
 565              	.L30:
 566              	.LBB7:
ARM GAS  /tmp/ccBdmuRR.s 			page 11


 567              		.loc 1 90 0 discriminator 9
 568 00ac 2023     		movs	r3, #32
 569              	.LVL38:
 570              	@ 90 "../../os/hal/platforms/STM32F4xx/adc_lld.c" 1
 571 00ae 83F31188 		msr     BASEPRI, r3
 572              	@ 0 "" 2
 573              	.LVL39:
 574              		.thumb
 575              	.LBE7:
 576 00b2 6369     		ldr	r3, [r4, #20]
 577              	.LVL40:
 578 00b4 002B     		cmp	r3, #0
 579 00b6 E1D0     		beq	.L31
 580              	.LVL41:
 581              	.LBB8:
 582              		.loc 1 90 0 discriminator 10
 583 00b8 0022     		movs	r2, #0
 584 00ba 6261     		str	r2, [r4, #20]
 585 00bc 1846     		mov	r0, r3
 586 00be 5A62     		str	r2, [r3, #36]
 587 00c0 FFF7FEFF 		bl	chSchReadyI
 588              	.LVL42:
 589 00c4 DAE7     		b	.L31
 590              	.L34:
 591              	.LBE8:
 592              		.loc 1 90 0 discriminator 8
 593 00c6 0221     		movs	r1, #2
 594 00c8 2170     		strb	r1, [r4, #0]
 595 00ca 2561     		str	r5, [r4, #16]
 596 00cc EEE7     		b	.L30
 597              	.L29:
 598              		.loc 1 90 0 discriminator 7
 599 00ce 0220     		movs	r0, #2
 600 00d0 2070     		strb	r0, [r4, #0]
 601 00d2 2361     		str	r3, [r4, #16]
 602 00d4 EAE7     		b	.L30
 603              		.cfi_endproc
 604              	.LFE118:
 605              		.size	adc_lld_serve_rx_interrupt, .-adc_lld_serve_rx_interrupt
 606 00d6 00BFAFF3 		.section	.text.Vector88,"ax",%progbits
 606      0080AFF3 
 606      0080
 607              		.align	2
 608              		.p2align 4,,15
 609              		.global	Vector88
 610              		.thumb
 611              		.thumb_func
 612              		.type	Vector88, %function
 613              	Vector88:
 614              	.LFB119:
 615              		.loc 1 111 0 is_stmt 1
 616              		.cfi_startproc
 617              		@ args = 0, pretend = 0, frame = 0
 618              		@ frame_needed = 0, uses_anonymous_args = 0
 619              		.loc 1 117 0
 620 0000 4FF40053 		mov	r3, #8192
 621 0004 C4F20103 		movt	r3, 16385
ARM GAS  /tmp/ccBdmuRR.s 			page 12


 622              		.loc 1 118 0
 623 0008 0021     		movs	r1, #0
 624              		.loc 1 117 0
 625 000a 1A68     		ldr	r2, [r3, #0]
 626              	.LVL43:
 627              		.loc 1 111 0
 628 000c 10B5     		push	{r4, lr}
 629              	.LCFI6:
 630              		.cfi_def_cfa_offset 8
 631              		.cfi_offset 14, -4
 632              		.cfi_offset 4, -8
 633              		.loc 1 118 0
 634 000e 1960     		str	r1, [r3, #0]
 635              		.loc 1 121 0
 636 0010 9106     		lsls	r1, r2, #26
 637 0012 2BD5     		bpl	.L36
 638              		.loc 1 121 0 is_stmt 0 discriminator 1
 639 0014 40F20004 		movw	r4, #:lower16:.LANCHOR0
 640 0018 C0F20004 		movt	r4, #:upper16:.LANCHOR0
 641 001c E16A     		ldr	r1, [r4, #44]
 642 001e 0A68     		ldr	r2, [r1, #0]
 643              	.LVL44:
 644 0020 5068     		ldr	r0, [r2, #4]
 645 0022 18B3     		cbz	r0, .L36
 646              		.loc 1 124 0 is_stmt 1
 647 0024 2369     		ldr	r3, [r4, #16]
 648 0026 0BB3     		cbz	r3, .L36
 649              		.loc 1 125 0
 650 0028 2046     		mov	r0, r4
 651 002a FFF7FEFF 		bl	adc_lld_stop_conversion
 652 002e 2069     		ldr	r0, [r4, #16]
 653 0030 8368     		ldr	r3, [r0, #8]
 654 0032 3BB1     		cbz	r3, .L37
 655              		.loc 1 125 0 is_stmt 0 discriminator 1
 656 0034 0521     		movs	r1, #5
 657 0036 2170     		strb	r1, [r4, #0]
 658 0038 2046     		mov	r0, r4
 659 003a 0121     		movs	r1, #1
 660 003c 9847     		blx	r3
 661 003e 2278     		ldrb	r2, [r4, #0]	@ zero_extendqisi2
 662 0040 052A     		cmp	r2, #5
 663 0042 17D0     		beq	.L39
 664              	.L37:
 665              		.loc 1 125 0 discriminator 2
 666 0044 0021     		movs	r1, #0
 667 0046 40F20002 		movw	r2, #:lower16:.LANCHOR0
 668 004a C0F20002 		movt	r2, #:upper16:.LANCHOR0
 669 004e 2161     		str	r1, [r4, #16]
 670              	.LBB9:
 671 0050 2023     		movs	r3, #32
 672              	.LVL45:
 673              	@ 125 "../../os/hal/platforms/STM32F4xx/adc_lld.c" 1
 674 0052 83F31188 		msr     BASEPRI, r3
 675              	@ 0 "" 2
 676              	.LVL46:
 677              		.thumb
 678              	.LBE9:
ARM GAS  /tmp/ccBdmuRR.s 			page 13


 679 0056 6069     		ldr	r0, [r4, #20]
 680 0058 28B1     		cbz	r0, .L38
 681              	.LVL47:
 682              	.LBB10:
 683              		.loc 1 125 0 discriminator 4
 684 005a 4FF0FF33 		mov	r3, #-1
 685              	.LVL48:
 686 005e 4362     		str	r3, [r0, #36]
 687 0060 5161     		str	r1, [r2, #20]
 688 0062 FFF7FEFF 		bl	chSchReadyI
 689              	.LVL49:
 690              	.L38:
 691              	.LBE10:
 692              	.LBB11:
 693              		.loc 1 125 0 discriminator 5
 694 0066 0023     		movs	r3, #0
 695              	.LVL50:
 696              	@ 125 "../../os/hal/platforms/STM32F4xx/adc_lld.c" 1
 697 0068 83F31188 		msr     BASEPRI, r3
 698              	@ 0 "" 2
 699              	.LVL51:
 700              		.thumb
 701              	.L36:
 702              	.LBE11:
 703              		.loc 1 159 0 is_stmt 1
 704 006c BDE81040 		pop	{r4, lr}
 705              		.loc 1 158 0
 706 0070 FFF7FEBF 		b	_port_irq_epilogue
 707              	.LVL52:
 708              	.L39:
 709              		.loc 1 125 0 discriminator 3
 710 0074 0223     		movs	r3, #2
 711 0076 2370     		strb	r3, [r4, #0]
 712 0078 E4E7     		b	.L37
 713              		.cfi_endproc
 714              	.LFE119:
 715              		.size	Vector88, .-Vector88
 716 007a 00BFAFF3 		.section	.text.adcSTM32EnableTSVREFE,"ax",%progbits
 716      0080
 717              		.align	2
 718              		.p2align 4,,15
 719              		.global	adcSTM32EnableTSVREFE
 720              		.thumb
 721              		.thumb_func
 722              		.type	adcSTM32EnableTSVREFE, %function
 723              	adcSTM32EnableTSVREFE:
 724              	.LFB125:
 725              		.loc 1 388 0
 726              		.cfi_startproc
 727              		@ args = 0, pretend = 0, frame = 0
 728              		@ frame_needed = 0, uses_anonymous_args = 0
 729              		@ link register save eliminated.
 730              		.loc 1 390 0
 731 0000 4FF40C53 		mov	r3, #8960
 732 0004 C4F20103 		movt	r3, 16385
 733 0008 5868     		ldr	r0, [r3, #4]
 734 000a 40F40002 		orr	r2, r0, #8388608
ARM GAS  /tmp/ccBdmuRR.s 			page 14


 735 000e 5A60     		str	r2, [r3, #4]
 736              		.loc 1 391 0
 737 0010 7047     		bx	lr
 738              		.cfi_endproc
 739              	.LFE125:
 740              		.size	adcSTM32EnableTSVREFE, .-adcSTM32EnableTSVREFE
 741 0012 00BFAFF3 		.section	.text.adcSTM32DisableTSVREFE,"ax",%progbits
 741      0080AFF3 
 741      0080AFF3 
 741      0080
 742              		.align	2
 743              		.p2align 4,,15
 744              		.global	adcSTM32DisableTSVREFE
 745              		.thumb
 746              		.thumb_func
 747              		.type	adcSTM32DisableTSVREFE, %function
 748              	adcSTM32DisableTSVREFE:
 749              	.LFB126:
 750              		.loc 1 399 0
 751              		.cfi_startproc
 752              		@ args = 0, pretend = 0, frame = 0
 753              		@ frame_needed = 0, uses_anonymous_args = 0
 754              		@ link register save eliminated.
 755              		.loc 1 401 0
 756 0000 4FF40C53 		mov	r3, #8960
 757 0004 C4F20103 		movt	r3, 16385
 758 0008 5868     		ldr	r0, [r3, #4]
 759 000a 20F40002 		bic	r2, r0, #8388608
 760 000e 5A60     		str	r2, [r3, #4]
 761              		.loc 1 402 0
 762 0010 7047     		bx	lr
 763              		.cfi_endproc
 764              	.LFE126:
 765              		.size	adcSTM32DisableTSVREFE, .-adcSTM32DisableTSVREFE
 766 0012 00BFAFF3 		.section	.text.adcSTM32EnableVBATE,"ax",%progbits
 766      0080AFF3 
 766      0080AFF3 
 766      0080
 767              		.align	2
 768              		.p2align 4,,15
 769              		.global	adcSTM32EnableVBATE
 770              		.thumb
 771              		.thumb_func
 772              		.type	adcSTM32EnableVBATE, %function
 773              	adcSTM32EnableVBATE:
 774              	.LFB127:
 775              		.loc 1 410 0
 776              		.cfi_startproc
 777              		@ args = 0, pretend = 0, frame = 0
 778              		@ frame_needed = 0, uses_anonymous_args = 0
 779              		@ link register save eliminated.
 780              		.loc 1 412 0
 781 0000 4FF40C53 		mov	r3, #8960
 782 0004 C4F20103 		movt	r3, 16385
 783 0008 5868     		ldr	r0, [r3, #4]
 784 000a 40F48002 		orr	r2, r0, #4194304
 785 000e 5A60     		str	r2, [r3, #4]
ARM GAS  /tmp/ccBdmuRR.s 			page 15


 786              		.loc 1 413 0
 787 0010 7047     		bx	lr
 788              		.cfi_endproc
 789              	.LFE127:
 790              		.size	adcSTM32EnableVBATE, .-adcSTM32EnableVBATE
 791 0012 00BFAFF3 		.section	.text.adcSTM32DisableVBATE,"ax",%progbits
 791      0080AFF3 
 791      0080AFF3 
 791      0080
 792              		.align	2
 793              		.p2align 4,,15
 794              		.global	adcSTM32DisableVBATE
 795              		.thumb
 796              		.thumb_func
 797              		.type	adcSTM32DisableVBATE, %function
 798              	adcSTM32DisableVBATE:
 799              	.LFB128:
 800              		.loc 1 421 0
 801              		.cfi_startproc
 802              		@ args = 0, pretend = 0, frame = 0
 803              		@ frame_needed = 0, uses_anonymous_args = 0
 804              		@ link register save eliminated.
 805              		.loc 1 423 0
 806 0000 4FF40C53 		mov	r3, #8960
 807 0004 C4F20103 		movt	r3, 16385
 808 0008 5868     		ldr	r0, [r3, #4]
 809 000a 20F48002 		bic	r2, r0, #4194304
 810 000e 5A60     		str	r2, [r3, #4]
 811              		.loc 1 424 0
 812 0010 7047     		bx	lr
 813              		.cfi_endproc
 814              	.LFE128:
 815              		.size	adcSTM32DisableVBATE, .-adcSTM32DisableVBATE
 816              		.global	ADCD1
 817 0012 00BFAFF3 		.section	.bss.ADCD1,"aw",%nobits
 817      0080AFF3 
 817      0080AFF3 
 817      0080
 818              		.align	2
 819              		.set	.LANCHOR0,. + 0
 820              		.type	ADCD1, %object
 821              		.size	ADCD1, 52
 822              	ADCD1:
 823 0000 00000000 		.space	52
 823      00000000 
 823      00000000 
 823      00000000 
 823      00000000 
 824              		.text
 825              	.Letext0:
 826              		.file 2 "/home/lithium/Documents/arm-2011q3/bin/../lib/gcc/arm-none-eabi/4.6.1/include/stddef.h"
 827              		.file 3 "/home/lithium/Documents/arm-2011q3/bin/../lib/gcc/arm-none-eabi/4.6.1/../../../../arm-non
 828              		.file 4 "../../os/ports/GCC/ARMCMx/chtypes.h"
 829              		.file 5 "../../os/kernel/include/chlists.h"
 830              		.file 6 "../../os/kernel/include/chthreads.h"
 831              		.file 7 "../../os/ports/GCC/ARMCMx/chcore_v7m.h"
 832              		.file 8 "../../os/kernel/include/chmtx.h"
ARM GAS  /tmp/ccBdmuRR.s 			page 16


 833              		.file 9 "../../os/hal/platforms/STM32F4xx/stm32f4xx.h"
 834              		.file 10 "../../os/hal/platforms/STM32F4xx/stm32_dma.h"
 835              		.file 11 "../../os/hal/include/adc.h"
 836              		.file 12 "../../os/hal/platforms/STM32F4xx/adc_lld.h"
 837              		.file 13 "../../os/ports/common/ARMCMx/CMSIS/include/core_cm4.h"