ARM GAS  /tmp/ccskdpfy.s 			page 1


   1              		.syntax unified
   2              		.cpu cortex-m4
   3              		.fpu softvfp
   4              		.eabi_attribute 20, 1
   5              		.eabi_attribute 21, 1
   6              		.eabi_attribute 23, 3
   7              		.eabi_attribute 24, 1
   8              		.eabi_attribute 25, 1
   9              		.eabi_attribute 26, 1
  10              		.eabi_attribute 30, 2
  11              		.eabi_attribute 34, 1
  12              		.eabi_attribute 18, 4
  13              		.thumb
  14              		.file	"main.c"
  15              		.text
  16              	.Ltext0:
  17              		.cfi_sections	.debug_frame
  18              		.section	.text.Thread1,"ax",%progbits
  19              		.align	2
  20              		.p2align 4,,15
  21              		.thumb
  22              		.thumb_func
  23              		.type	Thread1, %function
  24              	Thread1:
  25              	.LFB121:
  26              		.file 1 "main.c"
  27              		.loc 1 154 0
  28              		.cfi_startproc
  29              		@ args = 0, pretend = 0, frame = 0
  30              		@ frame_needed = 0, uses_anonymous_args = 0
  31              	.LVL0:
  32              		.loc 1 157 0
  33 0000 40F20000 		movw	r0, #:lower16:rlist
  34              	.LVL1:
  35 0004 C0F20000 		movt	r0, #:upper16:rlist
  36 0008 40F20003 		movw	r3, #:lower16:.LC0
  37 000c 8269     		ldr	r2, [r0, #24]
  38              		.loc 1 154 0
  39 000e 10B5     		push	{r4, lr}
  40              	.LCFI0:
  41              		.cfi_def_cfa_offset 8
  42              		.cfi_offset 14, -4
  43              		.cfi_offset 4, -8
  44              		.loc 1 157 0
  45 0010 C0F20003 		movt	r3, #:upper16:.LC0
  46              		.loc 1 159 0
  47 0014 4FF44064 		mov	r4, #3072
  48              		.loc 1 157 0
  49 0018 9361     		str	r3, [r2, #24]
  50              		.loc 1 159 0
  51 001a C4F20204 		movt	r4, 16386
  52              	.L2:
  53              		.loc 1 159 0 is_stmt 0 discriminator 1
  54 001e 4FF40052 		mov	r2, #8192	@ movhi
  55 0022 2283     		strh	r2, [r4, #24]	@ movhi
  56              		.loc 1 160 0 is_stmt 1 discriminator 1
  57 0024 4FF4FA70 		mov	r0, #500
ARM GAS  /tmp/ccskdpfy.s 			page 2


  58 0028 FFF7FEFF 		bl	chThdSleep
  59              		.loc 1 161 0 discriminator 1
  60 002c 4FF40051 		mov	r1, #8192	@ movhi
  61 0030 6183     		strh	r1, [r4, #26]	@ movhi
  62              		.loc 1 162 0 discriminator 1
  63 0032 4FF4FA70 		mov	r0, #500
  64 0036 FFF7FEFF 		bl	chThdSleep
  65 003a F0E7     		b	.L2
  66              		.cfi_endproc
  67              	.LFE121:
  68              		.size	Thread1, .-Thread1
  69 003c AFF30080 		.section	.text.pwmpcb,"ax",%progbits
  70              		.align	2
  71              		.p2align 4,,15
  72              		.thumb
  73              		.thumb_func
  74              		.type	pwmpcb, %function
  75              	pwmpcb:
  76              	.LFB118:
  77              		.loc 1 94 0
  78              		.cfi_startproc
  79              		@ args = 0, pretend = 0, frame = 0
  80              		@ frame_needed = 0, uses_anonymous_args = 0
  81              	.LVL2:
  82 0000 08B5     		push	{r3, lr}
  83              	.LCFI1:
  84              		.cfi_def_cfa_offset 8
  85              		.cfi_offset 14, -4
  86              		.cfi_offset 3, -8
  87              	.LBB5:
  88              		.loc 1 101 0
  89 0002 2023     		movs	r3, #32
  90              	.LVL3:
  91              	@ 101 "main.c" 1
  92 0004 83F31188 		msr     BASEPRI, r3
  93              	@ 0 "" 2
  94              	.LVL4:
  95              		.thumb
  96              	.LBE5:
  97              		.loc 1 102 0
  98 0008 40F20000 		movw	r0, #:lower16:ADCD1
  99              	.LVL5:
 100 000c 40F20001 		movw	r1, #:lower16:.LANCHOR0
 101 0010 40F20002 		movw	r2, #:lower16:.LANCHOR1
 102 0014 0423     		movs	r3, #4
 103              	.LVL6:
 104 0016 C0F20000 		movt	r0, #:upper16:ADCD1
 105 001a C0F20001 		movt	r1, #:upper16:.LANCHOR0
 106 001e C0F20002 		movt	r2, #:upper16:.LANCHOR1
 107 0022 FFF7FEFF 		bl	adcStartConversionI
 108              	.LBB6:
 109              		.loc 1 103 0
 110 0026 0023     		movs	r3, #0
 111              	.LVL7:
 112              	@ 103 "main.c" 1
 113 0028 83F31188 		msr     BASEPRI, r3
 114              	@ 0 "" 2
ARM GAS  /tmp/ccskdpfy.s 			page 3


 115              	.LVL8:
 116              		.thumb
 117              	.LBE6:
 118              		.loc 1 104 0
 119 002c 08BD     		pop	{r3, pc}
 120              		.cfi_endproc
 121              	.LFE118:
 122              		.size	pwmpcb, .-pwmpcb
 123 002e 00BF     		.section	.text.spicb,"ax",%progbits
 124              		.align	2
 125              		.p2align 4,,15
 126              		.thumb
 127              		.thumb_func
 128              		.type	spicb, %function
 129              	spicb:
 130              	.LFB120:
 131              		.loc 1 141 0
 132              		.cfi_startproc
 133              		@ args = 0, pretend = 0, frame = 0
 134              		@ frame_needed = 0, uses_anonymous_args = 0
 135              	.LVL9:
 136 0000 08B5     		push	{r3, lr}
 137              	.LCFI2:
 138              		.cfi_def_cfa_offset 8
 139              		.cfi_offset 14, -4
 140              		.cfi_offset 3, -8
 141              	.LBB7:
 142              		.loc 1 144 0
 143 0002 2023     		movs	r3, #32
 144              	.LVL10:
 145              	@ 144 "main.c" 1
 146 0004 83F31188 		msr     BASEPRI, r3
 147              	@ 0 "" 2
 148              	.LVL11:
 149              		.thumb
 150              	.LBE7:
 151              		.loc 1 145 0
 152 0008 FFF7FEFF 		bl	spi_lld_unselect
 153              	.LVL12:
 154              	.LBB8:
 155              		.loc 1 146 0
 156 000c 0023     		movs	r3, #0
 157              	.LVL13:
 158              	@ 146 "main.c" 1
 159 000e 83F31188 		msr     BASEPRI, r3
 160              	@ 0 "" 2
 161              	.LVL14:
 162              		.thumb
 163              	.LBE8:
 164              		.loc 1 147 0
 165 0012 08BD     		pop	{r3, pc}
 166              		.cfi_endproc
 167              	.LFE120:
 168              		.size	spicb, .-spicb
 169 0014 AFF30080 		.section	.text.adccb,"ax",%progbits
 169      AFF30080 
 169      AFF30080 
ARM GAS  /tmp/ccskdpfy.s 			page 4


 170              		.align	2
 171              		.p2align 4,,15
 172              		.thumb
 173              		.thumb_func
 174              		.type	adccb, %function
 175              	adccb:
 176              	.LFB119:
 177              		.loc 1 111 0
 178              		.cfi_startproc
 179              		@ args = 0, pretend = 0, frame = 0
 180              		@ frame_needed = 0, uses_anonymous_args = 0
 181              	.LVL15:
 182 0000 F8B5     		push	{r3, r4, r5, r6, r7, lr}
 183              	.LCFI3:
 184              		.cfi_def_cfa_offset 24
 185              		.cfi_offset 14, -4
 186              		.cfi_offset 7, -8
 187              		.cfi_offset 6, -12
 188              		.cfi_offset 5, -16
 189              		.cfi_offset 4, -20
 190              		.cfi_offset 3, -24
 191              		.loc 1 116 0
 192 0002 0378     		ldrb	r3, [r0, #0]	@ zero_extendqisi2
 193 0004 042B     		cmp	r3, #4
 194 0006 00D0     		beq	.L8
 195 0008 F8BD     		pop	{r3, r4, r5, r6, r7, pc}
 196              	.L8:
 197              	.LBB14:
 198              	.LBB15:
 199              	.LBB16:
 200              		.loc 1 120 0
 201 000a 40F20004 		movw	r4, #:lower16:.LANCHOR1
 202 000e C0F20004 		movt	r4, #:upper16:.LANCHOR1
 203              	.LBB17:
 204              		.loc 1 123 0
 205 0012 2023     		movs	r3, #32
 206              	.LVL16:
 207              	.LBE17:
 208              		.loc 1 120 0
 209 0014 B4F800C0 		ldrh	ip, [r4, #0]
 210              		.loc 1 121 0
 211 0018 B4F802E0 		ldrh	lr, [r4, #2]
 212              		.loc 1 120 0
 213 001c A288     		ldrh	r2, [r4, #4]
 214              	.LVL17:
 215              		.loc 1 121 0
 216 001e E588     		ldrh	r5, [r4, #6]
 217 0020 6689     		ldrh	r6, [r4, #10]
 218              		.loc 1 120 0
 219 0022 2789     		ldrh	r7, [r4, #8]
 220              		.loc 1 121 0
 221 0024 E189     		ldrh	r1, [r4, #14]
 222              	.LVL18:
 223              		.loc 1 120 0
 224 0026 A089     		ldrh	r0, [r4, #12]
 225              	.LVL19:
 226 0028 6244     		add	r2, ip, r2
ARM GAS  /tmp/ccskdpfy.s 			page 5


 227              		.loc 1 121 0
 228 002a 7544     		add	r5, lr, r5
 229 002c 05EB060C 		add	ip, r5, r6
 230              		.loc 1 120 0
 231 0030 02EB070E 		add	lr, r2, r7
 232              		.loc 1 121 0
 233 0034 0CEB0106 		add	r6, ip, r1
 234              		.loc 1 120 0
 235 0038 7044     		add	r0, lr, r0
 236 003a C0F38F01 		ubfx	r1, r0, #2, #16
 237              	.LVL20:
 238              		.loc 1 121 0
 239 003e C6F38F05 		ubfx	r5, r6, #2, #16
 240              	.LVL21:
 241              	.LBB18:
 242              		.loc 1 123 0
 243              	@ 123 "main.c" 1
 244 0042 83F31188 		msr     BASEPRI, r3
 245              	@ 0 "" 2
 246              	.LVL22:
 247              		.thumb
 248              	.LBE18:
 249              		.loc 1 127 0
 250 0046 40F20006 		movw	r6, #:lower16:PWMD4
 251 004a C0F20006 		movt	r6, #:upper16:PWMD4
 252 004e 3046     		mov	r0, r6
 253 0050 3789     		ldrh	r7, [r6, #8]
 254 0052 01FB07F2 		mul	r2, r1, r7
 255 0056 C2F30F32 		ubfx	r2, r2, #12, #16
 256 005a 0021     		movs	r1, #0
 257              	.LVL23:
 258 005c FFF7FEFF 		bl	pwm_lld_enable_channel
 259              	.LVL24:
 260              		.loc 1 128 0
 261 0060 3089     		ldrh	r0, [r6, #8]
 262              		.loc 1 131 0
 263 0062 40F20007 		movw	r7, #:lower16:SPID2
 264              		.loc 1 128 0
 265 0066 05FB00F5 		mul	r5, r5, r0
 266              	.LVL25:
 267 006a C5F30F32 		ubfx	r2, r5, #12, #16
 268              		.loc 1 131 0
 269 006e C0F20007 		movt	r7, #:upper16:SPID2
 270              		.loc 1 128 0
 271 0072 0321     		movs	r1, #3
 272 0074 3046     		mov	r0, r6
 273 0076 FFF7FEFF 		bl	pwm_lld_enable_channel
 274              		.loc 1 131 0
 275 007a 3846     		mov	r0, r7
 276 007c FFF7FEFF 		bl	spi_lld_select
 277              		.loc 1 132 0
 278 0080 0323     		movs	r3, #3
 279 0082 3B70     		strb	r3, [r7, #0]
 280 0084 3846     		mov	r0, r7
 281 0086 0821     		movs	r1, #8
 282 0088 2246     		mov	r2, r4
 283 008a FFF7FEFF 		bl	spi_lld_send
ARM GAS  /tmp/ccskdpfy.s 			page 6


 284              	.LBB19:
 285              		.loc 1 134 0
 286 008e 0023     		movs	r3, #0
 287              	.LVL26:
 288              	@ 134 "main.c" 1
 289 0090 83F31188 		msr     BASEPRI, r3
 290              	@ 0 "" 2
 291              	.LVL27:
 292              		.thumb
 293 0094 F8BD     		pop	{r3, r4, r5, r6, r7, pc}
 294              	.LBE19:
 295              	.LBE16:
 296              	.LBE15:
 297              	.LBE14:
 298              		.cfi_endproc
 299              	.LFE119:
 300              		.size	adccb, .-adccb
 301 0096 00BFAFF3 		.section	.text.startup.main,"ax",%progbits
 301      0080AFF3 
 301      0080
 302              		.align	2
 303              		.p2align 4,,15
 304              		.global	main
 305              		.thumb
 306              		.thumb_func
 307              		.type	main, %function
 308              	main:
 309              	.LFB122:
 310              		.loc 1 169 0
 311              		.cfi_startproc
 312              		@ args = 0, pretend = 0, frame = 0
 313              		@ frame_needed = 0, uses_anonymous_args = 0
 314 0000 10B5     		push	{r4, lr}
 315              	.LCFI4:
 316              		.cfi_def_cfa_offset 8
 317              		.cfi_offset 14, -4
 318              		.cfi_offset 4, -8
 319 0002 82B0     		sub	sp, sp, #8
 320              	.LCFI5:
 321              		.cfi_def_cfa_offset 16
 322              		.loc 1 178 0
 323 0004 FFF7FEFF 		bl	halInit
 324              		.loc 1 186 0
 325 0008 0024     		movs	r4, #0
 326              		.loc 1 179 0
 327 000a FFF7FEFF 		bl	chSysInit
 328              		.loc 1 185 0
 329 000e 40F20000 		movw	r0, #:lower16:SD2
 330              		.loc 1 186 0
 331 0012 C4F20204 		movt	r4, 16386
 332              		.loc 1 185 0
 333 0016 0021     		movs	r1, #0
 334 0018 C0F20000 		movt	r0, #:upper16:SD2
 335 001c FFF7FEFF 		bl	sdStart
 336              		.loc 1 186 0
 337 0020 0421     		movs	r1, #4
 338 0022 40F28232 		movw	r2, #898
ARM GAS  /tmp/ccskdpfy.s 			page 7


 339 0026 2046     		mov	r0, r4
 340 0028 FFF7FEFF 		bl	_pal_lld_setgroupmode
 341              		.loc 1 187 0
 342 002c 0821     		movs	r1, #8
 343 002e 40F28232 		movw	r2, #898
 344 0032 2046     		mov	r0, r4
 345 0034 FFF7FEFF 		bl	_pal_lld_setgroupmode
 346              		.loc 1 194 0
 347 0038 2369     		ldr	r3, [r4, #16]
 348 003a DA07     		lsls	r2, r3, #31
 349 003c 7AD4     		bmi	.L13
 350              	.L10:
 351              		.loc 1 204 0
 352 003e 40F20000 		movw	r0, #:lower16:SPID2
 353 0042 40F20001 		movw	r1, #:lower16:.LANCHOR2
 354              		.loc 1 205 0
 355 0046 4FF48064 		mov	r4, #1024
 356 004a C4F20204 		movt	r4, 16386
 357              		.loc 1 204 0
 358 004e C0F20000 		movt	r0, #:upper16:SPID2
 359 0052 C0F20001 		movt	r1, #:upper16:.LANCHOR2
 360 0056 FFF7FEFF 		bl	spiStart
 361              		.loc 1 205 0
 362 005a 4FF48050 		mov	r0, #4096	@ movhi
 363 005e 2083     		strh	r0, [r4, #24]	@ movhi
 364              		.loc 1 206 0
 365 0060 4FF48051 		mov	r1, #4096
 366 0064 2046     		mov	r0, r4
 367 0066 1922     		movs	r2, #25
 368 0068 FFF7FEFF 		bl	_pal_lld_setgroupmode
 369              		.loc 1 208 0
 370 006c 2046     		mov	r0, r4
 371 006e 4FF40051 		mov	r1, #8192
 372 0072 40F29A22 		movw	r2, #666
 373 0076 FFF7FEFF 		bl	_pal_lld_setgroupmode
 374              		.loc 1 210 0
 375 007a 2046     		mov	r0, r4
 376 007c 4FF48041 		mov	r1, #16384
 377 0080 40F28222 		movw	r2, #642
 378 0084 FFF7FEFF 		bl	_pal_lld_setgroupmode
 379              		.loc 1 211 0
 380 0088 40F29A22 		movw	r2, #666
 381 008c 2046     		mov	r0, r4
 382 008e 4FF40041 		mov	r1, #32768
 383 0092 FFF7FEFF 		bl	_pal_lld_setgroupmode
 384              		.loc 1 218 0
 385 0096 40F20000 		movw	r0, #:lower16:ADCD1
 386 009a C0F20000 		movt	r0, #:upper16:ADCD1
 387 009e 0021     		movs	r1, #0
 388 00a0 FFF7FEFF 		bl	adcStart
 389              		.loc 1 219 0
 390 00a4 FFF7FEFF 		bl	adcSTM32EnableTSVREFE
 391              		.loc 1 220 0
 392 00a8 4FF40060 		mov	r0, #2048
 393 00ac 0322     		movs	r2, #3
 394 00ae C4F20200 		movt	r0, 16386
 395 00b2 0221     		movs	r1, #2
ARM GAS  /tmp/ccskdpfy.s 			page 8


 396 00b4 FFF7FEFF 		bl	_pal_lld_setgroupmode
 397              		.loc 1 225 0
 398 00b8 40F20000 		movw	r0, #:lower16:PWMD4
 399 00bc 40F20001 		movw	r1, #:lower16:.LANCHOR3
 400 00c0 C0F20000 		movt	r0, #:upper16:PWMD4
 401 00c4 C0F20001 		movt	r1, #:upper16:.LANCHOR3
 402 00c8 FFF7FEFF 		bl	pwmStart
 403              		.loc 1 226 0
 404 00cc 4FF44060 		mov	r0, #3072
 405 00d0 C4F20200 		movt	r0, 16386
 406 00d4 4FF48051 		mov	r1, #4096
 407 00d8 4FF48172 		mov	r2, #258
 408 00dc FFF7FEFF 		bl	_pal_lld_setgroupmode
 409              		.loc 1 227 0
 410 00e0 4FF44060 		mov	r0, #3072
 411 00e4 C4F20200 		movt	r0, 16386
 412 00e8 4FF40041 		mov	r1, #32768
 413 00ec 4FF48172 		mov	r2, #258
 414 00f0 FFF7FEFF 		bl	_pal_lld_setgroupmode
 415              		.loc 1 232 0
 416 00f4 40F20000 		movw	r0, #:lower16:.LANCHOR4
 417 00f8 40F20003 		movw	r3, #:lower16:Thread1
 418 00fc 0024     		movs	r4, #0
 419 00fe C0F20000 		movt	r0, #:upper16:.LANCHOR4
 420 0102 4FF4A871 		mov	r1, #336
 421 0106 4022     		movs	r2, #64
 422 0108 C0F20003 		movt	r3, #:upper16:Thread1
 423 010c 0094     		str	r4, [sp, #0]
 424 010e FFF7FEFF 		bl	chThdCreateStatic
 425              		.loc 1 241 0
 426 0112 C4F20204 		movt	r4, 16386
 427 0116 03E0     		b	.L12
 428              	.L11:
 429              		.loc 1 243 0
 430 0118 4FF4FA70 		mov	r0, #500
 431 011c FFF7FEFF 		bl	chThdSleep
 432              	.L12:
 433              		.loc 1 241 0
 434 0120 2169     		ldr	r1, [r4, #16]
 435 0122 CB07     		lsls	r3, r1, #31
 436 0124 F8D5     		bpl	.L11
 437              		.loc 1 242 0
 438 0126 40F20000 		movw	r0, #:lower16:SD2
 439 012a C0F20000 		movt	r0, #:upper16:SD2
 440 012e FFF7FEFF 		bl	TestThread
 441 0132 F1E7     		b	.L11
 442              	.L13:
 443              		.loc 1 195 0
 444 0134 40F20000 		movw	r0, #:lower16:SD2
 445 0138 C0F20000 		movt	r0, #:upper16:SD2
 446 013c FFF7FEFF 		bl	TestThread
 447 0140 7DE7     		b	.L10
 448              		.cfi_endproc
 449              	.LFE122:
 450              		.size	main, .-main
 451 0142 00BFAFF3 		.section	.bss.waThread1,"aw",%nobits
 451      0080AFF3 
ARM GAS  /tmp/ccskdpfy.s 			page 9


 451      0080AFF3 
 451      0080
 452              		.align	3
 453              		.set	.LANCHOR4,. + 0
 454              		.type	waThread1, %object
 455              		.size	waThread1, 336
 456              	waThread1:
 457 0000 00000000 		.space	336
 457      00000000 
 457      00000000 
 457      00000000 
 457      00000000 
 458              		.section	.data.pwmcfg,"aw",%progbits
 459              		.align	2
 460              		.set	.LANCHOR3,. + 0
 461              		.type	pwmcfg, %object
 462              		.size	pwmcfg, 52
 463              	pwmcfg:
 464 0000 10270000 		.word	10000
 465 0004 1027     		.short	10000
 466 0006 0000     		.space	2
 467 0008 00000000 		.word	pwmpcb
 468 000c 01000000 		.word	1
 469 0010 00000000 		.word	0
 470 0014 00000000 		.word	0
 471 0018 00000000 		.word	0
 472 001c 00000000 		.word	0
 473 0020 00000000 		.word	0
 474 0024 01000000 		.word	1
 475 0028 00000000 		.word	0
 476 002c 00000000 		.word	0
 477 0030 00000000 		.word	0
 478              		.section	.rodata.spi2cfg,"a",%progbits
 479              		.align	2
 480              		.set	.LANCHOR2,. + 0
 481              		.type	spi2cfg, %object
 482              		.size	spi2cfg, 12
 483              	spi2cfg:
 484 0000 00000000 		.word	spicb
 485 0004 00040240 		.word	1073873920
 486 0008 0C00     		.short	12
 487 000a 0008     		.short	2048
 488              		.section	.rodata.str1.4,"aMS",%progbits,1
 489              		.align	2
 490              	.LC0:
 491 0000 626C696E 		.ascii	"blinker\000"
 491      6B657200 
 492              		.section	.rodata.adcgrpcfg,"a",%progbits
 493              		.align	2
 494              		.set	.LANCHOR0,. + 0
 495              		.type	adcgrpcfg, %object
 496              		.size	adcgrpcfg, 40
 497              	adcgrpcfg:
 498 0000 00       		.byte	0
 499 0001 00       		.space	1
 500 0002 0200     		.short	2
 501 0004 00000000 		.word	adccb
ARM GAS  /tmp/ccskdpfy.s 			page 10


 502 0008 00000000 		.word	0
 503 000c 00000000 		.word	0
 504 0010 00000040 		.word	1073741824
 505 0014 18001800 		.word	1572888
 506 0018 00000000 		.word	0
 507 001c 00001000 		.word	1048576
 508 0020 00000000 		.word	0
 509 0024 70010000 		.word	368
 510              		.section	.bss.samples,"aw",%nobits
 511              		.align	2
 512              		.set	.LANCHOR1,. + 0
 513              		.type	samples, %object
 514              		.size	samples, 16
 515              	samples:
 516 0000 00000000 		.space	16
 516      00000000 
 516      00000000 
 516      00000000 
 517              		.text
 518              	.Letext0:
 519              		.file 2 "/home/lithium/Documents/arm-2011q3/bin/../lib/gcc/arm-none-eabi/4.6.1/include/stddef.h"
 520              		.file 3 "/home/lithium/Documents/arm-2011q3/bin/../lib/gcc/arm-none-eabi/4.6.1/../../../../arm-non
 521              		.file 4 "../../os/ports/GCC/ARMCMx/chtypes.h"
 522              		.file 5 "../../os/kernel/include/chlists.h"
 523              		.file 6 "../../os/kernel/include/chthreads.h"
 524              		.file 7 "../../os/ports/GCC/ARMCMx/chcore_v7m.h"
 525              		.file 8 "../../os/kernel/include/chschd.h"
 526              		.file 9 "../../os/kernel/include/chmtx.h"
 527              		.file 10 "../../os/kernel/include/chevents.h"
 528              		.file 11 "../../os/kernel/include/chqueues.h"
 529              		.file 12 "../../os/hal/platforms/STM32F4xx/stm32f4xx.h"
 530              		.file 13 "../../os/hal/platforms/STM32F4xx/stm32_dma.h"
 531              		.file 14 "../../os/hal/platforms/STM32/GPIOv2/pal_lld.h"
 532              		.file 15 "../../os/hal/include/adc.h"
 533              		.file 16 "../../os/hal/platforms/STM32F4xx/adc_lld.h"
 534              		.file 17 "../../os/hal/include/pwm.h"
 535              		.file 18 "../../os/hal/platforms/STM32/TIMv1/pwm_lld.h"
 536              		.file 19 "../../os/hal/platforms/STM32/TIMv1/stm32_tim.h"
 537              		.file 20 "../../os/hal/include/serial.h"
 538              		.file 21 "../../os/hal/include/spi.h"
 539              		.file 22 "../../os/hal/platforms/STM32/SPIv1/spi_lld.h"
 540              		.file 23 "../../os/ports/common/ARMCMx/CMSIS/include/core_cm4.h"
 541              		.file 24 "../../os/hal/platforms/STM32/USARTv1/serial_lld.h"