ARM GAS  /tmp/ccxQaldT.s 			page 1


   1              		.syntax unified
   2              		.cpu cortex-m4
   3              		.fpu softvfp
   4              		.eabi_attribute 20, 1
   5              		.eabi_attribute 21, 1
   6              		.eabi_attribute 23, 3
   7              		.eabi_attribute 24, 1
   8              		.eabi_attribute 25, 1
   9              		.eabi_attribute 26, 1
  10              		.eabi_attribute 30, 2
  11              		.eabi_attribute 34, 1
  12              		.eabi_attribute 18, 4
  13              		.thumb
  14              		.file	"pwm_lld.c"
  15              		.text
  16              	.Ltext0:
  17              		.cfi_sections	.debug_frame
  18              		.section	.text.VectorB8,"ax",%progbits
  19              		.align	2
  20              		.p2align 4,,15
  21              		.global	VectorB8
  22              		.thumb
  23              		.thumb_func
  24              		.type	VectorB8, %function
  25              	VectorB8:
  26              	.LFB119:
  27              		.file 1 "../../os/hal/platforms/STM32/TIMv1/pwm_lld.c"
  28              		.loc 1 235 0
  29              		.cfi_startproc
  30              		@ args = 0, pretend = 0, frame = 0
  31              		@ frame_needed = 0, uses_anonymous_args = 0
  32              	.LVL0:
  33 0000 38B5     		push	{r3, r4, r5, lr}
  34              	.LCFI0:
  35              		.cfi_def_cfa_offset 16
  36              		.cfi_offset 14, -4
  37              		.cfi_offset 5, -8
  38              		.cfi_offset 4, -12
  39              		.cfi_offset 3, -16
  40              	.LBB4:
  41              	.LBB5:
  42              		.loc 1 115 0
  43 0002 40F20005 		movw	r5, #:lower16:.LANCHOR0
  44 0006 C0F20005 		movt	r5, #:upper16:.LANCHOR0
  45 000a 2B69     		ldr	r3, [r5, #16]
  46 000c 1869     		ldr	r0, [r3, #16]
  47              	.LVL1:
  48              		.loc 1 116 0
  49 000e D968     		ldr	r1, [r3, #12]
  50 0010 00EA0104 		and	r4, r0, r1
  51 0014 E4B2     		uxtb	r4, r4
  52              	.LVL2:
  53              		.loc 1 117 0
  54 0016 E243     		mvns	r2, r4
  55 0018 1A61     		str	r2, [r3, #16]
  56              		.loc 1 118 0
  57 001a A307     		lsls	r3, r4, #30
ARM GAS  /tmp/ccxQaldT.s 			page 2


  58 001c 2AD4     		bmi	.L8
  59              	.L2:
  60              		.loc 1 120 0
  61 001e 6007     		lsls	r0, r4, #29
  62 0020 20D4     		bmi	.L9
  63              	.L3:
  64              		.loc 1 122 0
  65 0022 2107     		lsls	r1, r4, #28
  66 0024 16D4     		bmi	.L10
  67              	.L4:
  68              		.loc 1 124 0
  69 0026 E206     		lsls	r2, r4, #27
  70 0028 0CD4     		bmi	.L11
  71              	.L5:
  72              		.loc 1 126 0
  73 002a E307     		lsls	r3, r4, #31
  74 002c 06D5     		bpl	.L6
  75              		.loc 1 127 0
  76 002e 6A68     		ldr	r2, [r5, #4]
  77 0030 40F20000 		movw	r0, #:lower16:.LANCHOR0
  78 0034 9168     		ldr	r1, [r2, #8]
  79 0036 C0F20000 		movt	r0, #:upper16:.LANCHOR0
  80 003a 8847     		blx	r1
  81              	.L6:
  82              	.LBE5:
  83              	.LBE4:
  84              		.loc 1 242 0
  85 003c BDE83840 		pop	{r3, r4, r5, lr}
  86              		.loc 1 241 0
  87 0040 FFF7FEBF 		b	_port_irq_epilogue
  88              	.L11:
  89              	.LBB7:
  90              	.LBB6:
  91              		.loc 1 125 0
  92 0044 6B68     		ldr	r3, [r5, #4]
  93 0046 40F20000 		movw	r0, #:lower16:.LANCHOR0
  94 004a 9A6A     		ldr	r2, [r3, #40]
  95 004c C0F20000 		movt	r0, #:upper16:.LANCHOR0
  96 0050 9047     		blx	r2
  97 0052 EAE7     		b	.L5
  98              	.L10:
  99              		.loc 1 123 0
 100 0054 6968     		ldr	r1, [r5, #4]
 101 0056 40F20000 		movw	r0, #:lower16:.LANCHOR0
 102 005a 0B6A     		ldr	r3, [r1, #32]
 103 005c C0F20000 		movt	r0, #:upper16:.LANCHOR0
 104 0060 9847     		blx	r3
 105 0062 E0E7     		b	.L4
 106              	.L9:
 107              		.loc 1 121 0
 108 0064 6A68     		ldr	r2, [r5, #4]
 109 0066 40F20000 		movw	r0, #:lower16:.LANCHOR0
 110 006a 9169     		ldr	r1, [r2, #24]
 111 006c C0F20000 		movt	r0, #:upper16:.LANCHOR0
 112 0070 8847     		blx	r1
 113 0072 D6E7     		b	.L3
 114              	.L8:
ARM GAS  /tmp/ccxQaldT.s 			page 3


 115              		.loc 1 119 0
 116 0074 6B68     		ldr	r3, [r5, #4]
 117 0076 2846     		mov	r0, r5
 118 0078 1A69     		ldr	r2, [r3, #16]
 119 007a 9047     		blx	r2
 120 007c CFE7     		b	.L2
 121              	.LBE6:
 122              	.LBE7:
 123              		.cfi_endproc
 124              	.LFE119:
 125              		.size	VectorB8, .-VectorB8
 126 007e 00BF     		.section	.text.pwm_lld_init,"ax",%progbits
 127              		.align	2
 128              		.p2align 4,,15
 129              		.global	pwm_lld_init
 130              		.thumb
 131              		.thumb_func
 132              		.type	pwm_lld_init, %function
 133              	pwm_lld_init:
 134              	.LFB120:
 135              		.loc 1 345 0
 136              		.cfi_startproc
 137              		@ args = 0, pretend = 0, frame = 0
 138              		@ frame_needed = 0, uses_anonymous_args = 0
 139 0000 10B5     		push	{r4, lr}
 140              	.LCFI1:
 141              		.cfi_def_cfa_offset 8
 142              		.cfi_offset 14, -4
 143              		.cfi_offset 4, -8
 144              		.loc 1 367 0
 145 0002 40F20004 		movw	r4, #:lower16:.LANCHOR0
 146 0006 C0F20004 		movt	r4, #:upper16:.LANCHOR0
 147 000a 2046     		mov	r0, r4
 148 000c FFF7FEFF 		bl	pwmObjectInit
 149              		.loc 1 368 0
 150 0010 4FF40063 		mov	r3, #2048
 151 0014 C4F20003 		movt	r3, 16384
 152 0018 2361     		str	r3, [r4, #16]
 153              		.loc 1 388 0
 154 001a 10BD     		pop	{r4, pc}
 155              		.cfi_endproc
 156              	.LFE120:
 157              		.size	pwm_lld_init, .-pwm_lld_init
 158 001c AFF30080 		.section	.text.pwm_lld_start,"ax",%progbits
 159              		.align	2
 160              		.p2align 4,,15
 161              		.global	pwm_lld_start
 162              		.thumb
 163              		.thumb_func
 164              		.type	pwm_lld_start, %function
 165              	pwm_lld_start:
 166              	.LFB121:
 167              		.loc 1 399 0
 168              		.cfi_startproc
 169              		@ args = 0, pretend = 0, frame = 0
 170              		@ frame_needed = 0, uses_anonymous_args = 0
 171              	.LVL3:
ARM GAS  /tmp/ccxQaldT.s 			page 4


 172              		.loc 1 403 0
 173 0000 0378     		ldrb	r3, [r0, #0]	@ zero_extendqisi2
 174 0002 012B     		cmp	r3, #1
 175              		.loc 1 399 0
 176 0004 70B5     		push	{r4, r5, r6, lr}
 177              	.LCFI2:
 178              		.cfi_def_cfa_offset 16
 179              		.cfi_offset 14, -4
 180              		.cfi_offset 6, -8
 181              		.cfi_offset 5, -12
 182              		.cfi_offset 4, -16
 183              		.loc 1 399 0
 184 0006 0446     		mov	r4, r0
 185              		.loc 1 403 0
 186 0008 61D0     		beq	.L31
 187              		.loc 1 491 0
 188 000a 0369     		ldr	r3, [r0, #16]
 189 000c 0025     		movs	r5, #0
 190 000e 1D60     		str	r5, [r3, #0]
 191              		.loc 1 492 0
 192 0010 5D63     		str	r5, [r3, #52]
 193              		.loc 1 493 0
 194 0012 9D63     		str	r5, [r3, #56]
 195              		.loc 1 494 0
 196 0014 DD63     		str	r5, [r3, #60]
 197              		.loc 1 495 0
 198 0016 1D64     		str	r5, [r3, #64]
 199              		.loc 1 496 0
 200 0018 5D62     		str	r5, [r3, #36]
 201              	.LVL4:
 202              	.L16:
 203              		.loc 1 500 0
 204 001a 6268     		ldr	r2, [r4, #4]
 205              	.LVL5:
 206 001c E668     		ldr	r6, [r4, #12]
 207 001e 1568     		ldr	r5, [r2, #0]
 208              		.loc 1 505 0
 209 0020 2489     		ldrh	r4, [r4, #8]
 210              	.LVL6:
 211              		.loc 1 510 0
 212 0022 D168     		ldr	r1, [r2, #12]
 213              		.loc 1 506 0
 214 0024 D06A     		ldr	r0, [r2, #44]
 215              		.loc 1 500 0
 216 0026 B6FBF5F5 		udiv	r5, r6, r5
 217 002a 013D     		subs	r5, r5, #1
 218              		.loc 1 505 0
 219 002c 013C     		subs	r4, r4, #1
 220              		.loc 1 510 0
 221 002e 01F00F01 		and	r1, r1, #15
 222              		.loc 1 504 0
 223 0032 ADB2     		uxth	r5, r5
 224              		.loc 1 505 0
 225 0034 A4B2     		uxth	r4, r4
 226              		.loc 1 510 0
 227 0036 0129     		cmp	r1, #1
 228              		.loc 1 504 0
ARM GAS  /tmp/ccxQaldT.s 			page 5


 229 0038 9D62     		str	r5, [r3, #40]
 230              		.loc 1 505 0
 231 003a DC62     		str	r4, [r3, #44]
 232              		.loc 1 506 0
 233 003c 5860     		str	r0, [r3, #4]
 234              	.LVL7:
 235              		.loc 1 510 0
 236 003e 03D0     		beq	.L17
 237              		.loc 1 509 0
 238 0040 0229     		cmp	r1, #2
 239 0042 0CBF     		ite	eq
 240 0044 0321     		moveq	r1, #3
 241 0046 0021     		movne	r1, #0
 242              	.L17:
 243              	.LVL8:
 244              		.loc 1 518 0
 245 0048 5069     		ldr	r0, [r2, #20]
 246 004a 00F00F00 		and	r0, r0, #15
 247 004e 0128     		cmp	r0, #1
 248 0050 22D0     		beq	.L21
 249 0052 0228     		cmp	r0, #2
 250 0054 1ED0     		beq	.L32
 251              		.loc 1 526 0
 252 0056 D469     		ldr	r4, [r2, #28]
 253 0058 04F00F00 		and	r0, r4, #15
 254 005c 0128     		cmp	r0, #1
 255 005e 22D0     		beq	.L24
 256              	.L35:
 257 0060 0228     		cmp	r0, #2
 258 0062 2FD0     		beq	.L33
 259              		.loc 1 534 0
 260 0064 506A     		ldr	r0, [r2, #36]
 261 0066 00F00F00 		and	r0, r0, #15
 262 006a 0128     		cmp	r0, #1
 263 006c 22D0     		beq	.L27
 264              	.L36:
 265 006e 0228     		cmp	r0, #2
 266 0070 23D0     		beq	.L34
 267              	.L26:
 268              		.loc 1 583 0
 269 0072 146B     		ldr	r4, [r2, #48]
 270              		.loc 1 582 0
 271 0074 9068     		ldr	r0, [r2, #8]
 272              		.loc 1 579 0
 273 0076 1962     		str	r1, [r3, #32]
 274              		.loc 1 583 0
 275 0078 24F0FF02 		bic	r2, r4, #255
 276              	.LVL9:
 277              		.loc 1 582 0
 278 007c 0028     		cmp	r0, #0
 279 007e 18BF     		it	ne
 280 0080 42F00102 		orrne	r2, r2, #1
 281              		.loc 1 581 0
 282 0084 0021     		movs	r1, #0
 283              	.LVL10:
 284              		.loc 1 580 0
 285 0086 0120     		movs	r0, #1
ARM GAS  /tmp/ccxQaldT.s 			page 6


 286 0088 5861     		str	r0, [r3, #20]
 287              		.loc 1 581 0
 288 008a 1961     		str	r1, [r3, #16]
 289              		.loc 1 582 0
 290 008c DA60     		str	r2, [r3, #12]
 291              		.loc 1 592 0
 292 008e 8522     		movs	r2, #133
 293 0090 1A60     		str	r2, [r3, #0]
 294              		.loc 1 594 0
 295 0092 70BD     		pop	{r4, r5, r6, pc}
 296              	.LVL11:
 297              	.L32:
 298              		.loc 1 520 0
 299 0094 41F02001 		orr	r1, r1, #32
 300              	.LVL12:
 301              	.L21:
 302              		.loc 1 526 0
 303 0098 D469     		ldr	r4, [r2, #28]
 304 009a 04F00F00 		and	r0, r4, #15
 305 009e 0128     		cmp	r0, #1
 306              		.loc 1 522 0
 307 00a0 41F01001 		orr	r1, r1, #16
 308              	.LVL13:
 309              		.loc 1 526 0
 310 00a4 DCD1     		bne	.L35
 311              	.L24:
 312              		.loc 1 530 0
 313 00a6 41F48071 		orr	r1, r1, #256
 314              	.LVL14:
 315              	.L37:
 316              		.loc 1 534 0
 317 00aa 506A     		ldr	r0, [r2, #36]
 318 00ac 00F00F00 		and	r0, r0, #15
 319 00b0 0128     		cmp	r0, #1
 320 00b2 DCD1     		bne	.L36
 321              	.L27:
 322              		.loc 1 538 0
 323 00b4 41F48051 		orr	r1, r1, #4096
 324              	.LVL15:
 325 00b8 DBE7     		b	.L26
 326              	.L34:
 327              		.loc 1 536 0
 328 00ba 41F40051 		orr	r1, r1, #8192
 329              	.LVL16:
 330              		.loc 1 538 0
 331 00be 41F48051 		orr	r1, r1, #4096
 332              	.LVL17:
 333 00c2 D6E7     		b	.L26
 334              	.L33:
 335              		.loc 1 528 0
 336 00c4 41F40071 		orr	r1, r1, #512
 337              	.LVL18:
 338              		.loc 1 530 0
 339 00c8 41F48071 		orr	r1, r1, #256
 340              	.LVL19:
 341 00cc EDE7     		b	.L37
 342              	.LVL20:
ARM GAS  /tmp/ccxQaldT.s 			page 7


 343              	.L31:
 344              		.loc 1 439 0
 345 00ce 40F20001 		movw	r1, #:lower16:.LANCHOR0
 346 00d2 C0F20001 		movt	r1, #:upper16:.LANCHOR0
 347 00d6 8842     		cmp	r0, r1
 348 00d8 05D0     		beq	.L38
 349              	.LVL21:
 350              	.L15:
 351              		.loc 1 484 0
 352 00da 2369     		ldr	r3, [r4, #16]
 353 00dc 46F66802 		movw	r2, #26728
 354 00e0 9A61     		str	r2, [r3, #24]
 355              		.loc 1 486 0
 356 00e2 DA61     		str	r2, [r3, #28]
 357 00e4 99E7     		b	.L16
 358              	.L38:
 359              		.loc 1 440 0
 360 00e6 4FF46055 		mov	r5, #14336
 361 00ea C4F20205 		movt	r5, 16386
 362              		.loc 1 441 0
 363 00ee 0022     		movs	r2, #0
 364              		.loc 1 440 0
 365 00f0 286C     		ldr	r0, [r5, #64]
 366 00f2 40F00401 		orr	r1, r0, #4
 367 00f6 2964     		str	r1, [r5, #64]
 368              		.loc 1 441 0
 369 00f8 2B6A     		ldr	r3, [r5, #32]
 370 00fa 43F00406 		orr	r6, r3, #4
 371 00fe 2E62     		str	r6, [r5, #32]
 372              		.loc 1 442 0
 373 0100 1E20     		movs	r0, #30
 374              		.loc 1 441 0
 375 0102 2A62     		str	r2, [r5, #32]
 376              		.loc 1 442 0
 377 0104 7021     		movs	r1, #112
 378 0106 FFF7FEFF 		bl	nvicEnableVector
 379              		.loc 1 444 0
 380 010a 4FF43D40 		mov	r0, #48384
 381 010e C0F20150 		movt	r0, 1281
 382 0112 E060     		str	r0, [r4, #12]
 383 0114 E1E7     		b	.L15
 384              		.cfi_endproc
 385              	.LFE121:
 386              		.size	pwm_lld_start, .-pwm_lld_start
 387 0116 00BFAFF3 		.section	.text.pwm_lld_stop,"ax",%progbits
 387      0080AFF3 
 387      0080
 388              		.align	2
 389              		.p2align 4,,15
 390              		.global	pwm_lld_stop
 391              		.thumb
 392              		.thumb_func
 393              		.type	pwm_lld_stop, %function
 394              	pwm_lld_stop:
 395              	.LFB122:
 396              		.loc 1 603 0
 397              		.cfi_startproc
ARM GAS  /tmp/ccxQaldT.s 			page 8


 398              		@ args = 0, pretend = 0, frame = 0
 399              		@ frame_needed = 0, uses_anonymous_args = 0
 400              	.LVL22:
 401 0000 08B5     		push	{r3, lr}
 402              	.LCFI3:
 403              		.cfi_def_cfa_offset 8
 404              		.cfi_offset 14, -4
 405              		.cfi_offset 3, -8
 406              		.loc 1 606 0
 407 0002 0378     		ldrb	r3, [r0, #0]	@ zero_extendqisi2
 408 0004 022B     		cmp	r3, #2
 409 0006 00D0     		beq	.L41
 410              	.LVL23:
 411              	.L39:
 412 0008 08BD     		pop	{r3, pc}
 413              	.LVL24:
 414              	.L41:
 415              		.loc 1 634 0
 416 000a 40F2000C 		movw	ip, #:lower16:.LANCHOR0
 417              		.loc 1 607 0
 418 000e 0269     		ldr	r2, [r0, #16]
 419              		.loc 1 634 0
 420 0010 C0F2000C 		movt	ip, #:upper16:.LANCHOR0
 421              		.loc 1 607 0
 422 0014 0021     		movs	r1, #0
 423              		.loc 1 634 0
 424 0016 6045     		cmp	r0, ip
 425              		.loc 1 607 0
 426 0018 1160     		str	r1, [r2, #0]
 427              		.loc 1 608 0
 428 001a D160     		str	r1, [r2, #12]
 429              		.loc 1 609 0
 430 001c 1161     		str	r1, [r2, #16]
 431              		.loc 1 634 0
 432 001e F3D1     		bne	.L39
 433              		.loc 1 635 0
 434 0020 1E20     		movs	r0, #30
 435              	.LVL25:
 436 0022 FFF7FEFF 		bl	nvicDisableVector
 437              		.loc 1 636 0
 438 0026 4FF46053 		mov	r3, #14336
 439 002a C4F20203 		movt	r3, 16386
 440 002e 196C     		ldr	r1, [r3, #64]
 441 0030 21F00400 		bic	r0, r1, #4
 442 0034 1864     		str	r0, [r3, #64]
 443 0036 E7E7     		b	.L39
 444              		.cfi_endproc
 445              	.LFE122:
 446              		.size	pwm_lld_stop, .-pwm_lld_stop
 447 0038 AFF30080 		.section	.text.pwm_lld_enable_channel,"ax",%progbits
 447      AFF30080 
 448              		.align	2
 449              		.p2align 4,,15
 450              		.global	pwm_lld_enable_channel
 451              		.thumb
 452              		.thumb_func
 453              		.type	pwm_lld_enable_channel, %function
ARM GAS  /tmp/ccxQaldT.s 			page 9


 454              	pwm_lld_enable_channel:
 455              	.LFB123:
 456              		.loc 1 675 0
 457              		.cfi_startproc
 458              		@ args = 0, pretend = 0, frame = 0
 459              		@ frame_needed = 0, uses_anonymous_args = 0
 460              		@ link register save eliminated.
 461              	.LVL26:
 462 0000 10B4     		push	{r4}
 463              	.LCFI4:
 464              		.cfi_def_cfa_offset 4
 465              		.cfi_offset 4, -4
 466              		.loc 1 680 0
 467 0002 4468     		ldr	r4, [r0, #4]
 468              		.loc 1 677 0
 469 0004 0369     		ldr	r3, [r0, #16]
 470              		.loc 1 680 0
 471 0006 04EBC10C 		add	ip, r4, r1, lsl #3
 472              		.loc 1 677 0
 473 000a 01F10C04 		add	r4, r1, #12
 474 000e 03EB8404 		add	r4, r3, r4, lsl #2
 475              		.loc 1 680 0
 476 0012 DCF81000 		ldr	r0, [ip, #16]
 477              	.LVL27:
 478              		.loc 1 677 0
 479 0016 6260     		str	r2, [r4, #4]
 480              		.loc 1 680 0
 481 0018 48B1     		cbz	r0, .L42
 482              	.LBB8:
 483              		.loc 1 684 0
 484 001a 0220     		movs	r0, #2
 485              		.loc 1 681 0
 486 001c DA68     		ldr	r2, [r3, #12]
 487              	.LVL28:
 488              		.loc 1 684 0
 489 001e 10FA01F1 		lsls	r1, r0, r1
 490              	.LVL29:
 491 0022 1142     		tst	r1, r2
 492 0024 03D1     		bne	.L42
 493              		.loc 1 685 0
 494 0026 0A43     		orrs	r2, r2, r1
 495              	.LVL30:
 496              		.loc 1 686 0
 497 0028 C943     		mvns	r1, r1
 498              		.loc 1 685 0
 499 002a DA60     		str	r2, [r3, #12]
 500              		.loc 1 686 0
 501 002c 1961     		str	r1, [r3, #16]
 502              	.L42:
 503              	.LBE8:
 504              		.loc 1 689 0
 505 002e 10BC     		pop	{r4}
 506 0030 7047     		bx	lr
 507              		.cfi_endproc
 508              	.LFE123:
 509              		.size	pwm_lld_enable_channel, .-pwm_lld_enable_channel
 510 0032 00BFAFF3 		.section	.text.pwm_lld_disable_channel,"ax",%progbits
ARM GAS  /tmp/ccxQaldT.s 			page 10


 510      0080AFF3 
 510      0080AFF3 
 510      0080
 511              		.align	2
 512              		.p2align 4,,15
 513              		.global	pwm_lld_disable_channel
 514              		.thumb
 515              		.thumb_func
 516              		.type	pwm_lld_disable_channel, %function
 517              	pwm_lld_disable_channel:
 518              	.LFB124:
 519              		.loc 1 703 0
 520              		.cfi_startproc
 521              		@ args = 0, pretend = 0, frame = 0
 522              		@ frame_needed = 0, uses_anonymous_args = 0
 523              		@ link register save eliminated.
 524              	.LVL31:
 525              		.loc 1 705 0
 526 0000 0369     		ldr	r3, [r0, #16]
 527 0002 01F10C02 		add	r2, r1, #12
 528 0006 03EB820C 		add	ip, r3, r2, lsl #2
 529 000a 0020     		movs	r0, #0
 530              	.LVL32:
 531 000c CCF80400 		str	r0, [ip, #4]
 532              		.loc 1 706 0
 533 0010 DA68     		ldr	r2, [r3, #12]
 534 0012 0220     		movs	r0, #2
 535 0014 8840     		lsls	r0, r0, r1
 536 0016 22EA0001 		bic	r1, r2, r0
 537              	.LVL33:
 538 001a D960     		str	r1, [r3, #12]
 539              		.loc 1 707 0
 540 001c 7047     		bx	lr
 541              		.cfi_endproc
 542              	.LFE124:
 543              		.size	pwm_lld_disable_channel, .-pwm_lld_disable_channel
 544              		.global	PWMD4
 545 001e 00BF     		.section	.bss.PWMD4,"aw",%nobits
 546              		.align	2
 547              		.set	.LANCHOR0,. + 0
 548              		.type	PWMD4, %object
 549              		.size	PWMD4, 20
 550              	PWMD4:
 551 0000 00000000 		.space	20
 551      00000000 
 551      00000000 
 551      00000000 
 551      00000000 
 552              		.text
 553              	.Letext0:
 554              		.file 2 "/home/lithium/Documents/arm-2011q3/bin/../lib/gcc/arm-none-eabi/4.6.1/../../../../arm-non
 555              		.file 3 "../../os/hal/platforms/STM32F4xx/stm32f4xx.h"
 556              		.file 4 "../../os/hal/include/pwm.h"
 557              		.file 5 "../../os/hal/platforms/STM32/TIMv1/pwm_lld.h"
 558              		.file 6 "../../os/hal/platforms/STM32/TIMv1/stm32_tim.h"
 559              		.file 7 "../../os/ports/common/ARMCMx/CMSIS/include/core_cm4.h"