ARM GAS  /tmp/cctV5Pyf.s 			page 1


   1              		.syntax unified
   2              		.cpu cortex-m4
   3              		.fpu softvfp
   4              		.eabi_attribute 20, 1
   5              		.eabi_attribute 21, 1
   6              		.eabi_attribute 23, 3
   7              		.eabi_attribute 24, 1
   8              		.eabi_attribute 25, 1
   9              		.eabi_attribute 26, 1
  10              		.eabi_attribute 30, 2
  11              		.eabi_attribute 34, 1
  12              		.eabi_attribute 18, 4
  13              		.thumb
  14              		.file	"test.c"
  15              		.text
  16              	.Ltext0:
  17              		.cfi_sections	.debug_frame
  18              		.section	.text.tmr,"ax",%progbits
  19              		.align	2
  20              		.p2align 4,,15
  21              		.thumb
  22              		.thumb_func
  23              		.type	tmr, %function
  24              	tmr:
  25              	.LFB132:
  26              		.file 1 "../../test/test.c"
  27              		.loc 1 261 0
  28              		.cfi_startproc
  29              		@ args = 0, pretend = 0, frame = 0
  30              		@ frame_needed = 0, uses_anonymous_args = 0
  31              		@ link register save eliminated.
  32              	.LVL0:
  33              		.loc 1 264 0
  34 0000 40F20003 		movw	r3, #:lower16:.LANCHOR0
  35 0004 C0F20003 		movt	r3, #:upper16:.LANCHOR0
  36 0008 0122     		movs	r2, #1
  37 000a 1A70     		strb	r2, [r3, #0]
  38              		.loc 1 265 0
  39 000c 7047     		bx	lr
  40              		.cfi_endproc
  41              	.LFE132:
  42              		.size	tmr, .-tmr
  43 000e 00BF     		.section	.text.print_line,"ax",%progbits
  44              		.align	2
  45              		.p2align 4,,15
  46              		.thumb
  47              		.thumb_func
  48              		.type	print_line, %function
  49              	print_line:
  50              	.LFB135:
  51              		.loc 1 300 0
  52              		.cfi_startproc
  53              		@ args = 0, pretend = 0, frame = 0
  54              		@ frame_needed = 0, uses_anonymous_args = 0
  55              	.LVL1:
  56 0000 70B5     		push	{r4, r5, r6, lr}
  57              	.LCFI0:
ARM GAS  /tmp/cctV5Pyf.s 			page 2


  58              		.cfi_def_cfa_offset 16
  59              		.cfi_offset 14, -4
  60              		.cfi_offset 6, -8
  61              		.cfi_offset 5, -12
  62              		.cfi_offset 4, -16
  63 0002 40F20006 		movw	r6, #:lower16:.LANCHOR1
  64              		.loc 1 300 0
  65 0006 4C25     		movs	r5, #76
  66 0008 C0F20006 		movt	r6, #:upper16:.LANCHOR1
  67              	.LVL2:
  68              	.L3:
  69              		.loc 1 304 0 discriminator 2
  70 000c 3068     		ldr	r0, [r6, #0]
  71 000e 0468     		ldr	r4, [r0, #0]
  72 0010 2D21     		movs	r1, #45
  73 0012 A268     		ldr	r2, [r4, #8]
  74 0014 9047     		blx	r2
  75 0016 3068     		ldr	r0, [r6, #0]
  76 0018 0168     		ldr	r1, [r0, #0]
  77 001a 013D     		subs	r5, r5, #1
  78 001c 8B68     		ldr	r3, [r1, #8]
  79 001e 2D21     		movs	r1, #45
  80 0020 40F20004 		movw	r4, #:lower16:.LANCHOR1
  81 0024 9847     		blx	r3
  82              		.loc 1 303 0 discriminator 2
  83 0026 013D     		subs	r5, r5, #1
  84              		.loc 1 304 0 discriminator 2
  85 0028 C0F20004 		movt	r4, #:upper16:.LANCHOR1
  86              		.loc 1 303 0 discriminator 2
  87 002c EED1     		bne	.L3
  88              		.loc 1 305 0
  89 002e 2068     		ldr	r0, [r4, #0]
  90 0030 0268     		ldr	r2, [r0, #0]
  91 0032 40F20001 		movw	r1, #:lower16:.LC0
  92 0036 1368     		ldr	r3, [r2, #0]
  93 0038 C0F20001 		movt	r1, #:upper16:.LC0
  94 003c 0222     		movs	r2, #2
  95 003e 9847     		blx	r3
  96              		.loc 1 306 0
  97 0040 70BD     		pop	{r4, r5, r6, pc}
  98              		.cfi_endproc
  99              	.LFE135:
 100              		.size	print_line, .-print_line
 101 0042 00BFAFF3 		.section	.text.test_printn,"ax",%progbits
 101      0080AFF3 
 101      0080AFF3 
 101      0080
 102              		.align	2
 103              		.p2align 4,,15
 104              		.global	test_printn
 105              		.thumb
 106              		.thumb_func
 107              		.type	test_printn, %function
 108              	test_printn:
 109              	.LFB118:
 110              		.loc 1 91 0
 111              		.cfi_startproc
ARM GAS  /tmp/cctV5Pyf.s 			page 3


 112              		@ args = 0, pretend = 0, frame = 16
 113              		@ frame_needed = 0, uses_anonymous_args = 0
 114              	.LVL3:
 115 0000 F0B5     		push	{r4, r5, r6, r7, lr}
 116              	.LCFI1:
 117              		.cfi_def_cfa_offset 20
 118              		.cfi_offset 14, -4
 119              		.cfi_offset 7, -8
 120              		.cfi_offset 6, -12
 121              		.cfi_offset 5, -16
 122              		.cfi_offset 4, -20
 123 0002 85B0     		sub	sp, sp, #20
 124              	.LCFI2:
 125              		.cfi_def_cfa_offset 40
 126              		.loc 1 94 0
 127 0004 0028     		cmp	r0, #0
 128 0006 3AD0     		beq	.L18
 129              		.loc 1 99 0
 130 0008 4CF6CD42 		movw	r2, #52429
 131              	.LBB24:
 132              	.LBB25:
 133              		.loc 1 97 0
 134 000c 6F46     		mov	r7, sp
 135              	.LBE25:
 136              	.LBE24:
 137              		.loc 1 94 0
 138 000e 6C46     		mov	r4, sp
 139              		.loc 1 99 0
 140 0010 CCF6CC42 		movt	r2, 52428
 141              	.LVL4:
 142              	.L10:
 143 0014 A2FB0013 		umull	r1, r3, r2, r0
 144 0018 DB08     		lsrs	r3, r3, #3
 145 001a 03EB830C 		add	ip, r3, r3, lsl #2
 146 001e A0EB4C01 		sub	r1, r0, ip, lsl #1
 147 0022 3031     		adds	r1, r1, #48
 148 0024 C9B2     		uxtb	r1, r1
 149              		.loc 1 98 0
 150 0026 1846     		mov	r0, r3
 151              		.loc 1 99 0
 152 0028 04F8011B 		strb	r1, [r4], #1
 153              	.LVL5:
 154              		.loc 1 98 0
 155 002c 002B     		cmp	r3, #0
 156 002e F1D1     		bne	.L10
 157              		.loc 1 100 0
 158 0030 BC42     		cmp	r4, r7
 159 0032 22D9     		bls	.L7
 160              		.loc 1 91 0
 161 0034 013C     		subs	r4, r4, #1
 162              	.LVL6:
 163 0036 40F20006 		movw	r6, #:lower16:.LANCHOR1
 164 003a E307     		lsls	r3, r4, #31
 165              	.LVL7:
 166 003c C0F20006 		movt	r6, #:upper16:.LANCHOR1
 167 0040 15D5     		bpl	.L11
 168              		.loc 1 101 0
ARM GAS  /tmp/cctV5Pyf.s 			page 4


 169 0042 3068     		ldr	r0, [r6, #0]
 170              	.LVL8:
 171 0044 0368     		ldr	r3, [r0, #0]
 172 0046 9A68     		ldr	r2, [r3, #8]
 173 0048 9047     		blx	r2
 174 004a 3068     		ldr	r0, [r6, #0]
 175              		.loc 1 100 0
 176 004c 14F8011D 		ldrb	r1, [r4, #-1]!	@ zero_extendqisi2
 177              		.loc 1 101 0
 178 0050 0368     		ldr	r3, [r0, #0]
 179 0052 9A68     		ldr	r2, [r3, #8]
 180 0054 9047     		blx	r2
 181              		.loc 1 100 0
 182 0056 BC42     		cmp	r4, r7
 183 0058 0FD0     		beq	.L7
 184              	.L19:
 185              		.loc 1 101 0
 186 005a 3068     		ldr	r0, [r6, #0]
 187 005c 14F8011C 		ldrb	r1, [r4, #-1]	@ zero_extendqisi2
 188 0060 0368     		ldr	r3, [r0, #0]
 189              		.loc 1 100 0
 190 0062 651E     		subs	r5, r4, #1
 191              		.loc 1 101 0
 192 0064 9A68     		ldr	r2, [r3, #8]
 193 0066 9047     		blx	r2
 194              		.loc 1 100 0
 195 0068 15F8011C 		ldrb	r1, [r5, #-1]	@ zero_extendqisi2
 196 006c 023C     		subs	r4, r4, #2
 197              	.L11:
 198              		.loc 1 101 0
 199 006e 3068     		ldr	r0, [r6, #0]
 200 0070 0368     		ldr	r3, [r0, #0]
 201 0072 9A68     		ldr	r2, [r3, #8]
 202 0074 9047     		blx	r2
 203              		.loc 1 100 0
 204 0076 BC42     		cmp	r4, r7
 205 0078 EFD1     		bne	.L19
 206              	.L7:
 207              		.loc 1 103 0
 208 007a 05B0     		add	sp, sp, #20
 209 007c F0BD     		pop	{r4, r5, r6, r7, pc}
 210              	.LVL9:
 211              	.L18:
 212              	.LBB27:
 213              	.LBB26:
 214              		.loc 1 95 0
 215 007e 40F20000 		movw	r0, #:lower16:.LANCHOR1
 216              	.LVL10:
 217 0082 C0F20000 		movt	r0, #:upper16:.LANCHOR1
 218 0086 3021     		movs	r1, #48
 219 0088 0068     		ldr	r0, [r0, #0]
 220 008a 0268     		ldr	r2, [r0, #0]
 221 008c 9368     		ldr	r3, [r2, #8]
 222 008e 9847     		blx	r3
 223 0090 F3E7     		b	.L7
 224              	.LBE26:
 225              	.LBE27:
ARM GAS  /tmp/cctV5Pyf.s 			page 5


 226              		.cfi_endproc
 227              	.LFE118:
 228              		.size	test_printn, .-test_printn
 229 0092 00BFAFF3 		.section	.text.test_print,"ax",%progbits
 229      0080AFF3 
 229      0080AFF3 
 229      0080
 230              		.align	2
 231              		.p2align 4,,15
 232              		.global	test_print
 233              		.thumb
 234              		.thumb_func
 235              		.type	test_print, %function
 236              	test_print:
 237              	.LFB119:
 238              		.loc 1 110 0
 239              		.cfi_startproc
 240              		@ args = 0, pretend = 0, frame = 0
 241              		@ frame_needed = 0, uses_anonymous_args = 0
 242              	.LVL11:
 243 0000 38B5     		push	{r3, r4, r5, lr}
 244              	.LCFI3:
 245              		.cfi_def_cfa_offset 16
 246              		.cfi_offset 14, -4
 247              		.cfi_offset 5, -8
 248              		.cfi_offset 4, -12
 249              		.cfi_offset 3, -16
 250              		.loc 1 112 0
 251 0002 0178     		ldrb	r1, [r0, #0]	@ zero_extendqisi2
 252 0004 61B1     		cbz	r1, .L20
 253 0006 40F20005 		movw	r5, #:lower16:.LANCHOR1
 254 000a 0446     		mov	r4, r0
 255 000c C0F20005 		movt	r5, #:upper16:.LANCHOR1
 256              	.LVL12:
 257              	.L22:
 258              		.loc 1 113 0
 259 0010 2868     		ldr	r0, [r5, #0]
 260 0012 0268     		ldr	r2, [r0, #0]
 261 0014 9368     		ldr	r3, [r2, #8]
 262 0016 9847     		blx	r3
 263              		.loc 1 112 0
 264 0018 14F8011F 		ldrb	r1, [r4, #1]!	@ zero_extendqisi2
 265 001c 0029     		cmp	r1, #0
 266 001e F7D1     		bne	.L22
 267              	.L20:
 268 0020 38BD     		pop	{r3, r4, r5, pc}
 269              		.cfi_endproc
 270              	.LFE119:
 271              		.size	test_print, .-test_print
 272 0022 00BFAFF3 		.section	.text.test_println,"ax",%progbits
 272      0080AFF3 
 272      0080AFF3 
 272      0080
 273              		.align	2
 274              		.p2align 4,,15
 275              		.global	test_println
 276              		.thumb
ARM GAS  /tmp/cctV5Pyf.s 			page 6


 277              		.thumb_func
 278              		.type	test_println, %function
 279              	test_println:
 280              	.LFB120:
 281              		.loc 1 121 0
 282              		.cfi_startproc
 283              		@ args = 0, pretend = 0, frame = 0
 284              		@ frame_needed = 0, uses_anonymous_args = 0
 285              	.LVL13:
 286 0000 08B5     		push	{r3, lr}
 287              	.LCFI4:
 288              		.cfi_def_cfa_offset 8
 289              		.cfi_offset 14, -4
 290              		.cfi_offset 3, -8
 291              		.loc 1 123 0
 292 0002 FFF7FEFF 		bl	test_print
 293              	.LVL14:
 294              		.loc 1 124 0
 295 0006 40F20000 		movw	r0, #:lower16:.LANCHOR1
 296 000a C0F20000 		movt	r0, #:upper16:.LANCHOR1
 297 000e 40F20001 		movw	r1, #:lower16:.LC0
 298 0012 0068     		ldr	r0, [r0, #0]
 299 0014 0268     		ldr	r2, [r0, #0]
 300 0016 C0F20001 		movt	r1, #:upper16:.LC0
 301 001a 1368     		ldr	r3, [r2, #0]
 302 001c 0222     		movs	r2, #2
 303 001e 9847     		blx	r3
 304              		.loc 1 125 0
 305 0020 08BD     		pop	{r3, pc}
 306              		.cfi_endproc
 307              	.LFE120:
 308              		.size	test_println, .-test_println
 309 0022 00BFAFF3 		.section	.text.test_emit_token,"ax",%progbits
 309      0080AFF3 
 309      0080AFF3 
 309      0080
 310              		.align	2
 311              		.p2align 4,,15
 312              		.global	test_emit_token
 313              		.thumb
 314              		.thumb_func
 315              		.type	test_emit_token, %function
 316              	test_emit_token:
 317              	.LFB123:
 318              		.loc 1 147 0
 319              		.cfi_startproc
 320              		@ args = 0, pretend = 0, frame = 0
 321              		@ frame_needed = 0, uses_anonymous_args = 0
 322              		@ link register save eliminated.
 323              	.LVL15:
 324              	.LBB28:
 325              		.loc 1 149 0
 326 0000 2023     		movs	r3, #32
 327              	.LVL16:
 328              	@ 149 "../../test/test.c" 1
 329 0002 83F31188 		msr     BASEPRI, r3
 330              	@ 0 "" 2
ARM GAS  /tmp/cctV5Pyf.s 			page 7


 331              	.LVL17:
 332              		.thumb
 333              	.LBE28:
 334              		.loc 1 150 0
 335 0006 40F20002 		movw	r2, #:lower16:.LANCHOR2
 336 000a C0F20002 		movt	r2, #:upper16:.LANCHOR2
 337              	.LBB29:
 338              		.loc 1 151 0
 339 000e 0023     		movs	r3, #0
 340              	.LVL18:
 341              	.LBE29:
 342              		.loc 1 150 0
 343 0010 1168     		ldr	r1, [r2, #0]
 344 0012 01F8010B 		strb	r0, [r1], #1
 345 0016 1160     		str	r1, [r2, #0]
 346              	.LBB30:
 347              		.loc 1 151 0
 348              	@ 151 "../../test/test.c" 1
 349 0018 83F31188 		msr     BASEPRI, r3
 350              	@ 0 "" 2
 351              	.LVL19:
 352              		.thumb
 353              	.LBE30:
 354              		.loc 1 152 0
 355 001c 7047     		bx	lr
 356              		.cfi_endproc
 357              	.LFE123:
 358              		.size	test_emit_token, .-test_emit_token
 359 001e 00BF     		.section	.text._test_fail,"ax",%progbits
 360              		.align	2
 361              		.p2align 4,,15
 362              		.global	_test_fail
 363              		.thumb
 364              		.thumb_func
 365              		.type	_test_fail, %function
 366              	_test_fail:
 367              	.LFB124:
 368              		.loc 1 157 0
 369              		.cfi_startproc
 370              		@ args = 0, pretend = 0, frame = 0
 371              		@ frame_needed = 0, uses_anonymous_args = 0
 372              		@ link register save eliminated.
 373              	.LVL20:
 374 0000 10B4     		push	{r4}
 375              	.LCFI5:
 376              		.cfi_def_cfa_offset 4
 377              		.cfi_offset 4, -4
 378              		.loc 1 159 0
 379 0002 40F20001 		movw	r1, #:lower16:.LANCHOR3
 380              		.loc 1 160 0
 381 0006 40F20002 		movw	r2, #:lower16:.LANCHOR4
 382              		.loc 1 161 0
 383 000a 40F20004 		movw	r4, #:lower16:.LANCHOR5
 384              		.loc 1 159 0
 385 000e C0F20001 		movt	r1, #:upper16:.LANCHOR3
 386              		.loc 1 160 0
 387 0012 C0F20002 		movt	r2, #:upper16:.LANCHOR4
ARM GAS  /tmp/cctV5Pyf.s 			page 8


 388              		.loc 1 161 0
 389 0016 C0F20004 		movt	r4, #:upper16:.LANCHOR5
 390              		.loc 1 159 0
 391 001a 0123     		movs	r3, #1
 392              		.loc 1 161 0
 393 001c 2060     		str	r0, [r4, #0]
 394              		.loc 1 159 0
 395 001e 0B70     		strb	r3, [r1, #0]
 396              		.loc 1 160 0
 397 0020 1370     		strb	r3, [r2, #0]
 398              		.loc 1 163 0
 399 0022 1846     		mov	r0, r3
 400              	.LVL21:
 401 0024 10BC     		pop	{r4}
 402 0026 7047     		bx	lr
 403              		.cfi_endproc
 404              	.LFE124:
 405              		.size	_test_fail, .-_test_fail
 406 0028 AFF30080 		.section	.text._test_assert,"ax",%progbits
 406      AFF30080 
 407              		.align	2
 408              		.p2align 4,,15
 409              		.global	_test_assert
 410              		.thumb
 411              		.thumb_func
 412              		.type	_test_assert, %function
 413              	_test_assert:
 414              	.LFB125:
 415              		.loc 1 165 0
 416              		.cfi_startproc
 417              		@ args = 0, pretend = 0, frame = 0
 418              		@ frame_needed = 0, uses_anonymous_args = 0
 419              		@ link register save eliminated.
 420              	.LVL22:
 421 0000 10B4     		push	{r4}
 422              	.LCFI6:
 423              		.cfi_def_cfa_offset 4
 424              		.cfi_offset 4, -4
 425              		.loc 1 167 0
 426 0002 91B9     		cbnz	r1, .L29
 427              	.LVL23:
 428              	.LBB31:
 429              	.LBB32:
 430              		.loc 1 159 0
 431 0004 40F20004 		movw	r4, #:lower16:.LANCHOR3
 432              		.loc 1 160 0
 433 0008 40F20001 		movw	r1, #:lower16:.LANCHOR4
 434              	.LVL24:
 435              		.loc 1 161 0
 436 000c 40F20002 		movw	r2, #:lower16:.LANCHOR5
 437              		.loc 1 159 0
 438 0010 C0F20004 		movt	r4, #:upper16:.LANCHOR3
 439              		.loc 1 160 0
 440 0014 C0F20001 		movt	r1, #:upper16:.LANCHOR4
 441              		.loc 1 161 0
 442 0018 C0F20002 		movt	r2, #:upper16:.LANCHOR5
 443              		.loc 1 159 0
ARM GAS  /tmp/cctV5Pyf.s 			page 9


 444 001c 0123     		movs	r3, #1
 445              		.loc 1 161 0
 446 001e 1060     		str	r0, [r2, #0]
 447              		.loc 1 159 0
 448 0020 2370     		strb	r3, [r4, #0]
 449              		.loc 1 160 0
 450 0022 0B70     		strb	r3, [r1, #0]
 451              	.LBE32:
 452              	.LBE31:
 453              		.loc 1 168 0
 454 0024 1846     		mov	r0, r3
 455              	.LVL25:
 456              	.L28:
 457              		.loc 1 170 0
 458 0026 10BC     		pop	{r4}
 459 0028 7047     		bx	lr
 460              	.LVL26:
 461              	.L29:
 462              		.loc 1 169 0
 463 002a 0020     		movs	r0, #0
 464              	.LVL27:
 465 002c FBE7     		b	.L28
 466              		.cfi_endproc
 467              	.LFE125:
 468              		.size	_test_assert, .-_test_assert
 469 002e 00BF     		.section	.text._test_assert_sequence,"ax",%progbits
 470              		.align	2
 471              		.p2align 4,,15
 472              		.global	_test_assert_sequence
 473              		.thumb
 474              		.thumb_func
 475              		.type	_test_assert_sequence, %function
 476              	_test_assert_sequence:
 477              	.LFB126:
 478              		.loc 1 172 0
 479              		.cfi_startproc
 480              		@ args = 0, pretend = 0, frame = 0
 481              		@ frame_needed = 0, uses_anonymous_args = 0
 482              		@ link register save eliminated.
 483              	.LVL28:
 484 0000 F0B4     		push	{r4, r5, r6, r7}
 485              	.LCFI7:
 486              		.cfi_def_cfa_offset 16
 487              		.cfi_offset 7, -4
 488              		.cfi_offset 6, -8
 489              		.cfi_offset 5, -12
 490              		.cfi_offset 4, -16
 491              		.loc 1 181 0
 492 0002 40F20004 		movw	r4, #:lower16:.LANCHOR2
 493 0006 C0F20004 		movt	r4, #:upper16:.LANCHOR2
 494              		.loc 1 173 0
 495 000a 40F20002 		movw	r2, #:lower16:.LANCHOR6
 496              		.loc 1 181 0
 497 000e 2368     		ldr	r3, [r4, #0]
 498              		.loc 1 173 0
 499 0010 C0F20002 		movt	r2, #:upper16:.LANCHOR6
 500 0014 9D1A     		subs	r5, r3, r2
ARM GAS  /tmp/cctV5Pyf.s 			page 10


 501 0016 15F0010F 		tst	r5, #1
 502 001a 1646     		mov	r6, r2
 503 001c 17D0     		beq	.L31
 504              	.LVL29:
 505              		.loc 1 174 0
 506 001e 9342     		cmp	r3, r2
 507 0020 17D9     		bls	.L43
 508              		.loc 1 175 0
 509 0022 11F8015B 		ldrb	r5, [r1], #1	@ zero_extendqisi2
 510              	.LVL30:
 511 0026 1778     		ldrb	r7, [r2, #0]	@ zero_extendqisi2
 512              		.loc 1 174 0
 513 0028 561C     		adds	r6, r2, #1
 514              		.loc 1 175 0
 515 002a AF42     		cmp	r7, r5
 516 002c 0FD0     		beq	.L31
 517 002e 15E0     		b	.L45
 518              	.L33:
 519 0030 0D46     		mov	r5, r1
 520 0032 96F800C0 		ldrb	ip, [r6, #0]	@ zero_extendqisi2
 521 0036 15F8017B 		ldrb	r7, [r5], #1	@ zero_extendqisi2
 522              		.loc 1 174 0
 523 003a 0136     		adds	r6, r6, #1
 524              		.loc 1 175 0
 525 003c BC45     		cmp	ip, r7
 526 003e 0DD1     		bne	.L45
 527              	.LVL31:
 528 0040 4F78     		ldrb	r7, [r1, #1]	@ zero_extendqisi2
 529 0042 96F800C0 		ldrb	ip, [r6, #0]	@ zero_extendqisi2
 530 0046 691C     		adds	r1, r5, #1
 531              	.LVL32:
 532              		.loc 1 174 0
 533 0048 0136     		adds	r6, r6, #1
 534              		.loc 1 175 0
 535 004a BC45     		cmp	ip, r7
 536 004c 06D1     		bne	.L45
 537              	.L31:
 538              		.loc 1 174 0 discriminator 1
 539 004e B342     		cmp	r3, r6
 540 0050 EED8     		bhi	.L33
 541              	.L43:
 542              		.loc 1 178 0
 543 0052 0B78     		ldrb	r3, [r1, #0]	@ zero_extendqisi2
 544 0054 13B9     		cbnz	r3, .L45
 545              	.LBB33:
 546              	.LBB34:
 547              		.loc 1 132 0
 548 0056 2260     		str	r2, [r4, #0]
 549              	.LBE34:
 550              	.LBE33:
 551              		.loc 1 181 0
 552 0058 1846     		mov	r0, r3
 553              	.LVL33:
 554 005a 10E0     		b	.L32
 555              	.LVL34:
 556              	.L45:
 557              	.LBB35:
ARM GAS  /tmp/cctV5Pyf.s 			page 11


 558              	.LBB36:
 559              		.loc 1 159 0
 560 005c 40F20004 		movw	r4, #:lower16:.LANCHOR3
 561              		.loc 1 160 0
 562 0060 40F20001 		movw	r1, #:lower16:.LANCHOR4
 563              		.loc 1 161 0
 564 0064 40F20002 		movw	r2, #:lower16:.LANCHOR5
 565              		.loc 1 159 0
 566 0068 C0F20004 		movt	r4, #:upper16:.LANCHOR3
 567              		.loc 1 160 0
 568 006c C0F20001 		movt	r1, #:upper16:.LANCHOR4
 569              		.loc 1 161 0
 570 0070 C0F20002 		movt	r2, #:upper16:.LANCHOR5
 571              		.loc 1 159 0
 572 0074 0123     		movs	r3, #1
 573              		.loc 1 161 0
 574 0076 1060     		str	r0, [r2, #0]
 575              		.loc 1 159 0
 576 0078 2370     		strb	r3, [r4, #0]
 577              		.loc 1 160 0
 578 007a 0B70     		strb	r3, [r1, #0]
 579              	.LBE36:
 580              	.LBE35:
 581              		.loc 1 179 0
 582 007c 1846     		mov	r0, r3
 583              	.LVL35:
 584              	.L32:
 585              		.loc 1 182 0
 586 007e F0BC     		pop	{r4, r5, r6, r7}
 587 0080 7047     		bx	lr
 588              		.cfi_endproc
 589              	.LFE126:
 590              		.size	_test_assert_sequence, .-_test_assert_sequence
 591 0082 00BFAFF3 		.section	.text._test_assert_time_window,"ax",%progbits
 591      0080AFF3 
 591      0080AFF3 
 591      0080
 592              		.align	2
 593              		.p2align 4,,15
 594              		.global	_test_assert_time_window
 595              		.thumb
 596              		.thumb_func
 597              		.type	_test_assert_time_window, %function
 598              	_test_assert_time_window:
 599              	.LFB127:
 600              		.loc 1 184 0
 601              		.cfi_startproc
 602              		@ args = 0, pretend = 0, frame = 0
 603              		@ frame_needed = 0, uses_anonymous_args = 0
 604              		@ link register save eliminated.
 605              	.LVL36:
 606              		.loc 1 186 0
 607 0000 40F2000C 		movw	ip, #:lower16:vtlist
 608 0004 C0F2000C 		movt	ip, #:upper16:vtlist
 609 0008 521A     		subs	r2, r2, r1
 610              	.LVL37:
 611 000a DCF80C30 		ldr	r3, [ip, #12]
ARM GAS  /tmp/cctV5Pyf.s 			page 12


 612 000e 591A     		subs	r1, r3, r1
 613              	.LVL38:
 614              	.LBB37:
 615              	.LBB38:
 616              		.loc 1 167 0
 617 0010 9142     		cmp	r1, r2
 618              	.LBE38:
 619              	.LBE37:
 620              		.loc 1 184 0
 621 0012 10B4     		push	{r4}
 622              	.LCFI8:
 623              		.cfi_def_cfa_offset 4
 624              		.cfi_offset 4, -4
 625              	.LBB43:
 626              	.LBB41:
 627              		.loc 1 167 0
 628 0014 12D3     		bcc	.L48
 629              	.LVL39:
 630              	.LBB39:
 631              	.LBB40:
 632              		.loc 1 159 0
 633 0016 40F20004 		movw	r4, #:lower16:.LANCHOR3
 634              		.loc 1 160 0
 635 001a 40F20001 		movw	r1, #:lower16:.LANCHOR4
 636              		.loc 1 161 0
 637 001e 40F20002 		movw	r2, #:lower16:.LANCHOR5
 638              		.loc 1 159 0
 639 0022 C0F20004 		movt	r4, #:upper16:.LANCHOR3
 640              		.loc 1 160 0
 641 0026 C0F20001 		movt	r1, #:upper16:.LANCHOR4
 642              		.loc 1 161 0
 643 002a C0F20002 		movt	r2, #:upper16:.LANCHOR5
 644              		.loc 1 159 0
 645 002e 0123     		movs	r3, #1
 646              		.loc 1 161 0
 647 0030 1060     		str	r0, [r2, #0]
 648              		.loc 1 159 0
 649 0032 2370     		strb	r3, [r4, #0]
 650              		.loc 1 160 0
 651 0034 0B70     		strb	r3, [r1, #0]
 652              		.loc 1 168 0
 653 0036 1846     		mov	r0, r3
 654              	.LVL40:
 655              	.L47:
 656              	.LBE40:
 657              	.LBE39:
 658              	.LBE41:
 659              	.LBE43:
 660              		.loc 1 187 0
 661 0038 10BC     		pop	{r4}
 662 003a 7047     		bx	lr
 663              	.LVL41:
 664              	.L48:
 665              	.LBB44:
 666              	.LBB42:
 667              		.loc 1 169 0
 668 003c 0020     		movs	r0, #0
ARM GAS  /tmp/cctV5Pyf.s 			page 13


 669              	.LVL42:
 670 003e FBE7     		b	.L47
 671              	.LBE42:
 672              	.LBE44:
 673              		.cfi_endproc
 674              	.LFE127:
 675              		.size	_test_assert_time_window, .-_test_assert_time_window
 676              		.section	.text.test_terminate_threads,"ax",%progbits
 677              		.align	2
 678              		.p2align 4,,15
 679              		.global	test_terminate_threads
 680              		.thumb
 681              		.thumb_func
 682              		.type	test_terminate_threads, %function
 683              	test_terminate_threads:
 684              	.LFB128:
 685              		.loc 1 196 0
 686              		.cfi_startproc
 687              		@ args = 0, pretend = 0, frame = 0
 688              		@ frame_needed = 0, uses_anonymous_args = 0
 689              	.LVL43:
 690 0000 10B5     		push	{r4, lr}
 691              	.LCFI9:
 692              		.cfi_def_cfa_offset 8
 693              		.cfi_offset 14, -4
 694              		.cfi_offset 4, -8
 695              		.loc 1 200 0
 696 0002 40F20004 		movw	r4, #:lower16:.LANCHOR7
 697 0006 C0F20004 		movt	r4, #:upper16:.LANCHOR7
 698 000a 2068     		ldr	r0, [r4, #0]
 699 000c 08B1     		cbz	r0, .L50
 700              		.loc 1 201 0
 701 000e FFF7FEFF 		bl	chThdTerminate
 702              	.L50:
 703              	.LVL44:
 704              		.loc 1 200 0
 705 0012 6068     		ldr	r0, [r4, #4]
 706 0014 08B1     		cbz	r0, .L51
 707              		.loc 1 201 0
 708 0016 FFF7FEFF 		bl	chThdTerminate
 709              	.L51:
 710              	.LVL45:
 711              		.loc 1 200 0
 712 001a A068     		ldr	r0, [r4, #8]
 713 001c 08B1     		cbz	r0, .L52
 714              		.loc 1 201 0
 715 001e FFF7FEFF 		bl	chThdTerminate
 716              	.L52:
 717              	.LVL46:
 718              		.loc 1 200 0
 719 0022 E068     		ldr	r0, [r4, #12]
 720 0024 08B1     		cbz	r0, .L53
 721              		.loc 1 201 0
 722 0026 FFF7FEFF 		bl	chThdTerminate
 723              	.L53:
 724              	.LVL47:
 725              		.loc 1 200 0
ARM GAS  /tmp/cctV5Pyf.s 			page 14


 726 002a 2069     		ldr	r0, [r4, #16]
 727 002c 18B1     		cbz	r0, .L49
 728              		.loc 1 202 0
 729 002e BDE81040 		pop	{r4, lr}
 730              		.loc 1 201 0
 731 0032 FFF7FEBF 		b	chThdTerminate
 732              	.L49:
 733 0036 10BD     		pop	{r4, pc}
 734              		.cfi_endproc
 735              	.LFE128:
 736              		.size	test_terminate_threads, .-test_terminate_threads
 737 0038 AFF30080 		.section	.text.test_wait_threads,"ax",%progbits
 737      AFF30080 
 738              		.align	2
 739              		.p2align 4,,15
 740              		.global	test_wait_threads
 741              		.thumb
 742              		.thumb_func
 743              		.type	test_wait_threads, %function
 744              	test_wait_threads:
 745              	.LFB129:
 746              		.loc 1 207 0
 747              		.cfi_startproc
 748              		@ args = 0, pretend = 0, frame = 0
 749              		@ frame_needed = 0, uses_anonymous_args = 0
 750              	.LVL48:
 751 0000 38B5     		push	{r3, r4, r5, lr}
 752              	.LCFI10:
 753              		.cfi_def_cfa_offset 16
 754              		.cfi_offset 14, -4
 755              		.cfi_offset 5, -8
 756              		.cfi_offset 4, -12
 757              		.cfi_offset 3, -16
 758              		.loc 1 211 0
 759 0002 40F20004 		movw	r4, #:lower16:.LANCHOR7
 760 0006 C0F20004 		movt	r4, #:upper16:.LANCHOR7
 761 000a 2068     		ldr	r0, [r4, #0]
 762 000c 18B1     		cbz	r0, .L56
 763              		.loc 1 212 0
 764 000e FFF7FEFF 		bl	chThdWait
 765              		.loc 1 213 0
 766 0012 0023     		movs	r3, #0
 767 0014 2360     		str	r3, [r4, #0]
 768              	.L56:
 769              	.LVL49:
 770              		.loc 1 211 0
 771 0016 6068     		ldr	r0, [r4, #4]
 772 0018 40F20005 		movw	r5, #:lower16:.LANCHOR7
 773 001c C0F20005 		movt	r5, #:upper16:.LANCHOR7
 774 0020 18B1     		cbz	r0, .L57
 775              		.loc 1 212 0
 776 0022 FFF7FEFF 		bl	chThdWait
 777              		.loc 1 213 0
 778 0026 0020     		movs	r0, #0
 779 0028 6860     		str	r0, [r5, #4]
 780              	.L57:
 781              	.LVL50:
ARM GAS  /tmp/cctV5Pyf.s 			page 15


 782              		.loc 1 211 0
 783 002a A068     		ldr	r0, [r4, #8]
 784 002c 40F20005 		movw	r5, #:lower16:.LANCHOR7
 785 0030 C0F20005 		movt	r5, #:upper16:.LANCHOR7
 786 0034 18B1     		cbz	r0, .L58
 787              		.loc 1 212 0
 788 0036 FFF7FEFF 		bl	chThdWait
 789              		.loc 1 213 0
 790 003a 0021     		movs	r1, #0
 791 003c A960     		str	r1, [r5, #8]
 792              	.L58:
 793              	.LVL51:
 794              		.loc 1 211 0
 795 003e E068     		ldr	r0, [r4, #12]
 796 0040 40F20005 		movw	r5, #:lower16:.LANCHOR7
 797 0044 C0F20005 		movt	r5, #:upper16:.LANCHOR7
 798 0048 18B1     		cbz	r0, .L59
 799              		.loc 1 212 0
 800 004a FFF7FEFF 		bl	chThdWait
 801              		.loc 1 213 0
 802 004e 0022     		movs	r2, #0
 803 0050 EA60     		str	r2, [r5, #12]
 804              	.L59:
 805              	.LVL52:
 806              		.loc 1 211 0
 807 0052 2069     		ldr	r0, [r4, #16]
 808 0054 40F20004 		movw	r4, #:lower16:.LANCHOR7
 809 0058 C0F20004 		movt	r4, #:upper16:.LANCHOR7
 810 005c 18B1     		cbz	r0, .L55
 811              		.loc 1 212 0
 812 005e FFF7FEFF 		bl	chThdWait
 813              		.loc 1 213 0
 814 0062 0023     		movs	r3, #0
 815 0064 2361     		str	r3, [r4, #16]
 816              	.LVL53:
 817              	.L55:
 818 0066 38BD     		pop	{r3, r4, r5, pc}
 819              		.cfi_endproc
 820              	.LFE129:
 821              		.size	test_wait_threads, .-test_wait_threads
 822 0068 AFF30080 		.section	.text.test_cpu_pulse,"ax",%progbits
 822      AFF30080 
 823              		.align	2
 824              		.p2align 4,,15
 825              		.global	test_cpu_pulse
 826              		.thumb
 827              		.thumb_func
 828              		.type	test_cpu_pulse, %function
 829              	test_cpu_pulse:
 830              	.LFB130:
 831              		.loc 1 224 0
 832              		.cfi_startproc
 833              		@ args = 0, pretend = 0, frame = 0
 834              		@ frame_needed = 0, uses_anonymous_args = 0
 835              		@ link register save eliminated.
 836              	.LVL54:
 837              		.loc 1 227 0
ARM GAS  /tmp/cctV5Pyf.s 			page 16


 838 0000 40F20003 		movw	r3, #:lower16:rlist
 839 0004 C0F20003 		movt	r3, #:upper16:rlist
 840              		.loc 1 228 0
 841 0008 4FF47A71 		mov	r1, #1000
 842              		.loc 1 227 0
 843 000c 9B69     		ldr	r3, [r3, #24]
 844              		.loc 1 224 0
 845 000e 30B4     		push	{r4, r5}
 846              	.LCFI11:
 847              		.cfi_def_cfa_offset 8
 848              		.cfi_offset 5, -4
 849              		.cfi_offset 4, -8
 850              		.loc 1 228 0
 851 0010 01FB00F5 		mul	r5, r1, r0
 852 0014 44F6D354 		movw	r4, #19923
 853              		.loc 1 227 0
 854 0018 196A     		ldr	r1, [r3, #32]
 855              	.LVL55:
 856              		.loc 1 228 0
 857 001a 6A1E     		subs	r2, r5, #1
 858 001c C1F26204 		movt	r4, 4194
 859 0020 4D1C     		adds	r5, r1, #1
 860 0022 A4FB0220 		umull	r2, r0, r4, r2
 861              	.LVL56:
 862 0026 05EB9010 		add	r0, r5, r0, lsr #6
 863              	.LVL57:
 864              	.L64:
 865              		.loc 1 230 0
 866 002a 1A6A     		ldr	r2, [r3, #32]
 867              	.LVL58:
 868              		.loc 1 235 0
 869 002c 8A42     		cmp	r2, r1
 870 002e 34BF     		ite	cc
 871 0030 0024     		movcc	r4, #0
 872 0032 0124     		movcs	r4, #1
 873 0034 8142     		cmp	r1, r0
 874 0036 08D2     		bcs	.L62
 875              		.loc 1 235 0 is_stmt 0 discriminator 1
 876 0038 8242     		cmp	r2, r0
 877 003a 2CBF     		ite	cs
 878 003c 0022     		movcs	r2, #0
 879 003e 04F00102 		andcc	r2, r4, #1
 880              	.LVL59:
 881              		.loc 1 236 0 is_stmt 1 discriminator 1
 882 0042 002A     		cmp	r2, #0
 883 0044 F1D1     		bne	.L64
 884              	.L66:
 885              		.loc 1 237 0
 886 0046 30BC     		pop	{r4, r5}
 887 0048 7047     		bx	lr
 888              	.LVL60:
 889              	.L62:
 890              		.loc 1 235 0 discriminator 2
 891 004a 8242     		cmp	r2, r0
 892 004c 2CBF     		ite	cs
 893 004e 2246     		movcs	r2, r4
 894 0050 44F00102 		orrcc	r2, r4, #1
ARM GAS  /tmp/cctV5Pyf.s 			page 17


 895              	.LVL61:
 896              		.loc 1 236 0 discriminator 2
 897 0054 002A     		cmp	r2, #0
 898 0056 E8D1     		bne	.L64
 899 0058 F5E7     		b	.L66
 900              		.cfi_endproc
 901              	.LFE130:
 902              		.size	test_cpu_pulse, .-test_cpu_pulse
 903 005a 00BFAFF3 		.section	.text.test_wait_tick,"ax",%progbits
 903      0080
 904              		.align	2
 905              		.p2align 4,,15
 906              		.global	test_wait_tick
 907              		.thumb
 908              		.thumb_func
 909              		.type	test_wait_tick, %function
 910              	test_wait_tick:
 911              	.LFB131:
 912              		.loc 1 245 0
 913              		.cfi_startproc
 914              		@ args = 0, pretend = 0, frame = 0
 915              		@ frame_needed = 0, uses_anonymous_args = 0
 916 0000 08B5     		push	{r3, lr}
 917              	.LCFI12:
 918              		.cfi_def_cfa_offset 8
 919              		.cfi_offset 14, -4
 920              		.cfi_offset 3, -8
 921              		.loc 1 247 0
 922 0002 0120     		movs	r0, #1
 923 0004 FFF7FEFF 		bl	chThdSleep
 924              		.loc 1 248 0
 925 0008 40F20003 		movw	r3, #:lower16:vtlist
 926 000c C0F20003 		movt	r3, #:upper16:vtlist
 927 0010 D868     		ldr	r0, [r3, #12]
 928              		.loc 1 249 0
 929 0012 08BD     		pop	{r3, pc}
 930              		.cfi_endproc
 931              	.LFE131:
 932              		.size	test_wait_tick, .-test_wait_tick
 933 0014 AFF30080 		.section	.text.test_start_timer,"ax",%progbits
 933      AFF30080 
 933      AFF30080 
 934              		.align	2
 935              		.p2align 4,,15
 936              		.global	test_start_timer
 937              		.thumb
 938              		.thumb_func
 939              		.type	test_start_timer, %function
 940              	test_start_timer:
 941              	.LFB133:
 942              		.loc 1 272 0
 943              		.cfi_startproc
 944              		@ args = 0, pretend = 0, frame = 0
 945              		@ frame_needed = 0, uses_anonymous_args = 0
 946              	.LVL62:
 947              		.loc 1 275 0
 948 0000 40F2000C 		movw	ip, #:lower16:.LANCHOR0
ARM GAS  /tmp/cctV5Pyf.s 			page 18


 949 0004 C0F2000C 		movt	ip, #:upper16:.LANCHOR0
 950              		.loc 1 272 0
 951 0008 10B5     		push	{r4, lr}
 952              	.LCFI13:
 953              		.cfi_def_cfa_offset 8
 954              		.cfi_offset 14, -4
 955              		.cfi_offset 4, -8
 956              		.loc 1 275 0
 957 000a 0024     		movs	r4, #0
 958 000c 8CF80040 		strb	r4, [ip, #0]
 959              	.LVL63:
 960              	.LBB45:
 961              		.loc 1 276 0
 962 0010 2023     		movs	r3, #32
 963              	.LVL64:
 964              	@ 276 "../../test/test.c" 1
 965 0012 83F31188 		msr     BASEPRI, r3
 966              	@ 0 "" 2
 967              	.LVL65:
 968              		.thumb
 969              	.LBE45:
 970              		.loc 1 274 0
 971 0016 4FF47A72 		mov	r2, #1000
 972 001a 02FB00F1 		mul	r1, r2, r0
 973 001e 44F6D353 		movw	r3, #19923
 974              	.LVL66:
 975 0022 4A1E     		subs	r2, r1, #1
 976 0024 C1F26203 		movt	r3, 4194
 977 0028 A3FB0220 		umull	r2, r0, r3, r2
 978              	.LVL67:
 979 002c 8109     		lsrs	r1, r0, #6
 980              		.loc 1 276 0
 981 002e 40F20002 		movw	r2, #:lower16:tmr
 982 0032 40F20000 		movw	r0, #:lower16:.LANCHOR8
 983 0036 2346     		mov	r3, r4
 984 0038 C0F20000 		movt	r0, #:upper16:.LANCHOR8
 985 003c 0131     		adds	r1, r1, #1
 986 003e C0F20002 		movt	r2, #:upper16:tmr
 987 0042 FFF7FEFF 		bl	chVTSetI
 988              	.LBB46:
 989 0046 2346     		mov	r3, r4
 990              	.LVL68:
 991              	@ 276 "../../test/test.c" 1
 992 0048 83F31188 		msr     BASEPRI, r3
 993              	@ 0 "" 2
 994              	.LVL69:
 995              		.thumb
 996              	.LBE46:
 997              		.loc 1 277 0
 998 004c 10BD     		pop	{r4, pc}
 999              		.cfi_endproc
 1000              	.LFE133:
 1001              		.size	test_start_timer, .-test_start_timer
 1002 004e 00BF     		.section	.text.TestThread,"ax",%progbits
 1003              		.align	2
 1004              		.p2align 4,,15
 1005              		.global	TestThread
ARM GAS  /tmp/cctV5Pyf.s 			page 19


 1006              		.thumb
 1007              		.thumb_func
 1008              		.type	TestThread, %function
 1009              	TestThread:
 1010              	.LFB136:
 1011              		.loc 1 314 0
 1012              		.cfi_startproc
 1013              		@ args = 0, pretend = 0, frame = 16
 1014              		@ frame_needed = 0, uses_anonymous_args = 0
 1015              	.LVL70:
 1016 0000 2DE9F04F 		push	{r4, r5, r6, r7, r8, r9, sl, fp, lr}
 1017              	.LCFI14:
 1018              		.cfi_def_cfa_offset 36
 1019              		.cfi_offset 14, -4
 1020              		.cfi_offset 11, -8
 1021              		.cfi_offset 10, -12
 1022              		.cfi_offset 9, -16
 1023              		.cfi_offset 8, -20
 1024              		.cfi_offset 7, -24
 1025              		.cfi_offset 6, -28
 1026              		.cfi_offset 5, -32
 1027              		.cfi_offset 4, -36
 1028              		.loc 1 317 0
 1029 0004 40F20006 		movw	r6, #:lower16:.LANCHOR1
 1030 0008 C0F20006 		movt	r6, #:upper16:.LANCHOR1
 1031              		.loc 1 314 0
 1032 000c 85B0     		sub	sp, sp, #20
 1033              	.LCFI15:
 1034              		.cfi_def_cfa_offset 56
 1035              		.loc 1 317 0
 1036 000e 3060     		str	r0, [r6, #0]
 1037              		.loc 1 318 0
 1038 0010 40F20000 		movw	r0, #:lower16:.LC1
 1039              	.LVL71:
 1040              		.loc 1 349 0
 1041 0014 40F20005 		movw	r5, #:lower16:.LANCHOR4
 1042              		.loc 1 318 0
 1043 0018 C0F20000 		movt	r0, #:upper16:.LC1
 1044              		.loc 1 349 0
 1045 001c 0395     		str	r5, [sp, #12]
 1046              		.loc 1 318 0
 1047 001e FFF7FEFF 		bl	test_println
 1048              	.LVL72:
 1049              		.loc 1 319 0
 1050 0022 40F20000 		movw	r0, #:lower16:.LC2
 1051 0026 C0F20000 		movt	r0, #:upper16:.LC2
 1052 002a FFF7FEFF 		bl	test_println
 1053              		.loc 1 320 0
 1054 002e 40F20000 		movw	r0, #:lower16:.LC3
 1055 0032 C0F20000 		movt	r0, #:upper16:.LC3
 1056 0036 FFF7FEFF 		bl	test_println
 1057              		.loc 1 321 0
 1058 003a 40F20000 		movw	r0, #:lower16:.LC4
 1059 003e C0F20000 		movt	r0, #:upper16:.LC4
 1060 0042 FFF7FEFF 		bl	test_print
 1061              		.loc 1 322 0
 1062 0046 40F20000 		movw	r0, #:lower16:.LC5
ARM GAS  /tmp/cctV5Pyf.s 			page 20


 1063 004a C0F20000 		movt	r0, #:upper16:.LC5
 1064 004e FFF7FEFF 		bl	test_println
 1065              		.loc 1 323 0
 1066 0052 40F20000 		movw	r0, #:lower16:.LC6
 1067 0056 C0F20000 		movt	r0, #:upper16:.LC6
 1068 005a FFF7FEFF 		bl	test_print
 1069              		.loc 1 324 0
 1070 005e 40F20000 		movw	r0, #:lower16:.LC7
 1071 0062 C0F20000 		movt	r0, #:upper16:.LC7
 1072 0066 FFF7FEFF 		bl	test_println
 1073              		.loc 1 326 0
 1074 006a 40F20000 		movw	r0, #:lower16:.LC8
 1075 006e C0F20000 		movt	r0, #:upper16:.LC8
 1076 0072 FFF7FEFF 		bl	test_print
 1077              		.loc 1 327 0
 1078 0076 40F20000 		movw	r0, #:lower16:.LC9
 1079 007a C0F20000 		movt	r0, #:upper16:.LC9
 1080 007e FFF7FEFF 		bl	test_println
 1081              		.loc 1 329 0
 1082 0082 40F20000 		movw	r0, #:lower16:.LC10
 1083 0086 C0F20000 		movt	r0, #:upper16:.LC10
 1084 008a FFF7FEFF 		bl	test_print
 1085              		.loc 1 330 0
 1086 008e 40F20000 		movw	r0, #:lower16:.LC11
 1087 0092 C0F20000 		movt	r0, #:upper16:.LC11
 1088 0096 FFF7FEFF 		bl	test_println
 1089              		.loc 1 332 0
 1090 009a 40F20000 		movw	r0, #:lower16:.LC12
 1091 009e C0F20000 		movt	r0, #:upper16:.LC12
 1092 00a2 FFF7FEFF 		bl	test_print
 1093              		.loc 1 333 0
 1094 00a6 40F20000 		movw	r0, #:lower16:.LC13
 1095 00aa C0F20000 		movt	r0, #:upper16:.LC13
 1096 00ae FFF7FEFF 		bl	test_println
 1097              		.loc 1 336 0
 1098 00b2 40F20000 		movw	r0, #:lower16:.LC14
 1099 00b6 C0F20000 		movt	r0, #:upper16:.LC14
 1100 00ba FFF7FEFF 		bl	test_print
 1101              		.loc 1 337 0
 1102 00be 40F20000 		movw	r0, #:lower16:.LC15
 1103 00c2 C0F20000 		movt	r0, #:upper16:.LC15
 1104 00c6 FFF7FEFF 		bl	test_println
 1105              		.loc 1 340 0
 1106 00ca 40F20000 		movw	r0, #:lower16:.LC16
 1107 00ce C0F20000 		movt	r0, #:upper16:.LC16
 1108 00d2 FFF7FEFF 		bl	test_print
 1109              		.loc 1 341 0
 1110 00d6 40F20000 		movw	r0, #:lower16:.LC17
 1111 00da C0F20000 		movt	r0, #:upper16:.LC17
 1112 00de FFF7FEFF 		bl	test_println
 1113              		.loc 1 344 0
 1114 00e2 40F20000 		movw	r0, #:lower16:.LC18
 1115 00e6 C0F20000 		movt	r0, #:upper16:.LC18
 1116 00ea FFF7FEFF 		bl	test_print
 1117              		.loc 1 345 0
 1118 00ee 40F20000 		movw	r0, #:lower16:.LC19
 1119 00f2 C0F20000 		movt	r0, #:upper16:.LC19
ARM GAS  /tmp/cctV5Pyf.s 			page 21


 1120 00f6 FFF7FEFF 		bl	test_println
 1121              		.loc 1 349 0
 1122 00fa 039B     		ldr	r3, [sp, #12]
 1123              		.loc 1 347 0
 1124 00fc 40F20000 		movw	r0, #:lower16:.LC1
 1125              		.loc 1 349 0
 1126 0100 C0F20003 		movt	r3, #:upper16:.LANCHOR4
 1127              		.loc 1 347 0
 1128 0104 C0F20000 		movt	r0, #:upper16:.LC1
 1129              		.loc 1 349 0
 1130 0108 0393     		str	r3, [sp, #12]
 1131              		.loc 1 347 0
 1132 010a FFF7FEFF 		bl	test_println
 1133              		.loc 1 349 0
 1134 010e 0398     		ldr	r0, [sp, #12]
 1135 0110 40F20001 		movw	r1, #:lower16:.LANCHOR9
 1136 0114 0022     		movs	r2, #0
 1137 0116 40F20003 		movw	r3, #:lower16:patternthd
 1138              	.LBB47:
 1139              	.LBB48:
 1140              	.LBB49:
 1141              	.LBB50:
 1142              		.loc 1 132 0
 1143 011a 40F20005 		movw	r5, #:lower16:.LANCHOR2
 1144 011e 40F2000B 		movw	fp, #:lower16:.LANCHOR6
 1145              	.LBE50:
 1146              	.LBE49:
 1147              		.loc 1 287 0
 1148 0122 40F2000A 		movw	sl, #:lower16:.LANCHOR3
 1149              		.loc 1 289 0
 1150 0126 40F20007 		movw	r7, #:lower16:.LANCHOR7
 1151              	.LBE48:
 1152              	.LBE47:
 1153              		.loc 1 349 0
 1154 012a C0F20001 		movt	r1, #:upper16:.LANCHOR9
 1155 012e 0270     		strb	r2, [r0, #0]
 1156              	.LVL73:
 1157 0130 C0F20003 		movt	r3, #:upper16:patternthd
 1158 0134 0291     		str	r1, [sp, #8]
 1159              		.loc 1 350 0
 1160 0136 0192     		str	r2, [sp, #4]
 1161              	.LBB57:
 1162              	.LBB55:
 1163              	.LBB53:
 1164              	.LBB51:
 1165              		.loc 1 132 0
 1166 0138 C0F20005 		movt	r5, #:upper16:.LANCHOR2
 1167 013c C0F2000B 		movt	fp, #:upper16:.LANCHOR6
 1168              	.LBE51:
 1169              	.LBE53:
 1170              		.loc 1 287 0
 1171 0140 C0F2000A 		movt	sl, #:upper16:.LANCHOR3
 1172              		.loc 1 289 0
 1173 0144 C0F20007 		movt	r7, #:upper16:.LANCHOR7
 1174              	.LVL74:
 1175              	.L70:
 1176              	.LBE55:
ARM GAS  /tmp/cctV5Pyf.s 			page 22


 1177              	.LBE57:
 1178              		.loc 1 351 0 discriminator 1
 1179 0148 0199     		ldr	r1, [sp, #4]
 1180 014a 4A1C     		adds	r2, r1, #1
 1181 014c 0192     		str	r2, [sp, #4]
 1182 014e 9846     		mov	r8, r3
 1183              		.loc 1 314 0 discriminator 1
 1184 0150 4FF00009 		mov	r9, #0
 1185              	.L83:
 1186              	.LVL75:
 1187              		.loc 1 353 0 discriminator 1
 1188 0154 58F8041B 		ldr	r1, [r8], #4
 1189 0158 0029     		cmp	r1, #0
 1190 015a 71D0     		beq	.L84
 1191              	.L77:
 1192              		.loc 1 354 0
 1193 015c FFF7FEFF 		bl	print_line
 1194              		.loc 1 355 0
 1195 0160 40F20000 		movw	r0, #:lower16:.LC20
 1196 0164 C0F20000 		movt	r0, #:upper16:.LC20
 1197 0168 FFF7FEFF 		bl	test_print
 1198              		.loc 1 356 0
 1199 016c 0198     		ldr	r0, [sp, #4]
 1200 016e FFF7FEFF 		bl	test_printn
 1201              		.loc 1 357 0
 1202 0172 40F20000 		movw	r0, #:lower16:.LC21
 1203 0176 C0F20000 		movt	r0, #:upper16:.LC21
 1204              		.loc 1 358 0
 1205 017a 09F10109 		add	r9, r9, #1
 1206              	.LVL76:
 1207              		.loc 1 357 0
 1208 017e FFF7FEFF 		bl	test_print
 1209              		.loc 1 358 0
 1210 0182 4846     		mov	r0, r9
 1211 0184 FFF7FEFF 		bl	test_printn
 1212              		.loc 1 359 0
 1213 0188 40F20000 		movw	r0, #:lower16:.LC22
 1214 018c C0F20000 		movt	r0, #:upper16:.LC22
 1215 0190 FFF7FEFF 		bl	test_print
 1216              		.loc 1 360 0
 1217 0194 58F8044C 		ldr	r4, [r8, #-4]
 1218 0198 2068     		ldr	r0, [r4, #0]
 1219 019a FFF7FEFF 		bl	test_print
 1220              		.loc 1 361 0
 1221 019e 40F20000 		movw	r0, #:lower16:.LC23
 1222 01a2 C0F20000 		movt	r0, #:upper16:.LC23
 1223 01a6 FFF7FEFF 		bl	test_println
 1224              		.loc 1 363 0
 1225 01aa C820     		movs	r0, #200
 1226 01ac FFF7FEFF 		bl	chThdSleep
 1227              		.loc 1 365 0
 1228 01b0 58F8044C 		ldr	r4, [r8, #-4]
 1229              	.LVL77:
 1230              	.LBB58:
 1231              	.LBB56:
 1232              	.LBB54:
 1233              	.LBB52:
ARM GAS  /tmp/cctV5Pyf.s 			page 23


 1234              		.loc 1 132 0
 1235 01b4 C5F800B0 		str	fp, [r5, #0]
 1236              	.LBE52:
 1237              	.LBE54:
 1238              		.loc 1 287 0
 1239 01b8 0022     		movs	r2, #0
 1240              		.loc 1 289 0
 1241 01ba 3A60     		str	r2, [r7, #0]
 1242 01bc 7A60     		str	r2, [r7, #4]
 1243 01be BA60     		str	r2, [r7, #8]
 1244 01c0 FA60     		str	r2, [r7, #12]
 1245 01c2 3A61     		str	r2, [r7, #16]
 1246              		.loc 1 291 0
 1247 01c4 6368     		ldr	r3, [r4, #4]
 1248              		.loc 1 287 0
 1249 01c6 8AF80020 		strb	r2, [sl, #0]
 1250              	.LVL78:
 1251              		.loc 1 291 0
 1252 01ca 03B1     		cbz	r3, .L71
 1253              		.loc 1 292 0
 1254 01cc 9847     		blx	r3
 1255              	.LVL79:
 1256              	.L71:
 1257              		.loc 1 293 0
 1258 01ce E168     		ldr	r1, [r4, #12]
 1259 01d0 8847     		blx	r1
 1260              		.loc 1 294 0
 1261 01d2 A368     		ldr	r3, [r4, #8]
 1262 01d4 03B1     		cbz	r3, .L72
 1263              		.loc 1 295 0
 1264 01d6 9847     		blx	r3
 1265              	.L72:
 1266              		.loc 1 297 0
 1267 01d8 FFF7FEFF 		bl	test_wait_threads
 1268              	.LBE56:
 1269              	.LBE58:
 1270              		.loc 1 366 0
 1271 01dc 9AF80000 		ldrb	r0, [sl, #0]	@ zero_extendqisi2
 1272 01e0 0028     		cmp	r0, #0
 1273 01e2 50D0     		beq	.L73
 1274              		.loc 1 367 0
 1275 01e4 40F20000 		movw	r0, #:lower16:.LC24
 1276 01e8 C0F20000 		movt	r0, #:upper16:.LC24
 1277 01ec FFF7FEFF 		bl	test_print
 1278              		.loc 1 368 0
 1279 01f0 40F2000C 		movw	ip, #:lower16:.LANCHOR5
 1280 01f4 C0F2000C 		movt	ip, #:upper16:.LANCHOR5
 1281 01f8 DCF80000 		ldr	r0, [ip, #0]
 1282 01fc FFF7FEFF 		bl	test_printn
 1283              		.loc 1 369 0
 1284 0200 40F20000 		movw	r0, #:lower16:.LC25
 1285 0204 C0F20000 		movt	r0, #:upper16:.LC25
 1286 0208 FFF7FEFF 		bl	test_print
 1287              	.LVL80:
 1288              	.LBB59:
 1289              	.LBB60:
 1290              		.loc 1 138 0
ARM GAS  /tmp/cctV5Pyf.s 			page 24


 1291 020c 2B68     		ldr	r3, [r5, #0]
 1292 020e 5B45     		cmp	r3, fp
 1293 0210 0CD9     		bls	.L74
 1294 0212 40F20004 		movw	r4, #:lower16:.LANCHOR6
 1295              	.LVL81:
 1296 0216 C0F20004 		movt	r4, #:upper16:.LANCHOR6
 1297              	.LVL82:
 1298              	.L75:
 1299              		.loc 1 139 0
 1300 021a 3068     		ldr	r0, [r6, #0]
 1301 021c 14F8011B 		ldrb	r1, [r4], #1	@ zero_extendqisi2
 1302              	.LVL83:
 1303 0220 0268     		ldr	r2, [r0, #0]
 1304 0222 9368     		ldr	r3, [r2, #8]
 1305 0224 9847     		blx	r3
 1306              	.LVL84:
 1307              		.loc 1 138 0
 1308 0226 2A68     		ldr	r2, [r5, #0]
 1309 0228 A242     		cmp	r2, r4
 1310 022a F6D8     		bhi	.L75
 1311              	.LVL85:
 1312              	.L74:
 1313              	.LBE60:
 1314              	.LBE59:
 1315              		.loc 1 371 0
 1316 022c 40F20000 		movw	r0, #:lower16:.LC26
 1317 0230 C0F20000 		movt	r0, #:upper16:.LC26
 1318 0234 FFF7FEFF 		bl	test_println
 1319              	.LVL86:
 1320              		.loc 1 353 0
 1321 0238 58F8041B 		ldr	r1, [r8], #4
 1322 023c 0029     		cmp	r1, #0
 1323 023e 8DD1     		bne	.L77
 1324              	.LVL87:
 1325              	.L84:
 1326              		.loc 1 351 0
 1327 0240 0298     		ldr	r0, [sp, #8]
 1328 0242 50F8043F 		ldr	r3, [r0, #4]!
 1329 0246 0290     		str	r0, [sp, #8]
 1330 0248 002B     		cmp	r3, #0
 1331 024a 7FF47DAF 		bne	.L70
 1332              		.loc 1 379 0
 1333 024e FFF7FEFF 		bl	print_line
 1334              		.loc 1 380 0
 1335 0252 40F20000 		movw	r0, #:lower16:.LC1
 1336 0256 C0F20000 		movt	r0, #:upper16:.LC1
 1337 025a FFF7FEFF 		bl	test_println
 1338              		.loc 1 381 0
 1339 025e 40F20000 		movw	r0, #:lower16:.LC28
 1340 0262 C0F20000 		movt	r0, #:upper16:.LC28
 1341 0266 FFF7FEFF 		bl	test_print
 1342              		.loc 1 382 0
 1343 026a 0398     		ldr	r0, [sp, #12]
 1344 026c 0378     		ldrb	r3, [r0, #0]	@ zero_extendqisi2
 1345 026e 8BB9     		cbnz	r3, .L85
 1346              		.loc 1 385 0
 1347 0270 40F20000 		movw	r0, #:lower16:.LC30
ARM GAS  /tmp/cctV5Pyf.s 			page 25


 1348 0274 C0F20000 		movt	r0, #:upper16:.LC30
 1349 0278 FFF7FEFF 		bl	test_println
 1350              	.L81:
 1351              		.loc 1 388 0
 1352 027c 039A     		ldr	r2, [sp, #12]
 1353 027e 1078     		ldrb	r0, [r2, #0]	@ zero_extendqisi2
 1354 0280 05B0     		add	sp, sp, #20
 1355 0282 BDE8F08F 		pop	{r4, r5, r6, r7, r8, r9, sl, fp, pc}
 1356              	.LVL88:
 1357              	.L73:
 1358              		.loc 1 374 0
 1359 0286 40F20000 		movw	r0, #:lower16:.LC27
 1360 028a C0F20000 		movt	r0, #:upper16:.LC27
 1361 028e FFF7FEFF 		bl	test_println
 1362 0292 5FE7     		b	.L83
 1363              	.LVL89:
 1364              	.L85:
 1365              		.loc 1 383 0
 1366 0294 40F20000 		movw	r0, #:lower16:.LC29
 1367 0298 C0F20000 		movt	r0, #:upper16:.LC29
 1368 029c FFF7FEFF 		bl	test_println
 1369 02a0 ECE7     		b	.L81
 1370              		.cfi_endproc
 1371              	.LFE136:
 1372              		.size	TestThread, .-TestThread
 1373              		.global	test_timer_done
 1374              		.global	wa
 1375              		.global	threads
 1376              		.global	test
 1377 02a2 00BFAFF3 		.section	.bss.test,"aw",%nobits
 1377      0080AFF3 
 1377      0080AFF3 
 1377      0080
 1378              		.align	3
 1379              		.type	test, %object
 1380              		.size	test, 1680
 1381              	test:
 1382 0000 00000000 		.space	1680
 1382      00000000 
 1382      00000000 
 1382      00000000 
 1382      00000000 
 1383              		.section	.bss.failpoint,"aw",%nobits
 1384              		.align	2
 1385              		.set	.LANCHOR5,. + 0
 1386              		.type	failpoint, %object
 1387              		.size	failpoint, 4
 1388              	failpoint:
 1389 0000 00000000 		.space	4
 1390              		.section	.bss.local_fail,"aw",%nobits
 1391              		.set	.LANCHOR3,. + 0
 1392              		.type	local_fail, %object
 1393              		.size	local_fail, 1
 1394              	local_fail:
 1395 0000 00       		.space	1
 1396              		.section	.bss.test_timer_done,"aw",%nobits
 1397              		.set	.LANCHOR0,. + 0
ARM GAS  /tmp/cctV5Pyf.s 			page 26


 1398              		.type	test_timer_done, %object
 1399              		.size	test_timer_done, 1
 1400              	test_timer_done:
 1401 0000 00       		.space	1
 1402              		.section	.rodata.wa,"a",%progbits
 1403              		.align	2
 1404              		.type	wa, %object
 1405              		.size	wa, 20
 1406              	wa:
 1407 0000 00000000 		.word	test
 1408 0004 50010000 		.word	test+336
 1409 0008 A0020000 		.word	test+672
 1410 000c F0030000 		.word	test+1008
 1411 0010 40050000 		.word	test+1344
 1412              		.section	.bss.tokp,"aw",%nobits
 1413              		.align	2
 1414              		.set	.LANCHOR2,. + 0
 1415              		.type	tokp, %object
 1416              		.size	tokp, 4
 1417              	tokp:
 1418 0000 00000000 		.space	4
 1419              		.section	.bss.global_fail,"aw",%nobits
 1420              		.set	.LANCHOR4,. + 0
 1421              		.type	global_fail, %object
 1422              		.size	global_fail, 1
 1423              	global_fail:
 1424 0000 00       		.space	1
 1425              		.section	.rodata.str1.4,"aMS",%progbits,1
 1426              		.align	2
 1427              	.LC0:
 1428 0000 0D0A00   		.ascii	"\015\012\000"
 1429 0003 00       		.space	1
 1430              	.LC1:
 1431 0004 00       		.ascii	"\000"
 1432 0005 000000   		.space	3
 1433              	.LC2:
 1434 0008 2A2A2A20 		.ascii	"*** ChibiOS/RT test suite\000"
 1434      43686962 
 1434      694F532F 
 1434      52542074 
 1434      65737420 
 1435 0022 0000     		.space	2
 1436              	.LC3:
 1437 0024 2A2A2A00 		.ascii	"***\000"
 1438              	.LC4:
 1439 0028 2A2A2A20 		.ascii	"*** Kernel:       \000"
 1439      4B65726E 
 1439      656C3A20 
 1439      20202020 
 1439      202000
 1440 003b 00       		.space	1
 1441              	.LC5:
 1442 003c 322E362E 		.ascii	"2.6.8\000"
 1442      3800
 1443 0042 0000     		.space	2
 1444              	.LC6:
 1445 0044 2A2A2A20 		.ascii	"*** Compiled:     \000"
ARM GAS  /tmp/cctV5Pyf.s 			page 27


 1445      436F6D70 
 1445      696C6564 
 1445      3A202020 
 1445      202000
 1446 0057 00       		.space	1
 1447              	.LC7:
 1448 0058 4D617920 		.ascii	"May 26 2015 - 18:04:22\000"
 1448      32362032 
 1448      30313520 
 1448      2D203138 
 1448      3A30343A 
 1449 006f 00       		.space	1
 1450              	.LC8:
 1451 0070 2A2A2A20 		.ascii	"*** Compiler:     \000"
 1451      436F6D70 
 1451      696C6572 
 1451      3A202020 
 1451      202000
 1452 0083 00       		.space	1
 1453              	.LC9:
 1454 0084 47434320 		.ascii	"GCC 4.6.1\000"
 1454      342E362E 
 1454      3100
 1455 008e 0000     		.space	2
 1456              	.LC10:
 1457 0090 2A2A2A20 		.ascii	"*** Architecture: \000"
 1457      41726368 
 1457      69746563 
 1457      74757265 
 1457      3A2000
 1458 00a3 00       		.space	1
 1459              	.LC11:
 1460 00a4 41524D76 		.ascii	"ARMv7-ME\000"
 1460      372D4D45 
 1460      00
 1461 00ad 000000   		.space	3
 1462              	.LC12:
 1463 00b0 2A2A2A20 		.ascii	"*** Core Variant: \000"
 1463      436F7265 
 1463      20566172 
 1463      69616E74 
 1463      3A2000
 1464 00c3 00       		.space	1
 1465              	.LC13:
 1466 00c4 436F7274 		.ascii	"Cortex-M4\000"
 1466      65782D4D 
 1466      3400
 1467 00ce 0000     		.space	2
 1468              	.LC14:
 1469 00d0 2A2A2A20 		.ascii	"*** Port Info:    \000"
 1469      506F7274 
 1469      20496E66 
 1469      6F3A2020 
 1469      202000
 1470 00e3 00       		.space	1
 1471              	.LC15:
 1472 00e4 41647661 		.ascii	"Advanced kernel mode\000"
ARM GAS  /tmp/cctV5Pyf.s 			page 28


 1472      6E636564 
 1472      206B6572 
 1472      6E656C20 
 1472      6D6F6465 
 1473 00f9 000000   		.space	3
 1474              	.LC16:
 1475 00fc 2A2A2A20 		.ascii	"*** Platform:     \000"
 1475      506C6174 
 1475      666F726D 
 1475      3A202020 
 1475      202000
 1476 010f 00       		.space	1
 1477              	.LC17:
 1478 0110 53544D33 		.ascii	"STM32F407/F417 High Performance with DSP and FPU\000"
 1478      32463430 
 1478      372F4634 
 1478      31372048 
 1478      69676820 
 1479 0141 000000   		.space	3
 1480              	.LC18:
 1481 0144 2A2A2A20 		.ascii	"*** Test Board:   \000"
 1481      54657374 
 1481      20426F61 
 1481      72643A20 
 1481      202000
 1482 0157 00       		.space	1
 1483              	.LC19:
 1484 0158 53544D69 		.ascii	"STMicroelectronics STM32F4-Discovery\000"
 1484      63726F65 
 1484      6C656374 
 1484      726F6E69 
 1484      63732053 
 1485 017d 000000   		.space	3
 1486              	.LC20:
 1487 0180 2D2D2D20 		.ascii	"--- Test Case \000"
 1487      54657374 
 1487      20436173 
 1487      652000
 1488 018f 00       		.space	1
 1489              	.LC21:
 1490 0190 2E00     		.ascii	".\000"
 1491 0192 0000     		.space	2
 1492              	.LC22:
 1493 0194 202800   		.ascii	" (\000"
 1494 0197 00       		.space	1
 1495              	.LC23:
 1496 0198 2900     		.ascii	")\000"
 1497 019a 0000     		.space	2
 1498              	.LC24:
 1499 019c 2D2D2D20 		.ascii	"--- Result: FAILURE (#\000"
 1499      52657375 
 1499      6C743A20 
 1499      4641494C 
 1499      55524520 
 1500 01b3 00       		.space	1
 1501              	.LC25:
 1502 01b4 205B00   		.ascii	" [\000"
ARM GAS  /tmp/cctV5Pyf.s 			page 29


 1503 01b7 00       		.space	1
 1504              	.LC26:
 1505 01b8 5D2900   		.ascii	"])\000"
 1506 01bb 00       		.space	1
 1507              	.LC27:
 1508 01bc 2D2D2D20 		.ascii	"--- Result: SUCCESS\000"
 1508      52657375 
 1508      6C743A20 
 1508      53554343 
 1508      45535300 
 1509              	.LC28:
 1510 01d0 46696E61 		.ascii	"Final result: \000"
 1510      6C207265 
 1510      73756C74 
 1510      3A2000
 1511 01df 00       		.space	1
 1512              	.LC29:
 1513 01e0 4641494C 		.ascii	"FAILURE\000"
 1513      55524500 
 1514              	.LC30:
 1515 01e8 53554343 		.ascii	"SUCCESS\000"
 1515      45535300 
 1516              		.section	.bss.vt,"aw",%nobits
 1517              		.align	2
 1518              		.set	.LANCHOR8,. + 0
 1519              		.type	vt, %object
 1520              		.size	vt, 20
 1521              	vt:
 1522 0000 00000000 		.space	20
 1522      00000000 
 1522      00000000 
 1522      00000000 
 1522      00000000 
 1523              		.section	.bss.threads,"aw",%nobits
 1524              		.align	2
 1525              		.set	.LANCHOR7,. + 0
 1526              		.type	threads, %object
 1527              		.size	threads, 20
 1528              	threads:
 1529 0000 00000000 		.space	20
 1529      00000000 
 1529      00000000 
 1529      00000000 
 1529      00000000 
 1530              		.section	.rodata.patterns,"a",%progbits
 1531              		.align	2
 1532              		.set	.LANCHOR9,. + 0
 1533              		.type	patterns, %object
 1534              		.size	patterns, 48
 1535              	patterns:
 1536 0000 00000000 		.word	patternthd
 1537 0004 00000000 		.word	patternsem
 1538 0008 00000000 		.word	patternmtx
 1539 000c 00000000 		.word	patternmsg
 1540 0010 00000000 		.word	patternmbox
 1541 0014 00000000 		.word	patternevt
 1542 0018 00000000 		.word	patternheap
ARM GAS  /tmp/cctV5Pyf.s 			page 30


 1543 001c 00000000 		.word	patternpools
 1544 0020 00000000 		.word	patterndyn
 1545 0024 00000000 		.word	patternqueues
 1546 0028 00000000 		.word	patternbmk
 1547 002c 00000000 		.word	0
 1548              		.section	.bss.chp,"aw",%nobits
 1549              		.align	2
 1550              		.set	.LANCHOR1,. + 0
 1551              		.type	chp, %object
 1552              		.size	chp, 4
 1553              	chp:
 1554 0000 00000000 		.space	4
 1555              		.section	.bss.tokens_buffer,"aw",%nobits
 1556              		.align	2
 1557              		.set	.LANCHOR6,. + 0
 1558              		.type	tokens_buffer, %object
 1559              		.size	tokens_buffer, 16
 1560              	tokens_buffer:
 1561 0000 00000000 		.space	16
 1561      00000000 
 1561      00000000 
 1561      00000000 
 1562              		.text
 1563              	.Letext0:
 1564              		.file 2 "/home/lithium/Documents/arm-2011q3/bin/../lib/gcc/arm-none-eabi/4.6.1/include/stddef.h"
 1565              		.file 3 "/home/lithium/Documents/arm-2011q3/bin/../lib/gcc/arm-none-eabi/4.6.1/../../../../arm-non
 1566              		.file 4 "../../os/ports/GCC/ARMCMx/chtypes.h"
 1567              		.file 5 "../../os/kernel/include/chlists.h"
 1568              		.file 6 "../../os/kernel/include/chthreads.h"
 1569              		.file 7 "../../os/ports/GCC/ARMCMx/chcore_v7m.h"
 1570              		.file 8 "../../os/kernel/include/chvt.h"
 1571              		.file 9 "../../os/kernel/include/chschd.h"
 1572              		.file 10 "../../os/kernel/include/chmtx.h"
 1573              		.file 11 "../../os/kernel/include/chstreams.h"
 1574              		.file 12 "../../test/test.h"
 1575              		.file 13 "../../os/ports/common/ARMCMx/CMSIS/include/core_cm4.h"
 1576              		.file 14 "../../test/testthd.h"
 1577              		.file 15 "../../test/testsem.h"
 1578              		.file 16 "../../test/testmtx.h"
 1579              		.file 17 "../../test/testmsg.h"
 1580              		.file 18 "../../test/testmbox.h"
 1581              		.file 19 "../../test/testevt.h"
 1582              		.file 20 "../../test/testheap.h"
 1583              		.file 21 "../../test/testpools.h"
 1584              		.file 22 "../../test/testdyn.h"
 1585              		.file 23 "../../test/testqueues.h"
 1586              		.file 24 "../../test/testbmk.h"