ARM GAS  /tmp/cc4vIhat.s 			page 1


   1              		.syntax unified
   2              		.cpu cortex-m4
   3              		.fpu softvfp
   4              		.eabi_attribute 20, 1
   5              		.eabi_attribute 21, 1
   6              		.eabi_attribute 23, 3
   7              		.eabi_attribute 24, 1
   8              		.eabi_attribute 25, 1
   9              		.eabi_attribute 26, 1
  10              		.eabi_attribute 30, 2
  11              		.eabi_attribute 34, 1
  12              		.eabi_attribute 18, 4
  13              		.thumb
  14              		.file	"testthd.c"
  15              		.text
  16              	.Ltext0:
  17              		.cfi_sections	.debug_frame
  18              		.section	.text.thd3_execute,"ax",%progbits
  19              		.align	2
  20              		.p2align 4,,15
  21              		.thumb
  22              		.thumb_func
  23              		.type	thd3_execute, %function
  24              	thd3_execute:
  25              	.LFB10:
  26              		.file 1 "../../test/testthd.c"
  27              		.loc 1 126 0
  28              		.cfi_startproc
  29              		@ args = 0, pretend = 0, frame = 0
  30              		@ frame_needed = 0, uses_anonymous_args = 0
  31 0000 F8B5     		push	{r3, r4, r5, r6, r7, lr}
  32              	.LCFI0:
  33              		.cfi_def_cfa_offset 24
  34              		.cfi_offset 14, -4
  35              		.cfi_offset 7, -8
  36              		.cfi_offset 6, -12
  37              		.cfi_offset 5, -16
  38              		.cfi_offset 4, -20
  39              		.cfi_offset 3, -24
  40              		.loc 1 129 0
  41 0002 40F20004 		movw	r4, #:lower16:rlist
  42 0006 C0F20004 		movt	r4, #:upper16:rlist
  43 000a A369     		ldr	r3, [r4, #24]
  44 000c 9D68     		ldr	r5, [r3, #8]
  45              	.LVL0:
  46              		.loc 1 130 0
  47 000e 6E1C     		adds	r6, r5, #1
  48 0010 3046     		mov	r0, r6
  49 0012 FFF7FEFF 		bl	chThdSetPriority
  50              	.LVL1:
  51              		.loc 1 131 0
  52 0016 421B     		subs	r2, r0, r5
  53 0018 5142     		rsbs	r1, r2, #0
  54 001a 41EB0201 		adc	r1, r1, r2
  55              		.loc 1 130 0
  56 001e 0746     		mov	r7, r0
  57              	.LVL2:
ARM GAS  /tmp/cc4vIhat.s 			page 2


  58              		.loc 1 131 0
  59 0020 0120     		movs	r0, #1
  60              	.LVL3:
  61 0022 FFF7FEFF 		bl	_test_assert
  62 0026 00B1     		cbz	r0, .L4
  63              	.LVL4:
  64              	.L1:
  65 0028 F8BD     		pop	{r3, r4, r5, r6, r7, pc}
  66              	.LVL5:
  67              	.L4:
  68              		.loc 1 133 0
  69 002a A069     		ldr	r0, [r4, #24]
  70 002c 8268     		ldr	r2, [r0, #8]
  71 002e B11A     		subs	r1, r6, r2
  72 0030 0220     		movs	r0, #2
  73 0032 D1F1000C 		rsbs	ip, r1, #0
  74 0036 4CEB0101 		adc	r1, ip, r1
  75 003a FFF7FEFF 		bl	_test_assert
  76 003e 0028     		cmp	r0, #0
  77 0040 F2D1     		bne	.L1
  78              		.loc 1 135 0
  79 0042 3846     		mov	r0, r7
  80 0044 FFF7FEFF 		bl	chThdSetPriority
  81              	.LVL6:
  82              		.loc 1 136 0
  83 0048 311A     		subs	r1, r6, r0
  84 004a 4B42     		rsbs	r3, r1, #0
  85 004c 43EB0101 		adc	r1, r3, r1
  86 0050 0320     		movs	r0, #3
  87              	.LVL7:
  88 0052 FFF7FEFF 		bl	_test_assert
  89 0056 0028     		cmp	r0, #0
  90 0058 E6D1     		bne	.L1
  91              		.loc 1 138 0
  92 005a A069     		ldr	r0, [r4, #24]
  93 005c 8168     		ldr	r1, [r0, #8]
  94 005e 4B1B     		subs	r3, r1, r5
  95 0060 0420     		movs	r0, #4
  96 0062 5A42     		rsbs	r2, r3, #0
  97 0064 42EB0301 		adc	r1, r2, r3
  98 0068 FFF7FEFF 		bl	_test_assert
  99 006c 0028     		cmp	r0, #0
 100 006e DBD1     		bne	.L1
 101              	.LBB2:
 102              		.loc 1 143 0
 103 0070 2023     		movs	r3, #32
 104              	.LVL8:
 105              	@ 143 "../../test/testthd.c" 1
 106 0072 83F31188 		msr     BASEPRI, r3
 107              	@ 0 "" 2
 108              	.LVL9:
 109              		.thumb
 110              	.LBE2:
 111              		.loc 1 144 0
 112 0076 A369     		ldr	r3, [r4, #24]
 113              	.LVL10:
 114 0078 9A68     		ldr	r2, [r3, #8]
ARM GAS  /tmp/cc4vIhat.s 			page 3


 115 007a 911C     		adds	r1, r2, #2
 116 007c 9960     		str	r1, [r3, #8]
 117              	.LBB3:
 118              		.loc 1 145 0
 119 007e 0346     		mov	r3, r0
 120              	.LVL11:
 121              	@ 145 "../../test/testthd.c" 1
 122 0080 83F31188 		msr     BASEPRI, r3
 123              	@ 0 "" 2
 124              	.LVL12:
 125              		.thumb
 126              	.LBE3:
 127              		.loc 1 146 0
 128 0084 A769     		ldr	r7, [r4, #24]
 129 0086 BA68     		ldr	r2, [r7, #8]
 130 0088 AF1C     		adds	r7, r5, #2
 131 008a C7EB020E 		rsb	lr, r7, r2
 132 008e 0520     		movs	r0, #5
 133 0090 DEF10003 		rsbs	r3, lr, #0
 134              	.LVL13:
 135 0094 43EB0E01 		adc	r1, r3, lr
 136 0098 FFF7FEFF 		bl	_test_assert
 137 009c 0028     		cmp	r0, #0
 138 009e C3D1     		bne	.L1
 139              		.loc 1 150 0
 140 00a0 3046     		mov	r0, r6
 141 00a2 FFF7FEFF 		bl	chThdSetPriority
 142              	.LVL14:
 143              		.loc 1 151 0
 144 00a6 411B     		subs	r1, r0, r5
 145 00a8 4842     		rsbs	r0, r1, #0
 146              	.LVL15:
 147 00aa 40EB0101 		adc	r1, r0, r1
 148 00ae 0620     		movs	r0, #6
 149 00b0 FFF7FEFF 		bl	_test_assert
 150 00b4 0028     		cmp	r0, #0
 151 00b6 B7D1     		bne	.L1
 152              		.loc 1 153 0
 153 00b8 A069     		ldr	r0, [r4, #24]
 154 00ba 8168     		ldr	r1, [r0, #8]
 155 00bc 7A1A     		subs	r2, r7, r1
 156 00be 0720     		movs	r0, #7
 157 00c0 5342     		rsbs	r3, r2, #0
 158 00c2 43EB0201 		adc	r1, r3, r2
 159 00c6 FFF7FEFF 		bl	_test_assert
 160 00ca 0028     		cmp	r0, #0
 161 00cc ACD1     		bne	.L1
 162              		.loc 1 155 0
 163 00ce A069     		ldr	r0, [r4, #24]
 164 00d0 016C     		ldr	r1, [r0, #64]
 165 00d2 721A     		subs	r2, r6, r1
 166 00d4 0820     		movs	r0, #8
 167 00d6 5342     		rsbs	r3, r2, #0
 168 00d8 43EB0201 		adc	r1, r3, r2
 169 00dc FFF7FEFF 		bl	_test_assert
 170 00e0 0028     		cmp	r0, #0
 171 00e2 A1D1     		bne	.L1
ARM GAS  /tmp/cc4vIhat.s 			page 4


 172              		.loc 1 159 0
 173 00e4 EF1C     		adds	r7, r5, #3
 174 00e6 3846     		mov	r0, r7
 175 00e8 FFF7FEFF 		bl	chThdSetPriority
 176              	.LVL16:
 177              		.loc 1 160 0
 178 00ec 321A     		subs	r2, r6, r0
 179 00ee 5342     		rsbs	r3, r2, #0
 180 00f0 43EB0201 		adc	r1, r3, r2
 181 00f4 0920     		movs	r0, #9
 182              	.LVL17:
 183 00f6 FFF7FEFF 		bl	_test_assert
 184 00fa 0028     		cmp	r0, #0
 185 00fc 94D1     		bne	.L1
 186              		.loc 1 162 0
 187 00fe A069     		ldr	r0, [r4, #24]
 188 0100 8368     		ldr	r3, [r0, #8]
 189 0102 F91A     		subs	r1, r7, r3
 190 0104 0A20     		movs	r0, #10
 191 0106 D1F1000C 		rsbs	ip, r1, #0
 192 010a 4CEB0101 		adc	r1, ip, r1
 193 010e FFF7FEFF 		bl	_test_assert
 194 0112 0028     		cmp	r0, #0
 195 0114 88D1     		bne	.L1
 196              		.loc 1 164 0
 197 0116 A369     		ldr	r3, [r4, #24]
 198 0118 196C     		ldr	r1, [r3, #64]
 199 011a 7A1A     		subs	r2, r7, r1
 200 011c 0B20     		movs	r0, #11
 201 011e 5442     		rsbs	r4, r2, #0
 202 0120 44EB0201 		adc	r1, r4, r2
 203 0124 FFF7FEFF 		bl	_test_assert
 204 0128 40F20004 		movw	r4, #:lower16:rlist
 205 012c C0F20004 		movt	r4, #:upper16:rlist
 206 0130 0028     		cmp	r0, #0
 207 0132 7FF479AF 		bne	.L1
 208              	.LBB4:
 209              		.loc 1 167 0
 210 0136 2023     		movs	r3, #32
 211              	.LVL18:
 212              	@ 167 "../../test/testthd.c" 1
 213 0138 83F31188 		msr     BASEPRI, r3
 214              	@ 0 "" 2
 215              	.LVL19:
 216              		.thumb
 217              	.LBE4:
 218              		.loc 1 168 0
 219 013c A269     		ldr	r2, [r4, #24]
 220              	.LBB5:
 221              		.loc 1 170 0
 222 013e 0346     		mov	r3, r0
 223              	.LVL20:
 224              	.LBE5:
 225              		.loc 1 168 0
 226 0140 9560     		str	r5, [r2, #8]
 227              		.loc 1 169 0
 228 0142 1564     		str	r5, [r2, #64]
ARM GAS  /tmp/cc4vIhat.s 			page 5


 229              	.LBB6:
 230              		.loc 1 170 0
 231              	@ 170 "../../test/testthd.c" 1
 232 0144 83F31188 		msr     BASEPRI, r3
 233              	@ 0 "" 2
 234              	.LVL21:
 235              		.thumb
 236 0148 6EE7     		b	.L1
 237              	.LBE6:
 238              		.cfi_endproc
 239              	.LFE10:
 240              		.size	thd3_execute, .-thd3_execute
 241 014a 00BFAFF3 		.section	.text.thd2_execute,"ax",%progbits
 241      0080
 242              		.align	2
 243              		.p2align 4,,15
 244              		.thumb
 245              		.thumb_func
 246              		.type	thd2_execute, %function
 247              	thd2_execute:
 248              	.LFB9:
 249              		.loc 1 94 0
 250              		.cfi_startproc
 251              		@ args = 0, pretend = 0, frame = 0
 252              		@ frame_needed = 0, uses_anonymous_args = 0
 253 0000 F0B5     		push	{r4, r5, r6, r7, lr}
 254              	.LCFI1:
 255              		.cfi_def_cfa_offset 20
 256              		.cfi_offset 14, -4
 257              		.cfi_offset 7, -8
 258              		.cfi_offset 6, -12
 259              		.cfi_offset 5, -16
 260              		.cfi_offset 4, -20
 261              		.loc 1 96 0
 262 0002 40F20007 		movw	r7, #:lower16:rlist
 263 0006 C0F20007 		movt	r7, #:upper16:rlist
 264 000a 40F20006 		movw	r6, #:lower16:wa
 265 000e BD69     		ldr	r5, [r7, #24]
 266 0010 C0F20006 		movt	r6, #:upper16:wa
 267 0014 AB68     		ldr	r3, [r5, #8]
 268 0016 7068     		ldr	r0, [r6, #4]
 269 0018 40F20005 		movw	r5, #:lower16:thread
 270              		.loc 1 94 0
 271 001c 83B0     		sub	sp, sp, #12
 272              	.LCFI2:
 273              		.cfi_def_cfa_offset 32
 274              		.loc 1 96 0
 275 001e C0F20005 		movt	r5, #:upper16:thread
 276 0022 40F20004 		movw	r4, #:lower16:.LC0
 277 0026 1A1F     		subs	r2, r3, #4
 278 0028 C0F20004 		movt	r4, #:upper16:.LC0
 279 002c 2B46     		mov	r3, r5
 280 002e 4FF4A871 		mov	r1, #336
 281 0032 0094     		str	r4, [sp, #0]
 282 0034 FFF7FEFF 		bl	chThdCreateStatic
 283              		.loc 1 97 0
 284 0038 BC69     		ldr	r4, [r7, #24]
ARM GAS  /tmp/cc4vIhat.s 			page 6


 285 003a 3168     		ldr	r1, [r6, #0]
 286 003c A268     		ldr	r2, [r4, #8]
 287              		.loc 1 96 0
 288 003e 40F20004 		movw	r4, #:lower16:threads
 289 0042 C0F20004 		movt	r4, #:upper16:threads
 290              		.loc 1 97 0
 291 0046 40F2000E 		movw	lr, #:lower16:.LC1
 292              		.loc 1 96 0
 293 004a 6060     		str	r0, [r4, #4]
 294              		.loc 1 97 0
 295 004c C0F2000E 		movt	lr, #:upper16:.LC1
 296 0050 053A     		subs	r2, r2, #5
 297 0052 2B46     		mov	r3, r5
 298 0054 0846     		mov	r0, r1
 299 0056 4FF4A871 		mov	r1, #336
 300 005a CDF800E0 		str	lr, [sp, #0]
 301 005e FFF7FEFF 		bl	chThdCreateStatic
 302              		.loc 1 98 0
 303 0062 BB69     		ldr	r3, [r7, #24]
 304 0064 3169     		ldr	r1, [r6, #16]
 305 0066 9A68     		ldr	r2, [r3, #8]
 306              		.loc 1 97 0
 307 0068 2060     		str	r0, [r4, #0]
 308              		.loc 1 98 0
 309 006a 40F2000C 		movw	ip, #:lower16:.LC2
 310 006e C0F2000C 		movt	ip, #:upper16:.LC2
 311 0072 013A     		subs	r2, r2, #1
 312 0074 2B46     		mov	r3, r5
 313 0076 0846     		mov	r0, r1
 314 0078 4FF4A871 		mov	r1, #336
 315 007c CDF800C0 		str	ip, [sp, #0]
 316 0080 FFF7FEFF 		bl	chThdCreateStatic
 317              		.loc 1 99 0
 318 0084 BB69     		ldr	r3, [r7, #24]
 319 0086 F168     		ldr	r1, [r6, #12]
 320 0088 9A68     		ldr	r2, [r3, #8]
 321              		.loc 1 98 0
 322 008a 2061     		str	r0, [r4, #16]
 323              		.loc 1 99 0
 324 008c 40F2000E 		movw	lr, #:lower16:.LC3
 325 0090 C0F2000E 		movt	lr, #:upper16:.LC3
 326 0094 2B46     		mov	r3, r5
 327 0096 0846     		mov	r0, r1
 328 0098 023A     		subs	r2, r2, #2
 329 009a 4FF4A871 		mov	r1, #336
 330 009e CDF800E0 		str	lr, [sp, #0]
 331 00a2 FFF7FEFF 		bl	chThdCreateStatic
 332              	.LBB7:
 333              		.loc 1 101 0
 334 00a6 2023     		movs	r3, #32
 335              	.LVL22:
 336              	.LBE7:
 337              		.loc 1 99 0
 338 00a8 E060     		str	r0, [r4, #12]
 339              	.LBB8:
 340              		.loc 1 101 0
 341              	@ 101 "../../test/testthd.c" 1
ARM GAS  /tmp/cc4vIhat.s 			page 7


 342 00aa 83F31188 		msr     BASEPRI, r3
 343              	@ 0 "" 2
 344              	.LVL23:
 345              		.thumb
 346              	.LBE8:
 347              		.loc 1 102 0
 348 00ae BB69     		ldr	r3, [r7, #24]
 349              	.LVL24:
 350 00b0 B068     		ldr	r0, [r6, #8]
 351 00b2 9A68     		ldr	r2, [r3, #8]
 352 00b4 40F20006 		movw	r6, #:lower16:.LC4
 353 00b8 2B46     		mov	r3, r5
 354 00ba C0F20006 		movt	r6, #:upper16:.LC4
 355 00be 4FF4A871 		mov	r1, #336
 356 00c2 033A     		subs	r2, r2, #3
 357 00c4 0096     		str	r6, [sp, #0]
 358 00c6 FFF7FEFF 		bl	chThdCreateI
 359 00ca A060     		str	r0, [r4, #8]
 360              	.LBB9:
 361              		.loc 1 103 0
 362 00cc 0023     		movs	r3, #0
 363              	.LVL25:
 364              	@ 103 "../../test/testthd.c" 1
 365 00ce 83F31188 		msr     BASEPRI, r3
 366              	@ 0 "" 2
 367              	.LVL26:
 368              		.thumb
 369              	.LBE9:
 370              		.loc 1 104 0
 371 00d2 A068     		ldr	r0, [r4, #8]
 372 00d4 FFF7FEFF 		bl	chThdResume
 373              	.LVL27:
 374              		.loc 1 105 0
 375 00d8 FFF7FEFF 		bl	test_wait_threads
 376              		.loc 1 106 0
 377 00dc 40F20001 		movw	r1, #:lower16:.LC5
 378 00e0 0120     		movs	r0, #1
 379 00e2 C0F20001 		movt	r1, #:upper16:.LC5
 380              		.loc 1 107 0
 381 00e6 03B0     		add	sp, sp, #12
 382 00e8 BDE8F040 		pop	{r4, r5, r6, r7, lr}
 383              		.loc 1 106 0
 384 00ec FFF7FEBF 		b	_test_assert_sequence
 385              		.cfi_endproc
 386              	.LFE9:
 387              		.size	thd2_execute, .-thd2_execute
 388              		.section	.text.thd1_execute,"ax",%progbits
 389              		.align	2
 390              		.p2align 4,,15
 391              		.thumb
 392              		.thumb_func
 393              		.type	thd1_execute, %function
 394              	thd1_execute:
 395              	.LFB8:
 396              		.loc 1 66 0
 397              		.cfi_startproc
 398              		@ args = 0, pretend = 0, frame = 0
ARM GAS  /tmp/cc4vIhat.s 			page 8


 399              		@ frame_needed = 0, uses_anonymous_args = 0
 400 0000 F0B5     		push	{r4, r5, r6, r7, lr}
 401              	.LCFI3:
 402              		.cfi_def_cfa_offset 20
 403              		.cfi_offset 14, -4
 404              		.cfi_offset 7, -8
 405              		.cfi_offset 6, -12
 406              		.cfi_offset 5, -16
 407              		.cfi_offset 4, -20
 408              		.loc 1 68 0
 409 0002 40F20007 		movw	r7, #:lower16:rlist
 410 0006 C0F20007 		movt	r7, #:upper16:rlist
 411 000a 40F20006 		movw	r6, #:lower16:wa
 412 000e BD69     		ldr	r5, [r7, #24]
 413 0010 C0F20006 		movt	r6, #:upper16:wa
 414 0014 AA68     		ldr	r2, [r5, #8]
 415 0016 3068     		ldr	r0, [r6, #0]
 416 0018 40F20005 		movw	r5, #:lower16:thread
 417              		.loc 1 66 0
 418 001c 83B0     		sub	sp, sp, #12
 419              	.LCFI4:
 420              		.cfi_def_cfa_offset 32
 421              		.loc 1 68 0
 422 001e C0F20005 		movt	r5, #:upper16:thread
 423 0022 40F20004 		movw	r4, #:lower16:.LC1
 424 0026 053A     		subs	r2, r2, #5
 425 0028 2B46     		mov	r3, r5
 426 002a C0F20004 		movt	r4, #:upper16:.LC1
 427 002e 4FF4A871 		mov	r1, #336
 428 0032 0094     		str	r4, [sp, #0]
 429 0034 FFF7FEFF 		bl	chThdCreateStatic
 430              		.loc 1 69 0
 431 0038 BC69     		ldr	r4, [r7, #24]
 432 003a D6F804C0 		ldr	ip, [r6, #4]
 433 003e A368     		ldr	r3, [r4, #8]
 434              		.loc 1 68 0
 435 0040 40F20004 		movw	r4, #:lower16:threads
 436 0044 C0F20004 		movt	r4, #:upper16:threads
 437              		.loc 1 69 0
 438 0048 40F2000E 		movw	lr, #:lower16:.LC0
 439              		.loc 1 68 0
 440 004c 2060     		str	r0, [r4, #0]
 441              		.loc 1 69 0
 442 004e 1A1F     		subs	r2, r3, #4
 443 0050 C0F2000E 		movt	lr, #:upper16:.LC0
 444 0054 2B46     		mov	r3, r5
 445 0056 4FF4A871 		mov	r1, #336
 446 005a 6046     		mov	r0, ip
 447 005c CDF800E0 		str	lr, [sp, #0]
 448 0060 FFF7FEFF 		bl	chThdCreateStatic
 449              		.loc 1 70 0
 450 0064 BA69     		ldr	r2, [r7, #24]
 451 0066 D6F808C0 		ldr	ip, [r6, #8]
 452 006a 9368     		ldr	r3, [r2, #8]
 453              		.loc 1 69 0
 454 006c 6060     		str	r0, [r4, #4]
 455              		.loc 1 70 0
ARM GAS  /tmp/cc4vIhat.s 			page 9


 456 006e 40F2000E 		movw	lr, #:lower16:.LC4
 457 0072 DA1E     		subs	r2, r3, #3
 458 0074 C0F2000E 		movt	lr, #:upper16:.LC4
 459 0078 2B46     		mov	r3, r5
 460 007a 4FF4A871 		mov	r1, #336
 461 007e 6046     		mov	r0, ip
 462 0080 CDF800E0 		str	lr, [sp, #0]
 463 0084 FFF7FEFF 		bl	chThdCreateStatic
 464              		.loc 1 71 0
 465 0088 B969     		ldr	r1, [r7, #24]
 466 008a D6F80CC0 		ldr	ip, [r6, #12]
 467 008e 8A68     		ldr	r2, [r1, #8]
 468              		.loc 1 70 0
 469 0090 A060     		str	r0, [r4, #8]
 470              		.loc 1 71 0
 471 0092 40F2000E 		movw	lr, #:lower16:.LC3
 472 0096 C0F2000E 		movt	lr, #:upper16:.LC3
 473 009a 6046     		mov	r0, ip
 474 009c 023A     		subs	r2, r2, #2
 475 009e 2B46     		mov	r3, r5
 476 00a0 4FF4A871 		mov	r1, #336
 477 00a4 CDF800E0 		str	lr, [sp, #0]
 478 00a8 FFF7FEFF 		bl	chThdCreateStatic
 479              		.loc 1 72 0
 480 00ac BB69     		ldr	r3, [r7, #24]
 481 00ae 3769     		ldr	r7, [r6, #16]
 482 00b0 9A68     		ldr	r2, [r3, #8]
 483              		.loc 1 71 0
 484 00b2 E060     		str	r0, [r4, #12]
 485              		.loc 1 72 0
 486 00b4 40F20006 		movw	r6, #:lower16:.LC2
 487 00b8 4FF4A871 		mov	r1, #336
 488 00bc 013A     		subs	r2, r2, #1
 489 00be 2B46     		mov	r3, r5
 490 00c0 C0F20006 		movt	r6, #:upper16:.LC2
 491 00c4 3846     		mov	r0, r7
 492 00c6 0096     		str	r6, [sp, #0]
 493 00c8 FFF7FEFF 		bl	chThdCreateStatic
 494 00cc 2061     		str	r0, [r4, #16]
 495              		.loc 1 73 0
 496 00ce FFF7FEFF 		bl	test_wait_threads
 497              		.loc 1 74 0
 498 00d2 40F20001 		movw	r1, #:lower16:.LC5
 499 00d6 0120     		movs	r0, #1
 500 00d8 C0F20001 		movt	r1, #:upper16:.LC5
 501              		.loc 1 75 0
 502 00dc 03B0     		add	sp, sp, #12
 503 00de BDE8F040 		pop	{r4, r5, r6, r7, lr}
 504              		.loc 1 74 0
 505 00e2 FFF7FEBF 		b	_test_assert_sequence
 506              		.cfi_endproc
 507              	.LFE8:
 508              		.size	thd1_execute, .-thd1_execute
 509 00e6 00BFAFF3 		.section	.text.thread,"ax",%progbits
 509      0080AFF3 
 509      0080
 510              		.align	2
ARM GAS  /tmp/cc4vIhat.s 			page 10


 511              		.p2align 4,,15
 512              		.thumb
 513              		.thumb_func
 514              		.type	thread, %function
 515              	thread:
 516              	.LFB7:
 517              		.loc 1 60 0
 518              		.cfi_startproc
 519              		@ args = 0, pretend = 0, frame = 0
 520              		@ frame_needed = 0, uses_anonymous_args = 0
 521              	.LVL28:
 522 0000 08B5     		push	{r3, lr}
 523              	.LCFI5:
 524              		.cfi_def_cfa_offset 8
 525              		.cfi_offset 14, -4
 526              		.cfi_offset 3, -8
 527              		.loc 1 62 0
 528 0002 0078     		ldrb	r0, [r0, #0]	@ zero_extendqisi2
 529              	.LVL29:
 530 0004 FFF7FEFF 		bl	test_emit_token
 531              		.loc 1 64 0
 532 0008 0020     		movs	r0, #0
 533 000a 08BD     		pop	{r3, pc}
 534              		.cfi_endproc
 535              	.LFE7:
 536              		.size	thread, .-thread
 537 000c AFF30080 		.section	.text.thd4_execute,"ax",%progbits
 538              		.align	2
 539              		.p2align 4,,15
 540              		.thumb
 541              		.thumb_func
 542              		.type	thd4_execute, %function
 543              	thd4_execute:
 544              	.LFB11:
 545              		.loc 1 189 0
 546              		.cfi_startproc
 547              		@ args = 0, pretend = 0, frame = 0
 548              		@ frame_needed = 0, uses_anonymous_args = 0
 549 0000 38B5     		push	{r3, r4, r5, lr}
 550              	.LCFI6:
 551              		.cfi_def_cfa_offset 16
 552              		.cfi_offset 14, -4
 553              		.cfi_offset 5, -8
 554              		.cfi_offset 4, -12
 555              		.cfi_offset 3, -16
 556              		.loc 1 195 0
 557 0002 40F20004 		movw	r4, #:lower16:vtlist
 558 0006 C0F20004 		movt	r4, #:upper16:vtlist
 559              		.loc 1 192 0
 560 000a FFF7FEFF 		bl	test_wait_tick
 561              		.loc 1 195 0
 562 000e E568     		ldr	r5, [r4, #12]
 563              	.LVL30:
 564              		.loc 1 196 0
 565 0010 6420     		movs	r0, #100
 566 0012 FFF7FEFF 		bl	chThdSleep
 567              		.loc 1 197 0
ARM GAS  /tmp/cc4vIhat.s 			page 11


 568 0016 0120     		movs	r0, #1
 569 0018 05F16401 		add	r1, r5, #100
 570 001c 05F16502 		add	r2, r5, #101
 571 0020 FFF7FEFF 		bl	_test_assert_time_window
 572 0024 00B1     		cbz	r0, .L10
 573              	.LVL31:
 574              	.L8:
 575 0026 38BD     		pop	{r3, r4, r5, pc}
 576              	.LVL32:
 577              	.L10:
 578              		.loc 1 200 0
 579 0028 E568     		ldr	r5, [r4, #12]
 580              	.LVL33:
 581              		.loc 1 201 0
 582 002a 6420     		movs	r0, #100
 583 002c FFF7FEFF 		bl	chThdSleep
 584              		.loc 1 202 0
 585 0030 0220     		movs	r0, #2
 586 0032 05F16401 		add	r1, r5, #100
 587 0036 05F16502 		add	r2, r5, #101
 588 003a FFF7FEFF 		bl	_test_assert_time_window
 589 003e 0028     		cmp	r0, #0
 590 0040 F1D1     		bne	.L8
 591              	.LBB12:
 592              	.LBB13:
 593              		.loc 1 205 0
 594 0042 E568     		ldr	r5, [r4, #12]
 595              	.LVL34:
 596              		.loc 1 206 0
 597 0044 4FF47A70 		mov	r0, #1000
 598 0048 FFF7FEFF 		bl	chThdSleep
 599              		.loc 1 207 0
 600 004c 05F57A71 		add	r1, r5, #1000
 601 0050 0320     		movs	r0, #3
 602 0052 4A1C     		adds	r2, r1, #1
 603 0054 FFF7FEFF 		bl	_test_assert_time_window
 604 0058 0028     		cmp	r0, #0
 605 005a E4D1     		bne	.L8
 606              		.loc 1 210 0
 607 005c E468     		ldr	r4, [r4, #12]
 608 005e 04F16405 		add	r5, r4, #100
 609              	.LVL35:
 610              		.loc 1 211 0
 611 0062 2846     		mov	r0, r5
 612 0064 FFF7FEFF 		bl	chThdSleepUntil
 613              		.loc 1 212 0
 614 0068 0420     		movs	r0, #4
 615 006a 2946     		mov	r1, r5
 616 006c 04F16502 		add	r2, r4, #101
 617              	.LBE13:
 618              	.LBE12:
 619              		.loc 1 213 0
 620 0070 BDE83840 		pop	{r3, r4, r5, lr}
 621              	.LBB15:
 622              	.LBB14:
 623              		.loc 1 212 0
 624 0074 FFF7FEBF 		b	_test_assert_time_window
ARM GAS  /tmp/cc4vIhat.s 			page 12


 625              	.LBE14:
 626              	.LBE15:
 627              		.cfi_endproc
 628              	.LFE11:
 629              		.size	thd4_execute, .-thd4_execute
 630              		.global	patternthd
 631              		.global	testthd4
 632              		.global	testthd3
 633              		.global	testthd2
 634              		.global	testthd1
 635 0078 AFF30080 		.section	.rodata.testthd1,"a",%progbits
 635      AFF30080 
 636              		.align	2
 637              		.type	testthd1, %object
 638              		.size	testthd1, 16
 639              	testthd1:
 640 0000 64000000 		.word	.LC9
 641 0004 00000000 		.word	0
 642 0008 00000000 		.word	0
 643 000c 00000000 		.word	thd1_execute
 644              		.section	.rodata.testthd2,"a",%progbits
 645              		.align	2
 646              		.type	testthd2, %object
 647              		.size	testthd2, 16
 648              	testthd2:
 649 0000 48000000 		.word	.LC8
 650 0004 00000000 		.word	0
 651 0008 00000000 		.word	0
 652 000c 00000000 		.word	thd2_execute
 653              		.section	.rodata.testthd3,"a",%progbits
 654              		.align	2
 655              		.type	testthd3, %object
 656              		.size	testthd3, 16
 657              	testthd3:
 658 0000 2C000000 		.word	.LC7
 659 0004 00000000 		.word	0
 660 0008 00000000 		.word	0
 661 000c 00000000 		.word	thd3_execute
 662              		.section	.rodata.testthd4,"a",%progbits
 663              		.align	2
 664              		.type	testthd4, %object
 665              		.size	testthd4, 16
 666              	testthd4:
 667 0000 1C000000 		.word	.LC6
 668 0004 00000000 		.word	0
 669 0008 00000000 		.word	0
 670 000c 00000000 		.word	thd4_execute
 671              		.section	.rodata.patternthd,"a",%progbits
 672              		.align	2
 673              		.type	patternthd, %object
 674              		.size	patternthd, 20
 675              	patternthd:
 676 0000 00000000 		.word	testthd1
 677 0004 00000000 		.word	testthd2
 678 0008 00000000 		.word	testthd3
 679 000c 00000000 		.word	testthd4
 680 0010 00000000 		.word	0
ARM GAS  /tmp/cc4vIhat.s 			page 13


 681              		.section	.rodata.str1.4,"aMS",%progbits,1
 682              		.align	2
 683              	.LC0:
 684 0000 4400     		.ascii	"D\000"
 685 0002 0000     		.space	2
 686              	.LC1:
 687 0004 4500     		.ascii	"E\000"
 688 0006 0000     		.space	2
 689              	.LC2:
 690 0008 4100     		.ascii	"A\000"
 691 000a 0000     		.space	2
 692              	.LC3:
 693 000c 4200     		.ascii	"B\000"
 694 000e 0000     		.space	2
 695              	.LC4:
 696 0010 4300     		.ascii	"C\000"
 697 0012 0000     		.space	2
 698              	.LC5:
 699 0014 41424344 		.ascii	"ABCDE\000"
 699      4500
 700 001a 0000     		.space	2
 701              	.LC6:
 702 001c 54687265 		.ascii	"Threads, delays\000"
 702      6164732C 
 702      2064656C 
 702      61797300 
 703              	.LC7:
 704 002c 54687265 		.ascii	"Threads, priority change\000"
 704      6164732C 
 704      20707269 
 704      6F726974 
 704      79206368 
 705 0045 000000   		.space	3
 706              	.LC8:
 707 0048 54687265 		.ascii	"Threads, enqueuing test #2\000"
 707      6164732C 
 707      20656E71 
 707      75657569 
 707      6E672074 
 708 0063 00       		.space	1
 709              	.LC9:
 710 0064 54687265 		.ascii	"Threads, enqueuing test #1\000"
 710      6164732C 
 710      20656E71 
 710      75657569 
 710      6E672074 
 711 007f 00       		.text
 712              	.Letext0:
 713              		.file 2 "/home/lithium/Documents/arm-2011q3/bin/../lib/gcc/arm-none-eabi/4.6.1/../../../../arm-non
 714              		.file 3 "../../os/ports/GCC/ARMCMx/chtypes.h"
 715              		.file 4 "../../os/kernel/include/chlists.h"
 716              		.file 5 "../../os/kernel/include/chthreads.h"
 717              		.file 6 "../../os/ports/GCC/ARMCMx/chcore_v7m.h"
 718              		.file 7 "../../os/kernel/include/chvt.h"
 719              		.file 8 "../../os/kernel/include/chschd.h"
 720              		.file 9 "../../os/kernel/include/chmtx.h"
 721              		.file 10 "../../test/test.h"
ARM GAS  /tmp/cc4vIhat.s 			page 14

