ARM GAS  /tmp/ccMKXTYz.s 			page 1


   1              		.syntax unified
   2              		.cpu cortex-m4
   3              		.fpu softvfp
   4              		.eabi_attribute 20, 1
   5              		.eabi_attribute 21, 1
   6              		.eabi_attribute 23, 3
   7              		.eabi_attribute 24, 1
   8              		.eabi_attribute 25, 1
   9              		.eabi_attribute 26, 1
  10              		.eabi_attribute 30, 2
  11              		.eabi_attribute 34, 1
  12              		.eabi_attribute 18, 4
  13              		.thumb
  14              		.file	"testsem.c"
  15              		.text
  16              	.Ltext0:
  17              		.cfi_sections	.debug_frame
  18              		.section	.text.sem3_setup,"ax",%progbits
  19              		.align	2
  20              		.p2align 4,,15
  21              		.thumb
  22              		.thumb_func
  23              		.type	sem3_setup, %function
  24              	sem3_setup:
  25              	.LFB13:
  26              		.file 1 "../../test/testsem.c"
  27              		.loc 1 205 0
  28              		.cfi_startproc
  29              		@ args = 0, pretend = 0, frame = 0
  30              		@ frame_needed = 0, uses_anonymous_args = 0
  31              		@ link register save eliminated.
  32              		.loc 1 207 0
  33 0000 40F20000 		movw	r0, #:lower16:.LANCHOR0
  34 0004 C0F20000 		movt	r0, #:upper16:.LANCHOR0
  35 0008 0021     		movs	r1, #0
  36              		.loc 1 208 0
  37              		.loc 1 207 0
  38 000a FFF7FEBF 		b	chSemInit
  39              		.cfi_endproc
  40              	.LFE13:
  41              		.size	sem3_setup, .-sem3_setup
  42 000e 00BF     		.section	.text.sem2_setup,"ax",%progbits
  43              		.align	2
  44              		.p2align 4,,15
  45              		.thumb
  46              		.thumb_func
  47              		.type	sem2_setup, %function
  48              	sem2_setup:
  49              	.LFB10:
  50              		.loc 1 129 0
  51              		.cfi_startproc
  52              		@ args = 0, pretend = 0, frame = 0
  53              		@ frame_needed = 0, uses_anonymous_args = 0
  54              		@ link register save eliminated.
  55              		.loc 1 131 0
  56 0000 40F20000 		movw	r0, #:lower16:.LANCHOR0
  57 0004 C0F20000 		movt	r0, #:upper16:.LANCHOR0
ARM GAS  /tmp/ccMKXTYz.s 			page 2


  58 0008 0021     		movs	r1, #0
  59              		.loc 1 132 0
  60              		.loc 1 131 0
  61 000a FFF7FEBF 		b	chSemInit
  62              		.cfi_endproc
  63              	.LFE10:
  64              		.size	sem2_setup, .-sem2_setup
  65 000e 00BF     		.section	.text.sem1_setup,"ax",%progbits
  66              		.align	2
  67              		.p2align 4,,15
  68              		.thumb
  69              		.thumb_func
  70              		.type	sem1_setup, %function
  71              	sem1_setup:
  72              	.LFB7:
  73              		.loc 1 72 0
  74              		.cfi_startproc
  75              		@ args = 0, pretend = 0, frame = 0
  76              		@ frame_needed = 0, uses_anonymous_args = 0
  77              		@ link register save eliminated.
  78              		.loc 1 74 0
  79 0000 40F20000 		movw	r0, #:lower16:.LANCHOR0
  80 0004 C0F20000 		movt	r0, #:upper16:.LANCHOR0
  81 0008 0021     		movs	r1, #0
  82              		.loc 1 75 0
  83              		.loc 1 74 0
  84 000a FFF7FEBF 		b	chSemInit
  85              		.cfi_endproc
  86              	.LFE7:
  87              		.size	sem1_setup, .-sem1_setup
  88 000e 00BF     		.section	.text.sem4_execute,"ax",%progbits
  89              		.align	2
  90              		.p2align 4,,15
  91              		.thumb
  92              		.thumb_func
  93              		.type	sem4_execute, %function
  94              	sem4_execute:
  95              	.LFB17:
  96              		.loc 1 252 0
  97              		.cfi_startproc
  98              		@ args = 0, pretend = 0, frame = 16
  99              		@ frame_needed = 0, uses_anonymous_args = 0
 100 0000 00B5     		push	{lr}
 101              	.LCFI0:
 102              		.cfi_def_cfa_offset 4
 103              		.cfi_offset 14, -4
 104 0002 87B0     		sub	sp, sp, #28
 105              	.LCFI1:
 106              		.cfi_def_cfa_offset 32
 107              		.loc 1 256 0
 108 0004 0021     		movs	r1, #0
 109 0006 03A8     		add	r0, sp, #12
 110 0008 FFF7FEFF 		bl	chSemInit
 111              		.loc 1 257 0
 112 000c 0021     		movs	r1, #0
 113 000e 03A8     		add	r0, sp, #12
 114 0010 FFF7FEFF 		bl	chSemReset
ARM GAS  /tmp/ccMKXTYz.s 			page 3


 115              		.loc 1 258 0
 116 0014 0599     		ldr	r1, [sp, #20]
 117 0016 0120     		movs	r0, #1
 118 0018 0029     		cmp	r1, #0
 119 001a CCBF     		ite	gt
 120 001c 0021     		movgt	r1, #0
 121 001e 0121     		movle	r1, #1
 122 0020 FFF7FEFF 		bl	_test_assert
 123 0024 08B1     		cbz	r0, .L9
 124              	.L4:
 125              		.loc 1 280 0
 126 0026 07B0     		add	sp, sp, #28
 127 0028 00BD     		pop	{pc}
 128              	.L9:
 129              		.loc 1 262 0
 130 002a 40F2000C 		movw	ip, #:lower16:rlist
 131 002e C0F2000C 		movt	ip, #:upper16:rlist
 132              		.loc 1 261 0
 133 0032 40F20000 		movw	r0, #:lower16:wa
 134              		.loc 1 262 0
 135 0036 DCF81820 		ldr	r2, [ip, #24]
 136              		.loc 1 261 0
 137 003a C0F20000 		movt	r0, #:upper16:wa
 138 003e 9268     		ldr	r2, [r2, #8]
 139 0040 0068     		ldr	r0, [r0, #0]
 140 0042 03A9     		add	r1, sp, #12
 141 0044 40F20003 		movw	r3, #:lower16:thread4
 142 0048 013A     		subs	r2, r2, #1
 143 004a 0091     		str	r1, [sp, #0]
 144 004c C0F20003 		movt	r3, #:upper16:thread4
 145 0050 4FF4A871 		mov	r1, #336
 146 0054 FFF7FEFF 		bl	chThdCreateStatic
 147 0058 40F20003 		movw	r3, #:lower16:threads
 148 005c C0F20003 		movt	r3, #:upper16:threads
 149 0060 1860     		str	r0, [r3, #0]
 150              		.loc 1 265 0
 151 0062 03A8     		add	r0, sp, #12
 152 0064 FFF7FEFF 		bl	chSemWait
 153              		.loc 1 268 0
 154 0068 0599     		ldr	r1, [sp, #20]
 155 006a 0220     		movs	r0, #2
 156 006c 0029     		cmp	r1, #0
 157 006e CCBF     		ite	gt
 158 0070 0021     		movgt	r1, #0
 159 0072 0121     		movle	r1, #1
 160 0074 FFF7FEFF 		bl	_test_assert
 161 0078 0028     		cmp	r0, #0
 162 007a D4D1     		bne	.L4
 163              	.LBB2:
 164              		.loc 1 272 0
 165 007c 2023     		movs	r3, #32
 166              	.LVL0:
 167              	@ 272 "../../test/testsem.c" 1
 168 007e 83F31188 		msr     BASEPRI, r3
 169              	@ 0 "" 2
 170              	.LVL1:
 171              		.thumb
ARM GAS  /tmp/ccMKXTYz.s 			page 4


 172              	.LBE2:
 173 0082 059B     		ldr	r3, [sp, #20]
 174              	.LVL2:
 175 0084 002B     		cmp	r3, #0
 176 0086 3EDD     		ble	.L10
 177              	.L6:
 178              		.loc 1 272 0 is_stmt 0 discriminator 2
 179 0088 FFF7FEFF 		bl	chSchRescheduleS
 180              	.LBB3:
 181 008c 0023     		movs	r3, #0
 182              	.LVL3:
 183              	@ 272 "../../test/testsem.c" 1
 184 008e 83F31188 		msr     BASEPRI, r3
 185              	@ 0 "" 2
 186              	.LVL4:
 187              		.thumb
 188              	.LBE3:
 189              		.loc 1 273 0 is_stmt 1 discriminator 2
 190 0092 0599     		ldr	r1, [sp, #20]
 191 0094 0320     		movs	r0, #3
 192 0096 9942     		cmp	r1, r3
 193              	.LVL5:
 194 0098 D4BF     		ite	le
 195 009a 0021     		movle	r1, #0
 196 009c 0121     		movgt	r1, #1
 197 009e FFF7FEFF 		bl	_test_assert
 198 00a2 0028     		cmp	r0, #0
 199 00a4 BFD1     		bne	.L4
 200              		.loc 1 274 0
 201 00a6 059A     		ldr	r2, [sp, #20]
 202 00a8 A2F10101 		sub	r1, r2, #1
 203 00ac 0420     		movs	r0, #4
 204 00ae D1F1000E 		rsbs	lr, r1, #0
 205 00b2 4EEB0101 		adc	r1, lr, r1
 206 00b6 FFF7FEFF 		bl	_test_assert
 207 00ba 0028     		cmp	r0, #0
 208 00bc B3D1     		bne	.L4
 209              	.LBB4:
 210              		.loc 1 277 0
 211 00be 2023     		movs	r3, #32
 212              	.LVL6:
 213              	@ 277 "../../test/testsem.c" 1
 214 00c0 83F31188 		msr     BASEPRI, r3
 215              	@ 0 "" 2
 216              	.LVL7:
 217              		.thumb
 218              	.LBE4:
 219 00c4 0598     		ldr	r0, [sp, #20]
 220 00c6 0028     		cmp	r0, #0
 221 00c8 19DD     		ble	.L11
 222              	.L7:
 223              		.loc 1 277 0 is_stmt 0 discriminator 2
 224 00ca FFF7FEFF 		bl	chSchRescheduleS
 225              	.LVL8:
 226              	.LBB5:
 227 00ce 0023     		movs	r3, #0
 228              	.LVL9:
ARM GAS  /tmp/ccMKXTYz.s 			page 5


 229              	@ 277 "../../test/testsem.c" 1
 230 00d0 83F31188 		msr     BASEPRI, r3
 231              	@ 0 "" 2
 232              	.LVL10:
 233              		.thumb
 234              	.LBE5:
 235              		.loc 1 278 0 is_stmt 1 discriminator 2
 236 00d4 0599     		ldr	r1, [sp, #20]
 237 00d6 0320     		movs	r0, #3
 238 00d8 9942     		cmp	r1, r3
 239              	.LVL11:
 240 00da D4BF     		ite	le
 241 00dc 0021     		movle	r1, #0
 242 00de 0121     		movgt	r1, #1
 243 00e0 FFF7FEFF 		bl	_test_assert
 244 00e4 0028     		cmp	r0, #0
 245 00e6 9ED1     		bne	.L4
 246              		.loc 1 279 0
 247 00e8 0599     		ldr	r1, [sp, #20]
 248 00ea A1F10103 		sub	r3, r1, #1
 249 00ee 0520     		movs	r0, #5
 250 00f0 D3F1000C 		rsbs	ip, r3, #0
 251 00f4 4CEB0301 		adc	r1, ip, r3
 252 00f8 FFF7FEFF 		bl	_test_assert
 253 00fc 93E7     		b	.L4
 254              	.LVL12:
 255              	.L11:
 256              		.loc 1 277 0 discriminator 1
 257 00fe 03A8     		add	r0, sp, #12
 258 0100 FFF7FEFF 		bl	chSemSignalI
 259              	.LVL13:
 260 0104 E1E7     		b	.L7
 261              	.L10:
 262              		.loc 1 272 0 discriminator 1
 263 0106 03A8     		add	r0, sp, #12
 264 0108 FFF7FEFF 		bl	chSemSignalI
 265 010c BCE7     		b	.L6
 266              		.cfi_endproc
 267              	.LFE17:
 268              		.size	sem4_execute, .-sem4_execute
 269 010e 00BF     		.section	.text.thread4,"ax",%progbits
 270              		.align	2
 271              		.p2align 4,,15
 272              		.thumb
 273              		.thumb_func
 274              		.type	thread4, %function
 275              	thread4:
 276              	.LFB16:
 277              		.loc 1 246 0
 278              		.cfi_startproc
 279              		@ args = 0, pretend = 0, frame = 0
 280              		@ frame_needed = 0, uses_anonymous_args = 0
 281              	.LVL14:
 282 0000 08B5     		push	{r3, lr}
 283              	.LCFI2:
 284              		.cfi_def_cfa_offset 8
 285              		.cfi_offset 14, -4
ARM GAS  /tmp/ccMKXTYz.s 			page 6


 286              		.cfi_offset 3, -8
 287              	.LBB6:
 288              		.loc 1 248 0
 289 0002 2023     		movs	r3, #32
 290              	.LVL15:
 291              	@ 248 "../../test/testsem.c" 1
 292 0004 83F31188 		msr     BASEPRI, r3
 293              	@ 0 "" 2
 294              	.LVL16:
 295              		.thumb
 296              	.LBE6:
 297 0008 8368     		ldr	r3, [r0, #8]
 298              	.LVL17:
 299 000a 002B     		cmp	r3, #0
 300 000c 06DD     		ble	.L14
 301              		.loc 1 248 0 is_stmt 0 discriminator 2
 302 000e FFF7FEFF 		bl	chSchRescheduleS
 303              	.LVL18:
 304              	.LBB7:
 305 0012 0023     		movs	r3, #0
 306              	.LVL19:
 307              	@ 248 "../../test/testsem.c" 1
 308 0014 83F31188 		msr     BASEPRI, r3
 309              	@ 0 "" 2
 310              	.LVL20:
 311              		.thumb
 312              	.LBE7:
 313              		.loc 1 250 0 is_stmt 1 discriminator 2
 314 0018 1846     		mov	r0, r3
 315 001a 08BD     		pop	{r3, pc}
 316              	.LVL21:
 317              	.L14:
 318              		.loc 1 248 0 discriminator 1
 319 001c FFF7FEFF 		bl	chSemSignalI
 320              	.LVL22:
 321 0020 FFF7FEFF 		bl	chSchRescheduleS
 322              	.LBB8:
 323 0024 0023     		movs	r3, #0
 324              	@ 248 "../../test/testsem.c" 1
 325 0026 83F31188 		msr     BASEPRI, r3
 326              	@ 0 "" 2
 327              	.LVL23:
 328              		.thumb
 329              	.LBE8:
 330              		.loc 1 250 0 discriminator 1
 331 002a 1846     		mov	r0, r3
 332 002c 08BD     		pop	{r3, pc}
 333              		.cfi_endproc
 334              	.LFE16:
 335              		.size	thread4, .-thread4
 336 002e 00BF     		.section	.text.thread3,"ax",%progbits
 337              		.align	2
 338              		.p2align 4,,15
 339              		.thumb
 340              		.thumb_func
 341              		.type	thread3, %function
 342              	thread3:
ARM GAS  /tmp/ccMKXTYz.s 			page 7


 343              	.LFB14:
 344              		.loc 1 210 0
 345              		.cfi_startproc
 346              		@ args = 0, pretend = 0, frame = 0
 347              		@ frame_needed = 0, uses_anonymous_args = 0
 348              	.LVL24:
 349 0000 10B5     		push	{r4, lr}
 350              	.LCFI3:
 351              		.cfi_def_cfa_offset 8
 352              		.cfi_offset 14, -4
 353              		.cfi_offset 4, -8
 354              		.loc 1 213 0
 355 0002 40F20004 		movw	r4, #:lower16:.LANCHOR0
 356 0006 C0F20004 		movt	r4, #:upper16:.LANCHOR0
 357 000a 2046     		mov	r0, r4
 358              	.LVL25:
 359 000c FFF7FEFF 		bl	chSemWait
 360              		.loc 1 214 0
 361 0010 2046     		mov	r0, r4
 362 0012 FFF7FEFF 		bl	chSemSignal
 363              		.loc 1 216 0
 364 0016 0020     		movs	r0, #0
 365 0018 10BD     		pop	{r4, pc}
 366              		.cfi_endproc
 367              	.LFE14:
 368              		.size	thread3, .-thread3
 369 001a 00BFAFF3 		.section	.text.thread1,"ax",%progbits
 369      0080
 370              		.align	2
 371              		.p2align 4,,15
 372              		.thumb
 373              		.thumb_func
 374              		.type	thread1, %function
 375              	thread1:
 376              	.LFB8:
 377              		.loc 1 77 0
 378              		.cfi_startproc
 379              		@ args = 0, pretend = 0, frame = 0
 380              		@ frame_needed = 0, uses_anonymous_args = 0
 381              	.LVL26:
 382 0000 10B5     		push	{r4, lr}
 383              	.LCFI4:
 384              		.cfi_def_cfa_offset 8
 385              		.cfi_offset 14, -4
 386              		.cfi_offset 4, -8
 387              		.loc 1 77 0
 388 0002 0446     		mov	r4, r0
 389              		.loc 1 79 0
 390 0004 40F20000 		movw	r0, #:lower16:.LANCHOR0
 391              	.LVL27:
 392 0008 C0F20000 		movt	r0, #:upper16:.LANCHOR0
 393 000c FFF7FEFF 		bl	chSemWait
 394              		.loc 1 80 0
 395 0010 2078     		ldrb	r0, [r4, #0]	@ zero_extendqisi2
 396 0012 FFF7FEFF 		bl	test_emit_token
 397              		.loc 1 82 0
 398 0016 0020     		movs	r0, #0
ARM GAS  /tmp/ccMKXTYz.s 			page 8


 399 0018 10BD     		pop	{r4, pc}
 400              		.cfi_endproc
 401              	.LFE8:
 402              		.size	thread1, .-thread1
 403 001a 00BFAFF3 		.section	.text.thread2,"ax",%progbits
 403      0080
 404              		.align	2
 405              		.p2align 4,,15
 406              		.thumb
 407              		.thumb_func
 408              		.type	thread2, %function
 409              	thread2:
 410              	.LFB11:
 411              		.loc 1 134 0
 412              		.cfi_startproc
 413              		@ args = 0, pretend = 0, frame = 0
 414              		@ frame_needed = 0, uses_anonymous_args = 0
 415              	.LVL28:
 416 0000 08B5     		push	{r3, lr}
 417              	.LCFI5:
 418              		.cfi_def_cfa_offset 8
 419              		.cfi_offset 14, -4
 420              		.cfi_offset 3, -8
 421              		.loc 1 137 0
 422 0002 3220     		movs	r0, #50
 423              	.LVL29:
 424 0004 FFF7FEFF 		bl	chThdSleep
 425              	.LBB9:
 426              		.loc 1 138 0
 427 0008 2023     		movs	r3, #32
 428              	.LVL30:
 429              	@ 138 "../../test/testsem.c" 1
 430 000a 83F31188 		msr     BASEPRI, r3
 431              	@ 0 "" 2
 432              	.LVL31:
 433              		.thumb
 434              	.LBE9:
 435              		.loc 1 139 0
 436 000e 40F20000 		movw	r0, #:lower16:.LANCHOR0
 437 0012 C0F20000 		movt	r0, #:upper16:.LANCHOR0
 438 0016 FFF7FEFF 		bl	chSemSignalI
 439              	.LVL32:
 440              		.loc 1 140 0
 441 001a FFF7FEFF 		bl	chSchRescheduleS
 442              	.LBB10:
 443              		.loc 1 141 0
 444 001e 0023     		movs	r3, #0
 445              	.LVL33:
 446              	@ 141 "../../test/testsem.c" 1
 447 0020 83F31188 		msr     BASEPRI, r3
 448              	@ 0 "" 2
 449              	.LVL34:
 450              		.thumb
 451              	.LBE10:
 452              		.loc 1 143 0
 453 0024 1846     		mov	r0, r3
 454 0026 08BD     		pop	{r3, pc}
ARM GAS  /tmp/ccMKXTYz.s 			page 9


 455              		.cfi_endproc
 456              	.LFE11:
 457              		.size	thread2, .-thread2
 458 0028 AFF30080 		.section	.text.sem1_execute,"ax",%progbits
 458      AFF30080 
 459              		.align	2
 460              		.p2align 4,,15
 461              		.thumb
 462              		.thumb_func
 463              		.type	sem1_execute, %function
 464              	sem1_execute:
 465              	.LFB9:
 466              		.loc 1 84 0
 467              		.cfi_startproc
 468              		@ args = 0, pretend = 0, frame = 0
 469              		@ frame_needed = 0, uses_anonymous_args = 0
 470 0000 2DE9F043 		push	{r4, r5, r6, r7, r8, r9, lr}
 471              	.LCFI6:
 472              		.cfi_def_cfa_offset 28
 473              		.cfi_offset 14, -4
 474              		.cfi_offset 9, -8
 475              		.cfi_offset 8, -12
 476              		.cfi_offset 7, -16
 477              		.cfi_offset 6, -20
 478              		.cfi_offset 5, -24
 479              		.cfi_offset 4, -28
 480              		.loc 1 86 0
 481 0004 40F20006 		movw	r6, #:lower16:rlist
 482 0008 C0F20006 		movt	r6, #:upper16:rlist
 483 000c 40F20008 		movw	r8, #:lower16:wa
 484 0010 C0F20008 		movt	r8, #:upper16:wa
 485 0014 B769     		ldr	r7, [r6, #24]
 486 0016 D8F80090 		ldr	r9, [r8, #0]
 487 001a B868     		ldr	r0, [r7, #8]
 488              		.loc 1 84 0
 489 001c 83B0     		sub	sp, sp, #12
 490              	.LCFI7:
 491              		.cfi_def_cfa_offset 40
 492              		.loc 1 86 0
 493 001e 40F20007 		movw	r7, #:lower16:.LC0
 494 0022 40F20003 		movw	r3, #:lower16:thread1
 495 0026 421D     		adds	r2, r0, #5
 496 0028 4FF4A871 		mov	r1, #336
 497 002c C0F20003 		movt	r3, #:upper16:thread1
 498 0030 C0F20007 		movt	r7, #:upper16:.LC0
 499 0034 4846     		mov	r0, r9
 500 0036 0097     		str	r7, [sp, #0]
 501 0038 FFF7FEFF 		bl	chThdCreateStatic
 502              		.loc 1 87 0
 503 003c B569     		ldr	r5, [r6, #24]
 504 003e D8F804C0 		ldr	ip, [r8, #4]
 505 0042 AC68     		ldr	r4, [r5, #8]
 506              		.loc 1 86 0
 507 0044 40F20005 		movw	r5, #:lower16:threads
 508 0048 C0F20005 		movt	r5, #:upper16:threads
 509              		.loc 1 87 0
 510 004c 40F2000E 		movw	lr, #:lower16:.LC1
ARM GAS  /tmp/ccMKXTYz.s 			page 10


 511 0050 40F20003 		movw	r3, #:lower16:thread1
 512              		.loc 1 86 0
 513 0054 2860     		str	r0, [r5, #0]
 514              		.loc 1 87 0
 515 0056 C0F2000E 		movt	lr, #:upper16:.LC1
 516 005a 621C     		adds	r2, r4, #1
 517 005c 4FF4A871 		mov	r1, #336
 518 0060 C0F20003 		movt	r3, #:upper16:thread1
 519 0064 6046     		mov	r0, ip
 520 0066 CDF800E0 		str	lr, [sp, #0]
 521 006a FFF7FEFF 		bl	chThdCreateStatic
 522              		.loc 1 88 0
 523 006e B369     		ldr	r3, [r6, #24]
 524 0070 D8F808C0 		ldr	ip, [r8, #8]
 525 0074 9A68     		ldr	r2, [r3, #8]
 526              		.loc 1 87 0
 527 0076 6860     		str	r0, [r5, #4]
 528              		.loc 1 88 0
 529 0078 40F2000E 		movw	lr, #:lower16:.LC2
 530 007c 40F20003 		movw	r3, #:lower16:thread1
 531 0080 C0F2000E 		movt	lr, #:upper16:.LC2
 532 0084 4FF4A871 		mov	r1, #336
 533 0088 0332     		adds	r2, r2, #3
 534 008a C0F20003 		movt	r3, #:upper16:thread1
 535 008e 6046     		mov	r0, ip
 536 0090 CDF800E0 		str	lr, [sp, #0]
 537 0094 FFF7FEFF 		bl	chThdCreateStatic
 538              		.loc 1 89 0
 539 0098 B169     		ldr	r1, [r6, #24]
 540 009a D8F80CC0 		ldr	ip, [r8, #12]
 541 009e 8C68     		ldr	r4, [r1, #8]
 542              		.loc 1 88 0
 543 00a0 A860     		str	r0, [r5, #8]
 544              		.loc 1 89 0
 545 00a2 40F2000E 		movw	lr, #:lower16:.LC3
 546 00a6 40F20003 		movw	r3, #:lower16:thread1
 547 00aa 6046     		mov	r0, ip
 548 00ac C0F2000E 		movt	lr, #:upper16:.LC3
 549 00b0 221D     		adds	r2, r4, #4
 550 00b2 4FF4A871 		mov	r1, #336
 551 00b6 C0F20003 		movt	r3, #:upper16:thread1
 552 00ba CDF800E0 		str	lr, [sp, #0]
 553 00be FFF7FEFF 		bl	chThdCreateStatic
 554              		.loc 1 90 0
 555 00c2 B369     		ldr	r3, [r6, #24]
 556 00c4 D8F810E0 		ldr	lr, [r8, #16]
 557 00c8 9A68     		ldr	r2, [r3, #8]
 558              		.loc 1 89 0
 559 00ca E860     		str	r0, [r5, #12]
 560              		.loc 1 90 0
 561 00cc 40F20004 		movw	r4, #:lower16:.LC4
 562 00d0 40F20003 		movw	r3, #:lower16:thread1
 563 00d4 4FF4A871 		mov	r1, #336
 564 00d8 0232     		adds	r2, r2, #2
 565 00da C0F20003 		movt	r3, #:upper16:thread1
 566 00de 7046     		mov	r0, lr
 567 00e0 C0F20004 		movt	r4, #:upper16:.LC4
ARM GAS  /tmp/ccMKXTYz.s 			page 11


 568 00e4 0094     		str	r4, [sp, #0]
 569 00e6 FFF7FEFF 		bl	chThdCreateStatic
 570              		.loc 1 91 0
 571 00ea 40F20004 		movw	r4, #:lower16:.LANCHOR0
 572 00ee C0F20004 		movt	r4, #:upper16:.LANCHOR0
 573              		.loc 1 90 0
 574 00f2 2861     		str	r0, [r5, #16]
 575              		.loc 1 91 0
 576 00f4 2046     		mov	r0, r4
 577 00f6 FFF7FEFF 		bl	chSemSignal
 578              		.loc 1 92 0
 579 00fa 2046     		mov	r0, r4
 580 00fc FFF7FEFF 		bl	chSemSignal
 581              		.loc 1 93 0
 582 0100 2046     		mov	r0, r4
 583 0102 FFF7FEFF 		bl	chSemSignal
 584              		.loc 1 94 0
 585 0106 2046     		mov	r0, r4
 586 0108 FFF7FEFF 		bl	chSemSignal
 587              		.loc 1 95 0
 588 010c 2046     		mov	r0, r4
 589 010e FFF7FEFF 		bl	chSemSignal
 590              		.loc 1 96 0
 591 0112 FFF7FEFF 		bl	test_wait_threads
 592              		.loc 1 100 0
 593 0116 40F20001 		movw	r1, #:lower16:.LC5
 594 011a 0120     		movs	r0, #1
 595 011c C0F20001 		movt	r1, #:upper16:.LC5
 596 0120 FFF7FEFF 		bl	_test_assert_sequence
 597 0124 8046     		mov	r8, r0
 598 0126 10B1     		cbz	r0, .L20
 599              		.loc 1 109 0
 600 0128 03B0     		add	sp, sp, #12
 601 012a BDE8F083 		pop	{r4, r5, r6, r7, r8, r9, pc}
 602              	.L20:
 603              		.loc 1 102 0
 604 012e B369     		ldr	r3, [r6, #24]
 605 0130 9A68     		ldr	r2, [r3, #8]
 606 0132 0097     		str	r7, [sp, #0]
 607 0134 40F20003 		movw	r3, #:lower16:thread1
 608 0138 4846     		mov	r0, r9
 609 013a 4FF4A871 		mov	r1, #336
 610 013e 0532     		adds	r2, r2, #5
 611 0140 C0F20003 		movt	r3, #:upper16:thread1
 612 0144 FFF7FEFF 		bl	chThdCreateStatic
 613              	.LBB11:
 614              		.loc 1 103 0
 615 0148 2023     		movs	r3, #32
 616              	.LVL35:
 617              	.LBE11:
 618              		.loc 1 102 0
 619 014a 2860     		str	r0, [r5, #0]
 620              	.LBB12:
 621              		.loc 1 103 0
 622              	@ 103 "../../test/testsem.c" 1
 623 014c 83F31188 		msr     BASEPRI, r3
 624              	@ 0 "" 2
ARM GAS  /tmp/ccMKXTYz.s 			page 12


 625              	.LVL36:
 626              		.thumb
 627              	.LBE12:
 628              		.loc 1 104 0
 629 0150 0221     		movs	r1, #2
 630 0152 2046     		mov	r0, r4
 631 0154 FFF7FEFF 		bl	chSemAddCounterI
 632              	.LVL37:
 633              		.loc 1 105 0
 634 0158 FFF7FEFF 		bl	chSchRescheduleS
 635              	.LBB13:
 636              		.loc 1 106 0
 637 015c 4346     		mov	r3, r8
 638              	.LVL38:
 639              	@ 106 "../../test/testsem.c" 1
 640 015e 83F31188 		msr     BASEPRI, r3
 641              	@ 0 "" 2
 642              	.LVL39:
 643              		.thumb
 644              	.LBE13:
 645              		.loc 1 107 0
 646 0162 FFF7FEFF 		bl	test_wait_threads
 647              	.LVL40:
 648              		.loc 1 108 0
 649 0166 A268     		ldr	r2, [r4, #8]
 650 0168 A2F1010E 		sub	lr, r2, #1
 651 016c 0220     		movs	r0, #2
 652 016e DEF10001 		rsbs	r1, lr, #0
 653 0172 41EB0E01 		adc	r1, r1, lr
 654              		.loc 1 109 0
 655 0176 03B0     		add	sp, sp, #12
 656 0178 BDE8F043 		pop	{r4, r5, r6, r7, r8, r9, lr}
 657              		.loc 1 108 0
 658 017c FFF7FEBF 		b	_test_assert
 659              		.cfi_endproc
 660              	.LFE9:
 661              		.size	sem1_execute, .-sem1_execute
 662              		.section	.text.sem3_execute,"ax",%progbits
 663              		.align	2
 664              		.p2align 4,,15
 665              		.thumb
 666              		.thumb_func
 667              		.type	sem3_execute, %function
 668              	sem3_execute:
 669              	.LFB15:
 670              		.loc 1 218 0
 671              		.cfi_startproc
 672              		@ args = 0, pretend = 0, frame = 0
 673              		@ frame_needed = 0, uses_anonymous_args = 0
 674 0000 10B5     		push	{r4, lr}
 675              	.LCFI8:
 676              		.cfi_def_cfa_offset 8
 677              		.cfi_offset 14, -4
 678              		.cfi_offset 4, -8
 679              		.loc 1 220 0
 680 0002 40F2000E 		movw	lr, #:lower16:rlist
 681 0006 C0F2000E 		movt	lr, #:upper16:rlist
ARM GAS  /tmp/ccMKXTYz.s 			page 13


 682 000a 40F20000 		movw	r0, #:lower16:wa
 683 000e DEF81810 		ldr	r1, [lr, #24]
 684 0012 C0F20000 		movt	r0, #:upper16:wa
 685 0016 8A68     		ldr	r2, [r1, #8]
 686 0018 0068     		ldr	r0, [r0, #0]
 687              		.loc 1 218 0
 688 001a 82B0     		sub	sp, sp, #8
 689              	.LCFI9:
 690              		.cfi_def_cfa_offset 16
 691              		.loc 1 220 0
 692 001c 40F20003 		movw	r3, #:lower16:thread3
 693 0020 0132     		adds	r2, r2, #1
 694 0022 C0F20003 		movt	r3, #:upper16:thread3
 695 0026 0024     		movs	r4, #0
 696 0028 4FF4A871 		mov	r1, #336
 697 002c 0094     		str	r4, [sp, #0]
 698 002e FFF7FEFF 		bl	chThdCreateStatic
 699 0032 40F2000C 		movw	ip, #:lower16:threads
 700 0036 C0F2000C 		movt	ip, #:upper16:threads
 701              		.loc 1 221 0
 702 003a 40F20004 		movw	r4, #:lower16:.LANCHOR0
 703 003e C0F20004 		movt	r4, #:upper16:.LANCHOR0
 704              		.loc 1 220 0
 705 0042 CCF80000 		str	r0, [ip, #0]
 706              		.loc 1 221 0
 707 0046 2146     		mov	r1, r4
 708 0048 2046     		mov	r0, r4
 709 004a FFF7FEFF 		bl	chSemSignalWait
 710              		.loc 1 222 0
 711 004e 2268     		ldr	r2, [r4, #0]
 712 0050 131B     		subs	r3, r2, r4
 713 0052 0120     		movs	r0, #1
 714 0054 5942     		rsbs	r1, r3, #0
 715 0056 41EB0301 		adc	r1, r1, r3
 716 005a FFF7FEFF 		bl	_test_assert
 717 005e 08B1     		cbz	r0, .L23
 718              	.L21:
 719              		.loc 1 228 0
 720 0060 02B0     		add	sp, sp, #8
 721 0062 10BD     		pop	{r4, pc}
 722              	.L23:
 723              		.loc 1 223 0
 724 0064 A368     		ldr	r3, [r4, #8]
 725 0066 0220     		movs	r0, #2
 726 0068 D3F10101 		rsbs	r1, r3, #1
 727 006c 38BF     		it	cc
 728 006e 0021     		movcc	r1, #0
 729 0070 FFF7FEFF 		bl	_test_assert
 730 0074 0028     		cmp	r0, #0
 731 0076 F3D1     		bne	.L21
 732              	.LBB16:
 733              	.LBB17:
 734              		.loc 1 225 0
 735 0078 2146     		mov	r1, r4
 736 007a 2046     		mov	r0, r4
 737 007c FFF7FEFF 		bl	chSemSignalWait
 738              		.loc 1 226 0
ARM GAS  /tmp/ccMKXTYz.s 			page 14


 739 0080 2368     		ldr	r3, [r4, #0]
 740 0082 191B     		subs	r1, r3, r4
 741 0084 0320     		movs	r0, #3
 742 0086 4A42     		rsbs	r2, r1, #0
 743 0088 42EB0101 		adc	r1, r2, r1
 744 008c FFF7FEFF 		bl	_test_assert
 745 0090 0028     		cmp	r0, #0
 746 0092 E5D1     		bne	.L21
 747              		.loc 1 227 0
 748 0094 A268     		ldr	r2, [r4, #8]
 749 0096 0420     		movs	r0, #4
 750 0098 D2F10101 		rsbs	r1, r2, #1
 751 009c 38BF     		it	cc
 752 009e 0021     		movcc	r1, #0
 753              	.LBE17:
 754              	.LBE16:
 755              		.loc 1 228 0
 756 00a0 02B0     		add	sp, sp, #8
 757 00a2 BDE81040 		pop	{r4, lr}
 758              	.LBB19:
 759              	.LBB18:
 760              		.loc 1 227 0
 761 00a6 FFF7FEBF 		b	_test_assert
 762              	.LBE18:
 763              	.LBE19:
 764              		.cfi_endproc
 765              	.LFE15:
 766              		.size	sem3_execute, .-sem3_execute
 767 00aa 00BFAFF3 		.section	.text.sem2_execute,"ax",%progbits
 767      0080
 768              		.align	2
 769              		.p2align 4,,15
 770              		.thumb
 771              		.thumb_func
 772              		.type	sem2_execute, %function
 773              	sem2_execute:
 774              	.LFB12:
 775              		.loc 1 145 0
 776              		.cfi_startproc
 777              		@ args = 0, pretend = 0, frame = 0
 778              		@ frame_needed = 0, uses_anonymous_args = 0
 779 0000 70B5     		push	{r4, r5, r6, lr}
 780              	.LCFI10:
 781              		.cfi_def_cfa_offset 16
 782              		.cfi_offset 14, -4
 783              		.cfi_offset 6, -8
 784              		.cfi_offset 5, -12
 785              		.cfi_offset 4, -16
 786              		.loc 1 153 0
 787 0002 40F20004 		movw	r4, #:lower16:.LANCHOR0
 788 0006 C0F20004 		movt	r4, #:upper16:.LANCHOR0
 789 000a 0021     		movs	r1, #0
 790              		.loc 1 145 0
 791 000c 82B0     		sub	sp, sp, #8
 792              	.LCFI11:
 793              		.cfi_def_cfa_offset 24
 794              		.loc 1 153 0
ARM GAS  /tmp/ccMKXTYz.s 			page 15


 795 000e 2046     		mov	r0, r4
 796 0010 FFF7FEFF 		bl	chSemWaitTimeout
 797              	.LVL41:
 798              		.loc 1 154 0
 799 0014 A0F1FF33 		sub	r3, r0, #-1
 800 0018 5942     		rsbs	r1, r3, #0
 801 001a 41EB0301 		adc	r1, r1, r3
 802 001e 0120     		movs	r0, #1
 803              	.LVL42:
 804 0020 FFF7FEFF 		bl	_test_assert
 805              	.LVL43:
 806 0024 08B1     		cbz	r0, .L26
 807              	.L24:
 808              		.loc 1 183 0
 809 0026 02B0     		add	sp, sp, #8
 810 0028 70BD     		pop	{r4, r5, r6, pc}
 811              	.L26:
 812              		.loc 1 155 0
 813 002a 2368     		ldr	r3, [r4, #0]
 814 002c 191B     		subs	r1, r3, r4
 815 002e 0220     		movs	r0, #2
 816 0030 4A42     		rsbs	r2, r1, #0
 817 0032 42EB0101 		adc	r1, r2, r1
 818 0036 FFF7FEFF 		bl	_test_assert
 819 003a 0028     		cmp	r0, #0
 820 003c F3D1     		bne	.L24
 821              		.loc 1 156 0
 822 003e A268     		ldr	r2, [r4, #8]
 823 0040 0320     		movs	r0, #3
 824 0042 D2F10101 		rsbs	r1, r2, #1
 825 0046 38BF     		it	cc
 826 0048 0021     		movcc	r1, #0
 827 004a FFF7FEFF 		bl	_test_assert
 828 004e 0028     		cmp	r0, #0
 829 0050 E9D1     		bne	.L24
 830              	.LBB22:
 831              	.LBB23:
 832              		.loc 1 161 0
 833 0052 40F2000E 		movw	lr, #:lower16:rlist
 834 0056 C0F2000E 		movt	lr, #:upper16:rlist
 835 005a 40F2000C 		movw	ip, #:lower16:wa
 836 005e DEF81820 		ldr	r2, [lr, #24]
 837 0062 C0F2000C 		movt	ip, #:upper16:wa
 838 0066 9168     		ldr	r1, [r2, #8]
 839 0068 DCF80050 		ldr	r5, [ip, #0]
 840 006c 0090     		str	r0, [sp, #0]
 841 006e 40F20003 		movw	r3, #:lower16:thread2
 842 0072 4A1E     		subs	r2, r1, #1
 843 0074 C0F20003 		movt	r3, #:upper16:thread2
 844 0078 4FF4A871 		mov	r1, #336
 845 007c 2846     		mov	r0, r5
 846 007e FFF7FEFF 		bl	chThdCreateStatic
 847 0082 40F20005 		movw	r5, #:lower16:threads
 848 0086 C0F20005 		movt	r5, #:upper16:threads
 849              		.loc 1 163 0
 850 008a 4FF4FA71 		mov	r1, #500
 851              		.loc 1 161 0
ARM GAS  /tmp/ccMKXTYz.s 			page 16


 852 008e 2860     		str	r0, [r5, #0]
 853              		.loc 1 163 0
 854 0090 2046     		mov	r0, r4
 855 0092 FFF7FEFF 		bl	chSemWaitTimeout
 856 0096 0546     		mov	r5, r0
 857              	.LVL44:
 858              		.loc 1 164 0
 859 0098 FFF7FEFF 		bl	test_wait_threads
 860              	.LVL45:
 861              		.loc 1 165 0
 862 009c 0420     		movs	r0, #4
 863 009e D5F10101 		rsbs	r1, r5, #1
 864 00a2 38BF     		it	cc
 865 00a4 0021     		movcc	r1, #0
 866 00a6 FFF7FEFF 		bl	_test_assert
 867 00aa 0028     		cmp	r0, #0
 868 00ac BBD1     		bne	.L24
 869              		.loc 1 166 0
 870 00ae 2268     		ldr	r2, [r4, #0]
 871 00b0 111B     		subs	r1, r2, r4
 872 00b2 0520     		movs	r0, #5
 873 00b4 4B42     		rsbs	r3, r1, #0
 874 00b6 43EB0101 		adc	r1, r3, r1
 875 00ba FFF7FEFF 		bl	_test_assert
 876 00be 0028     		cmp	r0, #0
 877 00c0 B1D1     		bne	.L24
 878              		.loc 1 167 0
 879 00c2 A368     		ldr	r3, [r4, #8]
 880 00c4 0620     		movs	r0, #6
 881 00c6 D3F10101 		rsbs	r1, r3, #1
 882 00ca 38BF     		it	cc
 883 00cc 0021     		movcc	r1, #0
 884 00ce FFF7FEFF 		bl	_test_assert
 885 00d2 0028     		cmp	r0, #0
 886 00d4 A7D1     		bne	.L24
 887              		.loc 1 173 0
 888 00d6 40F20006 		movw	r6, #:lower16:vtlist
 889 00da C0F20006 		movt	r6, #:upper16:vtlist
 890              		.loc 1 172 0
 891 00de FFF7FEFF 		bl	test_wait_tick
 892              		.loc 1 175 0
 893 00e2 4120     		movs	r0, #65
 894              		.loc 1 173 0
 895 00e4 F668     		ldr	r6, [r6, #12]
 896              	.LVL46:
 897              		.loc 1 175 0
 898 00e6 FFF7FEFF 		bl	test_emit_token
 899              		.loc 1 176 0
 900 00ea 4FF4FA71 		mov	r1, #500
 901 00ee 2046     		mov	r0, r4
 902 00f0 FFF7FEFF 		bl	chSemWaitTimeout
 903              	.LVL47:
 904              		.loc 1 177 0
 905 00f4 A0F1FF31 		sub	r1, r0, #-1
 906 00f8 4842     		rsbs	r0, r1, #0
 907              	.LVL48:
 908 00fa 40EB0101 		adc	r1, r0, r1
ARM GAS  /tmp/ccMKXTYz.s 			page 17


 909              	.LVL49:
 910 00fe 0720     		movs	r0, #7
 911 0100 FFF7FEFF 		bl	_test_assert
 912 0104 0028     		cmp	r0, #0
 913 0106 8ED1     		bne	.L24
 914              		.loc 1 178 0
 915 0108 2368     		ldr	r3, [r4, #0]
 916 010a C4EB030C 		rsb	ip, r4, r3
 917 010e 0820     		movs	r0, #8
 918 0110 DCF10002 		rsbs	r2, ip, #0
 919 0114 42EB0C01 		adc	r1, r2, ip
 920 0118 FFF7FEFF 		bl	_test_assert
 921 011c 0028     		cmp	r0, #0
 922 011e 82D1     		bne	.L24
 923              		.loc 1 179 0
 924 0120 A168     		ldr	r1, [r4, #8]
 925 0122 0920     		movs	r0, #9
 926 0124 D1F10101 		rsbs	r1, r1, #1
 927 0128 38BF     		it	cc
 928 012a 0021     		movcc	r1, #0
 929 012c FFF7FEFF 		bl	_test_assert
 930 0130 0028     		cmp	r0, #0
 931 0132 7FF478AF 		bne	.L24
 932              	.LVL50:
 933              		.loc 1 175 0
 934 0136 4220     		movs	r0, #66
 935 0138 FFF7FEFF 		bl	test_emit_token
 936              		.loc 1 176 0
 937 013c 4FF4FA71 		mov	r1, #500
 938 0140 2046     		mov	r0, r4
 939 0142 FFF7FEFF 		bl	chSemWaitTimeout
 940              	.LVL51:
 941              		.loc 1 177 0
 942 0146 A0F1FF32 		sub	r2, r0, #-1
 943 014a 5042     		rsbs	r0, r2, #0
 944              	.LVL52:
 945 014c 40EB0201 		adc	r1, r0, r2
 946 0150 0720     		movs	r0, #7
 947 0152 FFF7FEFF 		bl	_test_assert
 948              	.LVL53:
 949 0156 0028     		cmp	r0, #0
 950 0158 7FF465AF 		bne	.L24
 951              		.loc 1 178 0
 952 015c 2268     		ldr	r2, [r4, #0]
 953 015e 111B     		subs	r1, r2, r4
 954 0160 0820     		movs	r0, #8
 955 0162 4B42     		rsbs	r3, r1, #0
 956 0164 43EB0101 		adc	r1, r3, r1
 957 0168 FFF7FEFF 		bl	_test_assert
 958 016c 0028     		cmp	r0, #0
 959 016e 7FF45AAF 		bne	.L24
 960              		.loc 1 179 0
 961 0172 A368     		ldr	r3, [r4, #8]
 962 0174 0920     		movs	r0, #9
 963 0176 D3F10101 		rsbs	r1, r3, #1
 964 017a 38BF     		it	cc
 965 017c 0021     		movcc	r1, #0
ARM GAS  /tmp/ccMKXTYz.s 			page 18


 966 017e FFF7FEFF 		bl	_test_assert
 967 0182 0028     		cmp	r0, #0
 968 0184 7FF44FAF 		bne	.L24
 969              	.LVL54:
 970              		.loc 1 175 0
 971 0188 4320     		movs	r0, #67
 972 018a FFF7FEFF 		bl	test_emit_token
 973              		.loc 1 176 0
 974 018e 4FF4FA71 		mov	r1, #500
 975 0192 2046     		mov	r0, r4
 976 0194 FFF7FEFF 		bl	chSemWaitTimeout
 977              	.LVL55:
 978              		.loc 1 177 0
 979 0198 A0F1FF31 		sub	r1, r0, #-1
 980 019c 4842     		rsbs	r0, r1, #0
 981              	.LVL56:
 982 019e 40EB0101 		adc	r1, r0, r1
 983              	.LVL57:
 984 01a2 0720     		movs	r0, #7
 985 01a4 FFF7FEFF 		bl	_test_assert
 986 01a8 0028     		cmp	r0, #0
 987 01aa 7FF43CAF 		bne	.L24
 988              		.loc 1 178 0
 989 01ae 2368     		ldr	r3, [r4, #0]
 990 01b0 C4EB030E 		rsb	lr, r4, r3
 991 01b4 0820     		movs	r0, #8
 992 01b6 DEF10002 		rsbs	r2, lr, #0
 993 01ba 42EB0E01 		adc	r1, r2, lr
 994 01be FFF7FEFF 		bl	_test_assert
 995 01c2 0028     		cmp	r0, #0
 996 01c4 7FF42FAF 		bne	.L24
 997              		.loc 1 179 0
 998 01c8 A168     		ldr	r1, [r4, #8]
 999 01ca 0920     		movs	r0, #9
 1000 01cc D1F10101 		rsbs	r1, r1, #1
 1001 01d0 38BF     		it	cc
 1002 01d2 0021     		movcc	r1, #0
 1003 01d4 FFF7FEFF 		bl	_test_assert
 1004 01d8 0028     		cmp	r0, #0
 1005 01da 7FF424AF 		bne	.L24
 1006              	.LVL58:
 1007              		.loc 1 175 0
 1008 01de 4420     		movs	r0, #68
 1009 01e0 FFF7FEFF 		bl	test_emit_token
 1010              		.loc 1 176 0
 1011 01e4 4FF4FA71 		mov	r1, #500
 1012 01e8 2046     		mov	r0, r4
 1013 01ea FFF7FEFF 		bl	chSemWaitTimeout
 1014              	.LVL59:
 1015              		.loc 1 177 0
 1016 01ee A0F1FF32 		sub	r2, r0, #-1
 1017 01f2 5042     		rsbs	r0, r2, #0
 1018              	.LVL60:
 1019 01f4 40EB0201 		adc	r1, r0, r2
 1020 01f8 0720     		movs	r0, #7
 1021 01fa FFF7FEFF 		bl	_test_assert
 1022              	.LVL61:
ARM GAS  /tmp/ccMKXTYz.s 			page 19


 1023 01fe 0028     		cmp	r0, #0
 1024 0200 7FF411AF 		bne	.L24
 1025              		.loc 1 178 0
 1026 0204 2268     		ldr	r2, [r4, #0]
 1027 0206 111B     		subs	r1, r2, r4
 1028 0208 0820     		movs	r0, #8
 1029 020a 4B42     		rsbs	r3, r1, #0
 1030 020c 43EB0101 		adc	r1, r3, r1
 1031 0210 FFF7FEFF 		bl	_test_assert
 1032 0214 0028     		cmp	r0, #0
 1033 0216 7FF406AF 		bne	.L24
 1034              		.loc 1 179 0
 1035 021a A368     		ldr	r3, [r4, #8]
 1036 021c 0920     		movs	r0, #9
 1037 021e D3F10101 		rsbs	r1, r3, #1
 1038 0222 38BF     		it	cc
 1039 0224 0021     		movcc	r1, #0
 1040 0226 FFF7FEFF 		bl	_test_assert
 1041 022a 0028     		cmp	r0, #0
 1042 022c 7FF4FBAE 		bne	.L24
 1043              	.LVL62:
 1044              		.loc 1 175 0
 1045 0230 4520     		movs	r0, #69
 1046 0232 FFF7FEFF 		bl	test_emit_token
 1047              		.loc 1 176 0
 1048 0236 4FF4FA71 		mov	r1, #500
 1049 023a 2046     		mov	r0, r4
 1050 023c FFF7FEFF 		bl	chSemWaitTimeout
 1051              	.LVL63:
 1052              		.loc 1 177 0
 1053 0240 A0F1FF30 		sub	r0, r0, #-1
 1054              	.LVL64:
 1055 0244 D0F1000C 		rsbs	ip, r0, #0
 1056 0248 4CEB0001 		adc	r1, ip, r0
 1057 024c 0720     		movs	r0, #7
 1058              	.LVL65:
 1059 024e FFF7FEFF 		bl	_test_assert
 1060 0252 0028     		cmp	r0, #0
 1061 0254 7FF4E7AE 		bne	.L24
 1062              		.loc 1 178 0
 1063 0258 2268     		ldr	r2, [r4, #0]
 1064 025a 111B     		subs	r1, r2, r4
 1065 025c 0820     		movs	r0, #8
 1066 025e D1F1000E 		rsbs	lr, r1, #0
 1067 0262 4EEB0101 		adc	r1, lr, r1
 1068 0266 FFF7FEFF 		bl	_test_assert
 1069 026a 0028     		cmp	r0, #0
 1070 026c 7FF4DBAE 		bne	.L24
 1071              		.loc 1 179 0
 1072 0270 A368     		ldr	r3, [r4, #8]
 1073 0272 0920     		movs	r0, #9
 1074 0274 D3F10101 		rsbs	r1, r3, #1
 1075 0278 38BF     		it	cc
 1076 027a 0021     		movcc	r1, #0
 1077 027c FFF7FEFF 		bl	_test_assert
 1078 0280 0028     		cmp	r0, #0
 1079 0282 7FF4D0AE 		bne	.L24
ARM GAS  /tmp/ccMKXTYz.s 			page 20


 1080              	.LVL66:
 1081              		.loc 1 181 0
 1082 0286 40F20001 		movw	r1, #:lower16:.LC5
 1083 028a 0A20     		movs	r0, #10
 1084 028c C0F20001 		movt	r1, #:upper16:.LC5
 1085 0290 FFF7FEFF 		bl	_test_assert_sequence
 1086 0294 0028     		cmp	r0, #0
 1087 0296 7FF4C6AE 		bne	.L24
 1088              		.loc 1 173 0
 1089 029a 06F51C62 		add	r2, r6, #2496
 1090              		.loc 1 182 0
 1091 029e 111D     		adds	r1, r2, #4
 1092 02a0 0B20     		movs	r0, #11
 1093 02a2 0932     		adds	r2, r2, #9
 1094              	.LBE23:
 1095              	.LBE22:
 1096              		.loc 1 183 0
 1097 02a4 02B0     		add	sp, sp, #8
 1098 02a6 BDE87040 		pop	{r4, r5, r6, lr}
 1099              	.LBB25:
 1100              	.LBB24:
 1101              		.loc 1 182 0
 1102 02aa FFF7FEBF 		b	_test_assert_time_window
 1103              	.LBE24:
 1104              	.LBE25:
 1105              		.cfi_endproc
 1106              	.LFE12:
 1107              		.size	sem2_execute, .-sem2_execute
 1108              		.global	patternsem
 1109              		.global	testsem4
 1110              		.global	testsem3
 1111              		.global	testsem2
 1112              		.global	testsem1
 1113 02ae 00BF     		.section	.rodata.testsem1,"a",%progbits
 1114              		.align	2
 1115              		.type	testsem1, %object
 1116              		.size	testsem1, 16
 1117              	testsem1:
 1118 0000 74000000 		.word	.LC9
 1119 0004 00000000 		.word	sem1_setup
 1120 0008 00000000 		.word	0
 1121 000c 00000000 		.word	sem1_execute
 1122              		.section	.rodata.testsem2,"a",%progbits
 1123              		.align	2
 1124              		.type	testsem2, %object
 1125              		.size	testsem2, 16
 1126              	testsem2:
 1127 0000 60000000 		.word	.LC8
 1128 0004 00000000 		.word	sem2_setup
 1129 0008 00000000 		.word	0
 1130 000c 00000000 		.word	sem2_execute
 1131              		.section	.rodata.testsem3,"a",%progbits
 1132              		.align	2
 1133              		.type	testsem3, %object
 1134              		.size	testsem3, 16
 1135              	testsem3:
 1136 0000 40000000 		.word	.LC7
ARM GAS  /tmp/ccMKXTYz.s 			page 21


 1137 0004 00000000 		.word	sem3_setup
 1138 0008 00000000 		.word	0
 1139 000c 00000000 		.word	sem3_execute
 1140              		.section	.rodata.testsem4,"a",%progbits
 1141              		.align	2
 1142              		.type	testsem4, %object
 1143              		.size	testsem4, 16
 1144              	testsem4:
 1145 0000 1C000000 		.word	.LC6
 1146 0004 00000000 		.word	0
 1147 0008 00000000 		.word	0
 1148 000c 00000000 		.word	sem4_execute
 1149              		.section	.data.sem1,"aw",%progbits
 1150              		.align	2
 1151              		.set	.LANCHOR0,. + 0
 1152              		.type	sem1, %object
 1153              		.size	sem1, 12
 1154              	sem1:
 1155 0000 00000000 		.word	sem1
 1156 0004 00000000 		.word	sem1
 1157 0008 00000000 		.word	0
 1158              		.section	.rodata.patternsem,"a",%progbits
 1159              		.align	2
 1160              		.type	patternsem, %object
 1161              		.size	patternsem, 20
 1162              	patternsem:
 1163 0000 00000000 		.word	testsem1
 1164 0004 00000000 		.word	testsem2
 1165 0008 00000000 		.word	testsem3
 1166 000c 00000000 		.word	testsem4
 1167 0010 00000000 		.word	0
 1168              		.section	.rodata.str1.4,"aMS",%progbits,1
 1169              		.align	2
 1170              	.LC0:
 1171 0000 4100     		.ascii	"A\000"
 1172 0002 0000     		.space	2
 1173              	.LC1:
 1174 0004 4200     		.ascii	"B\000"
 1175 0006 0000     		.space	2
 1176              	.LC2:
 1177 0008 4300     		.ascii	"C\000"
 1178 000a 0000     		.space	2
 1179              	.LC3:
 1180 000c 4400     		.ascii	"D\000"
 1181 000e 0000     		.space	2
 1182              	.LC4:
 1183 0010 4500     		.ascii	"E\000"
 1184 0012 0000     		.space	2
 1185              	.LC5:
 1186 0014 41424344 		.ascii	"ABCDE\000"
 1186      4500
 1187 001a 0000     		.space	2
 1188              	.LC6:
 1189 001c 42696E61 		.ascii	"Binary Semaphores, functionality\000"
 1189      72792053 
 1189      656D6170 
 1189      686F7265 
ARM GAS  /tmp/ccMKXTYz.s 			page 22


 1189      732C2066 
 1190 003d 000000   		.space	3
 1191              	.LC7:
 1192 0040 53656D61 		.ascii	"Semaphores, atomic signal-wait\000"
 1192      70686F72 
 1192      65732C20 
 1192      61746F6D 
 1192      69632073 
 1193 005f 00       		.space	1
 1194              	.LC8:
 1195 0060 53656D61 		.ascii	"Semaphores, timeout\000"
 1195      70686F72 
 1195      65732C20 
 1195      74696D65 
 1195      6F757400 
 1196              	.LC9:
 1197 0074 53656D61 		.ascii	"Semaphores, enqueuing\000"
 1197      70686F72 
 1197      65732C20 
 1197      656E7175 
 1197      6575696E 
 1198 008a 0000     		.text
 1199              	.Letext0:
 1200              		.file 2 "/home/lithium/Documents/arm-2011q3/bin/../lib/gcc/arm-none-eabi/4.6.1/../../../../arm-non
 1201              		.file 3 "../../os/ports/GCC/ARMCMx/chtypes.h"
 1202              		.file 4 "../../os/kernel/include/chlists.h"
 1203              		.file 5 "../../os/kernel/include/chthreads.h"
 1204              		.file 6 "../../os/ports/GCC/ARMCMx/chcore_v7m.h"
 1205              		.file 7 "../../os/kernel/include/chvt.h"
 1206              		.file 8 "../../os/kernel/include/chschd.h"
 1207              		.file 9 "../../os/kernel/include/chsem.h"
 1208              		.file 10 "../../os/kernel/include/chbsem.h"
 1209              		.file 11 "../../os/kernel/include/chmtx.h"
 1210              		.file 12 "../../test/test.h"